
hello_sw.elf:     file format elf32-littlenios2
hello_sw.elf
architecture: nios2:r1, flags 0x00000112:
EXEC_P, HAS_SYMS, D_PAGED
start address 0x0002023c

Program Header:
    LOAD off    0x00001000 vaddr 0x00020000 paddr 0x00020000 align 2**12
         filesz 0x00000020 memsz 0x00000020 flags r-x
    LOAD off    0x00001020 vaddr 0x00020020 paddr 0x00020020 align 2**12
         filesz 0x00015060 memsz 0x00015060 flags r-x
    LOAD off    0x00016080 vaddr 0x00035080 paddr 0x00036c88 align 2**12
         filesz 0x00001c08 memsz 0x00001c08 flags rw-
    LOAD off    0x00018890 vaddr 0x00038890 paddr 0x00038890 align 2**12
         filesz 0x00000000 memsz 0x0000016c flags rw-

Sections:
Idx Name          Size      VMA       LMA       File off  Algn
  0 .entry        00000020  00020000  00020000  00001000  2**5
                  CONTENTS, ALLOC, LOAD, READONLY, CODE
  1 .exceptions   0000021c  00020020  00020020  00001020  2**2
                  CONTENTS, ALLOC, LOAD, READONLY, CODE
  2 .text         0001440c  0002023c  0002023c  0000123c  2**2
                  CONTENTS, ALLOC, LOAD, READONLY, CODE
  3 .rodata       00000a38  00034648  00034648  00015648  2**2
                  CONTENTS, ALLOC, LOAD, READONLY, DATA
  4 .rwdata       00001c08  00035080  00036c88  00016080  2**2
                  CONTENTS, ALLOC, LOAD, DATA, SMALL_DATA
  5 .bss          0000016c  00038890  00038890  00018890  2**2
                  ALLOC, SMALL_DATA
  6 .onchip_memory 00000000  000389fc  000389fc  00017c88  2**0
                  CONTENTS
  7 .comment      0000002c  00000000  00000000  00017c88  2**0
                  CONTENTS, READONLY
  8 .debug_aranges 00001568  00000000  00000000  00017cb8  2**3
                  CONTENTS, READONLY, DEBUGGING
  9 .debug_info   00061a21  00000000  00000000  00019220  2**0
                  CONTENTS, READONLY, DEBUGGING
 10 .debug_abbrev 000144ad  00000000  00000000  0007ac41  2**0
                  CONTENTS, READONLY, DEBUGGING
 11 .debug_line   00021523  00000000  00000000  0008f0ee  2**0
                  CONTENTS, READONLY, DEBUGGING
 12 .debug_frame  00002d64  00000000  00000000  000b0614  2**2
                  CONTENTS, READONLY, DEBUGGING
 13 .debug_str    00004f2b  00000000  00000000  000b3378  2**0
                  CONTENTS, READONLY, DEBUGGING
 14 .debug_loc    00026056  00000000  00000000  000b82a3  2**0
                  CONTENTS, READONLY, DEBUGGING
 15 .debug_alt_sim_info 00000030  00000000  00000000  000de2fc  2**2
                  CONTENTS, READONLY, DEBUGGING
 16 .debug_ranges 00002558  00000000  00000000  000de330  2**3
                  CONTENTS, READONLY, DEBUGGING
 17 .thread_model 00000003  00000000  00000000  000e47d6  2**0
                  CONTENTS, READONLY
 18 .cpu          00000003  00000000  00000000  000e47d9  2**0
                  CONTENTS, READONLY
 19 .qsys         00000001  00000000  00000000  000e47dc  2**0
                  CONTENTS, READONLY
 20 .simulation_enabled 00000001  00000000  00000000  000e47dd  2**0
                  CONTENTS, READONLY
 21 .sysid_hash   00000004  00000000  00000000  000e47de  2**0
                  CONTENTS, READONLY
 22 .sysid_base   00000004  00000000  00000000  000e47e2  2**0
                  CONTENTS, READONLY
 23 .sysid_time   00000004  00000000  00000000  000e47e6  2**0
                  CONTENTS, READONLY
 24 .stderr_dev   00000009  00000000  00000000  000e47ea  2**0
                  CONTENTS, READONLY
 25 .stdin_dev    00000009  00000000  00000000  000e47f3  2**0
                  CONTENTS, READONLY
 26 .stdout_dev   00000009  00000000  00000000  000e47fc  2**0
                  CONTENTS, READONLY
 27 .sopc_system_name 00000012  00000000  00000000  000e4805  2**0
                  CONTENTS, READONLY
 28 .quartus_project_dir 00000020  00000000  00000000  000e4817  2**0
                  CONTENTS, READONLY
 29 .jdi          00004fec  00000000  00000000  000e4837  2**0
                  CONTENTS, READONLY
 30 .sopcinfo     00048eb2  00000000  00000000  000e9823  2**0
                  CONTENTS, READONLY
SYMBOL TABLE:
00020000 l    d  .entry	00000000 .entry
00020020 l    d  .exceptions	00000000 .exceptions
0002023c l    d  .text	00000000 .text
00034648 l    d  .rodata	00000000 .rodata
00035080 l    d  .rwdata	00000000 .rwdata
00038890 l    d  .bss	00000000 .bss
000389fc l    d  .onchip_memory	00000000 .onchip_memory
00000000 l    d  .comment	00000000 .comment
00000000 l    d  .debug_aranges	00000000 .debug_aranges
00000000 l    d  .debug_info	00000000 .debug_info
00000000 l    d  .debug_abbrev	00000000 .debug_abbrev
00000000 l    d  .debug_line	00000000 .debug_line
00000000 l    d  .debug_frame	00000000 .debug_frame
00000000 l    d  .debug_str	00000000 .debug_str
00000000 l    d  .debug_loc	00000000 .debug_loc
00000000 l    d  .debug_alt_sim_info	00000000 .debug_alt_sim_info
00000000 l    d  .debug_ranges	00000000 .debug_ranges
00000000 l    df *ABS*	00000000 /home/nik/eie/ip/lab4/jtag-uart-test/software/hello_sw_bsp//obj/HAL/src/crt0.o
00020284 l       .text	00000000 alt_after_alt_main
00000000 l    df *ABS*	00000000 alt_irq_handler.c
00000000 l    df *ABS*	00000000 alt_instruction_exception_entry.c
00000000 l    df *ABS*	00000000 hello_world.c
00000000 l    df *ABS*	00000000 s_round.c
00000000 l    df *ABS*	00000000 lib2-divmod.c
00000000 l    df *ABS*	00000000 addsf3.c
00000000 l    df *ABS*	00000000 mulsf3.c
00000000 l    df *ABS*	00000000 fixsfsi.c
00000000 l    df *ABS*	00000000 floatsisf.c
00000000 l    df *ABS*	00000000 adddf3.c
00000000 l    df *ABS*	00000000 fixdfsi.c
00000000 l    df *ABS*	00000000 floatsidf.c
00000000 l    df *ABS*	00000000 extendsfdf2.c
00000000 l    df *ABS*	00000000 truncdfsf2.c
00000000 l    df *ABS*	00000000 libgcc2.c
00000000 l    df *ABS*	00000000 libgcc2.c
00000000 l    df *ABS*	00000000 atof.c
00000000 l    df *ABS*	00000000 fopen.c
00000000 l    df *ABS*	00000000 fprintf.c
00000000 l    df *ABS*	00000000 fseek.c
00000000 l    df *ABS*	00000000 fseeko.c
00000000 l    df *ABS*	00000000 fstatr.c
00000000 l    df *ABS*	00000000 getc.c
00000000 l    df *ABS*	00000000 impure.c
00035080 l     O .rwdata	00000424 impure_data
00000000 l    df *ABS*	00000000 int_errno.c
00000000 l    df *ABS*	00000000 makebuf.c
00000000 l    df *ABS*	00000000 malloc.c
00000000 l    df *ABS*	00000000 mallocr.c
00000000 l    df *ABS*	00000000 memcpy.c
00000000 l    df *ABS*	00000000 memset.c
00000000 l    df *ABS*	00000000 openr.c
00000000 l    df *ABS*	00000000 printf.c
00000000 l    df *ABS*	00000000 puts.c
00000000 l    df *ABS*	00000000 refill.c
00023b3c l     F .text	0000001c lflush
00000000 l    df *ABS*	00000000 rget.c
00000000 l    df *ABS*	00000000 sbrkr.c
00000000 l    df *ABS*	00000000 stdio.c
00000000 l    df *ABS*	00000000 strlen.c
00000000 l    df *ABS*	00000000 strncat.c
00000000 l    df *ABS*	00000000 strtod.c
00024084 l     F .text	00000064 sulp
000349ac l     O .rodata	00000028 tinytens
00034998 l     O .rodata	00000014 fpi.4065
00034984 l     O .rodata	00000014 fpinan.4101
00000000 l    df *ABS*	00000000 vfprintf.c
000279ec l     F .text	000000c0 __sbprintf
00034a28 l     O .rodata	00000010 blanks.5176
00034a18 l     O .rodata	00000010 zeroes.5177
00000000 l    df *ABS*	00000000 writer.c
00000000 l    df *ABS*	00000000 wsetup.c
00000000 l    df *ABS*	00000000 closer.c
00000000 l    df *ABS*	00000000 dtoa.c
00027cc4 l     F .text	000001fc quorem
00000000 l    df *ABS*	00000000 fflush.c
00000000 l    df *ABS*	00000000 findfp.c
000298c0 l     F .text	00000008 __fp_lock
000298d4 l     F .text	00000168 __sinit.part.0
00029a3c l     F .text	00000008 __fp_unlock
00000000 l    df *ABS*	00000000 flags.c
00000000 l    df *ABS*	00000000 mallocr.c
00000000 l    df *ABS*	00000000 fvwrite.c
00000000 l    df *ABS*	00000000 fwalk.c
00000000 l    df *ABS*	00000000 gdtoa-gethex.c
0002a6d0 l     F .text	000000dc rshift
00000000 l    df *ABS*	00000000 gdtoa-hexnan.c
00000000 l    df *ABS*	00000000 isattyr.c
00000000 l    df *ABS*	00000000 lnumeric.c
00036c5c l     O .rwdata	00000002 numempty
00000000 l    df *ABS*	00000000 locale.c
00000000 l    df *ABS*	00000000 localeconv.c
00000000 l    df *ABS*	00000000 lseekr.c
00000000 l    df *ABS*	00000000 mbtowc_r.c
00000000 l    df *ABS*	00000000 memchr.c
00000000 l    df *ABS*	00000000 memmove.c
00000000 l    df *ABS*	00000000 mprec.c
00034c34 l     O .rodata	0000000c p05.3991
00000000 l    df *ABS*	00000000 readr.c
00000000 l    df *ABS*	00000000 mallocr.c
00000000 l    df *ABS*	00000000 strcmp.c
00000000 l    df *ABS*	00000000 strncmp.c
00000000 l    df *ABS*	00000000 vfprintf.c
0002ce4c l     F .text	000000f4 __sprint_r.part.0
0002e278 l     F .text	000000c0 __sbprintf
00034d68 l     O .rodata	00000010 blanks.5153
00034d58 l     O .rodata	00000010 zeroes.5154
00000000 l    df *ABS*	00000000 wctomb_r.c
00000000 l    df *ABS*	00000000 assert.c
00000000 l    df *ABS*	00000000 mallocr.c
00000000 l    df *ABS*	00000000 ctype_.c
00000000 l    df *ABS*	00000000 fclose.c
00000000 l    df *ABS*	00000000 fiprintf.c
00000000 l    df *ABS*	00000000 fputwc.c
00000000 l    df *ABS*	00000000 vfiprintfr_1.c
00000000 l    df *ABS*	00000000 wbuf.c
00000000 l    df *ABS*	00000000 wcrtomb.c
00000000 l    df *ABS*	00000000 abort.c
00000000 l    df *ABS*	00000000 signal.c
0002ea70 l     F .text	0000004c _init_signal_r.part.0
00000000 l    df *ABS*	00000000 signalr.c
00000000 l    df *ABS*	00000000 libgcc2.c
00000000 l    df *ABS*	00000000 libgcc2.c
00000000 l    df *ABS*	00000000 libgcc2.c
00000000 l    df *ABS*	00000000 libgcc2.c
00000000 l    df *ABS*	00000000 libgcc2.c
00000000 l    df *ABS*	00000000 libgcc2.c
00000000 l    df *ABS*	00000000 eqsf2.c
00000000 l    df *ABS*	00000000 lesf2.c
00000000 l    df *ABS*	00000000 unordsf2.c
00000000 l    df *ABS*	00000000 divdf3.c
00000000 l    df *ABS*	00000000 eqdf2.c
00000000 l    df *ABS*	00000000 gedf2.c
00000000 l    df *ABS*	00000000 ledf2.c
00000000 l    df *ABS*	00000000 muldf3.c
00000000 l    df *ABS*	00000000 subdf3.c
00000000 l    df *ABS*	00000000 unorddf2.c
00000000 l    df *ABS*	00000000 floatunsidf.c
00000000 l    df *ABS*	00000000 alt_close.c
00031700 l     F .text	0000003c alt_get_errno
00000000 l    df *ABS*	00000000 alt_dev.c
0003180c l     F .text	0000002c alt_dev_null_write
00000000 l    df *ABS*	00000000 alt_errno.c
00000000 l    df *ABS*	00000000 alt_exit.c
00000000 l    df *ABS*	00000000 alt_fstat.c
00031870 l     F .text	0000003c alt_get_errno
00000000 l    df *ABS*	00000000 alt_getpid.c
00000000 l    df *ABS*	00000000 alt_irq_register.c
00000000 l    df *ABS*	00000000 alt_irq_vars.c
00000000 l    df *ABS*	00000000 alt_isatty.c
00031afc l     F .text	0000003c alt_get_errno
00000000 l    df *ABS*	00000000 alt_kill.c
00031bdc l     F .text	0000003c alt_get_errno
00000000 l    df *ABS*	00000000 alt_load.c
00031d44 l     F .text	00000068 alt_load_section
00000000 l    df *ABS*	00000000 alt_lseek.c
00031e30 l     F .text	0000003c alt_get_errno
00000000 l    df *ABS*	00000000 alt_main.c
00000000 l    df *ABS*	00000000 alt_malloc_lock.c
00000000 l    df *ABS*	00000000 alt_open.c
00032004 l     F .text	0000003c alt_get_errno
00032040 l     F .text	000000b8 alt_file_locked
00000000 l    df *ABS*	00000000 alt_printf.c
00000000 l    df *ABS*	00000000 alt_putchar.c
00000000 l    df *ABS*	00000000 alt_read.c
000324a8 l     F .text	0000003c alt_get_errno
00000000 l    df *ABS*	00000000 alt_release_fd.c
00000000 l    df *ABS*	00000000 alt_sbrk.c
00036c7c l     O .rwdata	00000004 heap_end
00000000 l    df *ABS*	00000000 alt_write.c
000326f0 l     F .text	0000003c alt_get_errno
00000000 l    df *ABS*	00000000 alt_sys_init.c
00032824 l     F .text	00000034 alt_dev_reg
00035bc0 l     O .rwdata	00001060 jtag_uart
00036c20 l     O .rwdata	0000002c accelerometer_spi
00000000 l    df *ABS*	00000000 altera_avalon_jtag_uart_fd.c
00000000 l    df *ABS*	00000000 altera_avalon_jtag_uart_init.c
00032b34 l     F .text	00000210 altera_avalon_jtag_uart_irq
00032d44 l     F .text	000000a0 altera_avalon_jtag_uart_timeout
00000000 l    df *ABS*	00000000 altera_avalon_jtag_uart_ioctl.c
00000000 l    df *ABS*	00000000 altera_avalon_jtag_uart_read.c
00000000 l    df *ABS*	00000000 altera_avalon_jtag_uart_write.c
00000000 l    df *ABS*	00000000 altera_avalon_timer_sc.c
00033388 l     F .text	00000080 alt_avalon_timer_sc_irq
00000000 l    df *ABS*	00000000 altera_avalon_timer_vars.c
00000000 l    df *ABS*	00000000 altera_up_avalon_accelerometer_spi.c
00000000 l    df *ABS*	00000000 alt_alarm_start.c
00000000 l    df *ABS*	00000000 alt_dcache_flush_all.c
00000000 l    df *ABS*	00000000 alt_dev_llist_insert.c
000339d0 l     F .text	0000003c alt_get_errno
00000000 l    df *ABS*	00000000 alt_do_ctors.c
00000000 l    df *ABS*	00000000 alt_do_dtors.c
00000000 l    df *ABS*	00000000 alt_find_dev.c
00000000 l    df *ABS*	00000000 alt_find_file.c
00000000 l    df *ABS*	00000000 alt_get_fd.c
00000000 l    df *ABS*	00000000 alt_icache_flush_all.c
00000000 l    df *ABS*	00000000 alt_io_redirect.c
00033de8 l     F .text	000000b0 alt_open_fd
00000000 l    df *ABS*	00000000 alt_tick.c
00000000 l    df *ABS*	00000000 altera_nios2_gen2_irq.c
00000000 l    df *ABS*	00000000 alt_icache_flush.c
00000000 l    df *ABS*	00000000 atexit.c
00000000 l    df *ABS*	00000000 exit.c
00000000 l    df *ABS*	00000000 memcmp.c
00000000 l    df *ABS*	00000000 putchar.c
00000000 l    df *ABS*	00000000 __atexit.c
00000000 l    df *ABS*	00000000 __call_atexit.c
00000000 l    df *ABS*	00000000 putc.c
000388d0 g     O .bss	00000004 alt_instruction_exception_handler
000342d4 g     F .text	00000018 putchar
0002c5cc g     F .text	00000070 _mprec_log10
0002c6a8 g     F .text	00000060 __any_on
0002b2a0 g     F .text	00000058 _isatty_r
00034c40 g     O .rodata	00000028 __mprec_tinytens
00031f40 g     F .text	0000007c alt_main
00020288 g     F .text	00000034 led_write
00023a60 g     F .text	000000cc _puts_r
000388fc g     O .bss	00000100 alt_irq
0002b3b8 g     F .text	00000064 _lseek_r
00036c88 g       *ABS*	00000000 __flash_rwdata_start
00029c04 g     F .text	000000b8 __sflags
00030418 g     F .text	00000080 .hidden __eqdf2
000389fc g       *ABS*	00000000 __alt_heap_start
0002ef00 g     F .text	00000070 .hidden __floatdidf
0002ed24 g     F .text	00000060 _kill_r
00023a28 g     F .text	00000038 printf
0002e964 g     F .text	0000006c _wcrtomb_r
0002ead0 g     F .text	00000084 _signal_r
00023edc g     F .text	0000005c __sseek
00029bbc g     F .text	00000010 __sinit
0002e804 g     F .text	00000148 __swbuf_r
0002b300 g     F .text	00000074 _setlocale_r
00029a44 g     F .text	00000068 __sfmoreglue
00031fe0 g     F .text	00000024 __malloc_unlock
00020cc8 g     F .text	000000e4 round
00025630 g     F .text	0000000c _strtod_r
000388c4 g     O .bss	00000004 altera_avalon_timer_ts_freq
0002b540 g     F .text	0000012c memmove
00029ba8 g     F .text	00000014 _cleanup
0002b66c g     F .text	000000a4 _Balloc
0002176c g     F .text	00000070 .hidden __fixsfsi
0002034c g     F .text	000000cc sys_timer_isr
00030498 g     F .text	000000f0 .hidden __gtdf2
000340c0 g     F .text	00000024 altera_nios2_gen2_irq_init
00020000 g     F .entry	0000001c __reset
0002b398 g     F .text	00000008 __localeconv_l
000335d4 g     F .text	000000d4 alt_up_accelerometer_spi_read_x_axis
00020020 g       *ABS*	00000000 __flash_exceptions_start
00022c60 g     F .text	00000060 _fstat_r
0003889c g     O .bss	00000004 errno
00023d98 g     F .text	00000010 __srget
00023e54 g     F .text	00000008 __seofread
000388b8 g     O .bss	00000004 alt_argv
0003ec4c g       *ABS*	00000000 _gp
0003195c g     F .text	00000020 getpid
00035a40 g     O .rwdata	00000180 alt_fd_list
00022cc0 g     F .text	0000007c _getc_r
00022d3c g     F .text	00000090 getc
000342cc g     F .text	00000008 _putchar_r
00033b7c g     F .text	00000090 alt_find_dev
000237a4 g     F .text	00000100 memcpy
0002b038 g     F .text	00000268 __hexnan
000298c8 g     F .text	0000000c _cleanup_r
000222f8 g     F .text	000000bc .hidden __floatsidf
00033e98 g     F .text	0000007c alt_io_redirect
00030588 g     F .text	000000f0 .hidden __ltdf2
00034648 g       *ABS*	00000000 __DTOR_END__
00023b2c g     F .text	00000010 puts
00034174 g     F .text	00000098 alt_exception_cause_generated_bad_addr
0002c524 g     F .text	000000a8 __ratio
0002e25c g     F .text	0000001c __vfiprintf_internal
00032f40 g     F .text	00000220 altera_avalon_jtag_uart_read
00022fa4 g     F .text	00000010 malloc
000239f8 g     F .text	00000030 _printf_r
00020ea0 g     F .text	00000064 .hidden __udivsi3
00031b38 g     F .text	000000a4 isatty
0002eb54 g     F .text	000000c4 _raise_r
0002e374 g     F .text	00000064 __assert_func
00034c90 g     O .rodata	000000c8 __mprec_tens
0002faac g     F .text	000000c0 .hidden __lesf2
0002ed88 g     F .text	00000074 .hidden __fixunsdfsi
000340e4 g     F .text	00000090 alt_icache_flush
000388a8 g     O .bss	00000004 __malloc_top_pad
0002ed84 g     F .text	00000004 _getpid_r
0002b3a0 g     F .text	0000000c _localeconv_r
0002bab8 g     F .text	00000054 __i2b
0002a0d4 g     F .text	000004bc __sfvwrite_r
0002ec18 g     F .text	000000b8 __sigtramp_r
00023da8 g     F .text	00000058 _sbrk_r
0002c708 g     F .text	00000064 _read_r
00036c70 g     O .rwdata	00000004 alt_max_fd
0002e4a0 g     F .text	000000f8 _fclose_r
00029898 g     F .text	00000028 fflush
000388a4 g     O .bss	00000004 __malloc_max_sbrked_mem
0003197c g     F .text	00000180 alt_irq_register
000223b4 g     F .text	000000fc .hidden __extendsfdf2
00021900 g     F .text	00000978 .hidden __adddf3
0002fa34 g     F .text	00000078 .hidden __nesf2
0002c2bc g     F .text	00000104 __b2d
0002f500 g     F .text	00000534 .hidden __umoddi3
00031e6c g     F .text	000000d4 lseek
00036c4c g     O .rwdata	00000004 _global_impure_ptr
0002c76c g     F .text	00000564 _realloc_r
000389fc g       *ABS*	00000000 __bss_end
00033fb8 g     F .text	00000108 alt_tick
00034adc g     O .rodata	00000100 __hexdig
0002ef70 g     F .text	00000590 .hidden __udivdi3
0002e764 g     F .text	00000024 _fputwc_r
00034c68 g     O .rodata	00000028 __mprec_bigtens
0002b86c g     F .text	00000138 __s2b
0002ea58 g     F .text	00000018 abort
00031670 g     F .text	00000090 .hidden __floatunsidf
0002bfdc g     F .text	00000058 __mcmp
00029bdc g     F .text	00000014 __fp_lock_all
00033f14 g     F .text	000000a4 alt_alarm_stop
000388b0 g     O .bss	00000004 alt_irq_active
000227f0 g     F .text	00000454 _fseeko_r
000200fc g     F .exceptions	000000cc alt_irq_handler
00035a18 g     O .rwdata	00000028 alt_dev_null
000240e8 g     F .text	00001548 _strtod_l
0002afe8 g     F .text	00000050 __match
00033984 g     F .text	0000004c alt_dcache_flush_all
0002b9a4 g     F .text	00000064 __hi0bits
00022278 g     F .text	00000080 .hidden __fixdfsi
00025658 g     F .text	00000020 strtod
00036c88 g       *ABS*	00000000 __ram_rwdata_end
00020418 g     F .text	0000007c timer_init
00020000 g       *ABS*	00000000 __alt_mem_onchip_memory
00036c68 g     O .rwdata	00000008 alt_dev_list
0003272c g     F .text	000000f8 write
0003449c g     F .text	000000cc _putc_r
00022674 g     F .text	00000008 atof
00035080 g       *ABS*	00000000 __ram_rodata_end
000318ac g     F .text	000000b0 fstat
000227ac g     F .text	00000024 fprintf
00031c18 g     F .text	0000012c kill
00030588 g     F .text	000000f0 .hidden __ledf2
00025678 g     F .text	00000120 strtof_l
0002bd3c g     F .text	00000118 __pow5mult
00038894 g     O .bss	00000001 led
0002cf58 g     F .text	00001304 ___vfiprintf_internal_r
00020f04 g     F .text	0000005c .hidden __umodsi3
000389fc g       *ABS*	00000000 end
00022c44 g     F .text	0000001c fseeko
000227d4 g     F .text	0000001c fseek
00032a80 g     F .text	000000b4 altera_avalon_jtag_uart_init
000201c8 g     F .exceptions	00000074 alt_instruction_exception_entry
00034648 g       *ABS*	00000000 __CTOR_LIST__
00040000 g       *ABS*	00000000 __alt_stack_pointer
00033408 g     F .text	0000007c alt_avalon_timer_sc_init
00022620 g     F .text	00000054 .hidden __clzsi2
00033160 g     F .text	00000228 altera_avalon_jtag_uart_write
00029bcc g     F .text	00000004 __sfp_lock_acquire
0002b46c g     F .text	000000d4 memchr
000258f4 g     F .text	000020dc ___vfprintf_internal_r
00029dd8 g     F .text	000002fc _free_r
0003224c g     F .text	0000022c alt_printf
00034ebc g     O .rodata	00000180 _ctype_b
0002b374 g     F .text	0000000c __locale_mb_cur_max
0003437c g     F .text	00000120 __call_exitprocs
00023d24 g     F .text	00000074 __srget_r
00036c54 g     O .rwdata	00000004 __malloc_sbrk_base
0002023c g     F .text	0000004c _start
00038898 g     O .bss	00000004 level
000388c8 g     O .bss	00000004 _alt_tick_rate
0002be54 g     F .text	00000188 __lshift
000388cc g     O .bss	00000004 _alt_nticks
0002ece0 g     F .text	00000018 signal
000324e4 g     F .text	000000fc read
00032894 g     F .text	00000088 alt_sys_init
000334c0 g     F .text	00000044 alt_up_accelerometer_spi_read_address_register
000217dc g     F .text	00000124 .hidden __floatsisf
00023994 g     F .text	00000064 _open_r
000342ec g     F .text	00000090 __register_exitproc
0002cd88 g     F .text	000000c4 strncmp
0002bb0c g     F .text	00000230 __multiply
00032de4 g     F .text	00000068 altera_avalon_jtag_uart_close
00035080 g       *ABS*	00000000 __ram_rwdata_start
00034648 g       *ABS*	00000000 __ram_rodata_start
000388d4 g     O .bss	00000028 __malloc_current_mallinfo
0002fa34 g     F .text	00000078 .hidden __eqsf2
0002c3c0 g     F .text	00000164 __d2b
0003291c g     F .text	00000060 altera_avalon_jtag_uart_read_fd
00033d14 g     F .text	000000a0 alt_get_fd
000336a8 g     F .text	000000d4 alt_up_accelerometer_spi_read_y_axis
00027c6c g     F .text	00000058 _close_r
00034254 g     F .text	00000078 memcmp
000329dc g     F .text	00000050 altera_avalon_jtag_uart_close_fd
000389fc g       *ABS*	00000000 __alt_stack_base
00032a2c g     F .text	00000054 altera_avalon_jtag_uart_ioctl_fd
00027b10 g     F .text	0000015c __swsetup_r
0002fbb8 g     F .text	00000860 .hidden __divdf3
00029aac g     F .text	000000fc __sfp
00023fd8 g     F .text	000000ac strncat
0002c63c g     F .text	0000006c __copybits
000354a4 g     O .rwdata	00000408 __malloc_av_
00029bd8 g     F .text	00000004 __sinit_lock_release
00030678 g     F .text	00000670 .hidden __muldf3
00023e00 g     F .text	00000054 __sread
00033c0c g     F .text	00000108 alt_find_file
00033a0c g     F .text	000000a8 alt_dev_llist_insert
00031fbc g     F .text	00000024 __malloc_lock
00022784 g     F .text	00000028 _fprintf_r
00032638 g     F .text	000000b8 sbrk
00029838 g     F .text	00000060 _fflush_r
0002e3ec g     F .text	000000b4 _calloc_r
0002276c g     F .text	00000018 fopen
00038890 g       *ABS*	00000000 __bss_start
000238a4 g     F .text	000000f0 memset
00020630 g     F .text	00000698 main
000388bc g     O .bss	00000004 alt_envp
000388a0 g     O .bss	00000004 __malloc_max_total_mem
0003297c g     F .text	00000060 altera_avalon_jtag_uart_write_fd
0002e94c g     F .text	00000018 __swbuf
0002faac g     F .text	000000c0 .hidden __ltsf2
00023f38 g     F .text	00000008 __sclose
00040000 g       *ABS*	00000000 __alt_heap_limit
0002e598 g     F .text	00000010 fclose
000224b0 g     F .text	00000170 .hidden __truncdfsf2
00027ec0 g     F .text	00001750 _dtoa_r
00022fc4 g     F .text	000007e0 _malloc_r
0002e344 g     F .text	00000030 __ascii_wctomb
00036c74 g     O .rwdata	00000004 alt_errno
0002e5a8 g     F .text	00000020 _fiprintf_r
0002ecf8 g     F .text	0000001c _init_signal
0002a590 g     F .text	00000098 _fwalk
0002b41c g     F .text	0000000c _mbtowc_r
00034568 g     F .text	000000e0 putc
00020dac g     F .text	00000080 .hidden __divsi3
00029cbc g     F .text	0000011c _malloc_trim_r
00034648 g       *ABS*	00000000 __CTOR_END__
000213bc g     F .text	000003b0 .hidden __mulsf3
0002ccd0 g     F .text	000000b8 strcmp
00034648 g       *ABS*	00000000 __flash_rodata_start
00034648 g       *ABS*	00000000 __DTOR_LIST__
0002ee70 g     F .text	00000090 .hidden __fixunsdfdi
00030418 g     F .text	00000080 .hidden __nedf2
00032858 g     F .text	0000003c alt_irq_init
000325e0 g     F .text	00000058 alt_release_fd
00034870 g     O .rodata	00000100 .hidden __clz_tab
000388ac g     O .bss	00000004 _PathLocale
0002edfc g     F .text	00000074 .hidden __fixdfdi
00025798 g     F .text	0000015c strtof
0002563c g     F .text	0000001c strtod_l
0003420c g     F .text	00000014 atexit
00027aac g     F .text	00000064 _write_r
0002b380 g     F .text	00000018 setlocale
00036c50 g     O .rwdata	00000004 _impure_ptr
000388b4 g     O .bss	00000004 alt_argc
00029610 g     F .text	00000228 __sflush_r
000388c0 g     O .bss	00000004 altera_avalon_timer_ts_base
00033b18 g     F .text	00000064 _do_dtors
000227d0 g     F .text	00000004 _fseek_r
00023b58 g     F .text	000001cc __srefill_r
00020020 g       .exceptions	00000000 alt_irq_entry
0002b428 g     F .text	00000044 __ascii_mbtowc
0002c260 g     F .text	0000005c __ulp
00029bf0 g     F .text	00000014 __fp_unlock_all
00038890 g     O .bss	00000001 pwm
00034be0 g     O .rodata	0000000c _C_numeric_locale
00036c60 g     O .rwdata	00000008 alt_fs_list
00020564 g     F .text	000000cc fir_quantized
00020020 g       *ABS*	00000000 __ram_exceptions_start
00033484 g     F .text	0000003c alt_up_accelerometer_spi_open_dev
0002b3ac g     F .text	0000000c localeconv
00022dcc g     F .text	00000098 __swhatbuf_r
00036c88 g       *ABS*	00000000 _edata
000389fc g       *ABS*	00000000 _end
0002fb6c g     F .text	0000004c .hidden __unordsf2
0002e600 g     F .text	00000164 __fputwc
0002023c g       *ABS*	00000000 __ram_exceptions_end
00032e4c g     F .text	000000f4 altera_avalon_jtag_uart_ioctl
00023e5c g     F .text	00000080 __swrite
00036c58 g     O .rwdata	00000004 __malloc_trim_threshold
00034220 g     F .text	00000034 exit
0002e5c8 g     F .text	00000038 fiprintf
0002e800 g     F .text	00000004 _vfiprintf_r
0002a628 g     F .text	000000a8 _fwalk_reent
0002c034 g     F .text	0000022c __mdiff
00020e2c g     F .text	00000074 .hidden __modsi3
0003377c g     F .text	000000d4 alt_up_accelerometer_spi_read_z_axis
00040000 g       *ABS*	00000000 __alt_data_end
00020020 g     F .exceptions	00000000 alt_exception
00029bd0 g     F .text	00000004 __sfp_lock_release
00034db8 g     O .rodata	00000101 _ctype_
0003161c g     F .text	00000054 .hidden __unorddf2
000202bc g     F .text	00000090 convert_read
0002267c g     F .text	000000f0 _fopen_r
00031838 g     F .text	00000038 _exit
00033850 g     F .text	00000134 alt_alarm_start
00033504 g     F .text	00000068 alt_up_accelerometer_spi_read
0003356c g     F .text	00000068 alt_up_accelerometer_spi_write
00022e64 g     F .text	00000140 __smakebuf_r
00023f40 g     F .text	00000098 strlen
0002eabc g     F .text	00000014 _init_signal_r
000320f8 g     F .text	00000154 open
00030498 g     F .text	000000f0 .hidden __gedf2
00032478 g     F .text	00000030 alt_putchar
0002a7ac g     F .text	0000083c __gethex
0002e3d8 g     F .text	00000014 __assert
0002cf40 g     F .text	00000018 __sprint_r
00033db4 g     F .text	00000034 alt_icache_flush_all
0002b2f8 g     F .text	00000008 __numeric_load_locale
00036c78 g     O .rwdata	00000004 alt_priority_mask
000279d0 g     F .text	0000001c __vfprintf_internal
0002e338 g     F .text	0000000c _wctomb_r
00030ce8 g     F .text	00000934 .hidden __subdf3
0002ba08 g     F .text	000000b0 __lo0bits
00036c80 g     O .rwdata	00000008 alt_alarm_list
00033ab4 g     F .text	00000064 _do_ctors
0002ed14 g     F .text	00000010 __sigtramp
0002e9d0 g     F .text	00000088 wcrtomb
0003173c g     F .text	000000d0 close
00020f60 g     F .text	0000045c .hidden __addsf3
000358ac g     O .rwdata	0000016c __global_locale
00031dac g     F .text	00000084 alt_load
00020494 g     F .text	000000d0 fir
0002e788 g     F .text	00000078 fputwc
0002ecd0 g     F .text	00000010 raise
00022fb4 g     F .text	00000010 free
00029bd4 g     F .text	00000004 __sinit_lock_acquire
0002b734 g     F .text	00000138 __multadd
0002b710 g     F .text	00000024 _Bfree



Disassembly of section .entry:

00020000 <__reset>:
#if NIOS2_ICACHE_SIZE > 0 && defined(ALT_ALLOW_CODE_AT_RESET) && (!defined(ALT_SIM_OPTIMIZE) || defined(NIOS2_ECC_PRESENT))
    /* Assume the instruction cache size is always a power of two. */
#if NIOS2_ICACHE_SIZE > 0x8000
    movhi r2, %hi(NIOS2_ICACHE_SIZE)
#else
    movui r2, NIOS2_ICACHE_SIZE
   20000:	00840014 	movui	r2,4096
#endif

0:
    initi r2
   20004:	1001483a 	initi	r2
    addi r2, r2, -NIOS2_ICACHE_LINE_SIZE
   20008:	10bff804 	addi	r2,r2,-32
    bgt r2, zero, 0b
   2000c:	00bffd16 	blt	zero,r2,20004 <__reset+0x4>
 * Jump to the _start entry point in the .text section if reset code
 * is allowed or if optimizing for RTL simulation.
 */
#if defined(ALT_ALLOW_CODE_AT_RESET) || defined(ALT_SIM_OPTIMIZE)
    /* Jump to the _start entry point in the .text section. */
    movhi r1, %hi(_start)
   20010:	004000b4 	movhi	at,2
    ori r1, r1, %lo(_start)
   20014:	08408f14 	ori	at,at,572
    jmp r1
   20018:	0800683a 	jmp	at
   2001c:	00000000 	call	0 <__alt_mem_onchip_memory-0x20000>

Disassembly of section .exceptions:

00020020 <alt_exception>:

#else /* ALT_EXCEPTION_STACK disabled */
        /* 
         * Reserve space on normal stack for registers about to be pushed.
         */
        addi  sp, sp, -76
   20020:	deffed04 	addi	sp,sp,-76
         * documentation for details).
         *
         * Leave a gap in the stack frame at 4(sp) for the muldiv handler to
         * store zero into.
         */
        stw   ra,  0(sp)
   20024:	dfc00015 	stw	ra,0(sp)
        stw   r1,   8(sp)
   20028:	d8400215 	stw	at,8(sp)
        stw   r2,  12(sp)
   2002c:	d8800315 	stw	r2,12(sp)
        stw   r3,  16(sp)
   20030:	d8c00415 	stw	r3,16(sp)
        stw   r4,  20(sp)
   20034:	d9000515 	stw	r4,20(sp)
        stw   r5,  24(sp)
   20038:	d9400615 	stw	r5,24(sp)
        stw   r6,  28(sp)
   2003c:	d9800715 	stw	r6,28(sp)
        stw   r7,  32(sp)
   20040:	d9c00815 	stw	r7,32(sp)
        rdctl r5, estatus   /* Read early to avoid usage stall */
   20044:	000b307a 	rdctl	r5,estatus
        stw   r8,  36(sp)
   20048:	da000915 	stw	r8,36(sp)
        stw   r9,  40(sp)
   2004c:	da400a15 	stw	r9,40(sp)
        stw   r10, 44(sp)
   20050:	da800b15 	stw	r10,44(sp)
        stw   r11, 48(sp)
   20054:	dac00c15 	stw	r11,48(sp)
        stw   r12, 52(sp)
   20058:	db000d15 	stw	r12,52(sp)
        stw   r13, 56(sp)
   2005c:	db400e15 	stw	r13,56(sp)
        stw   r14, 60(sp)
   20060:	db800f15 	stw	r14,60(sp)
        stw   r15, 64(sp)
   20064:	dbc01015 	stw	r15,64(sp)
        /*
         * ea-4 contains the address of the instruction being executed
         * when the exception occured. For interrupt exceptions, we will
         * will be re-issue the isntruction. Store it in 72(sp)
         */
        stw   r5,  68(sp)  /* estatus */
   20068:	d9401115 	stw	r5,68(sp)
        addi  r15, ea, -4  /* instruction that caused exception */
   2006c:	ebffff04 	addi	r15,ea,-4
        stw   r15,  72(sp)
   20070:	dbc01215 	stw	r15,72(sp)
#else
        /*
         * Test to see if the exception was a software exception or caused 
         * by an external interrupt, and vector accordingly.
         */
        rdctl r4, ipending
   20074:	0009313a 	rdctl	r4,ipending
        andi  r2, r5, 1
   20078:	2880004c 	andi	r2,r5,1
        beq   r2, zero, .Lnot_irq
   2007c:	10000326 	beq	r2,zero,2008c <alt_exception+0x6c>
        beq   r4, zero, .Lnot_irq
   20080:	20000226 	beq	r4,zero,2008c <alt_exception+0x6c>
        /*
         * Now that all necessary registers have been preserved, call 
         * alt_irq_handler() to process the interrupts.
         */

        call alt_irq_handler
   20084:	00200fc0 	call	200fc <alt_irq_handler>

        .section .exceptions.irqreturn, "xa"

        br    .Lexception_exit
   20088:	00000706 	br	200a8 <alt_exception+0x88>
         * upon completion, so we write ea (address of instruction *after*
         * the one where the exception occured) into 72(sp). The actual
         * instruction that caused the exception is written in r2, which these
         * handlers will utilize.
         */
        stw ea, 72(sp) /* EA is PC+4 so will skip over instruction causing exception */
   2008c:	df401215 	stw	ea,72(sp)
.Lunknown_16bit:
        addi.n r4, r4, 2 /* Need PC+2 to skip over instruction causing exception */
        stw r4, 72(sp)

#else /* CDX is not Enabled and all instructions are 32bits */
        ldw r2, -4(ea) /* Instruction value that caused exception */
   20090:	e8bfff17 	ldw	r2,-4(ea)
         * debugger is present) or go into an infinite loop since the
         * handling behavior is undefined; in that case we will not return here.
         */

        /* Load exception-causing address as first argument (r4) */
        addi   r4, ea, -4
   20094:	e93fff04 	addi	r4,ea,-4

        /* Call the instruction-exception entry */
        call   alt_instruction_exception_entry
   20098:	00201c80 	call	201c8 <alt_instruction_exception_entry>
         * instruction
         *
         * Return code was 0: Skip. The instruction after the exception is
         * already stored in 72(sp).
         */
        bne   r2, r0, .Lexception_exit
   2009c:	1000021e 	bne	r2,zero,200a8 <alt_exception+0x88>

        /*
         * Otherwise, modify 72(sp) to re-issue the instruction that caused the
         * exception.
         */
        addi  r15, ea, -4  /* instruction that caused exception */
   200a0:	ebffff04 	addi	r15,ea,-4
        stw   r15,  72(sp)
   200a4:	dbc01215 	stw	r15,72(sp)
        /* 
         * Restore the saved registers, so that all general purpose registers 
         * have been restored to their state at the time the interrupt occured.
         */

        ldw   r5,  68(sp)
   200a8:	d9401117 	ldw	r5,68(sp)
        ldw   ea,  72(sp)  /* This becomes the PC once eret is executed */
   200ac:	df401217 	ldw	ea,72(sp)
        ldw   ra,   0(sp)
   200b0:	dfc00017 	ldw	ra,0(sp)

        wrctl estatus, r5
   200b4:	2801707a 	wrctl	estatus,r5

        ldw   r1,   8(sp)
   200b8:	d8400217 	ldw	at,8(sp)
        ldw   r2,  12(sp)
   200bc:	d8800317 	ldw	r2,12(sp)
        ldw   r3,  16(sp)
   200c0:	d8c00417 	ldw	r3,16(sp)
        ldw   r4,  20(sp)
   200c4:	d9000517 	ldw	r4,20(sp)
        ldw   r5,  24(sp)
   200c8:	d9400617 	ldw	r5,24(sp)
        ldw   r6,  28(sp)
   200cc:	d9800717 	ldw	r6,28(sp)
        ldw   r7,  32(sp)
   200d0:	d9c00817 	ldw	r7,32(sp)

#if defined(ALT_EXCEPTION_STACK) && defined(ALT_STACK_CHECK)
        ldw   et, %gprel(alt_exception_old_stack_limit)(gp)
#endif

        ldw   r8,  36(sp)
   200d4:	da000917 	ldw	r8,36(sp)
        ldw   r9,  40(sp)
   200d8:	da400a17 	ldw	r9,40(sp)
        ldw   r10, 44(sp)
   200dc:	da800b17 	ldw	r10,44(sp)
        ldw   r11, 48(sp)
   200e0:	dac00c17 	ldw	r11,48(sp)
        ldw   r12, 52(sp)
   200e4:	db000d17 	ldw	r12,52(sp)
        ldw   r13, 56(sp)
   200e8:	db400e17 	ldw	r13,56(sp)
        ldw   r14, 60(sp)
   200ec:	db800f17 	ldw	r14,60(sp)
        ldw   r15, 64(sp)
   200f0:	dbc01017 	ldw	r15,64(sp)
        stw   et, %gprel(alt_stack_limit_value)(gp)
        stw   zero, %gprel(alt_exception_old_stack_limit)(gp)
#endif /* ALT_STACK_CHECK */
        ldw   sp,  76(sp)
#else /* ALT_EXCEPTION_STACK disabled */
        addi  sp, sp, 76
   200f4:	dec01304 	addi	sp,sp,76

        /*
         * Return to the interrupted instruction.
         */

        eret
   200f8:	ef80083a 	eret

000200fc <alt_irq_handler>:
 * instruction is present if the macro ALT_CI_INTERRUPT_VECTOR defined.
 */

void alt_irq_handler (void) __attribute__ ((section (".exceptions")));
void alt_irq_handler (void)
{
   200fc:	defff904 	addi	sp,sp,-28
   20100:	dfc00615 	stw	ra,24(sp)
   20104:	df000515 	stw	fp,20(sp)
   20108:	df000504 	addi	fp,sp,20
  
  /*
   * Notify the operating system that we are at interrupt level.
   */ 
  
  ALT_OS_INT_ENTER();
   2010c:	0001883a 	nop
#ifndef NIOS2_EIC_PRESENT
static ALT_INLINE alt_u32 ALT_ALWAYS_INLINE alt_irq_pending (void)
{
  alt_u32 active;

  NIOS2_READ_IPENDING (active);
   20110:	0005313a 	rdctl	r2,ipending
   20114:	e0bffc15 	stw	r2,-16(fp)

  return active;
   20118:	e0bffc17 	ldw	r2,-16(fp)
   * Consider the case where the high priority interupt is asserted during
   * the interrupt entry sequence for a lower priority interrupt to see why
   * this is the case.
   */

  active = alt_irq_pending ();
   2011c:	e0bfff15 	stw	r2,-4(fp)

  do
  {
    i = 0;
   20120:	e03ffd15 	stw	zero,-12(fp)
    mask = 1;
   20124:	00800044 	movi	r2,1
   20128:	e0bffe15 	stw	r2,-8(fp)
     * called to clear the interrupt condition.
     */

    do
    {
      if (active & mask)
   2012c:	e0ffff17 	ldw	r3,-4(fp)
   20130:	e0bffe17 	ldw	r2,-8(fp)
   20134:	1884703a 	and	r2,r3,r2
   20138:	10001226 	beq	r2,zero,20184 <alt_irq_handler+0x88>
      { 
#ifdef ALT_ENHANCED_INTERRUPT_API_PRESENT
        alt_irq[i].handler(alt_irq[i].context); 
#else
        alt_irq[i].handler(alt_irq[i].context, i); 
   2013c:	e0bffd17 	ldw	r2,-12(fp)
   20140:	100690fa 	slli	r3,r2,3
   20144:	00800134 	movhi	r2,4
   20148:	1885883a 	add	r2,r3,r2
   2014c:	10e23f17 	ldw	r3,-30468(r2)
   20150:	e0bffd17 	ldw	r2,-12(fp)
   20154:	100890fa 	slli	r4,r2,3
   20158:	00800134 	movhi	r2,4
   2015c:	2085883a 	add	r2,r4,r2
   20160:	10a24017 	ldw	r2,-30464(r2)
   20164:	e17ffd17 	ldw	r5,-12(fp)
   20168:	1009883a 	mov	r4,r2
   2016c:	183ee83a 	callr	r3
#endif
        break;
   20170:	0001883a 	nop
  NIOS2_READ_IPENDING (active);
   20174:	0005313a 	rdctl	r2,ipending
   20178:	e0bffb15 	stw	r2,-20(fp)
  return active;
   2017c:	e0bffb17 	ldw	r2,-20(fp)
   20180:	00000706 	br	201a0 <alt_irq_handler+0xa4>
      }
      mask <<= 1;
   20184:	e0bffe17 	ldw	r2,-8(fp)
   20188:	1085883a 	add	r2,r2,r2
   2018c:	e0bffe15 	stw	r2,-8(fp)
      i++;
   20190:	e0bffd17 	ldw	r2,-12(fp)
   20194:	10800044 	addi	r2,r2,1
   20198:	e0bffd15 	stw	r2,-12(fp)
      if (active & mask)
   2019c:	003fe306 	br	2012c <alt_irq_handler+0x30>

    } while (1);

    active = alt_irq_pending ();
   201a0:	e0bfff15 	stw	r2,-4(fp)
    
  } while (active);
   201a4:	e0bfff17 	ldw	r2,-4(fp)
   201a8:	103fdd1e 	bne	r2,zero,20120 <alt_irq_handler+0x24>

  /*
   * Notify the operating system that interrupt processing is complete.
   */ 

  ALT_OS_INT_EXIT();
   201ac:	0001883a 	nop
}
   201b0:	0001883a 	nop
   201b4:	e037883a 	mov	sp,fp
   201b8:	dfc00117 	ldw	ra,4(sp)
   201bc:	df000017 	ldw	fp,0(sp)
   201c0:	dec00204 	addi	sp,sp,8
   201c4:	f800283a 	ret

000201c8 <alt_instruction_exception_entry>:
 * that handler if it has been registered. Absent a handler, it will
 * break break or hang as discussed below.
 */
int 
alt_instruction_exception_entry (alt_u32 exception_pc)
{
   201c8:	defffb04 	addi	sp,sp,-20
   201cc:	dfc00415 	stw	ra,16(sp)
   201d0:	df000315 	stw	fp,12(sp)
   201d4:	df000304 	addi	fp,sp,12
   201d8:	e13ffd15 	stw	r4,-12(fp)
 * NIOS2_EXCEPTION_CAUSE_NOT_PRESENT. Your handling routine should
 * check the validity of the cause argument before proceeding.
 */
#ifdef NIOS2_HAS_EXTRA_EXCEPTION_INFO
  /* Get exception cause & "badaddr" */
  NIOS2_READ_EXCEPTION(cause);
   201dc:	000531fa 	rdctl	r2,exception
   201e0:	e0bfff15 	stw	r2,-4(fp)
  cause = ( (cause & NIOS2_EXCEPTION_REG_CAUSE_MASK) >>
   201e4:	e0bfff17 	ldw	r2,-4(fp)
   201e8:	1004d0ba 	srli	r2,r2,2
   201ec:	108007cc 	andi	r2,r2,31
   201f0:	e0bfff15 	stw	r2,-4(fp)
              NIOS2_EXCEPTION_REG_CAUSE_OFST );

  NIOS2_READ_BADADDR(badaddr);
   201f4:	0005333a 	rdctl	r2,badaddr
   201f8:	e0bffe15 	stw	r2,-8(fp)
#else
  cause = NIOS2_EXCEPTION_CAUSE_NOT_PRESENT;
  badaddr = 0;
#endif /* NIOS2_HAS_EXTRA_EXCEPTION_INFO */

  if(alt_instruction_exception_handler) {
   201fc:	d0a72117 	ldw	r2,-25468(gp)
   20200:	10000726 	beq	r2,zero,20220 <alt_instruction_exception_entry+0x58>
     * Call handler. Its return value indicates whether the exception-causing
     * instruction should be re-issued. The code that called us,
     * alt_eceptions_entry.S, will look at this value and adjust the ea
     * register as necessary
     */
    return alt_instruction_exception_handler(cause, exception_pc, badaddr);
   20204:	d0a72117 	ldw	r2,-25468(gp)
   20208:	e0ffff17 	ldw	r3,-4(fp)
   2020c:	e1bffe17 	ldw	r6,-8(fp)
   20210:	e17ffd17 	ldw	r5,-12(fp)
   20214:	1809883a 	mov	r4,r3
   20218:	103ee83a 	callr	r2
   2021c:	00000206 	br	20228 <alt_instruction_exception_entry+0x60>
   *    (a peripheral which negates its interrupt output before its
   *    interrupt handler has been executed will cause spurious interrupts)
   */
  else {
#ifdef NIOS2_HAS_DEBUG_STUB
    NIOS2_BREAK();
   20220:	003da03a 	break	0
      ;
#endif /* NIOS2_HAS_DEBUG_STUB */
  }

  /* We should not get here. Remove compiler warning. */
  return NIOS2_EXCEPTION_RETURN_REISSUE_INST;
   20224:	0005883a 	mov	r2,zero
}
   20228:	e037883a 	mov	sp,fp
   2022c:	dfc00117 	ldw	ra,4(sp)
   20230:	df000017 	ldw	fp,0(sp)
   20234:	dec00204 	addi	sp,sp,8
   20238:	f800283a 	ret

Disassembly of section .text:

0002023c <_start>:

    /* Assume the data cache size is always a power of two. */
#if NIOS2_DCACHE_SIZE > 0x8000
    movhi r2, %hi(NIOS2_DCACHE_SIZE)
#else
    movui r2, NIOS2_DCACHE_SIZE
   2023c:	00820014 	movui	r2,2048
#endif

0:
    initd 0(r2)
   20240:	10000033 	initd	0(r2)
#ifdef NIOS2_ECC_PRESENT
    addi r2, r2, -4
#else
    addi r2, r2, -NIOS2_DCACHE_LINE_SIZE
   20244:	10bff804 	addi	r2,r2,-32
#endif
    bgt r2, zero, 0b
   20248:	00bffd16 	blt	zero,r2,20240 <_start+0x4>

    /*
     * Now that the caches are initialized, set up the stack pointer and global pointer.
     * The values provided by the linker are assumed to be correctly aligned.
     */
    movhi sp, %hi(__alt_stack_pointer)
   2024c:	06c00134 	movhi	sp,4
    ori sp, sp, %lo(__alt_stack_pointer)
   20250:	dec00014 	ori	sp,sp,0
    movhi gp, %hi(_gp)
   20254:	068000f4 	movhi	gp,3
    ori gp, gp, %lo(_gp)
   20258:	d6bb1314 	ori	gp,gp,60492
 */
#ifndef ALT_SIM_OPTIMIZE
    /* Log that the BSS is about to be cleared. */
    ALT_LOG_PUTS(alt_log_msg_bss)

    movhi r2, %hi(__bss_start)
   2025c:	008000f4 	movhi	r2,3
    ori r2, r2, %lo(__bss_start)
   20260:	10a22414 	ori	r2,r2,34960

    movhi r3, %hi(__bss_end)
   20264:	00c000f4 	movhi	r3,3
    ori r3, r3, %lo(__bss_end)
   20268:	18e27f14 	ori	r3,r3,35324

    beq r2, r3, 1f
   2026c:	10c00326 	beq	r2,r3,2027c <_start+0x40>

0:
    stw zero, (r2)
   20270:	10000015 	stw	zero,0(r2)
    addi r2, r2, 4
   20274:	10800104 	addi	r2,r2,4
    bltu r2, r3, 0b
   20278:	10fffd36 	bltu	r2,r3,20270 <_start+0x34>
     * section aren't defined until alt_load() has been called).
     */
    mov   et, zero
#endif

    call alt_load
   2027c:	0031dac0 	call	31dac <alt_load>

    /* Log that alt_main is about to be called. */
    ALT_LOG_PUTS(alt_log_msg_alt_main)

    /* Call the C entry point. It should never return. */
    call alt_main
   20280:	0031f400 	call	31f40 <alt_main>

00020284 <alt_after_alt_main>:

    /* Wait in infinite loop in case alt_main does return. */
alt_after_alt_main:
    br alt_after_alt_main
   20284:	003fff06 	br	20284 <alt_after_alt_main>

00020288 <led_write>:

alt_8 pwm = 0;
alt_u8 led;
int level;

void led_write(alt_u8 led_pattern) {
   20288:	defffe04 	addi	sp,sp,-8
   2028c:	df000115 	stw	fp,4(sp)
   20290:	df000104 	addi	fp,sp,4
   20294:	2005883a 	mov	r2,r4
   20298:	e0bfff05 	stb	r2,-4(fp)
    IOWR(LED_BASE, 0, led_pattern);
   2029c:	e0ffff03 	ldbu	r3,-4(fp)
   202a0:	00800134 	movhi	r2,4
   202a4:	10c41035 	stwio	r3,4160(r2)
}
   202a8:	0001883a 	nop
   202ac:	e037883a 	mov	sp,fp
   202b0:	df000017 	ldw	fp,0(sp)
   202b4:	dec00104 	addi	sp,sp,4
   202b8:	f800283a 	ret

000202bc <convert_read>:

void convert_read(alt_32 acc_read, int * level, alt_u8 * led) {
   202bc:	defffb04 	addi	sp,sp,-20
   202c0:	df000415 	stw	fp,16(sp)
   202c4:	df000404 	addi	fp,sp,16
   202c8:	e13ffe15 	stw	r4,-8(fp)
   202cc:	e17ffd15 	stw	r5,-12(fp)
   202d0:	e1bffc15 	stw	r6,-16(fp)
    acc_read += OFFSET;
   202d4:	e0bffe17 	ldw	r2,-8(fp)
   202d8:	10bff804 	addi	r2,r2,-32
   202dc:	e0bffe15 	stw	r2,-8(fp)
    alt_u8 val = (acc_read >> 6) & 0x07;
   202e0:	e0bffe17 	ldw	r2,-8(fp)
   202e4:	1005d1ba 	srai	r2,r2,6
   202e8:	108001cc 	andi	r2,r2,7
   202ec:	e0bfffc5 	stb	r2,-1(fp)
    * led = (8 >> val) | (8 << (8 - val));
   202f0:	e0bfffc3 	ldbu	r2,-1(fp)
   202f4:	00c00204 	movi	r3,8
   202f8:	1885d83a 	sra	r2,r3,r2
   202fc:	1009883a 	mov	r4,r2
   20300:	e0bfffc3 	ldbu	r2,-1(fp)
   20304:	00c00204 	movi	r3,8
   20308:	1885c83a 	sub	r2,r3,r2
   2030c:	00c00204 	movi	r3,8
   20310:	1884983a 	sll	r2,r3,r2
   20314:	2084b03a 	or	r2,r4,r2
   20318:	1007883a 	mov	r3,r2
   2031c:	e0bffc17 	ldw	r2,-16(fp)
   20320:	10c00005 	stb	r3,0(r2)
    * level = (acc_read >> 1) & 0x1f;
   20324:	e0bffe17 	ldw	r2,-8(fp)
   20328:	1005d07a 	srai	r2,r2,1
   2032c:	10c007cc 	andi	r3,r2,31
   20330:	e0bffd17 	ldw	r2,-12(fp)
   20334:	10c00015 	stw	r3,0(r2)
}
   20338:	0001883a 	nop
   2033c:	e037883a 	mov	sp,fp
   20340:	df000017 	ldw	fp,0(sp)
   20344:	dec00104 	addi	sp,sp,4
   20348:	f800283a 	ret

0002034c <sys_timer_isr>:

void sys_timer_isr() {
   2034c:	defffe04 	addi	sp,sp,-8
   20350:	dfc00115 	stw	ra,4(sp)
   20354:	df000015 	stw	fp,0(sp)
   20358:	d839883a 	mov	fp,sp
    IOWR_ALTERA_AVALON_TIMER_STATUS(TIMER_BASE, 0);
   2035c:	0007883a 	mov	r3,zero
   20360:	00800134 	movhi	r2,4
   20364:	10c40835 	stwio	r3,4128(r2)

    if (pwm < abs(level)) {
   20368:	d0a71103 	ldbu	r2,-25532(gp)
   2036c:	10c03fcc 	andi	r3,r2,255
   20370:	18c0201c 	xori	r3,r3,128
   20374:	18ffe004 	addi	r3,r3,-128
   20378:	d0a71317 	ldw	r2,-25524(gp)
   2037c:	1000010e 	bge	r2,zero,20384 <sys_timer_isr+0x38>
   20380:	0085c83a 	sub	r2,zero,r2
   20384:	18800f0e 	bge	r3,r2,203c4 <sys_timer_isr+0x78>

        if (level < 0) {
   20388:	d0a71317 	ldw	r2,-25524(gp)
   2038c:	1000060e 	bge	r2,zero,203a8 <sys_timer_isr+0x5c>
            led_write(led << 1);
   20390:	d0a71203 	ldbu	r2,-25528(gp)
   20394:	1085883a 	add	r2,r2,r2
   20398:	10803fcc 	andi	r2,r2,255
   2039c:	1009883a 	mov	r4,r2
   203a0:	00202880 	call	20288 <led_write>
   203a4:	00000b06 	br	203d4 <sys_timer_isr+0x88>
        } else {
            led_write(led >> 1);
   203a8:	d0a71203 	ldbu	r2,-25528(gp)
   203ac:	10803fcc 	andi	r2,r2,255
   203b0:	1004d07a 	srli	r2,r2,1
   203b4:	10803fcc 	andi	r2,r2,255
   203b8:	1009883a 	mov	r4,r2
   203bc:	00202880 	call	20288 <led_write>
   203c0:	00000406 	br	203d4 <sys_timer_isr+0x88>
        }

    } else {
        led_write(led);
   203c4:	d0a71203 	ldbu	r2,-25528(gp)
   203c8:	10803fcc 	andi	r2,r2,255
   203cc:	1009883a 	mov	r4,r2
   203d0:	00202880 	call	20288 <led_write>
    }

    if (pwm > PWM_PERIOD) {
   203d4:	d0a71103 	ldbu	r2,-25532(gp)
   203d8:	10803fcc 	andi	r2,r2,255
   203dc:	1080201c 	xori	r2,r2,128
   203e0:	10bfe004 	addi	r2,r2,-128
   203e4:	10800450 	cmplti	r2,r2,17
   203e8:	1000021e 	bne	r2,zero,203f4 <sys_timer_isr+0xa8>
        pwm = 0;
   203ec:	d0271105 	stb	zero,-25532(gp)
    } else {
        pwm++;
    }

}
   203f0:	00000306 	br	20400 <sys_timer_isr+0xb4>
        pwm++;
   203f4:	d0a71103 	ldbu	r2,-25532(gp)
   203f8:	10800044 	addi	r2,r2,1
   203fc:	d0a71105 	stb	r2,-25532(gp)
}
   20400:	0001883a 	nop
   20404:	e037883a 	mov	sp,fp
   20408:	dfc00117 	ldw	ra,4(sp)
   2040c:	df000017 	ldw	fp,0(sp)
   20410:	dec00204 	addi	sp,sp,8
   20414:	f800283a 	ret

00020418 <timer_init>:

void timer_init(void * isr) {
   20418:	defffd04 	addi	sp,sp,-12
   2041c:	dfc00215 	stw	ra,8(sp)
   20420:	df000115 	stw	fp,4(sp)
   20424:	df000104 	addi	fp,sp,4
   20428:	e13fff15 	stw	r4,-4(fp)

    IOWR_ALTERA_AVALON_TIMER_CONTROL(TIMER_BASE, 0x0003);
   2042c:	00c000c4 	movi	r3,3
   20430:	00800134 	movhi	r2,4
   20434:	10c40935 	stwio	r3,4132(r2)
    IOWR_ALTERA_AVALON_TIMER_STATUS(TIMER_BASE, 0);
   20438:	0007883a 	mov	r3,zero
   2043c:	00800134 	movhi	r2,4
   20440:	10c40835 	stwio	r3,4128(r2)
    IOWR_ALTERA_AVALON_TIMER_PERIODL(TIMER_BASE, 0x0900);
   20444:	00c24004 	movi	r3,2304
   20448:	00800134 	movhi	r2,4
   2044c:	10c40a35 	stwio	r3,4136(r2)
    IOWR_ALTERA_AVALON_TIMER_PERIODH(TIMER_BASE, 0x0000);
   20450:	0007883a 	mov	r3,zero
   20454:	00800134 	movhi	r2,4
   20458:	10c40b35 	stwio	r3,4140(r2)
    alt_irq_register(TIMER_IRQ, 0, isr);
   2045c:	e0bfff17 	ldw	r2,-4(fp)
   20460:	100d883a 	mov	r6,r2
   20464:	000b883a 	mov	r5,zero
   20468:	01000044 	movi	r4,1
   2046c:	003197c0 	call	3197c <alt_irq_register>
    IOWR_ALTERA_AVALON_TIMER_CONTROL(TIMER_BASE, 0x0007);
   20470:	00c001c4 	movi	r3,7
   20474:	00800134 	movhi	r2,4
   20478:	10c40935 	stwio	r3,4132(r2)

}
   2047c:	0001883a 	nop
   20480:	e037883a 	mov	sp,fp
   20484:	dfc00117 	ldw	ra,4(sp)
   20488:	df000017 	ldw	fp,0(sp)
   2048c:	dec00204 	addi	sp,sp,8
   20490:	f800283a 	ret

00020494 <fir>:


alt_32 fir(float coeffs[], alt_32 raw_data[], int n){
   20494:	defff904 	addi	sp,sp,-28
   20498:	dfc00615 	stw	ra,24(sp)
   2049c:	df000515 	stw	fp,20(sp)
   204a0:	dc000415 	stw	r16,16(sp)
   204a4:	df000504 	addi	fp,sp,20
   204a8:	e13ffd15 	stw	r4,-12(fp)
   204ac:	e17ffc15 	stw	r5,-16(fp)
   204b0:	e1bffb15 	stw	r6,-20(fp)
	// N-TAP FIR filter
	float y = 0;
   204b4:	e03ffe15 	stw	zero,-8(fp)

	for (; n > 0; n--){ // runs n times for
   204b8:	00002006 	br	2053c <fir+0xa8>
		// alt_printf("n value: %x\n", (alt_32)(n-1));
		// this print command makes it run smoother??
		y += coeffs[n-1]*(float)raw_data[n-1];
   204bc:	e0fffb17 	ldw	r3,-20(fp)
   204c0:	00900034 	movhi	r2,16384
   204c4:	10bfffc4 	addi	r2,r2,-1
   204c8:	1885883a 	add	r2,r3,r2
   204cc:	100490ba 	slli	r2,r2,2
   204d0:	e0fffd17 	ldw	r3,-12(fp)
   204d4:	1885883a 	add	r2,r3,r2
   204d8:	14000017 	ldw	r16,0(r2)
   204dc:	e0fffb17 	ldw	r3,-20(fp)
   204e0:	00900034 	movhi	r2,16384
   204e4:	10bfffc4 	addi	r2,r2,-1
   204e8:	1885883a 	add	r2,r3,r2
   204ec:	100490ba 	slli	r2,r2,2
   204f0:	e0fffc17 	ldw	r3,-16(fp)
   204f4:	1885883a 	add	r2,r3,r2
   204f8:	10800017 	ldw	r2,0(r2)
   204fc:	1009883a 	mov	r4,r2
   20500:	00217dc0 	call	217dc <__floatsisf>
   20504:	1007883a 	mov	r3,r2
   20508:	180b883a 	mov	r5,r3
   2050c:	8009883a 	mov	r4,r16
   20510:	00213bc0 	call	213bc <__mulsf3>
   20514:	1007883a 	mov	r3,r2
   20518:	1805883a 	mov	r2,r3
   2051c:	100b883a 	mov	r5,r2
   20520:	e13ffe17 	ldw	r4,-8(fp)
   20524:	0020f600 	call	20f60 <__addsf3>
   20528:	1007883a 	mov	r3,r2
   2052c:	e0fffe15 	stw	r3,-8(fp)
	for (; n > 0; n--){ // runs n times for
   20530:	e0bffb17 	ldw	r2,-20(fp)
   20534:	10bfffc4 	addi	r2,r2,-1
   20538:	e0bffb15 	stw	r2,-20(fp)
   2053c:	e0bffb17 	ldw	r2,-20(fp)
   20540:	00bfde16 	blt	zero,r2,204bc <fir+0x28>
	}

	return (alt_32)y; // cast back to alt_32
   20544:	e13ffe17 	ldw	r4,-8(fp)
   20548:	002176c0 	call	2176c <__fixsfsi>
}
   2054c:	e6ffff04 	addi	sp,fp,-4
   20550:	dfc00217 	ldw	ra,8(sp)
   20554:	df000117 	ldw	fp,4(sp)
   20558:	dc000017 	ldw	r16,0(sp)
   2055c:	dec00304 	addi	sp,sp,12
   20560:	f800283a 	ret

00020564 <fir_quantized>:

alt_32 fir_quantized(alt_32 coeffs[], alt_32 raw_data[], int n){
   20564:	defffa04 	addi	sp,sp,-24
   20568:	dfc00515 	stw	ra,20(sp)
   2056c:	df000415 	stw	fp,16(sp)
   20570:	df000404 	addi	fp,sp,16
   20574:	e13ffe15 	stw	r4,-8(fp)
   20578:	e17ffd15 	stw	r5,-12(fp)
   2057c:	e1bffc15 	stw	r6,-16(fp)
	// N-TAP quantized FIR filter
	alt_32 y = 0;
   20580:	e03fff15 	stw	zero,-4(fp)

	for (; n > 0; n--){ // runs n times for
   20584:	00001706 	br	205e4 <fir_quantized+0x80>
//		alt_printf("Rounded coeff: %x\n", coeffs[n-1]);
		y += coeffs[n-1]*raw_data[n-1];
   20588:	e0fffc17 	ldw	r3,-16(fp)
   2058c:	00900034 	movhi	r2,16384
   20590:	10bfffc4 	addi	r2,r2,-1
   20594:	1885883a 	add	r2,r3,r2
   20598:	100490ba 	slli	r2,r2,2
   2059c:	e0fffe17 	ldw	r3,-8(fp)
   205a0:	1885883a 	add	r2,r3,r2
   205a4:	10c00017 	ldw	r3,0(r2)
   205a8:	e13ffc17 	ldw	r4,-16(fp)
   205ac:	00900034 	movhi	r2,16384
   205b0:	10bfffc4 	addi	r2,r2,-1
   205b4:	2085883a 	add	r2,r4,r2
   205b8:	100490ba 	slli	r2,r2,2
   205bc:	e13ffd17 	ldw	r4,-12(fp)
   205c0:	2085883a 	add	r2,r4,r2
   205c4:	10800017 	ldw	r2,0(r2)
   205c8:	1885383a 	mul	r2,r3,r2
   205cc:	e0ffff17 	ldw	r3,-4(fp)
   205d0:	1885883a 	add	r2,r3,r2
   205d4:	e0bfff15 	stw	r2,-4(fp)
	for (; n > 0; n--){ // runs n times for
   205d8:	e0bffc17 	ldw	r2,-16(fp)
   205dc:	10bfffc4 	addi	r2,r2,-1
   205e0:	e0bffc15 	stw	r2,-16(fp)
   205e4:	e0bffc17 	ldw	r2,-16(fp)
   205e8:	00bfe716 	blt	zero,r2,20588 <fir_quantized+0x24>
	}

	return round(y/100000); // converting back to appropriate value for LEDs
   205ec:	e0bfff17 	ldw	r2,-4(fp)
   205f0:	014000b4 	movhi	r5,2
   205f4:	2961a804 	addi	r5,r5,-31072
   205f8:	1009883a 	mov	r4,r2
   205fc:	0020dac0 	call	20dac <__divsi3>
   20600:	1009883a 	mov	r4,r2
   20604:	00222f80 	call	222f8 <__floatsidf>
   20608:	100d883a 	mov	r6,r2
   2060c:	180f883a 	mov	r7,r3
   20610:	3009883a 	mov	r4,r6
   20614:	380b883a 	mov	r5,r7
   20618:	00222780 	call	22278 <__fixdfsi>
}
   2061c:	e037883a 	mov	sp,fp
   20620:	dfc00117 	ldw	ra,4(sp)
   20624:	df000017 	ldw	fp,0(sp)
   20628:	dec00204 	addi	sp,sp,8
   2062c:	f800283a 	ret

00020630 <main>:

int main() {
   20630:	deffa904 	addi	sp,sp,-348
   20634:	dfc05615 	stw	ra,344(sp)
   20638:	df005515 	stw	fp,340(sp)
   2063c:	ddc05415 	stw	r23,336(sp)
   20640:	dd805315 	stw	r22,332(sp)
   20644:	dd405215 	stw	r21,328(sp)
   20648:	dd005115 	stw	r20,324(sp)
   2064c:	dcc05015 	stw	r19,320(sp)
   20650:	dc804f15 	stw	r18,316(sp)
   20654:	dc404e15 	stw	r17,312(sp)
   20658:	dc004d15 	stw	r16,308(sp)
   2065c:	df005504 	addi	fp,sp,340

	float matlab_coeffs[] = {0.00464135470656760, 	0.00737747226463043,
   20660:	e0ffb504 	addi	r3,fp,-300
   20664:	008000f4 	movhi	r2,3
   20668:	1091eb04 	addi	r2,r2,18348
   2066c:	01003104 	movi	r4,196
   20670:	200d883a 	mov	r6,r4
   20674:	100b883a 	mov	r5,r2
   20678:	1809883a 	mov	r4,r3
   2067c:	00237a40 	call	237a4 <memcpy>
			0.00326564674118811, 	-0.00711018685736960,
			-0.00240768675012549,	0.00737747226463043,
			0.00464135470656760};

	// init coeffs from matlab
	float *fir_coeffs = malloc(sizeof(float)*49 + 1); // init a 49-tap filter
   20680:	01003144 	movi	r4,197
   20684:	0022fa40 	call	22fa4 <malloc>
   20688:	e0bff015 	stw	r2,-64(fp)
	for (int coeff = 0; coeff < 49; coeff++){
   2068c:	e03ff215 	stw	zero,-56(fp)
   20690:	00000d06 	br	206c8 <main+0x98>
		fir_coeffs[coeff] = matlab_coeffs[coeff]; // populating
   20694:	e0bff217 	ldw	r2,-56(fp)
   20698:	100490ba 	slli	r2,r2,2
   2069c:	e0fff017 	ldw	r3,-64(fp)
   206a0:	1885883a 	add	r2,r3,r2
   206a4:	e0fff217 	ldw	r3,-56(fp)
   206a8:	180690ba 	slli	r3,r3,2
   206ac:	e13ff804 	addi	r4,fp,-32
   206b0:	20c9883a 	add	r4,r4,r3
   206b4:	20ffbd17 	ldw	r3,-268(r4)
   206b8:	10c00015 	stw	r3,0(r2)
	for (int coeff = 0; coeff < 49; coeff++){
   206bc:	e0bff217 	ldw	r2,-56(fp)
   206c0:	10800044 	addi	r2,r2,1
   206c4:	e0bff215 	stw	r2,-56(fp)
   206c8:	e0bff217 	ldw	r2,-56(fp)
   206cc:	10800c50 	cmplti	r2,r2,49
   206d0:	103ff01e 	bne	r2,zero,20694 <main+0x64>
	}



	int n = sizeof(*fir_coeffs)/sizeof(fir_coeffs[0]); 	// len of coeff array
   206d4:	00800044 	movi	r2,1
   206d8:	e0bfef15 	stw	r2,-68(fp)
    alt_32 x_read[n]; 									// raw data array
   206dc:	e0bfef17 	ldw	r2,-68(fp)
   206e0:	d807883a 	mov	r3,sp
   206e4:	e0ffab15 	stw	r3,-340(fp)
   206e8:	10ffffc4 	addi	r3,r2,-1
   206ec:	e0ffee15 	stw	r3,-72(fp)
   206f0:	1007883a 	mov	r3,r2
   206f4:	e0ffb215 	stw	r3,-312(fp)
   206f8:	e03fb315 	stw	zero,-308(fp)
   206fc:	e0ffb217 	ldw	r3,-312(fp)
   20700:	1806d6fa 	srli	r3,r3,27
   20704:	e13fb317 	ldw	r4,-308(fp)
   20708:	202e917a 	slli	r23,r4,5
   2070c:	1deeb03a 	or	r23,r3,r23
   20710:	e0ffb217 	ldw	r3,-312(fp)
   20714:	182c917a 	slli	r22,r3,5
   20718:	1007883a 	mov	r3,r2
   2071c:	e0ffb015 	stw	r3,-320(fp)
   20720:	e03fb115 	stw	zero,-316(fp)
   20724:	e0ffb017 	ldw	r3,-320(fp)
   20728:	1806d6fa 	srli	r3,r3,27
   2072c:	e13fb117 	ldw	r4,-316(fp)
   20730:	202a917a 	slli	r21,r4,5
   20734:	1d6ab03a 	or	r21,r3,r21
   20738:	e0ffb017 	ldw	r3,-320(fp)
   2073c:	1828917a 	slli	r20,r3,5
   20740:	100490ba 	slli	r2,r2,2
   20744:	108000c4 	addi	r2,r2,3
   20748:	1004d0ba 	srli	r2,r2,2
   2074c:	100490ba 	slli	r2,r2,2
   20750:	d8b7c83a 	sub	sp,sp,r2
   20754:	d805883a 	mov	r2,sp
   20758:	108000c4 	addi	r2,r2,3
   2075c:	1004d0ba 	srli	r2,r2,2
   20760:	100490ba 	slli	r2,r2,2
   20764:	e0bfed15 	stw	r2,-76(fp)
    alt_32 y; 											// filtered output

    alt_32 int_coeffs[n];
   20768:	e0bfef17 	ldw	r2,-68(fp)
   2076c:	10ffffc4 	addi	r3,r2,-1
   20770:	e0ffec15 	stw	r3,-80(fp)
   20774:	1007883a 	mov	r3,r2
   20778:	e0ffae15 	stw	r3,-328(fp)
   2077c:	e03faf15 	stw	zero,-324(fp)
   20780:	e0ffae17 	ldw	r3,-328(fp)
   20784:	1806d6fa 	srli	r3,r3,27
   20788:	e13faf17 	ldw	r4,-324(fp)
   2078c:	2026917a 	slli	r19,r4,5
   20790:	1ce6b03a 	or	r19,r3,r19
   20794:	e0ffae17 	ldw	r3,-328(fp)
   20798:	1824917a 	slli	r18,r3,5
   2079c:	1007883a 	mov	r3,r2
   207a0:	e0ffac15 	stw	r3,-336(fp)
   207a4:	e03fad15 	stw	zero,-332(fp)
   207a8:	e0ffac17 	ldw	r3,-336(fp)
   207ac:	1806d6fa 	srli	r3,r3,27
   207b0:	e13fad17 	ldw	r4,-332(fp)
   207b4:	2022917a 	slli	r17,r4,5
   207b8:	1c62b03a 	or	r17,r3,r17
   207bc:	e0ffac17 	ldw	r3,-336(fp)
   207c0:	1820917a 	slli	r16,r3,5
   207c4:	100490ba 	slli	r2,r2,2
   207c8:	108000c4 	addi	r2,r2,3
   207cc:	1004d0ba 	srli	r2,r2,2
   207d0:	100490ba 	slli	r2,r2,2
   207d4:	d8b7c83a 	sub	sp,sp,r2
   207d8:	d805883a 	mov	r2,sp
   207dc:	108000c4 	addi	r2,r2,3
   207e0:	1004d0ba 	srli	r2,r2,2
   207e4:	100490ba 	slli	r2,r2,2
   207e8:	e0bfeb15 	stw	r2,-84(fp)
    for(int j = 0; j < n; j++){
   207ec:	e03ff415 	stw	zero,-48(fp)
   207f0:	00002006 	br	20874 <main+0x244>
    		int_coeffs[j] = (alt_32)round(fir_coeffs[j]*100000); // populate quantized coeffs
   207f4:	e0bff417 	ldw	r2,-48(fp)
   207f8:	100490ba 	slli	r2,r2,2
   207fc:	e0fff017 	ldw	r3,-64(fp)
   20800:	1885883a 	add	r2,r3,r2
   20804:	10c00017 	ldw	r3,0(r2)
   20808:	0151f0f4 	movhi	r5,18371
   2080c:	29540004 	addi	r5,r5,20480
   20810:	1809883a 	mov	r4,r3
   20814:	00213bc0 	call	213bc <__mulsf3>
   20818:	1007883a 	mov	r3,r2
   2081c:	1805883a 	mov	r2,r3
   20820:	1009883a 	mov	r4,r2
   20824:	00223b40 	call	223b4 <__extendsfdf2>
   20828:	100d883a 	mov	r6,r2
   2082c:	180f883a 	mov	r7,r3
   20830:	3009883a 	mov	r4,r6
   20834:	380b883a 	mov	r5,r7
   20838:	0020cc80 	call	20cc8 <round>
   2083c:	100d883a 	mov	r6,r2
   20840:	180f883a 	mov	r7,r3
   20844:	3009883a 	mov	r4,r6
   20848:	380b883a 	mov	r5,r7
   2084c:	00222780 	call	22278 <__fixdfsi>
   20850:	1009883a 	mov	r4,r2
   20854:	e0ffeb17 	ldw	r3,-84(fp)
   20858:	e0bff417 	ldw	r2,-48(fp)
   2085c:	100490ba 	slli	r2,r2,2
   20860:	1885883a 	add	r2,r3,r2
   20864:	11000015 	stw	r4,0(r2)
    for(int j = 0; j < n; j++){
   20868:	e0bff417 	ldw	r2,-48(fp)
   2086c:	10800044 	addi	r2,r2,1
   20870:	e0bff415 	stw	r2,-48(fp)
   20874:	e0fff417 	ldw	r3,-48(fp)
   20878:	e0bfef17 	ldw	r2,-68(fp)
   2087c:	18bfdd16 	blt	r3,r2,207f4 <main+0x1c4>
    		// multiplying by 10^m to grab m of the decimal places
    	}

    FILE* fp;
    alt_8 mode = 0; // mode 0 = unfiltered, mode 1 = filtered.
   20880:	e03ff585 	stb	zero,-42(fp)
    char prompt = 0;
   20884:	e03fb4c5 	stb	zero,-301(fp)
    fp = fopen ("/dev/jtag_uart", "r+");
   20888:	014000f4 	movhi	r5,3
   2088c:	29519204 	addi	r5,r5,17992
   20890:	010000f4 	movhi	r4,3
   20894:	21119304 	addi	r4,r4,17996
   20898:	002276c0 	call	2276c <fopen>
   2089c:	e0bfea15 	stw	r2,-88(fp)

    int n_coeffs = 5; // for a  49-tap filter
   208a0:	00800144 	movi	r2,5
   208a4:	e0bfe915 	stw	r2,-92(fp)

    alt_up_accelerometer_spi_dev * acc_dev;
    acc_dev = alt_up_accelerometer_spi_open_dev("/dev/accelerometer_spi");
   208a8:	010000f4 	movhi	r4,3
   208ac:	21119704 	addi	r4,r4,18012
   208b0:	00334840 	call	33484 <alt_up_accelerometer_spi_open_dev>
   208b4:	e0bfe815 	stw	r2,-96(fp)
    if (acc_dev == NULL) { // if return 1, check if the spi ip name is "accelerometer_spi"
   208b8:	e0bfe817 	ldw	r2,-96(fp)
   208bc:	1000031e 	bne	r2,zero,208cc <main+0x29c>
        return 1;
   208c0:	00800044 	movi	r2,1
   208c4:	e6ffab17 	ldw	sp,-340(fp)
   208c8:	0000f206 	br	20c94 <main+0x664>
    }

    timer_init(sys_timer_isr);
   208cc:	010000b4 	movhi	r4,2
   208d0:	2100d304 	addi	r4,r4,844
   208d4:	00204180 	call	20418 <timer_init>

    while(1) {

    	for(alt_u8 j = 0; j < 200; j++){
   208d8:	e03ff5c5 	stb	zero,-41(fp)
   208dc:	00003606 	br	209b8 <main+0x388>
    		// shift register
			for (int i = 0; i < n; i++){
   208e0:	e03ff615 	stw	zero,-40(fp)
   208e4:	00000e06 	br	20920 <main+0x2f0>
				x_read[i+1] = x_read[i];
   208e8:	e0bff617 	ldw	r2,-40(fp)
   208ec:	10800044 	addi	r2,r2,1
   208f0:	e13fed17 	ldw	r4,-76(fp)
   208f4:	e0fff617 	ldw	r3,-40(fp)
   208f8:	180690ba 	slli	r3,r3,2
   208fc:	20c7883a 	add	r3,r4,r3
   20900:	18c00017 	ldw	r3,0(r3)
   20904:	e13fed17 	ldw	r4,-76(fp)
   20908:	100490ba 	slli	r2,r2,2
   2090c:	2085883a 	add	r2,r4,r2
   20910:	10c00015 	stw	r3,0(r2)
			for (int i = 0; i < n; i++){
   20914:	e0bff617 	ldw	r2,-40(fp)
   20918:	10800044 	addi	r2,r2,1
   2091c:	e0bff615 	stw	r2,-40(fp)
   20920:	e0fff617 	ldw	r3,-40(fp)
   20924:	e0bfef17 	ldw	r2,-68(fp)
   20928:	18bfef16 	blt	r3,r2,208e8 <main+0x2b8>
			}

			// update accel value
			alt_up_accelerometer_spi_read_x_axis(acc_dev, & x_read[0]);
   2092c:	e0bfed17 	ldw	r2,-76(fp)
   20930:	100b883a 	mov	r5,r2
   20934:	e13fe817 	ldw	r4,-96(fp)
   20938:	00335d40 	call	335d4 <alt_up_accelerometer_spi_read_x_axis>
			// filter output

			if (mode == 1) {
   2093c:	e0bff587 	ldb	r2,-42(fp)
   20940:	10800058 	cmpnei	r2,r2,1
   20944:	10000c1e 	bne	r2,zero,20978 <main+0x348>
				y = fir_quantized(int_coeffs, x_read, n);
   20948:	e0bfeb17 	ldw	r2,-84(fp)
   2094c:	e0ffed17 	ldw	r3,-76(fp)
   20950:	e1bfef17 	ldw	r6,-68(fp)
   20954:	180b883a 	mov	r5,r3
   20958:	1009883a 	mov	r4,r2
   2095c:	00205640 	call	20564 <fir_quantized>
   20960:	e0bff315 	stw	r2,-52(fp)
				alt_printf("y value (filtered): %x\n", y);
   20964:	e17ff317 	ldw	r5,-52(fp)
   20968:	010000f4 	movhi	r4,3
   2096c:	21119d04 	addi	r4,r4,18036
   20970:	003224c0 	call	3224c <alt_printf>
   20974:	00000906 	br	2099c <main+0x36c>
			} else if (mode == 0) {
   20978:	e0bff587 	ldb	r2,-42(fp)
   2097c:	1000071e 	bne	r2,zero,2099c <main+0x36c>
				y = x_read[0];
   20980:	e0bfed17 	ldw	r2,-76(fp)
   20984:	10800017 	ldw	r2,0(r2)
   20988:	e0bff315 	stw	r2,-52(fp)
				alt_printf("y value (raw): %x\n", y);
   2098c:	e17ff317 	ldw	r5,-52(fp)
   20990:	010000f4 	movhi	r4,3
   20994:	2111a304 	addi	r4,r4,18060
   20998:	003224c0 	call	3224c <alt_printf>
			}

			convert_read(y, & level, & led);
   2099c:	d1a71204 	addi	r6,gp,-25528
   209a0:	d1671304 	addi	r5,gp,-25524
   209a4:	e13ff317 	ldw	r4,-52(fp)
   209a8:	00202bc0 	call	202bc <convert_read>
    	for(alt_u8 j = 0; j < 200; j++){
   209ac:	e0bff5c3 	ldbu	r2,-41(fp)
   209b0:	10800044 	addi	r2,r2,1
   209b4:	e0bff5c5 	stb	r2,-41(fp)
   209b8:	e0bff5c3 	ldbu	r2,-41(fp)
   209bc:	10803230 	cmpltui	r2,r2,200
   209c0:	103fc71e 	bne	r2,zero,208e0 <main+0x2b0>
    	}

    	if (fp) {
   209c4:	e0bfea17 	ldw	r2,-88(fp)
   209c8:	103fc326 	beq	r2,zero,208d8 <main+0x2a8>
    		prompt = getc(fp);
   209cc:	e13fea17 	ldw	r4,-88(fp)
   209d0:	0022d3c0 	call	22d3c <getc>
   209d4:	e0bfb4c5 	stb	r2,-301(fp)
    		fprintf(fp, "<--> Detected the character %c <--> \n", prompt);
   209d8:	e0bfb4c3 	ldbu	r2,-301(fp)
   209dc:	10803fcc 	andi	r2,r2,255
   209e0:	1080201c 	xori	r2,r2,128
   209e4:	10bfe004 	addi	r2,r2,-128
   209e8:	100d883a 	mov	r6,r2
   209ec:	014000f4 	movhi	r5,3
   209f0:	2951a804 	addi	r5,r5,18080
   209f4:	e13fea17 	ldw	r4,-88(fp)
   209f8:	00227ac0 	call	227ac <fprintf>
    		if (prompt == '1') {
   209fc:	e0bfb4c3 	ldbu	r2,-301(fp)
   20a00:	10803fcc 	andi	r2,r2,255
   20a04:	1080201c 	xori	r2,r2,128
   20a08:	10bfe004 	addi	r2,r2,-128
   20a0c:	10800c58 	cmpnei	r2,r2,49
   20a10:	1000031e 	bne	r2,zero,20a20 <main+0x3f0>
    			mode = 1;
   20a14:	00800044 	movi	r2,1
   20a18:	e0bff585 	stb	r2,-42(fp)
   20a1c:	003fae06 	br	208d8 <main+0x2a8>
    		} else if (prompt == '0') {
   20a20:	e0bfb4c3 	ldbu	r2,-301(fp)
   20a24:	10803fcc 	andi	r2,r2,255
   20a28:	1080201c 	xori	r2,r2,128
   20a2c:	10bfe004 	addi	r2,r2,-128
   20a30:	10800c18 	cmpnei	r2,r2,48
   20a34:	1000021e 	bne	r2,zero,20a40 <main+0x410>
    			mode = 0;
   20a38:	e03ff585 	stb	zero,-42(fp)
   20a3c:	003fa606 	br	208d8 <main+0x2a8>
    		} else if (prompt == 'c') {
   20a40:	e0bfb4c3 	ldbu	r2,-301(fp)
   20a44:	10803fcc 	andi	r2,r2,255
   20a48:	1080201c 	xori	r2,r2,128
   20a4c:	10bfe004 	addi	r2,r2,-128
   20a50:	108018d8 	cmpnei	r2,r2,99
   20a54:	103fa01e 	bne	r2,zero,208d8 <main+0x2a8>

    			alt_printf("BOARD: preparing for coefficient update\n");
   20a58:	010000f4 	movhi	r4,3
   20a5c:	2111b204 	addi	r4,r4,18120
   20a60:	003224c0 	call	3224c <alt_printf>

    		    float *new_coeffs = malloc(sizeof(float)*n_coeffs); // start with 20
   20a64:	e0bfe917 	ldw	r2,-92(fp)
   20a68:	100490ba 	slli	r2,r2,2
   20a6c:	1009883a 	mov	r4,r2
   20a70:	0022fa40 	call	22fa4 <malloc>
   20a74:	e0bfe715 	stw	r2,-100(fp)
    		    char *coeff_buffer = malloc(sizeof(char)*30); // hoping that nobody decides to put more than 30 d.p
   20a78:	01000784 	movi	r4,30
   20a7c:	0022fa40 	call	22fa4 <malloc>
   20a80:	e0bfe615 	stw	r2,-104(fp)
    		    coeff_buffer = "";
   20a84:	008000f4 	movhi	r2,3
   20a88:	1091bd04 	addi	r2,r2,18164
   20a8c:	e0bfe615 	stw	r2,-104(fp)

    			alt_8 count = 0;
   20a90:	e03ff7c5 	stb	zero,-33(fp)
    			alt_8 digit = 0;
   20a94:	e03ff1c5 	stb	zero,-57(fp)

    			prompt = getc(fp);
   20a98:	e13fea17 	ldw	r4,-88(fp)
   20a9c:	0022d3c0 	call	22d3c <getc>
   20aa0:	e0bfb4c5 	stb	r2,-301(fp)

    			while (prompt != 'x'){
   20aa4:	00005406 	br	20bf8 <main+0x5c8>
    				alt_printf("BOARD: received %c\n", prompt);
   20aa8:	e0bfb4c3 	ldbu	r2,-301(fp)
   20aac:	10803fcc 	andi	r2,r2,255
   20ab0:	1080201c 	xori	r2,r2,128
   20ab4:	10bfe004 	addi	r2,r2,-128
   20ab8:	100b883a 	mov	r5,r2
   20abc:	010000f4 	movhi	r4,3
   20ac0:	2111be04 	addi	r4,r4,18168
   20ac4:	003224c0 	call	3224c <alt_printf>

    				if(prompt == ','){
   20ac8:	e0bfb4c3 	ldbu	r2,-301(fp)
   20acc:	10803fcc 	andi	r2,r2,255
   20ad0:	1080201c 	xori	r2,r2,128
   20ad4:	10bfe004 	addi	r2,r2,-128
   20ad8:	10800b18 	cmpnei	r2,r2,44
   20adc:	1000241e 	bne	r2,zero,20b70 <main+0x540>
    					alt_printf("inside , if statement");
   20ae0:	010000f4 	movhi	r4,3
   20ae4:	2111c304 	addi	r4,r4,18188
   20ae8:	003224c0 	call	3224c <alt_printf>

    					new_coeffs[count] = atof(coeff_buffer);
   20aec:	e13fe617 	ldw	r4,-104(fp)
   20af0:	00226740 	call	22674 <atof>
   20af4:	100d883a 	mov	r6,r2
   20af8:	180f883a 	mov	r7,r3
   20afc:	e0bff7c7 	ldb	r2,-33(fp)
   20b00:	100490ba 	slli	r2,r2,2
   20b04:	e0ffe717 	ldw	r3,-100(fp)
   20b08:	18a1883a 	add	r16,r3,r2
   20b0c:	3009883a 	mov	r4,r6
   20b10:	380b883a 	mov	r5,r7
   20b14:	00224b00 	call	224b0 <__truncdfsf2>
   20b18:	1007883a 	mov	r3,r2
   20b1c:	80c00015 	stw	r3,0(r16)
    					printf("adding: %f\n", atof(coeff_buffer));
   20b20:	e13fe617 	ldw	r4,-104(fp)
   20b24:	00226740 	call	22674 <atof>
   20b28:	100d883a 	mov	r6,r2
   20b2c:	180f883a 	mov	r7,r3
   20b30:	300b883a 	mov	r5,r6
   20b34:	380d883a 	mov	r6,r7
   20b38:	010000f4 	movhi	r4,3
   20b3c:	2111c904 	addi	r4,r4,18212
   20b40:	0023a280 	call	23a28 <printf>
    					memset(coeff_buffer, 0, strlen(coeff_buffer));
   20b44:	e13fe617 	ldw	r4,-104(fp)
   20b48:	0023f400 	call	23f40 <strlen>
   20b4c:	100d883a 	mov	r6,r2
   20b50:	000b883a 	mov	r5,zero
   20b54:	e13fe617 	ldw	r4,-104(fp)
   20b58:	00238a40 	call	238a4 <memset>
    					count++;
   20b5c:	e0bff7c3 	ldbu	r2,-33(fp)
   20b60:	10800044 	addi	r2,r2,1
   20b64:	e0bff7c5 	stb	r2,-33(fp)
    					digit = 0;
   20b68:	e03ff1c5 	stb	zero,-57(fp)
   20b6c:	00000f06 	br	20bac <main+0x57c>
    				} else {
    					alt_printf("concatenating buffer\n");
   20b70:	010000f4 	movhi	r4,3
   20b74:	2111cc04 	addi	r4,r4,18224
   20b78:	003224c0 	call	3224c <alt_printf>
    					strncat(coeff_buffer, &prompt, 1);
   20b7c:	e0bfb4c4 	addi	r2,fp,-301
   20b80:	01800044 	movi	r6,1
   20b84:	100b883a 	mov	r5,r2
   20b88:	e13fe617 	ldw	r4,-104(fp)
   20b8c:	0023fd80 	call	23fd8 <strncat>
    					printf("current buffer: %s\n", coeff_buffer);
   20b90:	e17fe617 	ldw	r5,-104(fp)
   20b94:	010000f4 	movhi	r4,3
   20b98:	2111d204 	addi	r4,r4,18248
   20b9c:	0023a280 	call	23a28 <printf>
    					digit++;
   20ba0:	e0bff1c3 	ldbu	r2,-57(fp)
   20ba4:	10800044 	addi	r2,r2,1
   20ba8:	e0bff1c5 	stb	r2,-57(fp)
    				}
    				alt_printf("reading prompt after %c\n", prompt);
   20bac:	e0bfb4c3 	ldbu	r2,-301(fp)
   20bb0:	10803fcc 	andi	r2,r2,255
   20bb4:	1080201c 	xori	r2,r2,128
   20bb8:	10bfe004 	addi	r2,r2,-128
   20bbc:	100b883a 	mov	r5,r2
   20bc0:	010000f4 	movhi	r4,3
   20bc4:	2111d704 	addi	r4,r4,18268
   20bc8:	003224c0 	call	3224c <alt_printf>
    				prompt = getc(fp);
   20bcc:	e13fea17 	ldw	r4,-88(fp)
   20bd0:	0022d3c0 	call	22d3c <getc>
   20bd4:	e0bfb4c5 	stb	r2,-301(fp)
    				alt_printf("read prompt %c\n", prompt);
   20bd8:	e0bfb4c3 	ldbu	r2,-301(fp)
   20bdc:	10803fcc 	andi	r2,r2,255
   20be0:	1080201c 	xori	r2,r2,128
   20be4:	10bfe004 	addi	r2,r2,-128
   20be8:	100b883a 	mov	r5,r2
   20bec:	010000f4 	movhi	r4,3
   20bf0:	2111de04 	addi	r4,r4,18296
   20bf4:	003224c0 	call	3224c <alt_printf>
    			while (prompt != 'x'){
   20bf8:	e0bfb4c3 	ldbu	r2,-301(fp)
   20bfc:	10803fcc 	andi	r2,r2,255
   20c00:	1080201c 	xori	r2,r2,128
   20c04:	10bfe004 	addi	r2,r2,-128
   20c08:	10801e18 	cmpnei	r2,r2,120
   20c0c:	103fa61e 	bne	r2,zero,20aa8 <main+0x478>
    			}
    		    free(coeff_buffer);
   20c10:	e13fe617 	ldw	r4,-104(fp)
   20c14:	0022fb40 	call	22fb4 <free>
    		    coeff_buffer=NULL;
   20c18:	e03fe615 	stw	zero,-104(fp)

    			printf("<UPDATED_COEFFICIENTS> %f\n", new_coeffs[0]);
   20c1c:	e0bfe717 	ldw	r2,-100(fp)
   20c20:	10c00017 	ldw	r3,0(r2)
   20c24:	1809883a 	mov	r4,r3
   20c28:	00223b40 	call	223b4 <__extendsfdf2>
   20c2c:	100d883a 	mov	r6,r2
   20c30:	180f883a 	mov	r7,r3
   20c34:	300b883a 	mov	r5,r6
   20c38:	380d883a 	mov	r6,r7
   20c3c:	010000f4 	movhi	r4,3
   20c40:	2111e204 	addi	r4,r4,18312
   20c44:	0023a280 	call	23a28 <printf>
    			printf("<UPDATED_COEFFICIENTS> %f\n", new_coeffs[1]);
   20c48:	e0bfe717 	ldw	r2,-100(fp)
   20c4c:	10800104 	addi	r2,r2,4
   20c50:	10c00017 	ldw	r3,0(r2)
   20c54:	1809883a 	mov	r4,r3
   20c58:	00223b40 	call	223b4 <__extendsfdf2>
   20c5c:	100d883a 	mov	r6,r2
   20c60:	180f883a 	mov	r7,r3
   20c64:	300b883a 	mov	r5,r6
   20c68:	380d883a 	mov	r6,r7
   20c6c:	010000f4 	movhi	r4,3
   20c70:	2111e204 	addi	r4,r4,18312
   20c74:	0023a280 	call	23a28 <printf>
//    			printf("<UPDATED_COEFFICIENTS> %f\n", new_coeffs[2]);
//    			printf("<UPDATED_COEFFICIENTS> %f\n", new_coeffs[3]);
//    			printf("<UPDATED_COEFFICIENTS> %f\n", new_coeffs[4]);
//    			printf("<UPDATED_COEFFICIENTS> %f\n", new_coeffs[5]);
    			printf("......\n");
   20c78:	010000f4 	movhi	r4,3
   20c7c:	2111e904 	addi	r4,r4,18340
   20c80:	0023b2c0 	call	23b2c <puts>

    			free(new_coeffs);
   20c84:	e13fe717 	ldw	r4,-100(fp)
   20c88:	0022fb40 	call	22fb4 <free>
    			new_coeffs=NULL;
   20c8c:	e03fe715 	stw	zero,-100(fp)
    	for(alt_u8 j = 0; j < 200; j++){
   20c90:	003f1106 	br	208d8 <main+0x2a8>

    	}
    }

    return 0;
}
   20c94:	e6fff804 	addi	sp,fp,-32
   20c98:	dfc00917 	ldw	ra,36(sp)
   20c9c:	df000817 	ldw	fp,32(sp)
   20ca0:	ddc00717 	ldw	r23,28(sp)
   20ca4:	dd800617 	ldw	r22,24(sp)
   20ca8:	dd400517 	ldw	r21,20(sp)
   20cac:	dd000417 	ldw	r20,16(sp)
   20cb0:	dcc00317 	ldw	r19,12(sp)
   20cb4:	dc800217 	ldw	r18,8(sp)
   20cb8:	dc400117 	ldw	r17,4(sp)
   20cbc:	dc000017 	ldw	r16,0(sp)
   20cc0:	dec00a04 	addi	sp,sp,40
   20cc4:	f800283a 	ret

00020cc8 <round>:
   20cc8:	2811d53a 	srai	r8,r5,20
   20ccc:	2807883a 	mov	r3,r5
   20cd0:	2005883a 	mov	r2,r4
   20cd4:	4201ffcc 	andi	r8,r8,2047
   20cd8:	41bf0044 	addi	r6,r8,-1023
   20cdc:	32400508 	cmpgei	r9,r6,20
   20ce0:	4800081e 	bne	r9,zero,20d04 <round+0x3c>
   20ce4:	30002216 	blt	r6,zero,20d70 <round+0xa8>
   20ce8:	01000434 	movhi	r4,16
   20cec:	213fffc4 	addi	r4,r4,-1
   20cf0:	2189d83a 	sra	r4,r4,r6
   20cf4:	290a703a 	and	r5,r5,r4
   20cf8:	288ab03a 	or	r5,r5,r2
   20cfc:	2800211e 	bne	r5,zero,20d84 <round+0xbc>
   20d00:	f800283a 	ret
   20d04:	32400d10 	cmplti	r9,r6,52
   20d08:	48000a1e 	bne	r9,zero,20d34 <round+0x6c>
   20d0c:	31810018 	cmpnei	r6,r6,1024
   20d10:	303ffb1e 	bne	r6,zero,20d00 <round+0x38>
   20d14:	deffff04 	addi	sp,sp,-4
   20d18:	200d883a 	mov	r6,r4
   20d1c:	280f883a 	mov	r7,r5
   20d20:	dfc00015 	stw	ra,0(sp)
   20d24:	00219000 	call	21900 <__adddf3>
   20d28:	dfc00017 	ldw	ra,0(sp)
   20d2c:	dec00104 	addi	sp,sp,4
   20d30:	f800283a 	ret
   20d34:	013fffc4 	movi	r4,-1
   20d38:	423efb44 	addi	r8,r8,-1043
   20d3c:	2210d83a 	srl	r8,r4,r8
   20d40:	1208703a 	and	r4,r2,r8
   20d44:	20001626 	beq	r4,zero,20da0 <round+0xd8>
   20d48:	01000cc4 	movi	r4,51
   20d4c:	2189c83a 	sub	r4,r4,r6
   20d50:	01800044 	movi	r6,1
   20d54:	310c983a 	sll	r6,r6,r4
   20d58:	308d883a 	add	r6,r6,r2
   20d5c:	3080012e 	bgeu	r6,r2,20d64 <round+0x9c>
   20d60:	28c00044 	addi	r3,r5,1
   20d64:	0210303a 	nor	r8,zero,r8
   20d68:	4184703a 	and	r2,r8,r6
   20d6c:	f800283a 	ret
   20d70:	31bfffe0 	cmpeqi	r6,r6,-1
   20d74:	28e0002c 	andhi	r3,r5,32768
   20d78:	30000a1e 	bne	r6,zero,20da4 <round+0xdc>
   20d7c:	0005883a 	mov	r2,zero
   20d80:	f800283a 	ret
   20d84:	01c00234 	movhi	r7,8
   20d88:	398dd83a 	sra	r6,r7,r6
   20d8c:	0108303a 	nor	r4,zero,r4
   20d90:	0005883a 	mov	r2,zero
   20d94:	30c7883a 	add	r3,r6,r3
   20d98:	1906703a 	and	r3,r3,r4
   20d9c:	f800283a 	ret
   20da0:	f800283a 	ret
   20da4:	18cffc34 	orhi	r3,r3,16368
   20da8:	003ff406 	br	20d7c <round+0xb4>

00020dac <__divsi3>:
   20dac:	20001a16 	blt	r4,zero,20e18 <__divsi3+0x6c>
   20db0:	000f883a 	mov	r7,zero
   20db4:	2800020e 	bge	r5,zero,20dc0 <__divsi3+0x14>
   20db8:	014bc83a 	sub	r5,zero,r5
   20dbc:	39c0005c 	xori	r7,r7,1
   20dc0:	200d883a 	mov	r6,r4
   20dc4:	00c00044 	movi	r3,1
   20dc8:	2900092e 	bgeu	r5,r4,20df0 <__divsi3+0x44>
   20dcc:	00800804 	movi	r2,32
   20dd0:	00c00044 	movi	r3,1
   20dd4:	00000106 	br	20ddc <__divsi3+0x30>
   20dd8:	10001226 	beq	r2,zero,20e24 <__divsi3+0x78>
   20ddc:	294b883a 	add	r5,r5,r5
   20de0:	10bfffc4 	addi	r2,r2,-1
   20de4:	18c7883a 	add	r3,r3,r3
   20de8:	293ffb36 	bltu	r5,r4,20dd8 <__divsi3+0x2c>
   20dec:	18000d26 	beq	r3,zero,20e24 <__divsi3+0x78>
   20df0:	0005883a 	mov	r2,zero
   20df4:	31400236 	bltu	r6,r5,20e00 <__divsi3+0x54>
   20df8:	314dc83a 	sub	r6,r6,r5
   20dfc:	10c4b03a 	or	r2,r2,r3
   20e00:	1806d07a 	srli	r3,r3,1
   20e04:	280ad07a 	srli	r5,r5,1
   20e08:	183ffa1e 	bne	r3,zero,20df4 <__divsi3+0x48>
   20e0c:	38000126 	beq	r7,zero,20e14 <__divsi3+0x68>
   20e10:	0085c83a 	sub	r2,zero,r2
   20e14:	f800283a 	ret
   20e18:	0109c83a 	sub	r4,zero,r4
   20e1c:	01c00044 	movi	r7,1
   20e20:	003fe406 	br	20db4 <__divsi3+0x8>
   20e24:	0005883a 	mov	r2,zero
   20e28:	003ff806 	br	20e0c <__divsi3+0x60>

00020e2c <__modsi3>:
   20e2c:	20001916 	blt	r4,zero,20e94 <__modsi3+0x68>
   20e30:	000f883a 	mov	r7,zero
   20e34:	2005883a 	mov	r2,r4
   20e38:	2800010e 	bge	r5,zero,20e40 <__modsi3+0x14>
   20e3c:	014bc83a 	sub	r5,zero,r5
   20e40:	00c00044 	movi	r3,1
   20e44:	2900092e 	bgeu	r5,r4,20e6c <__modsi3+0x40>
   20e48:	01800804 	movi	r6,32
   20e4c:	00c00044 	movi	r3,1
   20e50:	00000106 	br	20e58 <__modsi3+0x2c>
   20e54:	30000d26 	beq	r6,zero,20e8c <__modsi3+0x60>
   20e58:	294b883a 	add	r5,r5,r5
   20e5c:	31bfffc4 	addi	r6,r6,-1
   20e60:	18c7883a 	add	r3,r3,r3
   20e64:	293ffb36 	bltu	r5,r4,20e54 <__modsi3+0x28>
   20e68:	18000826 	beq	r3,zero,20e8c <__modsi3+0x60>
   20e6c:	1806d07a 	srli	r3,r3,1
   20e70:	11400136 	bltu	r2,r5,20e78 <__modsi3+0x4c>
   20e74:	1145c83a 	sub	r2,r2,r5
   20e78:	280ad07a 	srli	r5,r5,1
   20e7c:	183ffb1e 	bne	r3,zero,20e6c <__modsi3+0x40>
   20e80:	38000126 	beq	r7,zero,20e88 <__modsi3+0x5c>
   20e84:	0085c83a 	sub	r2,zero,r2
   20e88:	f800283a 	ret
   20e8c:	2005883a 	mov	r2,r4
   20e90:	003ffb06 	br	20e80 <__modsi3+0x54>
   20e94:	0109c83a 	sub	r4,zero,r4
   20e98:	01c00044 	movi	r7,1
   20e9c:	003fe506 	br	20e34 <__modsi3+0x8>

00020ea0 <__udivsi3>:
   20ea0:	200d883a 	mov	r6,r4
   20ea4:	2900152e 	bgeu	r5,r4,20efc <__udivsi3+0x5c>
   20ea8:	28001416 	blt	r5,zero,20efc <__udivsi3+0x5c>
   20eac:	00800804 	movi	r2,32
   20eb0:	00c00044 	movi	r3,1
   20eb4:	00000206 	br	20ec0 <__udivsi3+0x20>
   20eb8:	10000e26 	beq	r2,zero,20ef4 <__udivsi3+0x54>
   20ebc:	28000516 	blt	r5,zero,20ed4 <__udivsi3+0x34>
   20ec0:	294b883a 	add	r5,r5,r5
   20ec4:	10bfffc4 	addi	r2,r2,-1
   20ec8:	18c7883a 	add	r3,r3,r3
   20ecc:	293ffa36 	bltu	r5,r4,20eb8 <__udivsi3+0x18>
   20ed0:	18000826 	beq	r3,zero,20ef4 <__udivsi3+0x54>
   20ed4:	0005883a 	mov	r2,zero
   20ed8:	31400236 	bltu	r6,r5,20ee4 <__udivsi3+0x44>
   20edc:	314dc83a 	sub	r6,r6,r5
   20ee0:	10c4b03a 	or	r2,r2,r3
   20ee4:	1806d07a 	srli	r3,r3,1
   20ee8:	280ad07a 	srli	r5,r5,1
   20eec:	183ffa1e 	bne	r3,zero,20ed8 <__udivsi3+0x38>
   20ef0:	f800283a 	ret
   20ef4:	0005883a 	mov	r2,zero
   20ef8:	f800283a 	ret
   20efc:	00c00044 	movi	r3,1
   20f00:	003ff406 	br	20ed4 <__udivsi3+0x34>

00020f04 <__umodsi3>:
   20f04:	2005883a 	mov	r2,r4
   20f08:	2900132e 	bgeu	r5,r4,20f58 <__umodsi3+0x54>
   20f0c:	28001216 	blt	r5,zero,20f58 <__umodsi3+0x54>
   20f10:	01800804 	movi	r6,32
   20f14:	00c00044 	movi	r3,1
   20f18:	00000206 	br	20f24 <__umodsi3+0x20>
   20f1c:	30000c26 	beq	r6,zero,20f50 <__umodsi3+0x4c>
   20f20:	28000516 	blt	r5,zero,20f38 <__umodsi3+0x34>
   20f24:	294b883a 	add	r5,r5,r5
   20f28:	31bfffc4 	addi	r6,r6,-1
   20f2c:	18c7883a 	add	r3,r3,r3
   20f30:	293ffa36 	bltu	r5,r4,20f1c <__umodsi3+0x18>
   20f34:	18000626 	beq	r3,zero,20f50 <__umodsi3+0x4c>
   20f38:	1806d07a 	srli	r3,r3,1
   20f3c:	11400136 	bltu	r2,r5,20f44 <__umodsi3+0x40>
   20f40:	1145c83a 	sub	r2,r2,r5
   20f44:	280ad07a 	srli	r5,r5,1
   20f48:	183ffb1e 	bne	r3,zero,20f38 <__umodsi3+0x34>
   20f4c:	f800283a 	ret
   20f50:	2005883a 	mov	r2,r4
   20f54:	f800283a 	ret
   20f58:	00c00044 	movi	r3,1
   20f5c:	003ff606 	br	20f38 <__umodsi3+0x34>

00020f60 <__addsf3>:
   20f60:	280cd5fa 	srli	r6,r5,23
   20f64:	2006d5fa 	srli	r3,r4,23
   20f68:	2010d7fa 	srli	r8,r4,31
   20f6c:	01c02034 	movhi	r7,128
   20f70:	2818d7fa 	srli	r12,r5,31
   20f74:	defffc04 	addi	sp,sp,-16
   20f78:	39ffffc4 	addi	r7,r7,-1
   20f7c:	3914703a 	and	r10,r7,r4
   20f80:	32403fcc 	andi	r9,r6,255
   20f84:	dc800215 	stw	r18,8(sp)
   20f88:	dc400115 	stw	r17,4(sp)
   20f8c:	395a703a 	and	r13,r7,r5
   20f90:	1c403fcc 	andi	r17,r3,255
   20f94:	dfc00315 	stw	ra,12(sp)
   20f98:	dc000015 	stw	r16,0(sp)
   20f9c:	501c90fa 	slli	r14,r10,3
   20fa0:	681690fa 	slli	r11,r13,3
   20fa4:	500d883a 	mov	r6,r10
   20fa8:	4025883a 	mov	r18,r8
   20fac:	8a45c83a 	sub	r2,r17,r9
   20fb0:	43004b26 	beq	r8,r12,210e0 <__addsf3+0x180>
   20fb4:	0080390e 	bge	zero,r2,2109c <__addsf3+0x13c>
   20fb8:	48006326 	beq	r9,zero,21148 <__addsf3+0x1e8>
   20fbc:	88c03fe0 	cmpeqi	r3,r17,255
   20fc0:	1800401e 	bne	r3,zero,210c4 <__addsf3+0x164>
   20fc4:	5ac10034 	orhi	r11,r11,1024
   20fc8:	10c00708 	cmpgei	r3,r2,28
   20fcc:	1800ab1e 	bne	r3,zero,2127c <__addsf3+0x31c>
   20fd0:	01000804 	movi	r4,32
   20fd4:	2089c83a 	sub	r4,r4,r2
   20fd8:	5908983a 	sll	r4,r11,r4
   20fdc:	5884d83a 	srl	r2,r11,r2
   20fe0:	2008c03a 	cmpne	r4,r4,zero
   20fe4:	1104b03a 	or	r2,r2,r4
   20fe8:	7085c83a 	sub	r2,r14,r2
   20fec:	10c1002c 	andhi	r3,r2,1024
   20ff0:	18008526 	beq	r3,zero,21208 <__addsf3+0x2a8>
   20ff4:	04010034 	movhi	r16,1024
   20ff8:	843fffc4 	addi	r16,r16,-1
   20ffc:	1420703a 	and	r16,r2,r16
   21000:	8009883a 	mov	r4,r16
   21004:	00226200 	call	22620 <__clzsi2>
   21008:	10fffec4 	addi	r3,r2,-5
   2100c:	80c4983a 	sll	r2,r16,r3
   21010:	1c409516 	blt	r3,r17,21268 <__addsf3+0x308>
   21014:	1c47c83a 	sub	r3,r3,r17
   21018:	1c000044 	addi	r16,r3,1
   2101c:	01000804 	movi	r4,32
   21020:	2409c83a 	sub	r4,r4,r16
   21024:	1108983a 	sll	r4,r2,r4
   21028:	1404d83a 	srl	r2,r2,r16
   2102c:	0023883a 	mov	r17,zero
   21030:	2008c03a 	cmpne	r4,r4,zero
   21034:	1104b03a 	or	r2,r2,r4
   21038:	10c001cc 	andi	r3,r2,7
   2103c:	18000426 	beq	r3,zero,21050 <__addsf3+0xf0>
   21040:	10c003cc 	andi	r3,r2,15
   21044:	18c00120 	cmpeqi	r3,r3,4
   21048:	1800011e 	bne	r3,zero,21050 <__addsf3+0xf0>
   2104c:	10800104 	addi	r2,r2,4
   21050:	10c1002c 	andhi	r3,r2,1024
   21054:	18006e26 	beq	r3,zero,21210 <__addsf3+0x2b0>
   21058:	88c00044 	addi	r3,r17,1
   2105c:	19003fe0 	cmpeqi	r4,r3,255
   21060:	20006d1e 	bne	r4,zero,21218 <__addsf3+0x2b8>
   21064:	100491ba 	slli	r2,r2,6
   21068:	100cd27a 	srli	r6,r2,9
   2106c:	18803fcc 	andi	r2,r3,255
   21070:	100495fa 	slli	r2,r2,23
   21074:	94803fcc 	andi	r18,r18,255
   21078:	902497fa 	slli	r18,r18,31
   2107c:	1184b03a 	or	r2,r2,r6
   21080:	1484b03a 	or	r2,r2,r18
   21084:	dfc00317 	ldw	ra,12(sp)
   21088:	dc800217 	ldw	r18,8(sp)
   2108c:	dc400117 	ldw	r17,4(sp)
   21090:	dc000017 	ldw	r16,0(sp)
   21094:	dec00404 	addi	sp,sp,16
   21098:	f800283a 	ret
   2109c:	10003026 	beq	r2,zero,21160 <__addsf3+0x200>
   210a0:	4c49c83a 	sub	r4,r9,r17
   210a4:	88007f1e 	bne	r17,zero,212a4 <__addsf3+0x344>
   210a8:	70003f26 	beq	r14,zero,211a8 <__addsf3+0x248>
   210ac:	213fffc4 	addi	r4,r4,-1
   210b0:	2000b326 	beq	r4,zero,21380 <__addsf3+0x420>
   210b4:	48803fe0 	cmpeqi	r2,r9,255
   210b8:	10007d26 	beq	r2,zero,212b0 <__addsf3+0x350>
   210bc:	6025883a 	mov	r18,r12
   210c0:	6815883a 	mov	r10,r13
   210c4:	50005426 	beq	r10,zero,21218 <__addsf3+0x2b8>
   210c8:	00802034 	movhi	r2,128
   210cc:	51801034 	orhi	r6,r10,64
   210d0:	10bfffc4 	addi	r2,r2,-1
   210d4:	308c703a 	and	r6,r6,r2
   210d8:	00ffffc4 	movi	r3,-1
   210dc:	003fe306 	br	2106c <__addsf3+0x10c>
   210e0:	0080500e 	bge	zero,r2,21224 <__addsf3+0x2c4>
   210e4:	48002a26 	beq	r9,zero,21190 <__addsf3+0x230>
   210e8:	88c03fe0 	cmpeqi	r3,r17,255
   210ec:	183ff51e 	bne	r3,zero,210c4 <__addsf3+0x164>
   210f0:	5ac10034 	orhi	r11,r11,1024
   210f4:	10c00708 	cmpgei	r3,r2,28
   210f8:	1800741e 	bne	r3,zero,212cc <__addsf3+0x36c>
   210fc:	00c00804 	movi	r3,32
   21100:	1887c83a 	sub	r3,r3,r2
   21104:	58c6983a 	sll	r3,r11,r3
   21108:	5884d83a 	srl	r2,r11,r2
   2110c:	1806c03a 	cmpne	r3,r3,zero
   21110:	10c4b03a 	or	r2,r2,r3
   21114:	1385883a 	add	r2,r2,r14
   21118:	10c1002c 	andhi	r3,r2,1024
   2111c:	18003a26 	beq	r3,zero,21208 <__addsf3+0x2a8>
   21120:	8c400044 	addi	r17,r17,1
   21124:	88c03fe0 	cmpeqi	r3,r17,255
   21128:	18003b1e 	bne	r3,zero,21218 <__addsf3+0x2b8>
   2112c:	1008d07a 	srli	r4,r2,1
   21130:	00df8034 	movhi	r3,32256
   21134:	18ffffc4 	addi	r3,r3,-1
   21138:	1080004c 	andi	r2,r2,1
   2113c:	20c8703a 	and	r4,r4,r3
   21140:	2084b03a 	or	r2,r4,r2
   21144:	003fbc06 	br	21038 <__addsf3+0xd8>
   21148:	58001a26 	beq	r11,zero,211b4 <__addsf3+0x254>
   2114c:	10bfffc4 	addi	r2,r2,-1
   21150:	10007c26 	beq	r2,zero,21344 <__addsf3+0x3e4>
   21154:	88c03fe0 	cmpeqi	r3,r17,255
   21158:	183f9b26 	beq	r3,zero,20fc8 <__addsf3+0x68>
   2115c:	003fd906 	br	210c4 <__addsf3+0x164>
   21160:	88800044 	addi	r2,r17,1
   21164:	10803f8c 	andi	r2,r2,254
   21168:	1000461e 	bne	r2,zero,21284 <__addsf3+0x324>
   2116c:	88006e1e 	bne	r17,zero,21328 <__addsf3+0x3c8>
   21170:	70007f26 	beq	r14,zero,21370 <__addsf3+0x410>
   21174:	583fbd26 	beq	r11,zero,2106c <__addsf3+0x10c>
   21178:	72c5c83a 	sub	r2,r14,r11
   2117c:	1101002c 	andhi	r4,r2,1024
   21180:	20008326 	beq	r4,zero,21390 <__addsf3+0x430>
   21184:	5b85c83a 	sub	r2,r11,r14
   21188:	6025883a 	mov	r18,r12
   2118c:	003faa06 	br	21038 <__addsf3+0xd8>
   21190:	58000826 	beq	r11,zero,211b4 <__addsf3+0x254>
   21194:	10bfffc4 	addi	r2,r2,-1
   21198:	10006826 	beq	r2,zero,2133c <__addsf3+0x3dc>
   2119c:	88c03fe0 	cmpeqi	r3,r17,255
   211a0:	183fd426 	beq	r3,zero,210f4 <__addsf3+0x194>
   211a4:	003fc706 	br	210c4 <__addsf3+0x164>
   211a8:	6025883a 	mov	r18,r12
   211ac:	6815883a 	mov	r10,r13
   211b0:	4823883a 	mov	r17,r9
   211b4:	88803fe0 	cmpeqi	r2,r17,255
   211b8:	103fc21e 	bne	r2,zero,210c4 <__addsf3+0x164>
   211bc:	00802034 	movhi	r2,128
   211c0:	10bfffc4 	addi	r2,r2,-1
   211c4:	508c703a 	and	r6,r10,r2
   211c8:	8807883a 	mov	r3,r17
   211cc:	003fa706 	br	2106c <__addsf3+0x10c>
   211d0:	881f883a 	mov	r15,r17
   211d4:	8c400044 	addi	r17,r17,1
   211d8:	88803f8c 	andi	r2,r17,254
   211dc:	10004a1e 	bne	r2,zero,21308 <__addsf3+0x3a8>
   211e0:	78005a1e 	bne	r15,zero,2134c <__addsf3+0x3ec>
   211e4:	70006e26 	beq	r14,zero,213a0 <__addsf3+0x440>
   211e8:	583fa026 	beq	r11,zero,2106c <__addsf3+0x10c>
   211ec:	72c5883a 	add	r2,r14,r11
   211f0:	10c1002c 	andhi	r3,r2,1024
   211f4:	18006f26 	beq	r3,zero,213b4 <__addsf3+0x454>
   211f8:	00ff0034 	movhi	r3,64512
   211fc:	18ffffc4 	addi	r3,r3,-1
   21200:	10c4703a 	and	r2,r2,r3
   21204:	04400044 	movi	r17,1
   21208:	10c001cc 	andi	r3,r2,7
   2120c:	183f8c1e 	bne	r3,zero,21040 <__addsf3+0xe0>
   21210:	1014d0fa 	srli	r10,r2,3
   21214:	003fe706 	br	211b4 <__addsf3+0x254>
   21218:	00ffffc4 	movi	r3,-1
   2121c:	000d883a 	mov	r6,zero
   21220:	003f9206 	br	2106c <__addsf3+0x10c>
   21224:	103fea26 	beq	r2,zero,211d0 <__addsf3+0x270>
   21228:	4c49c83a 	sub	r4,r9,r17
   2122c:	88003026 	beq	r17,zero,212f0 <__addsf3+0x390>
   21230:	48803fe0 	cmpeqi	r2,r9,255
   21234:	103fa21e 	bne	r2,zero,210c0 <__addsf3+0x160>
   21238:	73810034 	orhi	r14,r14,1024
   2123c:	20800708 	cmpgei	r2,r4,28
   21240:	1000491e 	bne	r2,zero,21368 <__addsf3+0x408>
   21244:	00800804 	movi	r2,32
   21248:	1105c83a 	sub	r2,r2,r4
   2124c:	7084983a 	sll	r2,r14,r2
   21250:	7108d83a 	srl	r4,r14,r4
   21254:	1004c03a 	cmpne	r2,r2,zero
   21258:	2088b03a 	or	r4,r4,r2
   2125c:	22c5883a 	add	r2,r4,r11
   21260:	4823883a 	mov	r17,r9
   21264:	003fac06 	br	21118 <__addsf3+0x1b8>
   21268:	013f0034 	movhi	r4,64512
   2126c:	213fffc4 	addi	r4,r4,-1
   21270:	88e3c83a 	sub	r17,r17,r3
   21274:	1104703a 	and	r2,r2,r4
   21278:	003f6f06 	br	21038 <__addsf3+0xd8>
   2127c:	00800044 	movi	r2,1
   21280:	003f5906 	br	20fe8 <__addsf3+0x88>
   21284:	72e1c83a 	sub	r16,r14,r11
   21288:	8081002c 	andhi	r2,r16,1024
   2128c:	1000231e 	bne	r2,zero,2131c <__addsf3+0x3bc>
   21290:	803f5b1e 	bne	r16,zero,21000 <__addsf3+0xa0>
   21294:	0025883a 	mov	r18,zero
   21298:	0007883a 	mov	r3,zero
   2129c:	000d883a 	mov	r6,zero
   212a0:	003f7206 	br	2106c <__addsf3+0x10c>
   212a4:	48803fe0 	cmpeqi	r2,r9,255
   212a8:	103f841e 	bne	r2,zero,210bc <__addsf3+0x15c>
   212ac:	73810034 	orhi	r14,r14,1024
   212b0:	20800708 	cmpgei	r2,r4,28
   212b4:	10000726 	beq	r2,zero,212d4 <__addsf3+0x374>
   212b8:	01000044 	movi	r4,1
   212bc:	5905c83a 	sub	r2,r11,r4
   212c0:	6025883a 	mov	r18,r12
   212c4:	4823883a 	mov	r17,r9
   212c8:	003f4806 	br	20fec <__addsf3+0x8c>
   212cc:	00800044 	movi	r2,1
   212d0:	003f9006 	br	21114 <__addsf3+0x1b4>
   212d4:	00800804 	movi	r2,32
   212d8:	1105c83a 	sub	r2,r2,r4
   212dc:	7084983a 	sll	r2,r14,r2
   212e0:	7108d83a 	srl	r4,r14,r4
   212e4:	1004c03a 	cmpne	r2,r2,zero
   212e8:	2088b03a 	or	r4,r4,r2
   212ec:	003ff306 	br	212bc <__addsf3+0x35c>
   212f0:	703fae26 	beq	r14,zero,211ac <__addsf3+0x24c>
   212f4:	213fffc4 	addi	r4,r4,-1
   212f8:	20002b26 	beq	r4,zero,213a8 <__addsf3+0x448>
   212fc:	48803fe0 	cmpeqi	r2,r9,255
   21300:	103fce26 	beq	r2,zero,2123c <__addsf3+0x2dc>
   21304:	003f6e06 	br	210c0 <__addsf3+0x160>
   21308:	88803fe0 	cmpeqi	r2,r17,255
   2130c:	103fc21e 	bne	r2,zero,21218 <__addsf3+0x2b8>
   21310:	72c5883a 	add	r2,r14,r11
   21314:	1004d07a 	srli	r2,r2,1
   21318:	003fbb06 	br	21208 <__addsf3+0x2a8>
   2131c:	5ba1c83a 	sub	r16,r11,r14
   21320:	6025883a 	mov	r18,r12
   21324:	003f3606 	br	21000 <__addsf3+0xa0>
   21328:	7000091e 	bne	r14,zero,21350 <__addsf3+0x3f0>
   2132c:	583f631e 	bne	r11,zero,210bc <__addsf3+0x15c>
   21330:	0025883a 	mov	r18,zero
   21334:	380d883a 	mov	r6,r7
   21338:	003f6706 	br	210d8 <__addsf3+0x178>
   2133c:	72c5883a 	add	r2,r14,r11
   21340:	003f7506 	br	21118 <__addsf3+0x1b8>
   21344:	72c5c83a 	sub	r2,r14,r11
   21348:	003f2806 	br	20fec <__addsf3+0x8c>
   2134c:	703f5c26 	beq	r14,zero,210c0 <__addsf3+0x160>
   21350:	583f5c26 	beq	r11,zero,210c4 <__addsf3+0x164>
   21354:	20c0102c 	andhi	r3,r4,64
   21358:	183f5a26 	beq	r3,zero,210c4 <__addsf3+0x164>
   2135c:	2940102c 	andhi	r5,r5,64
   21360:	283f581e 	bne	r5,zero,210c4 <__addsf3+0x164>
   21364:	003f5506 	br	210bc <__addsf3+0x15c>
   21368:	01000044 	movi	r4,1
   2136c:	003fbb06 	br	2125c <__addsf3+0x2fc>
   21370:	58000826 	beq	r11,zero,21394 <__addsf3+0x434>
   21374:	6025883a 	mov	r18,r12
   21378:	680d883a 	mov	r6,r13
   2137c:	003f3b06 	br	2106c <__addsf3+0x10c>
   21380:	5b85c83a 	sub	r2,r11,r14
   21384:	6025883a 	mov	r18,r12
   21388:	4823883a 	mov	r17,r9
   2138c:	003f1706 	br	20fec <__addsf3+0x8c>
   21390:	103f9d1e 	bne	r2,zero,21208 <__addsf3+0x2a8>
   21394:	0025883a 	mov	r18,zero
   21398:	000d883a 	mov	r6,zero
   2139c:	003f3306 	br	2106c <__addsf3+0x10c>
   213a0:	680d883a 	mov	r6,r13
   213a4:	003f3106 	br	2106c <__addsf3+0x10c>
   213a8:	72c5883a 	add	r2,r14,r11
   213ac:	4823883a 	mov	r17,r9
   213b0:	003f5906 	br	21118 <__addsf3+0x1b8>
   213b4:	0023883a 	mov	r17,zero
   213b8:	003f9306 	br	21208 <__addsf3+0x2a8>

000213bc <__mulsf3>:
   213bc:	defff704 	addi	sp,sp,-36
   213c0:	dc400215 	stw	r17,8(sp)
   213c4:	2022d5fa 	srli	r17,r4,23
   213c8:	dc000115 	stw	r16,4(sp)
   213cc:	04002034 	movhi	r16,128
   213d0:	dd000515 	stw	r20,20(sp)
   213d4:	843fffc4 	addi	r16,r16,-1
   213d8:	dfc00815 	stw	ra,32(sp)
   213dc:	dd800715 	stw	r22,28(sp)
   213e0:	dd400615 	stw	r21,24(sp)
   213e4:	dcc00415 	stw	r19,16(sp)
   213e8:	dc800315 	stw	r18,12(sp)
   213ec:	8c403fcc 	andi	r17,r17,255
   213f0:	2028d7fa 	srli	r20,r4,31
   213f4:	8120703a 	and	r16,r16,r4
   213f8:	88004e26 	beq	r17,zero,21534 <__mulsf3+0x178>
   213fc:	88803fe0 	cmpeqi	r2,r17,255
   21400:	1000511e 	bne	r2,zero,21548 <__mulsf3+0x18c>
   21404:	802090fa 	slli	r16,r16,3
   21408:	8c7fe044 	addi	r17,r17,-127
   2140c:	002d883a 	mov	r22,zero
   21410:	84010034 	orhi	r16,r16,1024
   21414:	0027883a 	mov	r19,zero
   21418:	2804d5fa 	srli	r2,r5,23
   2141c:	01002034 	movhi	r4,128
   21420:	213fffc4 	addi	r4,r4,-1
   21424:	10803fcc 	andi	r2,r2,255
   21428:	282ad7fa 	srli	r21,r5,31
   2142c:	2164703a 	and	r18,r4,r5
   21430:	10004a26 	beq	r2,zero,2155c <__mulsf3+0x1a0>
   21434:	11003fe0 	cmpeqi	r4,r2,255
   21438:	20001e1e 	bne	r4,zero,214b4 <__mulsf3+0xf8>
   2143c:	900890fa 	slli	r4,r18,3
   21440:	10bfe044 	addi	r2,r2,-127
   21444:	88a3883a 	add	r17,r17,r2
   21448:	24810034 	orhi	r18,r4,1024
   2144c:	0009883a 	mov	r4,zero
   21450:	b1800428 	cmpgeui	r6,r22,16
   21454:	a544f03a 	xor	r2,r20,r21
   21458:	89c00044 	addi	r7,r17,1
   2145c:	3000461e 	bne	r6,zero,21578 <__mulsf3+0x1bc>
   21460:	b00690ba 	slli	r3,r22,2
   21464:	018000b4 	movhi	r6,2
   21468:	198d883a 	add	r6,r3,r6
   2146c:	30c51d17 	ldw	r3,5236(r6)
   21470:	1800683a 	jmp	r3
   21474:	00021578 	rdprs	zero,zero,2133
   21478:	000214cc 	andi	zero,zero,2131
   2147c:	000214cc 	andi	zero,zero,2131
   21480:	000214c8 	cmpgei	zero,zero,2131
   21484:	000214d4 	movui	zero,2131
   21488:	000214d4 	movui	zero,2131
   2148c:	000216ac 	andhi	zero,zero,2138
   21490:	000214c8 	cmpgei	zero,zero,2131
   21494:	000214d4 	movui	zero,2131
   21498:	000216ac 	andhi	zero,zero,2138
   2149c:	000214d4 	movui	zero,2131
   214a0:	000214c8 	cmpgei	zero,zero,2131
   214a4:	0002163c 	xorhi	zero,zero,2136
   214a8:	0002163c 	xorhi	zero,zero,2136
   214ac:	0002163c 	xorhi	zero,zero,2136
   214b0:	00021710 	cmplti	zero,zero,2140
   214b4:	8c403fc4 	addi	r17,r17,255
   214b8:	9000621e 	bne	r18,zero,21644 <__mulsf3+0x288>
   214bc:	b5800094 	ori	r22,r22,2
   214c0:	01000084 	movi	r4,2
   214c4:	003fe206 	br	21450 <__mulsf3+0x94>
   214c8:	a805883a 	mov	r2,r21
   214cc:	9021883a 	mov	r16,r18
   214d0:	2027883a 	mov	r19,r4
   214d4:	98c000a0 	cmpeqi	r3,r19,2
   214d8:	1800241e 	bne	r3,zero,2156c <__mulsf3+0x1b0>
   214dc:	98c000e0 	cmpeqi	r3,r19,3
   214e0:	18009d1e 	bne	r3,zero,21758 <__mulsf3+0x39c>
   214e4:	98c00060 	cmpeqi	r3,r19,1
   214e8:	18004126 	beq	r3,zero,215f0 <__mulsf3+0x234>
   214ec:	0007883a 	mov	r3,zero
   214f0:	0009883a 	mov	r4,zero
   214f4:	1c003fcc 	andi	r16,r3,255
   214f8:	802095fa 	slli	r16,r16,23
   214fc:	10803fcc 	andi	r2,r2,255
   21500:	100497fa 	slli	r2,r2,31
   21504:	8120b03a 	or	r16,r16,r4
   21508:	8084b03a 	or	r2,r16,r2
   2150c:	dfc00817 	ldw	ra,32(sp)
   21510:	dd800717 	ldw	r22,28(sp)
   21514:	dd400617 	ldw	r21,24(sp)
   21518:	dd000517 	ldw	r20,20(sp)
   2151c:	dcc00417 	ldw	r19,16(sp)
   21520:	dc800317 	ldw	r18,12(sp)
   21524:	dc400217 	ldw	r17,8(sp)
   21528:	dc000117 	ldw	r16,4(sp)
   2152c:	dec00904 	addi	sp,sp,36
   21530:	f800283a 	ret
   21534:	8000521e 	bne	r16,zero,21680 <__mulsf3+0x2c4>
   21538:	05800104 	movi	r22,4
   2153c:	0023883a 	mov	r17,zero
   21540:	04c00044 	movi	r19,1
   21544:	003fb406 	br	21418 <__mulsf3+0x5c>
   21548:	8000491e 	bne	r16,zero,21670 <__mulsf3+0x2b4>
   2154c:	05800204 	movi	r22,8
   21550:	04403fc4 	movi	r17,255
   21554:	04c00084 	movi	r19,2
   21558:	003faf06 	br	21418 <__mulsf3+0x5c>
   2155c:	90003c1e 	bne	r18,zero,21650 <__mulsf3+0x294>
   21560:	b5800054 	ori	r22,r22,1
   21564:	01000044 	movi	r4,1
   21568:	003fb906 	br	21450 <__mulsf3+0x94>
   2156c:	00ffffc4 	movi	r3,-1
   21570:	0009883a 	mov	r4,zero
   21574:	003fdf06 	br	214f4 <__mulsf3+0x138>
   21578:	9012d43a 	srli	r9,r18,16
   2157c:	80ffffcc 	andi	r3,r16,65535
   21580:	8010d43a 	srli	r8,r16,16
   21584:	913fffcc 	andi	r4,r18,65535
   21588:	190b383a 	mul	r5,r3,r4
   2158c:	4125383a 	mul	r18,r8,r4
   21590:	48cd383a 	mul	r6,r9,r3
   21594:	2806d43a 	srli	r3,r5,16
   21598:	4251383a 	mul	r8,r8,r9
   2159c:	348d883a 	add	r6,r6,r18
   215a0:	1987883a 	add	r3,r3,r6
   215a4:	1c80022e 	bgeu	r3,r18,215b0 <__mulsf3+0x1f4>
   215a8:	01000074 	movhi	r4,1
   215ac:	4111883a 	add	r8,r8,r4
   215b0:	1808943a 	slli	r4,r3,16
   215b4:	1820d43a 	srli	r16,r3,16
   215b8:	297fffcc 	andi	r5,r5,65535
   215bc:	2149883a 	add	r4,r4,r5
   215c0:	200691ba 	slli	r3,r4,6
   215c4:	8221883a 	add	r16,r16,r8
   215c8:	802091ba 	slli	r16,r16,6
   215cc:	2008d6ba 	srli	r4,r4,26
   215d0:	1806c03a 	cmpne	r3,r3,zero
   215d4:	8142002c 	andhi	r5,r16,2048
   215d8:	1908b03a 	or	r4,r3,r4
   215dc:	8120b03a 	or	r16,r16,r4
   215e0:	28005b26 	beq	r5,zero,21750 <__mulsf3+0x394>
   215e4:	8006d07a 	srli	r3,r16,1
   215e8:	8400004c 	andi	r16,r16,1
   215ec:	1c20b03a 	or	r16,r3,r16
   215f0:	38c01fc4 	addi	r3,r7,127
   215f4:	00c0320e 	bge	zero,r3,216c0 <__mulsf3+0x304>
   215f8:	810001cc 	andi	r4,r16,7
   215fc:	20000426 	beq	r4,zero,21610 <__mulsf3+0x254>
   21600:	810003cc 	andi	r4,r16,15
   21604:	21000120 	cmpeqi	r4,r4,4
   21608:	2000011e 	bne	r4,zero,21610 <__mulsf3+0x254>
   2160c:	84000104 	addi	r16,r16,4
   21610:	8102002c 	andhi	r4,r16,2048
   21614:	20000426 	beq	r4,zero,21628 <__mulsf3+0x26c>
   21618:	00fe0034 	movhi	r3,63488
   2161c:	18ffffc4 	addi	r3,r3,-1
   21620:	80e0703a 	and	r16,r16,r3
   21624:	38c02004 	addi	r3,r7,128
   21628:	19003fc8 	cmpgei	r4,r3,255
   2162c:	203fcf1e 	bne	r4,zero,2156c <__mulsf3+0x1b0>
   21630:	802091ba 	slli	r16,r16,6
   21634:	8008d27a 	srli	r4,r16,9
   21638:	003fae06 	br	214f4 <__mulsf3+0x138>
   2163c:	a005883a 	mov	r2,r20
   21640:	003fa406 	br	214d4 <__mulsf3+0x118>
   21644:	b58000d4 	ori	r22,r22,3
   21648:	010000c4 	movi	r4,3
   2164c:	003f8006 	br	21450 <__mulsf3+0x94>
   21650:	9009883a 	mov	r4,r18
   21654:	00226200 	call	22620 <__clzsi2>
   21658:	10fffec4 	addi	r3,r2,-5
   2165c:	88a3c83a 	sub	r17,r17,r2
   21660:	90e4983a 	sll	r18,r18,r3
   21664:	8c7fe284 	addi	r17,r17,-118
   21668:	0009883a 	mov	r4,zero
   2166c:	003f7806 	br	21450 <__mulsf3+0x94>
   21670:	05800304 	movi	r22,12
   21674:	04403fc4 	movi	r17,255
   21678:	04c000c4 	movi	r19,3
   2167c:	003f6606 	br	21418 <__mulsf3+0x5c>
   21680:	8009883a 	mov	r4,r16
   21684:	d9400015 	stw	r5,0(sp)
   21688:	00226200 	call	22620 <__clzsi2>
   2168c:	10fffec4 	addi	r3,r2,-5
   21690:	047fe284 	movi	r17,-118
   21694:	80e0983a 	sll	r16,r16,r3
   21698:	d9400017 	ldw	r5,0(sp)
   2169c:	88a3c83a 	sub	r17,r17,r2
   216a0:	002d883a 	mov	r22,zero
   216a4:	0027883a 	mov	r19,zero
   216a8:	003f5b06 	br	21418 <__mulsf3+0x5c>
   216ac:	01002034 	movhi	r4,128
   216b0:	0005883a 	mov	r2,zero
   216b4:	213fffc4 	addi	r4,r4,-1
   216b8:	00ffffc4 	movi	r3,-1
   216bc:	003f8d06 	br	214f4 <__mulsf3+0x138>
   216c0:	01000044 	movi	r4,1
   216c4:	20c7c83a 	sub	r3,r4,r3
   216c8:	19000708 	cmpgei	r4,r3,28
   216cc:	203f871e 	bne	r4,zero,214ec <__mulsf3+0x130>
   216d0:	39002784 	addi	r4,r7,158
   216d4:	8108983a 	sll	r4,r16,r4
   216d8:	80e0d83a 	srl	r16,r16,r3
   216dc:	2008c03a 	cmpne	r4,r4,zero
   216e0:	8120b03a 	or	r16,r16,r4
   216e4:	80c001cc 	andi	r3,r16,7
   216e8:	18000426 	beq	r3,zero,216fc <__mulsf3+0x340>
   216ec:	80c003cc 	andi	r3,r16,15
   216f0:	18c00120 	cmpeqi	r3,r3,4
   216f4:	1800011e 	bne	r3,zero,216fc <__mulsf3+0x340>
   216f8:	84000104 	addi	r16,r16,4
   216fc:	80c1002c 	andhi	r3,r16,1024
   21700:	183fcb26 	beq	r3,zero,21630 <__mulsf3+0x274>
   21704:	00c00044 	movi	r3,1
   21708:	0009883a 	mov	r4,zero
   2170c:	003f7906 	br	214f4 <__mulsf3+0x138>
   21710:	8080102c 	andhi	r2,r16,64
   21714:	10000826 	beq	r2,zero,21738 <__mulsf3+0x37c>
   21718:	9080102c 	andhi	r2,r18,64
   2171c:	1000061e 	bne	r2,zero,21738 <__mulsf3+0x37c>
   21720:	00802034 	movhi	r2,128
   21724:	10bfffc4 	addi	r2,r2,-1
   21728:	91001034 	orhi	r4,r18,64
   2172c:	2088703a 	and	r4,r4,r2
   21730:	a805883a 	mov	r2,r21
   21734:	003fe006 	br	216b8 <__mulsf3+0x2fc>
   21738:	00802034 	movhi	r2,128
   2173c:	10bfffc4 	addi	r2,r2,-1
   21740:	81001034 	orhi	r4,r16,64
   21744:	2088703a 	and	r4,r4,r2
   21748:	a005883a 	mov	r2,r20
   2174c:	003fda06 	br	216b8 <__mulsf3+0x2fc>
   21750:	880f883a 	mov	r7,r17
   21754:	003fa606 	br	215f0 <__mulsf3+0x234>
   21758:	00c02034 	movhi	r3,128
   2175c:	81001034 	orhi	r4,r16,64
   21760:	18ffffc4 	addi	r3,r3,-1
   21764:	20c8703a 	and	r4,r4,r3
   21768:	003fd306 	br	216b8 <__mulsf3+0x2fc>

0002176c <__fixsfsi>:
   2176c:	200ad5fa 	srli	r5,r4,23
   21770:	00c02034 	movhi	r3,128
   21774:	18ffffc4 	addi	r3,r3,-1
   21778:	29403fcc 	andi	r5,r5,255
   2177c:	29801ff0 	cmpltui	r6,r5,127
   21780:	200ed7fa 	srli	r7,r4,31
   21784:	1906703a 	and	r3,r3,r4
   21788:	3000061e 	bne	r6,zero,217a4 <__fixsfsi+0x38>
   2178c:	288027b0 	cmpltui	r2,r5,158
   21790:	1000061e 	bne	r2,zero,217ac <__fixsfsi+0x40>
   21794:	00a00034 	movhi	r2,32768
   21798:	10bfffc4 	addi	r2,r2,-1
   2179c:	3885883a 	add	r2,r7,r2
   217a0:	f800283a 	ret
   217a4:	0005883a 	mov	r2,zero
   217a8:	f800283a 	ret
   217ac:	28802590 	cmplti	r2,r5,150
   217b0:	18c02034 	orhi	r3,r3,128
   217b4:	1000051e 	bne	r2,zero,217cc <__fixsfsi+0x60>
   217b8:	28bfda84 	addi	r2,r5,-150
   217bc:	1884983a 	sll	r2,r3,r2
   217c0:	383ff926 	beq	r7,zero,217a8 <__fixsfsi+0x3c>
   217c4:	0085c83a 	sub	r2,zero,r2
   217c8:	f800283a 	ret
   217cc:	00802584 	movi	r2,150
   217d0:	1145c83a 	sub	r2,r2,r5
   217d4:	1884d83a 	srl	r2,r3,r2
   217d8:	003ff906 	br	217c0 <__fixsfsi+0x54>

000217dc <__floatsisf>:
   217dc:	defffd04 	addi	sp,sp,-12
   217e0:	dfc00215 	stw	ra,8(sp)
   217e4:	dc400115 	stw	r17,4(sp)
   217e8:	dc000015 	stw	r16,0(sp)
   217ec:	20001226 	beq	r4,zero,21838 <__floatsisf+0x5c>
   217f0:	2022d7fa 	srli	r17,r4,31
   217f4:	2021883a 	mov	r16,r4
   217f8:	20001d16 	blt	r4,zero,21870 <__floatsisf+0x94>
   217fc:	8009883a 	mov	r4,r16
   21800:	00226200 	call	22620 <__clzsi2>
   21804:	100b883a 	mov	r5,r2
   21808:	00802784 	movi	r2,158
   2180c:	1145c83a 	sub	r2,r2,r5
   21810:	10c025c8 	cmpgei	r3,r2,151
   21814:	1800181e 	bne	r3,zero,21878 <__floatsisf+0x9c>
   21818:	28c00248 	cmpgei	r3,r5,9
   2181c:	18003426 	beq	r3,zero,218f0 <__floatsisf+0x114>
   21820:	297ffe04 	addi	r5,r5,-8
   21824:	8160983a 	sll	r16,r16,r5
   21828:	00c02034 	movhi	r3,128
   2182c:	18ffffc4 	addi	r3,r3,-1
   21830:	80e0703a 	and	r16,r16,r3
   21834:	00000306 	br	21844 <__floatsisf+0x68>
   21838:	0023883a 	mov	r17,zero
   2183c:	0005883a 	mov	r2,zero
   21840:	0021883a 	mov	r16,zero
   21844:	10803fcc 	andi	r2,r2,255
   21848:	100495fa 	slli	r2,r2,23
   2184c:	8c403fcc 	andi	r17,r17,255
   21850:	882297fa 	slli	r17,r17,31
   21854:	1404b03a 	or	r2,r2,r16
   21858:	1444b03a 	or	r2,r2,r17
   2185c:	dfc00217 	ldw	ra,8(sp)
   21860:	dc400117 	ldw	r17,4(sp)
   21864:	dc000017 	ldw	r16,0(sp)
   21868:	dec00304 	addi	sp,sp,12
   2186c:	f800283a 	ret
   21870:	0121c83a 	sub	r16,zero,r4
   21874:	003fe106 	br	217fc <__floatsisf+0x20>
   21878:	10c02690 	cmplti	r3,r2,154
   2187c:	1800071e 	bne	r3,zero,2189c <__floatsisf+0xc0>
   21880:	28c006c4 	addi	r3,r5,27
   21884:	01000144 	movi	r4,5
   21888:	80c6983a 	sll	r3,r16,r3
   2188c:	2149c83a 	sub	r4,r4,r5
   21890:	8120d83a 	srl	r16,r16,r4
   21894:	1806c03a 	cmpne	r3,r3,zero
   21898:	80e0b03a 	or	r16,r16,r3
   2189c:	28c00190 	cmplti	r3,r5,6
   218a0:	1800021e 	bne	r3,zero,218ac <__floatsisf+0xd0>
   218a4:	28fffec4 	addi	r3,r5,-5
   218a8:	80e0983a 	sll	r16,r16,r3
   218ac:	00ff0034 	movhi	r3,64512
   218b0:	18ffffc4 	addi	r3,r3,-1
   218b4:	810001cc 	andi	r4,r16,7
   218b8:	80cc703a 	and	r6,r16,r3
   218bc:	20000926 	beq	r4,zero,218e4 <__floatsisf+0x108>
   218c0:	810003cc 	andi	r4,r16,15
   218c4:	21000120 	cmpeqi	r4,r4,4
   218c8:	2000061e 	bne	r4,zero,218e4 <__floatsisf+0x108>
   218cc:	31800104 	addi	r6,r6,4
   218d0:	3101002c 	andhi	r4,r6,1024
   218d4:	20000326 	beq	r4,zero,218e4 <__floatsisf+0x108>
   218d8:	30cc703a 	and	r6,r6,r3
   218dc:	00c027c4 	movi	r3,159
   218e0:	1945c83a 	sub	r2,r3,r5
   218e4:	302091ba 	slli	r16,r6,6
   218e8:	8020d27a 	srli	r16,r16,9
   218ec:	003fd506 	br	21844 <__floatsisf+0x68>
   218f0:	01002034 	movhi	r4,128
   218f4:	213fffc4 	addi	r4,r4,-1
   218f8:	8120703a 	and	r16,r16,r4
   218fc:	003fd106 	br	21844 <__floatsisf+0x68>

00021900 <__adddf3>:
   21900:	02000434 	movhi	r8,16
   21904:	423fffc4 	addi	r8,r8,-1
   21908:	3a12703a 	and	r9,r7,r8
   2190c:	2a06703a 	and	r3,r5,r8
   21910:	2818d53a 	srli	r12,r5,20
   21914:	3804d53a 	srli	r2,r7,20
   21918:	481490fa 	slli	r10,r9,3
   2191c:	280ad7fa 	srli	r5,r5,31
   21920:	180690fa 	slli	r3,r3,3
   21924:	2016d77a 	srli	r11,r4,29
   21928:	3012d77a 	srli	r9,r6,29
   2192c:	380ed7fa 	srli	r7,r7,31
   21930:	defffb04 	addi	sp,sp,-20
   21934:	dc400115 	stw	r17,4(sp)
   21938:	dc000015 	stw	r16,0(sp)
   2193c:	dfc00415 	stw	ra,16(sp)
   21940:	dcc00315 	stw	r19,12(sp)
   21944:	dc800215 	stw	r18,8(sp)
   21948:	201c90fa 	slli	r14,r4,3
   2194c:	301a90fa 	slli	r13,r6,3
   21950:	6441ffcc 	andi	r17,r12,2047
   21954:	2821883a 	mov	r16,r5
   21958:	58c6b03a 	or	r3,r11,r3
   2195c:	1081ffcc 	andi	r2,r2,2047
   21960:	4a92b03a 	or	r9,r9,r10
   21964:	29c06326 	beq	r5,r7,21af4 <__adddf3+0x1f4>
   21968:	888bc83a 	sub	r5,r17,r2
   2196c:	0140560e 	bge	zero,r5,21ac8 <__adddf3+0x1c8>
   21970:	10007526 	beq	r2,zero,21b48 <__adddf3+0x248>
   21974:	8881ffd8 	cmpnei	r2,r17,2047
   21978:	10012d26 	beq	r2,zero,21e30 <__adddf3+0x530>
   2197c:	4a402034 	orhi	r9,r9,128
   21980:	28800e48 	cmpgei	r2,r5,57
   21984:	1000f41e 	bne	r2,zero,21d58 <__adddf3+0x458>
   21988:	28800808 	cmpgei	r2,r5,32
   2198c:	1001471e 	bne	r2,zero,21eac <__adddf3+0x5ac>
   21990:	00800804 	movi	r2,32
   21994:	1145c83a 	sub	r2,r2,r5
   21998:	6948d83a 	srl	r4,r13,r5
   2199c:	48a4983a 	sll	r18,r9,r2
   219a0:	6884983a 	sll	r2,r13,r2
   219a4:	494ad83a 	srl	r5,r9,r5
   219a8:	9124b03a 	or	r18,r18,r4
   219ac:	101ac03a 	cmpne	r13,r2,zero
   219b0:	9364b03a 	or	r18,r18,r13
   219b4:	1947c83a 	sub	r3,r3,r5
   219b8:	74a5c83a 	sub	r18,r14,r18
   219bc:	7489803a 	cmpltu	r4,r14,r18
   219c0:	1909c83a 	sub	r4,r3,r4
   219c4:	2080202c 	andhi	r2,r4,128
   219c8:	10008626 	beq	r2,zero,21be4 <__adddf3+0x2e4>
   219cc:	00802034 	movhi	r2,128
   219d0:	10bfffc4 	addi	r2,r2,-1
   219d4:	20a6703a 	and	r19,r4,r2
   219d8:	9800d626 	beq	r19,zero,21d34 <__adddf3+0x434>
   219dc:	9809883a 	mov	r4,r19
   219e0:	00226200 	call	22620 <__clzsi2>
   219e4:	133ffe04 	addi	r12,r2,-8
   219e8:	01000804 	movi	r4,32
   219ec:	2309c83a 	sub	r4,r4,r12
   219f0:	9108d83a 	srl	r4,r18,r4
   219f4:	9b04983a 	sll	r2,r19,r12
   219f8:	9324983a 	sll	r18,r18,r12
   219fc:	2088b03a 	or	r4,r4,r2
   21a00:	6440c716 	blt	r12,r17,21d20 <__adddf3+0x420>
   21a04:	6459c83a 	sub	r12,r12,r17
   21a08:	62000044 	addi	r8,r12,1
   21a0c:	40800808 	cmpgei	r2,r8,32
   21a10:	1001191e 	bne	r2,zero,21e78 <__adddf3+0x578>
   21a14:	00800804 	movi	r2,32
   21a18:	1205c83a 	sub	r2,r2,r8
   21a1c:	9206d83a 	srl	r3,r18,r8
   21a20:	90a4983a 	sll	r18,r18,r2
   21a24:	2084983a 	sll	r2,r4,r2
   21a28:	2208d83a 	srl	r4,r4,r8
   21a2c:	9024c03a 	cmpne	r18,r18,zero
   21a30:	10c4b03a 	or	r2,r2,r3
   21a34:	14a4b03a 	or	r18,r2,r18
   21a38:	0023883a 	mov	r17,zero
   21a3c:	908001cc 	andi	r2,r18,7
   21a40:	10000726 	beq	r2,zero,21a60 <__adddf3+0x160>
   21a44:	908003cc 	andi	r2,r18,15
   21a48:	10800120 	cmpeqi	r2,r2,4
   21a4c:	1000041e 	bne	r2,zero,21a60 <__adddf3+0x160>
   21a50:	90c00104 	addi	r3,r18,4
   21a54:	1ca5803a 	cmpltu	r18,r3,r18
   21a58:	2489883a 	add	r4,r4,r18
   21a5c:	1825883a 	mov	r18,r3
   21a60:	2080202c 	andhi	r2,r4,128
   21a64:	10006126 	beq	r2,zero,21bec <__adddf3+0x2ec>
   21a68:	89400044 	addi	r5,r17,1
   21a6c:	2881ffe0 	cmpeqi	r2,r5,2047
   21a70:	2941ffcc 	andi	r5,r5,2047
   21a74:	1000731e 	bne	r2,zero,21c44 <__adddf3+0x344>
   21a78:	023fe034 	movhi	r8,65408
   21a7c:	423fffc4 	addi	r8,r8,-1
   21a80:	2210703a 	and	r8,r4,r8
   21a84:	4006927a 	slli	r3,r8,9
   21a88:	9024d0fa 	srli	r18,r18,3
   21a8c:	4004977a 	slli	r2,r8,29
   21a90:	1806d33a 	srli	r3,r3,12
   21a94:	1484b03a 	or	r2,r2,r18
   21a98:	280a953a 	slli	r5,r5,20
   21a9c:	84003fcc 	andi	r16,r16,255
   21aa0:	802097fa 	slli	r16,r16,31
   21aa4:	28c6b03a 	or	r3,r5,r3
   21aa8:	1c06b03a 	or	r3,r3,r16
   21aac:	dfc00417 	ldw	ra,16(sp)
   21ab0:	dcc00317 	ldw	r19,12(sp)
   21ab4:	dc800217 	ldw	r18,8(sp)
   21ab8:	dc400117 	ldw	r17,4(sp)
   21abc:	dc000017 	ldw	r16,0(sp)
   21ac0:	dec00504 	addi	sp,sp,20
   21ac4:	f800283a 	ret
   21ac8:	28002726 	beq	r5,zero,21b68 <__adddf3+0x268>
   21acc:	144bc83a 	sub	r5,r2,r17
   21ad0:	8800be1e 	bne	r17,zero,21dcc <__adddf3+0x4cc>
   21ad4:	1b88b03a 	or	r4,r3,r14
   21ad8:	20013126 	beq	r4,zero,21fa0 <__adddf3+0x6a0>
   21adc:	293fffc4 	addi	r4,r5,-1
   21ae0:	20017226 	beq	r4,zero,220ac <__adddf3+0x7ac>
   21ae4:	2941ffd8 	cmpnei	r5,r5,2047
   21ae8:	2801c226 	beq	r5,zero,221f4 <__adddf3+0x8f4>
   21aec:	200b883a 	mov	r5,r4
   21af0:	0000b906 	br	21dd8 <__adddf3+0x4d8>
   21af4:	888bc83a 	sub	r5,r17,r2
   21af8:	0140700e 	bge	zero,r5,21cbc <__adddf3+0x3bc>
   21afc:	10002a26 	beq	r2,zero,21ba8 <__adddf3+0x2a8>
   21b00:	8881ffd8 	cmpnei	r2,r17,2047
   21b04:	1000ca26 	beq	r2,zero,21e30 <__adddf3+0x530>
   21b08:	4a402034 	orhi	r9,r9,128
   21b0c:	28800e48 	cmpgei	r2,r5,57
   21b10:	1000421e 	bne	r2,zero,21c1c <__adddf3+0x31c>
   21b14:	28800808 	cmpgei	r2,r5,32
   21b18:	1000ff26 	beq	r2,zero,21f18 <__adddf3+0x618>
   21b1c:	2cbff804 	addi	r18,r5,-32
   21b20:	29000820 	cmpeqi	r4,r5,32
   21b24:	4c84d83a 	srl	r2,r9,r18
   21b28:	2000041e 	bne	r4,zero,21b3c <__adddf3+0x23c>
   21b2c:	01001004 	movi	r4,64
   21b30:	214bc83a 	sub	r5,r4,r5
   21b34:	4952983a 	sll	r9,r9,r5
   21b38:	6a5ab03a 	or	r13,r13,r9
   21b3c:	6824c03a 	cmpne	r18,r13,zero
   21b40:	90a4b03a 	or	r18,r18,r2
   21b44:	00003706 	br	21c24 <__adddf3+0x324>
   21b48:	4b44b03a 	or	r2,r9,r13
   21b4c:	1000b126 	beq	r2,zero,21e14 <__adddf3+0x514>
   21b50:	28bfffc4 	addi	r2,r5,-1
   21b54:	10011a26 	beq	r2,zero,21fc0 <__adddf3+0x6c0>
   21b58:	2941ffd8 	cmpnei	r5,r5,2047
   21b5c:	28012526 	beq	r5,zero,21ff4 <__adddf3+0x6f4>
   21b60:	100b883a 	mov	r5,r2
   21b64:	003f8606 	br	21980 <__adddf3+0x80>
   21b68:	8a800044 	addi	r10,r17,1
   21b6c:	5281ff8c 	andi	r10,r10,2046
   21b70:	50008b1e 	bne	r10,zero,21da0 <__adddf3+0x4a0>
   21b74:	1b96b03a 	or	r11,r3,r14
   21b78:	4b44b03a 	or	r2,r9,r13
   21b7c:	8801031e 	bne	r17,zero,21f8c <__adddf3+0x68c>
   21b80:	58014126 	beq	r11,zero,22088 <__adddf3+0x788>
   21b84:	1001571e 	bne	r2,zero,220e4 <__adddf3+0x7e4>
   21b88:	1804977a 	slli	r2,r3,29
   21b8c:	01480034 	movhi	r5,8192
   21b90:	297fffc4 	addi	r5,r5,-1
   21b94:	2148703a 	and	r4,r4,r5
   21b98:	1810d0fa 	srli	r8,r3,3
   21b9c:	1104b03a 	or	r2,r2,r4
   21ba0:	500b883a 	mov	r5,r10
   21ba4:	00001806 	br	21c08 <__adddf3+0x308>
   21ba8:	4b44b03a 	or	r2,r9,r13
   21bac:	10010a26 	beq	r2,zero,21fd8 <__adddf3+0x6d8>
   21bb0:	28bfffc4 	addi	r2,r5,-1
   21bb4:	10000426 	beq	r2,zero,21bc8 <__adddf3+0x2c8>
   21bb8:	2941ffd8 	cmpnei	r5,r5,2047
   21bbc:	28014226 	beq	r5,zero,220c8 <__adddf3+0x7c8>
   21bc0:	100b883a 	mov	r5,r2
   21bc4:	003fd106 	br	21b0c <__adddf3+0x20c>
   21bc8:	7365883a 	add	r18,r14,r13
   21bcc:	1a47883a 	add	r3,r3,r9
   21bd0:	9389803a 	cmpltu	r4,r18,r14
   21bd4:	1909883a 	add	r4,r3,r4
   21bd8:	2080202c 	andhi	r2,r4,128
   21bdc:	10009b1e 	bne	r2,zero,21e4c <__adddf3+0x54c>
   21be0:	04400044 	movi	r17,1
   21be4:	908001cc 	andi	r2,r18,7
   21be8:	103f961e 	bne	r2,zero,21a44 <__adddf3+0x144>
   21bec:	9024d0fa 	srli	r18,r18,3
   21bf0:	2004977a 	slli	r2,r4,29
   21bf4:	2010d0fa 	srli	r8,r4,3
   21bf8:	880b883a 	mov	r5,r17
   21bfc:	9084b03a 	or	r2,r18,r2
   21c00:	28c1ffe0 	cmpeqi	r3,r5,2047
   21c04:	1800251e 	bne	r3,zero,21c9c <__adddf3+0x39c>
   21c08:	00c00434 	movhi	r3,16
   21c0c:	18ffffc4 	addi	r3,r3,-1
   21c10:	40c6703a 	and	r3,r8,r3
   21c14:	2941ffcc 	andi	r5,r5,2047
   21c18:	003f9f06 	br	21a98 <__adddf3+0x198>
   21c1c:	4b64b03a 	or	r18,r9,r13
   21c20:	9024c03a 	cmpne	r18,r18,zero
   21c24:	93a5883a 	add	r18,r18,r14
   21c28:	9389803a 	cmpltu	r4,r18,r14
   21c2c:	20c9883a 	add	r4,r4,r3
   21c30:	2080202c 	andhi	r2,r4,128
   21c34:	103feb26 	beq	r2,zero,21be4 <__adddf3+0x2e4>
   21c38:	8c400044 	addi	r17,r17,1
   21c3c:	8881ffe0 	cmpeqi	r2,r17,2047
   21c40:	10008326 	beq	r2,zero,21e50 <__adddf3+0x550>
   21c44:	0141ffc4 	movi	r5,2047
   21c48:	0007883a 	mov	r3,zero
   21c4c:	0005883a 	mov	r2,zero
   21c50:	003f9106 	br	21a98 <__adddf3+0x198>
   21c54:	4b44b03a 	or	r2,r9,r13
   21c58:	180a977a 	slli	r5,r3,29
   21c5c:	1810d0fa 	srli	r8,r3,3
   21c60:	10016c26 	beq	r2,zero,22214 <__adddf3+0x914>
   21c64:	00c80034 	movhi	r3,8192
   21c68:	18ffffc4 	addi	r3,r3,-1
   21c6c:	20c4703a 	and	r2,r4,r3
   21c70:	4100022c 	andhi	r4,r8,8
   21c74:	1144b03a 	or	r2,r2,r5
   21c78:	20000826 	beq	r4,zero,21c9c <__adddf3+0x39c>
   21c7c:	4808d0fa 	srli	r4,r9,3
   21c80:	2140022c 	andhi	r5,r4,8
   21c84:	2800051e 	bne	r5,zero,21c9c <__adddf3+0x39c>
   21c88:	4804977a 	slli	r2,r9,29
   21c8c:	30cc703a 	and	r6,r6,r3
   21c90:	3821883a 	mov	r16,r7
   21c94:	3084b03a 	or	r2,r6,r2
   21c98:	2011883a 	mov	r8,r4
   21c9c:	4086b03a 	or	r3,r8,r2
   21ca0:	18017126 	beq	r3,zero,22268 <__adddf3+0x968>
   21ca4:	01000434 	movhi	r4,16
   21ca8:	40c00234 	orhi	r3,r8,8
   21cac:	213fffc4 	addi	r4,r4,-1
   21cb0:	1906703a 	and	r3,r3,r4
   21cb4:	0141ffc4 	movi	r5,2047
   21cb8:	003f7706 	br	21a98 <__adddf3+0x198>
   21cbc:	28002926 	beq	r5,zero,21d64 <__adddf3+0x464>
   21cc0:	144bc83a 	sub	r5,r2,r17
   21cc4:	88008c26 	beq	r17,zero,21ef8 <__adddf3+0x5f8>
   21cc8:	1101ffd8 	cmpnei	r4,r2,2047
   21ccc:	20011126 	beq	r4,zero,22114 <__adddf3+0x814>
   21cd0:	18c02034 	orhi	r3,r3,128
   21cd4:	29000e48 	cmpgei	r4,r5,57
   21cd8:	2000d51e 	bne	r4,zero,22030 <__adddf3+0x730>
   21cdc:	29000808 	cmpgei	r4,r5,32
   21ce0:	2001511e 	bne	r4,zero,22228 <__adddf3+0x928>
   21ce4:	01000804 	movi	r4,32
   21ce8:	2149c83a 	sub	r4,r4,r5
   21cec:	1924983a 	sll	r18,r3,r4
   21cf0:	714cd83a 	srl	r6,r14,r5
   21cf4:	7108983a 	sll	r4,r14,r4
   21cf8:	194ad83a 	srl	r5,r3,r5
   21cfc:	91a4b03a 	or	r18,r18,r6
   21d00:	2006c03a 	cmpne	r3,r4,zero
   21d04:	90e4b03a 	or	r18,r18,r3
   21d08:	4953883a 	add	r9,r9,r5
   21d0c:	9365883a 	add	r18,r18,r13
   21d10:	9349803a 	cmpltu	r4,r18,r13
   21d14:	2249883a 	add	r4,r4,r9
   21d18:	1023883a 	mov	r17,r2
   21d1c:	003fc406 	br	21c30 <__adddf3+0x330>
   21d20:	023fe034 	movhi	r8,65408
   21d24:	423fffc4 	addi	r8,r8,-1
   21d28:	8b23c83a 	sub	r17,r17,r12
   21d2c:	2208703a 	and	r4,r4,r8
   21d30:	003f4206 	br	21a3c <__adddf3+0x13c>
   21d34:	9009883a 	mov	r4,r18
   21d38:	00226200 	call	22620 <__clzsi2>
   21d3c:	13000604 	addi	r12,r2,24
   21d40:	60c00808 	cmpgei	r3,r12,32
   21d44:	183f2826 	beq	r3,zero,219e8 <__adddf3+0xe8>
   21d48:	113ffe04 	addi	r4,r2,-8
   21d4c:	9108983a 	sll	r4,r18,r4
   21d50:	0025883a 	mov	r18,zero
   21d54:	003f2a06 	br	21a00 <__adddf3+0x100>
   21d58:	4b64b03a 	or	r18,r9,r13
   21d5c:	9024c03a 	cmpne	r18,r18,zero
   21d60:	003f1506 	br	219b8 <__adddf3+0xb8>
   21d64:	8a000044 	addi	r8,r17,1
   21d68:	4081ff8c 	andi	r2,r8,2046
   21d6c:	1000751e 	bne	r2,zero,21f44 <__adddf3+0x644>
   21d70:	1b84b03a 	or	r2,r3,r14
   21d74:	8800bc1e 	bne	r17,zero,22068 <__adddf3+0x768>
   21d78:	10010c26 	beq	r2,zero,221ac <__adddf3+0x8ac>
   21d7c:	4b44b03a 	or	r2,r9,r13
   21d80:	1001111e 	bne	r2,zero,221c8 <__adddf3+0x8c8>
   21d84:	180c977a 	slli	r6,r3,29
   21d88:	00880034 	movhi	r2,8192
   21d8c:	10bfffc4 	addi	r2,r2,-1
   21d90:	2084703a 	and	r2,r4,r2
   21d94:	1810d0fa 	srli	r8,r3,3
   21d98:	1184b03a 	or	r2,r2,r6
   21d9c:	003f9a06 	br	21c08 <__adddf3+0x308>
   21da0:	7365c83a 	sub	r18,r14,r13
   21da4:	1a67c83a 	sub	r19,r3,r9
   21da8:	7489803a 	cmpltu	r4,r14,r18
   21dac:	9927c83a 	sub	r19,r19,r4
   21db0:	9880202c 	andhi	r2,r19,128
   21db4:	10006f1e 	bne	r2,zero,21f74 <__adddf3+0x674>
   21db8:	94c4b03a 	or	r2,r18,r19
   21dbc:	103f061e 	bne	r2,zero,219d8 <__adddf3+0xd8>
   21dc0:	0011883a 	mov	r8,zero
   21dc4:	0021883a 	mov	r16,zero
   21dc8:	003f8f06 	br	21c08 <__adddf3+0x308>
   21dcc:	1101ffd8 	cmpnei	r4,r2,2047
   21dd0:	20008f26 	beq	r4,zero,22010 <__adddf3+0x710>
   21dd4:	18c02034 	orhi	r3,r3,128
   21dd8:	29000e48 	cmpgei	r4,r5,57
   21ddc:	20003e1e 	bne	r4,zero,21ed8 <__adddf3+0x5d8>
   21de0:	29000808 	cmpgei	r4,r5,32
   21de4:	2000951e 	bne	r4,zero,2203c <__adddf3+0x73c>
   21de8:	01000804 	movi	r4,32
   21dec:	2149c83a 	sub	r4,r4,r5
   21df0:	1924983a 	sll	r18,r3,r4
   21df4:	714cd83a 	srl	r6,r14,r5
   21df8:	711c983a 	sll	r14,r14,r4
   21dfc:	1946d83a 	srl	r3,r3,r5
   21e00:	91a4b03a 	or	r18,r18,r6
   21e04:	701cc03a 	cmpne	r14,r14,zero
   21e08:	93a4b03a 	or	r18,r18,r14
   21e0c:	48d3c83a 	sub	r9,r9,r3
   21e10:	00003306 	br	21ee0 <__adddf3+0x5e0>
   21e14:	1824977a 	slli	r18,r3,29
   21e18:	01880034 	movhi	r6,8192
   21e1c:	31bfffc4 	addi	r6,r6,-1
   21e20:	2184703a 	and	r2,r4,r6
   21e24:	1810d0fa 	srli	r8,r3,3
   21e28:	1484b03a 	or	r2,r2,r18
   21e2c:	003f7406 	br	21c00 <__adddf3+0x300>
   21e30:	1804977a 	slli	r2,r3,29
   21e34:	01480034 	movhi	r5,8192
   21e38:	297fffc4 	addi	r5,r5,-1
   21e3c:	2148703a 	and	r4,r4,r5
   21e40:	1810d0fa 	srli	r8,r3,3
   21e44:	1104b03a 	or	r2,r2,r4
   21e48:	003f9406 	br	21c9c <__adddf3+0x39c>
   21e4c:	04400084 	movi	r17,2
   21e50:	00bfe034 	movhi	r2,65408
   21e54:	10bfffc4 	addi	r2,r2,-1
   21e58:	9006d07a 	srli	r3,r18,1
   21e5c:	2088703a 	and	r4,r4,r2
   21e60:	200497fa 	slli	r2,r4,31
   21e64:	9480004c 	andi	r18,r18,1
   21e68:	1ca4b03a 	or	r18,r3,r18
   21e6c:	2008d07a 	srli	r4,r4,1
   21e70:	14a4b03a 	or	r18,r2,r18
   21e74:	003ef106 	br	21a3c <__adddf3+0x13c>
   21e78:	633ff844 	addi	r12,r12,-31
   21e7c:	40800820 	cmpeqi	r2,r8,32
   21e80:	2318d83a 	srl	r12,r4,r12
   21e84:	1000041e 	bne	r2,zero,21e98 <__adddf3+0x598>
   21e88:	00801004 	movi	r2,64
   21e8c:	1211c83a 	sub	r8,r2,r8
   21e90:	2208983a 	sll	r4,r4,r8
   21e94:	9124b03a 	or	r18,r18,r4
   21e98:	9024c03a 	cmpne	r18,r18,zero
   21e9c:	9324b03a 	or	r18,r18,r12
   21ea0:	0009883a 	mov	r4,zero
   21ea4:	0023883a 	mov	r17,zero
   21ea8:	003f4e06 	br	21be4 <__adddf3+0x2e4>
   21eac:	2cbff804 	addi	r18,r5,-32
   21eb0:	29000820 	cmpeqi	r4,r5,32
   21eb4:	4c84d83a 	srl	r2,r9,r18
   21eb8:	2000041e 	bne	r4,zero,21ecc <__adddf3+0x5cc>
   21ebc:	01001004 	movi	r4,64
   21ec0:	214bc83a 	sub	r5,r4,r5
   21ec4:	4952983a 	sll	r9,r9,r5
   21ec8:	6a5ab03a 	or	r13,r13,r9
   21ecc:	6824c03a 	cmpne	r18,r13,zero
   21ed0:	90a4b03a 	or	r18,r18,r2
   21ed4:	003eb806 	br	219b8 <__adddf3+0xb8>
   21ed8:	1b88b03a 	or	r4,r3,r14
   21edc:	2024c03a 	cmpne	r18,r4,zero
   21ee0:	6ca5c83a 	sub	r18,r13,r18
   21ee4:	6c89803a 	cmpltu	r4,r13,r18
   21ee8:	4909c83a 	sub	r4,r9,r4
   21eec:	3821883a 	mov	r16,r7
   21ef0:	1023883a 	mov	r17,r2
   21ef4:	003eb306 	br	219c4 <__adddf3+0xc4>
   21ef8:	1b88b03a 	or	r4,r3,r14
   21efc:	20008c26 	beq	r4,zero,22130 <__adddf3+0x830>
   21f00:	293fffc4 	addi	r4,r5,-1
   21f04:	2000d326 	beq	r4,zero,22254 <__adddf3+0x954>
   21f08:	2941ffd8 	cmpnei	r5,r5,2047
   21f0c:	28008126 	beq	r5,zero,22114 <__adddf3+0x814>
   21f10:	200b883a 	mov	r5,r4
   21f14:	003f6f06 	br	21cd4 <__adddf3+0x3d4>
   21f18:	00800804 	movi	r2,32
   21f1c:	1145c83a 	sub	r2,r2,r5
   21f20:	6948d83a 	srl	r4,r13,r5
   21f24:	48a4983a 	sll	r18,r9,r2
   21f28:	6884983a 	sll	r2,r13,r2
   21f2c:	494ad83a 	srl	r5,r9,r5
   21f30:	9124b03a 	or	r18,r18,r4
   21f34:	101ac03a 	cmpne	r13,r2,zero
   21f38:	9364b03a 	or	r18,r18,r13
   21f3c:	1947883a 	add	r3,r3,r5
   21f40:	003f3806 	br	21c24 <__adddf3+0x324>
   21f44:	4081ffe0 	cmpeqi	r2,r8,2047
   21f48:	103f3e1e 	bne	r2,zero,21c44 <__adddf3+0x344>
   21f4c:	7345883a 	add	r2,r14,r13
   21f50:	139d803a 	cmpltu	r14,r2,r14
   21f54:	1a49883a 	add	r4,r3,r9
   21f58:	2389883a 	add	r4,r4,r14
   21f5c:	202497fa 	slli	r18,r4,31
   21f60:	1004d07a 	srli	r2,r2,1
   21f64:	2008d07a 	srli	r4,r4,1
   21f68:	4023883a 	mov	r17,r8
   21f6c:	90a4b03a 	or	r18,r18,r2
   21f70:	003f1c06 	br	21be4 <__adddf3+0x2e4>
   21f74:	6ba5c83a 	sub	r18,r13,r14
   21f78:	48c9c83a 	sub	r4,r9,r3
   21f7c:	6c85803a 	cmpltu	r2,r13,r18
   21f80:	20a7c83a 	sub	r19,r4,r2
   21f84:	3821883a 	mov	r16,r7
   21f88:	003e9306 	br	219d8 <__adddf3+0xd8>
   21f8c:	58006f1e 	bne	r11,zero,2214c <__adddf3+0x84c>
   21f90:	10001f1e 	bne	r2,zero,22010 <__adddf3+0x710>
   21f94:	00bfffc4 	movi	r2,-1
   21f98:	0021883a 	mov	r16,zero
   21f9c:	003f4106 	br	21ca4 <__adddf3+0x3a4>
   21fa0:	4808977a 	slli	r4,r9,29
   21fa4:	00c80034 	movhi	r3,8192
   21fa8:	18ffffc4 	addi	r3,r3,-1
   21fac:	30c4703a 	and	r2,r6,r3
   21fb0:	4810d0fa 	srli	r8,r9,3
   21fb4:	1104b03a 	or	r2,r2,r4
   21fb8:	3821883a 	mov	r16,r7
   21fbc:	003f1006 	br	21c00 <__adddf3+0x300>
   21fc0:	7365c83a 	sub	r18,r14,r13
   21fc4:	1a47c83a 	sub	r3,r3,r9
   21fc8:	7489803a 	cmpltu	r4,r14,r18
   21fcc:	1909c83a 	sub	r4,r3,r4
   21fd0:	04400044 	movi	r17,1
   21fd4:	003e7b06 	br	219c4 <__adddf3+0xc4>
   21fd8:	1824977a 	slli	r18,r3,29
   21fdc:	01c80034 	movhi	r7,8192
   21fe0:	39ffffc4 	addi	r7,r7,-1
   21fe4:	21c4703a 	and	r2,r4,r7
   21fe8:	1810d0fa 	srli	r8,r3,3
   21fec:	1484b03a 	or	r2,r2,r18
   21ff0:	003f0306 	br	21c00 <__adddf3+0x300>
   21ff4:	1824977a 	slli	r18,r3,29
   21ff8:	01480034 	movhi	r5,8192
   21ffc:	297fffc4 	addi	r5,r5,-1
   22000:	2144703a 	and	r2,r4,r5
   22004:	1810d0fa 	srli	r8,r3,3
   22008:	1484b03a 	or	r2,r2,r18
   2200c:	003f2306 	br	21c9c <__adddf3+0x39c>
   22010:	4806977a 	slli	r3,r9,29
   22014:	00880034 	movhi	r2,8192
   22018:	10bfffc4 	addi	r2,r2,-1
   2201c:	3084703a 	and	r2,r6,r2
   22020:	4810d0fa 	srli	r8,r9,3
   22024:	10c4b03a 	or	r2,r2,r3
   22028:	3821883a 	mov	r16,r7
   2202c:	003f1b06 	br	21c9c <__adddf3+0x39c>
   22030:	1b88b03a 	or	r4,r3,r14
   22034:	2024c03a 	cmpne	r18,r4,zero
   22038:	003f3406 	br	21d0c <__adddf3+0x40c>
   2203c:	2cbff804 	addi	r18,r5,-32
   22040:	29800820 	cmpeqi	r6,r5,32
   22044:	1c88d83a 	srl	r4,r3,r18
   22048:	3000041e 	bne	r6,zero,2205c <__adddf3+0x75c>
   2204c:	01801004 	movi	r6,64
   22050:	314bc83a 	sub	r5,r6,r5
   22054:	1946983a 	sll	r3,r3,r5
   22058:	70dcb03a 	or	r14,r14,r3
   2205c:	7024c03a 	cmpne	r18,r14,zero
   22060:	9124b03a 	or	r18,r18,r4
   22064:	003f9e06 	br	21ee0 <__adddf3+0x5e0>
   22068:	103efa1e 	bne	r2,zero,21c54 <__adddf3+0x354>
   2206c:	4804977a 	slli	r2,r9,29
   22070:	00c80034 	movhi	r3,8192
   22074:	18ffffc4 	addi	r3,r3,-1
   22078:	30cc703a 	and	r6,r6,r3
   2207c:	4810d0fa 	srli	r8,r9,3
   22080:	1184b03a 	or	r2,r2,r6
   22084:	003f0506 	br	21c9c <__adddf3+0x39c>
   22088:	10004426 	beq	r2,zero,2219c <__adddf3+0x89c>
   2208c:	4806977a 	slli	r3,r9,29
   22090:	00880034 	movhi	r2,8192
   22094:	10bfffc4 	addi	r2,r2,-1
   22098:	3084703a 	and	r2,r6,r2
   2209c:	4810d0fa 	srli	r8,r9,3
   220a0:	10c4b03a 	or	r2,r2,r3
   220a4:	3821883a 	mov	r16,r7
   220a8:	003ed706 	br	21c08 <__adddf3+0x308>
   220ac:	6ba5c83a 	sub	r18,r13,r14
   220b0:	48c7c83a 	sub	r3,r9,r3
   220b4:	6c85803a 	cmpltu	r2,r13,r18
   220b8:	1889c83a 	sub	r4,r3,r2
   220bc:	3821883a 	mov	r16,r7
   220c0:	04400044 	movi	r17,1
   220c4:	003e3f06 	br	219c4 <__adddf3+0xc4>
   220c8:	180a977a 	slli	r5,r3,29
   220cc:	00880034 	movhi	r2,8192
   220d0:	10bfffc4 	addi	r2,r2,-1
   220d4:	2084703a 	and	r2,r4,r2
   220d8:	1810d0fa 	srli	r8,r3,3
   220dc:	1144b03a 	or	r2,r2,r5
   220e0:	003eee06 	br	21c9c <__adddf3+0x39c>
   220e4:	7365c83a 	sub	r18,r14,r13
   220e8:	7485803a 	cmpltu	r2,r14,r18
   220ec:	1a49c83a 	sub	r4,r3,r9
   220f0:	2089c83a 	sub	r4,r4,r2
   220f4:	2080202c 	andhi	r2,r4,128
   220f8:	10002626 	beq	r2,zero,22194 <__adddf3+0x894>
   220fc:	6ba5c83a 	sub	r18,r13,r14
   22100:	48c7c83a 	sub	r3,r9,r3
   22104:	6c85803a 	cmpltu	r2,r13,r18
   22108:	1889c83a 	sub	r4,r3,r2
   2210c:	3821883a 	mov	r16,r7
   22110:	003e4a06 	br	21a3c <__adddf3+0x13c>
   22114:	4806977a 	slli	r3,r9,29
   22118:	00880034 	movhi	r2,8192
   2211c:	10bfffc4 	addi	r2,r2,-1
   22120:	3084703a 	and	r2,r6,r2
   22124:	4810d0fa 	srli	r8,r9,3
   22128:	10c4b03a 	or	r2,r2,r3
   2212c:	003edb06 	br	21c9c <__adddf3+0x39c>
   22130:	4806977a 	slli	r3,r9,29
   22134:	00880034 	movhi	r2,8192
   22138:	10bfffc4 	addi	r2,r2,-1
   2213c:	3084703a 	and	r2,r6,r2
   22140:	4810d0fa 	srli	r8,r9,3
   22144:	10c4b03a 	or	r2,r2,r3
   22148:	003ead06 	br	21c00 <__adddf3+0x300>
   2214c:	180a977a 	slli	r5,r3,29
   22150:	1810d0fa 	srli	r8,r3,3
   22154:	10002f26 	beq	r2,zero,22214 <__adddf3+0x914>
   22158:	00c80034 	movhi	r3,8192
   2215c:	18ffffc4 	addi	r3,r3,-1
   22160:	20c4703a 	and	r2,r4,r3
   22164:	4100022c 	andhi	r4,r8,8
   22168:	1144b03a 	or	r2,r2,r5
   2216c:	203ecb26 	beq	r4,zero,21c9c <__adddf3+0x39c>
   22170:	4808d0fa 	srli	r4,r9,3
   22174:	2140022c 	andhi	r5,r4,8
   22178:	283ec81e 	bne	r5,zero,21c9c <__adddf3+0x39c>
   2217c:	4812977a 	slli	r9,r9,29
   22180:	30c4703a 	and	r2,r6,r3
   22184:	3821883a 	mov	r16,r7
   22188:	1244b03a 	or	r2,r2,r9
   2218c:	2011883a 	mov	r8,r4
   22190:	003ec206 	br	21c9c <__adddf3+0x39c>
   22194:	9104b03a 	or	r2,r18,r4
   22198:	103e921e 	bne	r2,zero,21be4 <__adddf3+0x2e4>
   2219c:	0011883a 	mov	r8,zero
   221a0:	100b883a 	mov	r5,r2
   221a4:	0021883a 	mov	r16,zero
   221a8:	003e9706 	br	21c08 <__adddf3+0x308>
   221ac:	4804977a 	slli	r2,r9,29
   221b0:	00c80034 	movhi	r3,8192
   221b4:	18ffffc4 	addi	r3,r3,-1
   221b8:	30cc703a 	and	r6,r6,r3
   221bc:	4810d0fa 	srli	r8,r9,3
   221c0:	1184b03a 	or	r2,r2,r6
   221c4:	003e9006 	br	21c08 <__adddf3+0x308>
   221c8:	7365883a 	add	r18,r14,r13
   221cc:	1a47883a 	add	r3,r3,r9
   221d0:	9389803a 	cmpltu	r4,r18,r14
   221d4:	1909883a 	add	r4,r3,r4
   221d8:	2080202c 	andhi	r2,r4,128
   221dc:	103e8126 	beq	r2,zero,21be4 <__adddf3+0x2e4>
   221e0:	00bfe034 	movhi	r2,65408
   221e4:	10bfffc4 	addi	r2,r2,-1
   221e8:	2088703a 	and	r4,r4,r2
   221ec:	04400044 	movi	r17,1
   221f0:	003e7c06 	br	21be4 <__adddf3+0x2e4>
   221f4:	4804977a 	slli	r2,r9,29
   221f8:	00c80034 	movhi	r3,8192
   221fc:	18ffffc4 	addi	r3,r3,-1
   22200:	30cc703a 	and	r6,r6,r3
   22204:	4810d0fa 	srli	r8,r9,3
   22208:	1184b03a 	or	r2,r2,r6
   2220c:	3821883a 	mov	r16,r7
   22210:	003ea206 	br	21c9c <__adddf3+0x39c>
   22214:	00880034 	movhi	r2,8192
   22218:	10bfffc4 	addi	r2,r2,-1
   2221c:	2084703a 	and	r2,r4,r2
   22220:	1144b03a 	or	r2,r2,r5
   22224:	003e9d06 	br	21c9c <__adddf3+0x39c>
   22228:	293ff804 	addi	r4,r5,-32
   2222c:	29800820 	cmpeqi	r6,r5,32
   22230:	1908d83a 	srl	r4,r3,r4
   22234:	3000041e 	bne	r6,zero,22248 <__adddf3+0x948>
   22238:	01801004 	movi	r6,64
   2223c:	314bc83a 	sub	r5,r6,r5
   22240:	1946983a 	sll	r3,r3,r5
   22244:	70dcb03a 	or	r14,r14,r3
   22248:	7024c03a 	cmpne	r18,r14,zero
   2224c:	9124b03a 	or	r18,r18,r4
   22250:	003eae06 	br	21d0c <__adddf3+0x40c>
   22254:	7365883a 	add	r18,r14,r13
   22258:	1a47883a 	add	r3,r3,r9
   2225c:	9345803a 	cmpltu	r2,r18,r13
   22260:	1889883a 	add	r4,r3,r2
   22264:	003e5c06 	br	21bd8 <__adddf3+0x2d8>
   22268:	0005883a 	mov	r2,zero
   2226c:	0141ffc4 	movi	r5,2047
   22270:	0007883a 	mov	r3,zero
   22274:	003e0806 	br	21a98 <__adddf3+0x198>

00022278 <__fixdfsi>:
   22278:	2806d53a 	srli	r3,r5,20
   2227c:	01800434 	movhi	r6,16
   22280:	31bfffc4 	addi	r6,r6,-1
   22284:	18c1ffcc 	andi	r3,r3,2047
   22288:	19c0ffd0 	cmplti	r7,r3,1023
   2228c:	2810d7fa 	srli	r8,r5,31
   22290:	298a703a 	and	r5,r5,r6
   22294:	3800061e 	bne	r7,zero,222b0 <__fixdfsi+0x38>
   22298:	18810790 	cmplti	r2,r3,1054
   2229c:	1000061e 	bne	r2,zero,222b8 <__fixdfsi+0x40>
   222a0:	00a00034 	movhi	r2,32768
   222a4:	10bfffc4 	addi	r2,r2,-1
   222a8:	4085883a 	add	r2,r8,r2
   222ac:	f800283a 	ret
   222b0:	0005883a 	mov	r2,zero
   222b4:	f800283a 	ret
   222b8:	01810cc4 	movi	r6,1075
   222bc:	30cdc83a 	sub	r6,r6,r3
   222c0:	30800808 	cmpgei	r2,r6,32
   222c4:	29400434 	orhi	r5,r5,16
   222c8:	1000071e 	bne	r2,zero,222e8 <__fixdfsi+0x70>
   222cc:	18befb44 	addi	r2,r3,-1043
   222d0:	2884983a 	sll	r2,r5,r2
   222d4:	2188d83a 	srl	r4,r4,r6
   222d8:	1104b03a 	or	r2,r2,r4
   222dc:	403ff526 	beq	r8,zero,222b4 <__fixdfsi+0x3c>
   222e0:	0085c83a 	sub	r2,zero,r2
   222e4:	f800283a 	ret
   222e8:	008104c4 	movi	r2,1043
   222ec:	10c5c83a 	sub	r2,r2,r3
   222f0:	2884d83a 	srl	r2,r5,r2
   222f4:	003ff906 	br	222dc <__fixdfsi+0x64>

000222f8 <__floatsidf>:
   222f8:	defffd04 	addi	sp,sp,-12
   222fc:	dfc00215 	stw	ra,8(sp)
   22300:	dc400115 	stw	r17,4(sp)
   22304:	dc000015 	stw	r16,0(sp)
   22308:	20001326 	beq	r4,zero,22358 <__floatsidf+0x60>
   2230c:	2022d7fa 	srli	r17,r4,31
   22310:	2021883a 	mov	r16,r4
   22314:	20002516 	blt	r4,zero,223ac <__floatsidf+0xb4>
   22318:	8009883a 	mov	r4,r16
   2231c:	00226200 	call	22620 <__clzsi2>
   22320:	01410784 	movi	r5,1054
   22324:	288bc83a 	sub	r5,r5,r2
   22328:	10c002c8 	cmpgei	r3,r2,11
   2232c:	2941ffcc 	andi	r5,r5,2047
   22330:	1800171e 	bne	r3,zero,22390 <__floatsidf+0x98>
   22334:	00c002c4 	movi	r3,11
   22338:	1887c83a 	sub	r3,r3,r2
   2233c:	80c6d83a 	srl	r3,r16,r3
   22340:	01000434 	movhi	r4,16
   22344:	10800544 	addi	r2,r2,21
   22348:	213fffc4 	addi	r4,r4,-1
   2234c:	8084983a 	sll	r2,r16,r2
   22350:	1906703a 	and	r3,r3,r4
   22354:	00000406 	br	22368 <__floatsidf+0x70>
   22358:	0023883a 	mov	r17,zero
   2235c:	000b883a 	mov	r5,zero
   22360:	0007883a 	mov	r3,zero
   22364:	0005883a 	mov	r2,zero
   22368:	280a953a 	slli	r5,r5,20
   2236c:	8c403fcc 	andi	r17,r17,255
   22370:	882297fa 	slli	r17,r17,31
   22374:	28c6b03a 	or	r3,r5,r3
   22378:	1c46b03a 	or	r3,r3,r17
   2237c:	dfc00217 	ldw	ra,8(sp)
   22380:	dc400117 	ldw	r17,4(sp)
   22384:	dc000017 	ldw	r16,0(sp)
   22388:	dec00304 	addi	sp,sp,12
   2238c:	f800283a 	ret
   22390:	10bffd44 	addi	r2,r2,-11
   22394:	8086983a 	sll	r3,r16,r2
   22398:	00800434 	movhi	r2,16
   2239c:	10bfffc4 	addi	r2,r2,-1
   223a0:	1886703a 	and	r3,r3,r2
   223a4:	0005883a 	mov	r2,zero
   223a8:	003fef06 	br	22368 <__floatsidf+0x70>
   223ac:	0121c83a 	sub	r16,zero,r4
   223b0:	003fd906 	br	22318 <__floatsidf+0x20>

000223b4 <__extendsfdf2>:
   223b4:	200ad5fa 	srli	r5,r4,23
   223b8:	defffd04 	addi	sp,sp,-12
   223bc:	dc000015 	stw	r16,0(sp)
   223c0:	29403fcc 	andi	r5,r5,255
   223c4:	04002034 	movhi	r16,128
   223c8:	28800044 	addi	r2,r5,1
   223cc:	dc400115 	stw	r17,4(sp)
   223d0:	843fffc4 	addi	r16,r16,-1
   223d4:	dfc00215 	stw	ra,8(sp)
   223d8:	10803f8c 	andi	r2,r2,254
   223dc:	2022d7fa 	srli	r17,r4,31
   223e0:	8120703a 	and	r16,r16,r4
   223e4:	10000d26 	beq	r2,zero,2241c <__extendsfdf2+0x68>
   223e8:	8008d0fa 	srli	r4,r16,3
   223ec:	8020977a 	slli	r16,r16,29
   223f0:	28c0e004 	addi	r3,r5,896
   223f4:	180a953a 	slli	r5,r3,20
   223f8:	880697fa 	slli	r3,r17,31
   223fc:	8005883a 	mov	r2,r16
   22400:	290ab03a 	or	r5,r5,r4
   22404:	28c6b03a 	or	r3,r5,r3
   22408:	dfc00217 	ldw	ra,8(sp)
   2240c:	dc400117 	ldw	r17,4(sp)
   22410:	dc000017 	ldw	r16,0(sp)
   22414:	dec00304 	addi	sp,sp,12
   22418:	f800283a 	ret
   2241c:	2800111e 	bne	r5,zero,22464 <__extendsfdf2+0xb0>
   22420:	80001926 	beq	r16,zero,22488 <__extendsfdf2+0xd4>
   22424:	8009883a 	mov	r4,r16
   22428:	00226200 	call	22620 <__clzsi2>
   2242c:	10c002c8 	cmpgei	r3,r2,11
   22430:	18001b1e 	bne	r3,zero,224a0 <__extendsfdf2+0xec>
   22434:	010002c4 	movi	r4,11
   22438:	2089c83a 	sub	r4,r4,r2
   2243c:	10c00544 	addi	r3,r2,21
   22440:	810ad83a 	srl	r5,r16,r4
   22444:	80e0983a 	sll	r16,r16,r3
   22448:	00c0e244 	movi	r3,905
   2244c:	01000434 	movhi	r4,16
   22450:	213fffc4 	addi	r4,r4,-1
   22454:	1885c83a 	sub	r2,r3,r2
   22458:	2908703a 	and	r4,r5,r4
   2245c:	10c1ffcc 	andi	r3,r2,2047
   22460:	003fe406 	br	223f4 <__extendsfdf2+0x40>
   22464:	80000b26 	beq	r16,zero,22494 <__extendsfdf2+0xe0>
   22468:	800ad0fa 	srli	r5,r16,3
   2246c:	00800434 	movhi	r2,16
   22470:	10bfffc4 	addi	r2,r2,-1
   22474:	29000234 	orhi	r4,r5,8
   22478:	8020977a 	slli	r16,r16,29
   2247c:	2088703a 	and	r4,r4,r2
   22480:	00c1ffc4 	movi	r3,2047
   22484:	003fdb06 	br	223f4 <__extendsfdf2+0x40>
   22488:	0007883a 	mov	r3,zero
   2248c:	0009883a 	mov	r4,zero
   22490:	003fd806 	br	223f4 <__extendsfdf2+0x40>
   22494:	00c1ffc4 	movi	r3,2047
   22498:	0009883a 	mov	r4,zero
   2249c:	003fd506 	br	223f4 <__extendsfdf2+0x40>
   224a0:	113ffd44 	addi	r4,r2,-11
   224a4:	810a983a 	sll	r5,r16,r4
   224a8:	0021883a 	mov	r16,zero
   224ac:	003fe606 	br	22448 <__extendsfdf2+0x94>

000224b0 <__truncdfsf2>:
   224b0:	2806d53a 	srli	r3,r5,20
   224b4:	01800434 	movhi	r6,16
   224b8:	31bfffc4 	addi	r6,r6,-1
   224bc:	298c703a 	and	r6,r5,r6
   224c0:	300490fa 	slli	r2,r6,3
   224c4:	18c1ffcc 	andi	r3,r3,2047
   224c8:	200cd77a 	srli	r6,r4,29
   224cc:	19c00044 	addi	r7,r3,1
   224d0:	39c1ff8c 	andi	r7,r7,2046
   224d4:	280ad7fa 	srli	r5,r5,31
   224d8:	201090fa 	slli	r8,r4,3
   224dc:	308cb03a 	or	r6,r6,r2
   224e0:	38000b26 	beq	r7,zero,22510 <__truncdfsf2+0x60>
   224e4:	18bf2004 	addi	r2,r3,-896
   224e8:	11c03fc8 	cmpgei	r7,r2,255
   224ec:	38001226 	beq	r7,zero,22538 <__truncdfsf2+0x88>
   224f0:	00ffffc4 	movi	r3,-1
   224f4:	0009883a 	mov	r4,zero
   224f8:	18c03fcc 	andi	r3,r3,255
   224fc:	180495fa 	slli	r2,r3,23
   22500:	280a97fa 	slli	r5,r5,31
   22504:	1104b03a 	or	r2,r2,r4
   22508:	1144b03a 	or	r2,r2,r5
   2250c:	f800283a 	ret
   22510:	3208b03a 	or	r4,r6,r8
   22514:	1800041e 	bne	r3,zero,22528 <__truncdfsf2+0x78>
   22518:	20001d1e 	bne	r4,zero,22590 <__truncdfsf2+0xe0>
   2251c:	0007883a 	mov	r3,zero
   22520:	0009883a 	mov	r4,zero
   22524:	003ff406 	br	224f8 <__truncdfsf2+0x48>
   22528:	203ff126 	beq	r4,zero,224f0 <__truncdfsf2+0x40>
   2252c:	31001034 	orhi	r4,r6,64
   22530:	00ffffc4 	movi	r3,-1
   22534:	003ff006 	br	224f8 <__truncdfsf2+0x48>
   22538:	0080170e 	bge	zero,r2,22598 <__truncdfsf2+0xe8>
   2253c:	200891ba 	slli	r4,r4,6
   22540:	300c90fa 	slli	r6,r6,3
   22544:	4010d77a 	srli	r8,r8,29
   22548:	2008c03a 	cmpne	r4,r4,zero
   2254c:	218cb03a 	or	r6,r4,r6
   22550:	3208b03a 	or	r4,r6,r8
   22554:	20c001cc 	andi	r3,r4,7
   22558:	18002f26 	beq	r3,zero,22618 <__truncdfsf2+0x168>
   2255c:	20c003cc 	andi	r3,r4,15
   22560:	18c00118 	cmpnei	r3,r3,4
   22564:	18000126 	beq	r3,zero,2256c <__truncdfsf2+0xbc>
   22568:	21000104 	addi	r4,r4,4
   2256c:	20c1002c 	andhi	r3,r4,1024
   22570:	18002926 	beq	r3,zero,22618 <__truncdfsf2+0x168>
   22574:	10c00044 	addi	r3,r2,1
   22578:	18803fe0 	cmpeqi	r2,r3,255
   2257c:	103fdc1e 	bne	r2,zero,224f0 <__truncdfsf2+0x40>
   22580:	200891ba 	slli	r4,r4,6
   22584:	2008d27a 	srli	r4,r4,9
   22588:	003fdb06 	br	224f8 <__truncdfsf2+0x48>
   2258c:	0007883a 	mov	r3,zero
   22590:	01000144 	movi	r4,5
   22594:	003ffa06 	br	22580 <__truncdfsf2+0xd0>
   22598:	113ffa50 	cmplti	r4,r2,-23
   2259c:	203ffb1e 	bne	r4,zero,2258c <__truncdfsf2+0xdc>
   225a0:	01000784 	movi	r4,30
   225a4:	2089c83a 	sub	r4,r4,r2
   225a8:	21c00808 	cmpgei	r7,r4,32
   225ac:	31802034 	orhi	r6,r6,128
   225b0:	38001126 	beq	r7,zero,225f8 <__truncdfsf2+0x148>
   225b4:	01ffff84 	movi	r7,-2
   225b8:	3885c83a 	sub	r2,r7,r2
   225bc:	21000820 	cmpeqi	r4,r4,32
   225c0:	3084d83a 	srl	r2,r6,r2
   225c4:	2000031e 	bne	r4,zero,225d4 <__truncdfsf2+0x124>
   225c8:	18ff2884 	addi	r3,r3,-862
   225cc:	30c6983a 	sll	r3,r6,r3
   225d0:	40d0b03a 	or	r8,r8,r3
   225d4:	4008c03a 	cmpne	r4,r8,zero
   225d8:	2088b03a 	or	r4,r4,r2
   225dc:	20c001cc 	andi	r3,r4,7
   225e0:	0005883a 	mov	r2,zero
   225e4:	183fdd1e 	bne	r3,zero,2255c <__truncdfsf2+0xac>
   225e8:	2081002c 	andhi	r2,r4,1024
   225ec:	103fe426 	beq	r2,zero,22580 <__truncdfsf2+0xd0>
   225f0:	00c00044 	movi	r3,1
   225f4:	003fe206 	br	22580 <__truncdfsf2+0xd0>
   225f8:	18ff2084 	addi	r3,r3,-894
   225fc:	40c4983a 	sll	r2,r8,r3
   22600:	30c6983a 	sll	r3,r6,r3
   22604:	4108d83a 	srl	r4,r8,r4
   22608:	100cc03a 	cmpne	r6,r2,zero
   2260c:	30c6b03a 	or	r3,r6,r3
   22610:	20c8b03a 	or	r4,r4,r3
   22614:	003ff106 	br	225dc <__truncdfsf2+0x12c>
   22618:	1007883a 	mov	r3,r2
   2261c:	003fd806 	br	22580 <__truncdfsf2+0xd0>

00022620 <__clzsi2>:
   22620:	00bfffd4 	movui	r2,65535
   22624:	11000436 	bltu	r2,r4,22638 <__clzsi2+0x18>
   22628:	20804030 	cmpltui	r2,r4,256
   2262c:	10000e26 	beq	r2,zero,22668 <__clzsi2+0x48>
   22630:	01400804 	movi	r5,32
   22634:	00000406 	br	22648 <__clzsi2+0x28>
   22638:	00804034 	movhi	r2,256
   2263c:	20800736 	bltu	r4,r2,2265c <__clzsi2+0x3c>
   22640:	2008d63a 	srli	r4,r4,24
   22644:	01400204 	movi	r5,8
   22648:	00c000f4 	movhi	r3,3
   2264c:	20c7883a 	add	r3,r4,r3
   22650:	18921c03 	ldbu	r2,18544(r3)
   22654:	2885c83a 	sub	r2,r5,r2
   22658:	f800283a 	ret
   2265c:	2008d43a 	srli	r4,r4,16
   22660:	01400404 	movi	r5,16
   22664:	003ff806 	br	22648 <__clzsi2+0x28>
   22668:	2008d23a 	srli	r4,r4,8
   2266c:	01400604 	movi	r5,24
   22670:	003ff506 	br	22648 <__clzsi2+0x28>

00022674 <atof>:
   22674:	000b883a 	mov	r5,zero
   22678:	00256581 	jmpi	25658 <strtod>

0002267c <_fopen_r>:
   2267c:	defffa04 	addi	sp,sp,-24
   22680:	3007883a 	mov	r3,r6
   22684:	dcc00415 	stw	r19,16(sp)
   22688:	d80d883a 	mov	r6,sp
   2268c:	2827883a 	mov	r19,r5
   22690:	180b883a 	mov	r5,r3
   22694:	dc800315 	stw	r18,12(sp)
   22698:	dfc00515 	stw	ra,20(sp)
   2269c:	dc400215 	stw	r17,8(sp)
   226a0:	dc000115 	stw	r16,4(sp)
   226a4:	2025883a 	mov	r18,r4
   226a8:	0029c040 	call	29c04 <__sflags>
   226ac:	10002726 	beq	r2,zero,2274c <_fopen_r+0xd0>
   226b0:	9009883a 	mov	r4,r18
   226b4:	1023883a 	mov	r17,r2
   226b8:	0029aac0 	call	29aac <__sfp>
   226bc:	1021883a 	mov	r16,r2
   226c0:	10002226 	beq	r2,zero,2274c <_fopen_r+0xd0>
   226c4:	d9800017 	ldw	r6,0(sp)
   226c8:	01c06d84 	movi	r7,438
   226cc:	980b883a 	mov	r5,r19
   226d0:	9009883a 	mov	r4,r18
   226d4:	00239940 	call	23994 <_open_r>
   226d8:	10001916 	blt	r2,zero,22740 <_fopen_r+0xc4>
   226dc:	018000b4 	movhi	r6,2
   226e0:	014000b4 	movhi	r5,2
   226e4:	010000b4 	movhi	r4,2
   226e8:	00c000b4 	movhi	r3,2
   226ec:	318f8004 	addi	r6,r6,15872
   226f0:	294f9704 	addi	r5,r5,15964
   226f4:	210fb704 	addi	r4,r4,16092
   226f8:	18cfce04 	addi	r3,r3,16184
   226fc:	8440030d 	sth	r17,12(r16)
   22700:	8080038d 	sth	r2,14(r16)
   22704:	84000715 	stw	r16,28(r16)
   22708:	81800815 	stw	r6,32(r16)
   2270c:	81400915 	stw	r5,36(r16)
   22710:	81000a15 	stw	r4,40(r16)
   22714:	80c00b15 	stw	r3,44(r16)
   22718:	8c40400c 	andi	r17,r17,256
   2271c:	88000d1e 	bne	r17,zero,22754 <_fopen_r+0xd8>
   22720:	8005883a 	mov	r2,r16
   22724:	dfc00517 	ldw	ra,20(sp)
   22728:	dcc00417 	ldw	r19,16(sp)
   2272c:	dc800317 	ldw	r18,12(sp)
   22730:	dc400217 	ldw	r17,8(sp)
   22734:	dc000117 	ldw	r16,4(sp)
   22738:	dec00604 	addi	sp,sp,24
   2273c:	f800283a 	ret
   22740:	0029bcc0 	call	29bcc <__sfp_lock_acquire>
   22744:	8000030d 	sth	zero,12(r16)
   22748:	0029bd00 	call	29bd0 <__sfp_lock_release>
   2274c:	0021883a 	mov	r16,zero
   22750:	003ff306 	br	22720 <_fopen_r+0xa4>
   22754:	01c00084 	movi	r7,2
   22758:	000d883a 	mov	r6,zero
   2275c:	800b883a 	mov	r5,r16
   22760:	9009883a 	mov	r4,r18
   22764:	00227d00 	call	227d0 <_fseek_r>
   22768:	003fed06 	br	22720 <_fopen_r+0xa4>

0002276c <fopen>:
   2276c:	00c000f4 	movhi	r3,3
   22770:	2005883a 	mov	r2,r4
   22774:	191b1417 	ldw	r4,27728(r3)
   22778:	280d883a 	mov	r6,r5
   2277c:	100b883a 	mov	r5,r2
   22780:	002267c1 	jmpi	2267c <_fopen_r>

00022784 <_fprintf_r>:
   22784:	defffe04 	addi	sp,sp,-8
   22788:	2809883a 	mov	r4,r5
   2278c:	300b883a 	mov	r5,r6
   22790:	dfc00015 	stw	ra,0(sp)
   22794:	d9c00115 	stw	r7,4(sp)
   22798:	d9800104 	addi	r6,sp,4
   2279c:	00279d00 	call	279d0 <__vfprintf_internal>
   227a0:	dfc00017 	ldw	ra,0(sp)
   227a4:	dec00204 	addi	sp,sp,8
   227a8:	f800283a 	ret

000227ac <fprintf>:
   227ac:	defffd04 	addi	sp,sp,-12
   227b0:	dfc00015 	stw	ra,0(sp)
   227b4:	d9800115 	stw	r6,4(sp)
   227b8:	d9c00215 	stw	r7,8(sp)
   227bc:	d9800104 	addi	r6,sp,4
   227c0:	00279d00 	call	279d0 <__vfprintf_internal>
   227c4:	dfc00017 	ldw	ra,0(sp)
   227c8:	dec00304 	addi	sp,sp,12
   227cc:	f800283a 	ret

000227d0 <_fseek_r>:
   227d0:	00227f01 	jmpi	227f0 <_fseeko_r>

000227d4 <fseek>:
   227d4:	00c000f4 	movhi	r3,3
   227d8:	2005883a 	mov	r2,r4
   227dc:	191b1417 	ldw	r4,27728(r3)
   227e0:	300f883a 	mov	r7,r6
   227e4:	280d883a 	mov	r6,r5
   227e8:	100b883a 	mov	r5,r2
   227ec:	00227f01 	jmpi	227f0 <_fseeko_r>

000227f0 <_fseeko_r>:
   227f0:	deffe504 	addi	sp,sp,-108
   227f4:	dd401715 	stw	r21,92(sp)
   227f8:	dcc01515 	stw	r19,84(sp)
   227fc:	dc401315 	stw	r17,76(sp)
   22800:	dc001215 	stw	r16,72(sp)
   22804:	dfc01a15 	stw	ra,104(sp)
   22808:	ddc01915 	stw	r23,100(sp)
   2280c:	dd801815 	stw	r22,96(sp)
   22810:	dd001615 	stw	r20,88(sp)
   22814:	dc801415 	stw	r18,80(sp)
   22818:	2023883a 	mov	r17,r4
   2281c:	2821883a 	mov	r16,r5
   22820:	3027883a 	mov	r19,r6
   22824:	382b883a 	mov	r21,r7
   22828:	20000226 	beq	r4,zero,22834 <_fseeko_r+0x44>
   2282c:	20800e17 	ldw	r2,56(r4)
   22830:	10001a26 	beq	r2,zero,2289c <_fseeko_r+0xac>
   22834:	8080030b 	ldhu	r2,12(r16)
   22838:	1080420c 	andi	r2,r2,264
   2283c:	10804218 	cmpnei	r2,r2,264
   22840:	10001b26 	beq	r2,zero,228b0 <_fseeko_r+0xc0>
   22844:	85000a17 	ldw	r20,40(r16)
   22848:	a000fa26 	beq	r20,zero,22c34 <_fseeko_r+0x444>
   2284c:	a8800060 	cmpeqi	r2,r21,1
   22850:	10004a1e 	bne	r2,zero,2297c <_fseeko_r+0x18c>
   22854:	04bfff44 	movi	r18,-3
   22858:	aca4703a 	and	r18,r21,r18
   2285c:	90001826 	beq	r18,zero,228c0 <_fseeko_r+0xd0>
   22860:	00800584 	movi	r2,22
   22864:	88800015 	stw	r2,0(r17)
   22868:	04bfffc4 	movi	r18,-1
   2286c:	9005883a 	mov	r2,r18
   22870:	dfc01a17 	ldw	ra,104(sp)
   22874:	ddc01917 	ldw	r23,100(sp)
   22878:	dd801817 	ldw	r22,96(sp)
   2287c:	dd401717 	ldw	r21,92(sp)
   22880:	dd001617 	ldw	r20,88(sp)
   22884:	dcc01517 	ldw	r19,84(sp)
   22888:	dc801417 	ldw	r18,80(sp)
   2288c:	dc401317 	ldw	r17,76(sp)
   22890:	dc001217 	ldw	r16,72(sp)
   22894:	dec01b04 	addi	sp,sp,108
   22898:	f800283a 	ret
   2289c:	0029bbc0 	call	29bbc <__sinit>
   228a0:	8080030b 	ldhu	r2,12(r16)
   228a4:	1080420c 	andi	r2,r2,264
   228a8:	10804218 	cmpnei	r2,r2,264
   228ac:	103fe51e 	bne	r2,zero,22844 <_fseeko_r+0x54>
   228b0:	800b883a 	mov	r5,r16
   228b4:	8809883a 	mov	r4,r17
   228b8:	00298380 	call	29838 <_fflush_r>
   228bc:	003fe106 	br	22844 <_fseeko_r+0x54>
   228c0:	81000417 	ldw	r4,16(r16)
   228c4:	002f883a 	mov	r23,zero
   228c8:	20004826 	beq	r4,zero,229ec <_fseeko_r+0x1fc>
   228cc:	8080030b 	ldhu	r2,12(r16)
   228d0:	10c2068c 	andi	r3,r2,2074
   228d4:	1800071e 	bne	r3,zero,228f4 <_fseeko_r+0x104>
   228d8:	10c1000c 	andi	r3,r2,1024
   228dc:	1800561e 	bne	r3,zero,22a38 <_fseeko_r+0x248>
   228e0:	00c000b4 	movhi	r3,2
   228e4:	18cfb704 	addi	r3,r3,16092
   228e8:	a0c04426 	beq	r20,r3,229fc <_fseeko_r+0x20c>
   228ec:	10820014 	ori	r2,r2,2048
   228f0:	8080030d 	sth	r2,12(r16)
   228f4:	800b883a 	mov	r5,r16
   228f8:	8809883a 	mov	r4,r17
   228fc:	00298380 	call	29838 <_fflush_r>
   22900:	1025883a 	mov	r18,r2
   22904:	103fd81e 	bne	r2,zero,22868 <_fseeko_r+0x78>
   22908:	81400717 	ldw	r5,28(r16)
   2290c:	a80f883a 	mov	r7,r21
   22910:	980d883a 	mov	r6,r19
   22914:	8809883a 	mov	r4,r17
   22918:	a03ee83a 	callr	r20
   2291c:	10bfffe0 	cmpeqi	r2,r2,-1
   22920:	103fd11e 	bne	r2,zero,22868 <_fseeko_r+0x78>
   22924:	81400c17 	ldw	r5,48(r16)
   22928:	28000526 	beq	r5,zero,22940 <_fseeko_r+0x150>
   2292c:	80801004 	addi	r2,r16,64
   22930:	28800226 	beq	r5,r2,2293c <_fseeko_r+0x14c>
   22934:	8809883a 	mov	r4,r17
   22938:	0029dd80 	call	29dd8 <_free_r>
   2293c:	80000c15 	stw	zero,48(r16)
   22940:	8080030b 	ldhu	r2,12(r16)
   22944:	80c00417 	ldw	r3,16(r16)
   22948:	80000115 	stw	zero,4(r16)
   2294c:	10bdf7cc 	andi	r2,r2,63455
   22950:	80c00015 	stw	r3,0(r16)
   22954:	8080030d 	sth	r2,12(r16)
   22958:	80001705 	stb	zero,92(r16)
   2295c:	80001745 	stb	zero,93(r16)
   22960:	80001785 	stb	zero,94(r16)
   22964:	800017c5 	stb	zero,95(r16)
   22968:	80001805 	stb	zero,96(r16)
   2296c:	80001845 	stb	zero,97(r16)
   22970:	80001885 	stb	zero,98(r16)
   22974:	800018c5 	stb	zero,99(r16)
   22978:	003fbc06 	br	2286c <_fseeko_r+0x7c>
   2297c:	800b883a 	mov	r5,r16
   22980:	8809883a 	mov	r4,r17
   22984:	00298380 	call	29838 <_fflush_r>
   22988:	8080030b 	ldhu	r2,12(r16)
   2298c:	10c4000c 	andi	r3,r2,4096
   22990:	18006e1e 	bne	r3,zero,22b4c <_fseeko_r+0x35c>
   22994:	81400717 	ldw	r5,28(r16)
   22998:	01c00044 	movi	r7,1
   2299c:	000d883a 	mov	r6,zero
   229a0:	8809883a 	mov	r4,r17
   229a4:	a03ee83a 	callr	r20
   229a8:	1025883a 	mov	r18,r2
   229ac:	10bfffd8 	cmpnei	r2,r2,-1
   229b0:	103fad26 	beq	r2,zero,22868 <_fseeko_r+0x78>
   229b4:	8080030b 	ldhu	r2,12(r16)
   229b8:	81000417 	ldw	r4,16(r16)
   229bc:	10c0010c 	andi	r3,r2,4
   229c0:	18006626 	beq	r3,zero,22b5c <_fseeko_r+0x36c>
   229c4:	80c00117 	ldw	r3,4(r16)
   229c8:	80800c17 	ldw	r2,48(r16)
   229cc:	90e5c83a 	sub	r18,r18,r3
   229d0:	10000226 	beq	r2,zero,229dc <_fseeko_r+0x1ec>
   229d4:	81800f17 	ldw	r6,60(r16)
   229d8:	91a5c83a 	sub	r18,r18,r6
   229dc:	9ca7883a 	add	r19,r19,r18
   229e0:	05c00044 	movi	r23,1
   229e4:	002b883a 	mov	r21,zero
   229e8:	203fb81e 	bne	r4,zero,228cc <_fseeko_r+0xdc>
   229ec:	800b883a 	mov	r5,r16
   229f0:	8809883a 	mov	r4,r17
   229f4:	0022e640 	call	22e64 <__smakebuf_r>
   229f8:	003fb406 	br	228cc <_fseeko_r+0xdc>
   229fc:	8140038f 	ldh	r5,14(r16)
   22a00:	283fba16 	blt	r5,zero,228ec <_fseeko_r+0xfc>
   22a04:	d80d883a 	mov	r6,sp
   22a08:	8809883a 	mov	r4,r17
   22a0c:	0022c600 	call	22c60 <_fstat_r>
   22a10:	1000761e 	bne	r2,zero,22bec <_fseeko_r+0x3fc>
   22a14:	d8c00117 	ldw	r3,4(sp)
   22a18:	01200014 	movui	r4,32768
   22a1c:	8080030b 	ldhu	r2,12(r16)
   22a20:	18fc000c 	andi	r3,r3,61440
   22a24:	193fb11e 	bne	r3,r4,228ec <_fseeko_r+0xfc>
   22a28:	10810014 	ori	r2,r2,1024
   22a2c:	00c10004 	movi	r3,1024
   22a30:	80c01315 	stw	r3,76(r16)
   22a34:	8080030d 	sth	r2,12(r16)
   22a38:	a8004f1e 	bne	r21,zero,22b78 <_fseeko_r+0x388>
   22a3c:	982d883a 	mov	r22,r19
   22a40:	b800551e 	bne	r23,zero,22b98 <_fseeko_r+0x3a8>
   22a44:	8080030b 	ldhu	r2,12(r16)
   22a48:	1084000c 	andi	r2,r2,4096
   22a4c:	10005f26 	beq	r2,zero,22bcc <_fseeko_r+0x3dc>
   22a50:	80801417 	ldw	r2,80(r16)
   22a54:	80c00117 	ldw	r3,4(r16)
   22a58:	81400c17 	ldw	r5,48(r16)
   22a5c:	1809883a 	mov	r4,r3
   22a60:	10e5c83a 	sub	r18,r2,r3
   22a64:	28005226 	beq	r5,zero,22bb0 <_fseeko_r+0x3c0>
   22a68:	81800f17 	ldw	r6,60(r16)
   22a6c:	91a5c83a 	sub	r18,r18,r6
   22a70:	80800e17 	ldw	r2,56(r16)
   22a74:	81c00417 	ldw	r7,16(r16)
   22a78:	90e5883a 	add	r18,r18,r3
   22a7c:	11c5c83a 	sub	r2,r2,r7
   22a80:	90a5c83a 	sub	r18,r18,r2
   22a84:	1185883a 	add	r2,r2,r6
   22a88:	b4800216 	blt	r22,r18,22a94 <_fseeko_r+0x2a4>
   22a8c:	9087883a 	add	r3,r18,r2
   22a90:	b0c05836 	bltu	r22,r3,22bf4 <_fseeko_r+0x404>
   22a94:	84801317 	ldw	r18,76(r16)
   22a98:	81400717 	ldw	r5,28(r16)
   22a9c:	000f883a 	mov	r7,zero
   22aa0:	04a5c83a 	sub	r18,zero,r18
   22aa4:	95a4703a 	and	r18,r18,r22
   22aa8:	900d883a 	mov	r6,r18
   22aac:	8809883a 	mov	r4,r17
   22ab0:	a03ee83a 	callr	r20
   22ab4:	10bfffe0 	cmpeqi	r2,r2,-1
   22ab8:	103f8e1e 	bne	r2,zero,228f4 <_fseeko_r+0x104>
   22abc:	80800417 	ldw	r2,16(r16)
   22ac0:	81400c17 	ldw	r5,48(r16)
   22ac4:	80000115 	stw	zero,4(r16)
   22ac8:	80800015 	stw	r2,0(r16)
   22acc:	28000526 	beq	r5,zero,22ae4 <_fseeko_r+0x2f4>
   22ad0:	80801004 	addi	r2,r16,64
   22ad4:	28800226 	beq	r5,r2,22ae0 <_fseeko_r+0x2f0>
   22ad8:	8809883a 	mov	r4,r17
   22adc:	0029dd80 	call	29dd8 <_free_r>
   22ae0:	80000c15 	stw	zero,48(r16)
   22ae4:	8080030b 	ldhu	r2,12(r16)
   22ae8:	b4afc83a 	sub	r23,r22,r18
   22aec:	10bff7cc 	andi	r2,r2,65503
   22af0:	8080030d 	sth	r2,12(r16)
   22af4:	b4800b26 	beq	r22,r18,22b24 <_fseeko_r+0x334>
   22af8:	800b883a 	mov	r5,r16
   22afc:	8809883a 	mov	r4,r17
   22b00:	0023b580 	call	23b58 <__srefill_r>
   22b04:	103f7b1e 	bne	r2,zero,228f4 <_fseeko_r+0x104>
   22b08:	80800117 	ldw	r2,4(r16)
   22b0c:	15ff7936 	bltu	r2,r23,228f4 <_fseeko_r+0x104>
   22b10:	80c00017 	ldw	r3,0(r16)
   22b14:	15c5c83a 	sub	r2,r2,r23
   22b18:	80800115 	stw	r2,4(r16)
   22b1c:	1def883a 	add	r23,r3,r23
   22b20:	85c00015 	stw	r23,0(r16)
   22b24:	80001705 	stb	zero,92(r16)
   22b28:	80001745 	stb	zero,93(r16)
   22b2c:	80001785 	stb	zero,94(r16)
   22b30:	800017c5 	stb	zero,95(r16)
   22b34:	80001805 	stb	zero,96(r16)
   22b38:	80001845 	stb	zero,97(r16)
   22b3c:	80001885 	stb	zero,98(r16)
   22b40:	800018c5 	stb	zero,99(r16)
   22b44:	0025883a 	mov	r18,zero
   22b48:	003f4806 	br	2286c <_fseeko_r+0x7c>
   22b4c:	10c0010c 	andi	r3,r2,4
   22b50:	84801417 	ldw	r18,80(r16)
   22b54:	81000417 	ldw	r4,16(r16)
   22b58:	183f9a1e 	bne	r3,zero,229c4 <_fseeko_r+0x1d4>
   22b5c:	1080020c 	andi	r2,r2,8
   22b60:	103f9e26 	beq	r2,zero,229dc <_fseeko_r+0x1ec>
   22b64:	80800017 	ldw	r2,0(r16)
   22b68:	103f9c26 	beq	r2,zero,229dc <_fseeko_r+0x1ec>
   22b6c:	1105c83a 	sub	r2,r2,r4
   22b70:	90a5883a 	add	r18,r18,r2
   22b74:	003f9906 	br	229dc <_fseeko_r+0x1ec>
   22b78:	8140038f 	ldh	r5,14(r16)
   22b7c:	d80d883a 	mov	r6,sp
   22b80:	8809883a 	mov	r4,r17
   22b84:	0022c600 	call	22c60 <_fstat_r>
   22b88:	103f5a1e 	bne	r2,zero,228f4 <_fseeko_r+0x104>
   22b8c:	dd800417 	ldw	r22,16(sp)
   22b90:	9dad883a 	add	r22,r19,r22
   22b94:	b83fab26 	beq	r23,zero,22a44 <_fseeko_r+0x254>
   22b98:	81400c17 	ldw	r5,48(r16)
   22b9c:	28000326 	beq	r5,zero,22bac <_fseeko_r+0x3bc>
   22ba0:	80c00117 	ldw	r3,4(r16)
   22ba4:	81800f17 	ldw	r6,60(r16)
   22ba8:	003fb106 	br	22a70 <_fseeko_r+0x280>
   22bac:	81000117 	ldw	r4,4(r16)
   22bb0:	80800017 	ldw	r2,0(r16)
   22bb4:	81c00417 	ldw	r7,16(r16)
   22bb8:	000b883a 	mov	r5,zero
   22bbc:	11c5c83a 	sub	r2,r2,r7
   22bc0:	90a5c83a 	sub	r18,r18,r2
   22bc4:	2085883a 	add	r2,r4,r2
   22bc8:	003faf06 	br	22a88 <_fseeko_r+0x298>
   22bcc:	81400717 	ldw	r5,28(r16)
   22bd0:	01c00044 	movi	r7,1
   22bd4:	000d883a 	mov	r6,zero
   22bd8:	8809883a 	mov	r4,r17
   22bdc:	a03ee83a 	callr	r20
   22be0:	10ffffe0 	cmpeqi	r3,r2,-1
   22be4:	183f9b26 	beq	r3,zero,22a54 <_fseeko_r+0x264>
   22be8:	003f4206 	br	228f4 <_fseeko_r+0x104>
   22bec:	8080030b 	ldhu	r2,12(r16)
   22bf0:	003f3e06 	br	228ec <_fseeko_r+0xfc>
   22bf4:	b4a5c83a 	sub	r18,r22,r18
   22bf8:	3c8f883a 	add	r7,r7,r18
   22bfc:	14a5c83a 	sub	r18,r2,r18
   22c00:	81c00015 	stw	r7,0(r16)
   22c04:	84800115 	stw	r18,4(r16)
   22c08:	28000526 	beq	r5,zero,22c20 <_fseeko_r+0x430>
   22c0c:	80801004 	addi	r2,r16,64
   22c10:	28800226 	beq	r5,r2,22c1c <_fseeko_r+0x42c>
   22c14:	8809883a 	mov	r4,r17
   22c18:	0029dd80 	call	29dd8 <_free_r>
   22c1c:	80000c15 	stw	zero,48(r16)
   22c20:	80c0030b 	ldhu	r3,12(r16)
   22c24:	80001705 	stb	zero,92(r16)
   22c28:	18fff7cc 	andi	r3,r3,65503
   22c2c:	80c0030d 	sth	r3,12(r16)
   22c30:	003fbd06 	br	22b28 <_fseeko_r+0x338>
   22c34:	00800744 	movi	r2,29
   22c38:	88800015 	stw	r2,0(r17)
   22c3c:	04bfffc4 	movi	r18,-1
   22c40:	003f0a06 	br	2286c <_fseeko_r+0x7c>

00022c44 <fseeko>:
   22c44:	00c000f4 	movhi	r3,3
   22c48:	2005883a 	mov	r2,r4
   22c4c:	191b1417 	ldw	r4,27728(r3)
   22c50:	300f883a 	mov	r7,r6
   22c54:	280d883a 	mov	r6,r5
   22c58:	100b883a 	mov	r5,r2
   22c5c:	00227f01 	jmpi	227f0 <_fseeko_r>

00022c60 <_fstat_r>:
   22c60:	2807883a 	mov	r3,r5
   22c64:	defffe04 	addi	sp,sp,-8
   22c68:	dc000015 	stw	r16,0(sp)
   22c6c:	00800134 	movhi	r2,4
   22c70:	300b883a 	mov	r5,r6
   22c74:	2021883a 	mov	r16,r4
   22c78:	1809883a 	mov	r4,r3
   22c7c:	dfc00115 	stw	ra,4(sp)
   22c80:	10222715 	stw	zero,-30564(r2)
   22c84:	00318ac0 	call	318ac <fstat>
   22c88:	10ffffd8 	cmpnei	r3,r2,-1
   22c8c:	18000426 	beq	r3,zero,22ca0 <_fstat_r+0x40>
   22c90:	dfc00117 	ldw	ra,4(sp)
   22c94:	dc000017 	ldw	r16,0(sp)
   22c98:	dec00204 	addi	sp,sp,8
   22c9c:	f800283a 	ret
   22ca0:	00c00134 	movhi	r3,4
   22ca4:	18e22717 	ldw	r3,-30564(r3)
   22ca8:	183ff926 	beq	r3,zero,22c90 <_fstat_r+0x30>
   22cac:	80c00015 	stw	r3,0(r16)
   22cb0:	dfc00117 	ldw	ra,4(sp)
   22cb4:	dc000017 	ldw	r16,0(sp)
   22cb8:	dec00204 	addi	sp,sp,8
   22cbc:	f800283a 	ret

00022cc0 <_getc_r>:
   22cc0:	defffd04 	addi	sp,sp,-12
   22cc4:	dc000115 	stw	r16,4(sp)
   22cc8:	dfc00215 	stw	ra,8(sp)
   22ccc:	2021883a 	mov	r16,r4
   22cd0:	20000226 	beq	r4,zero,22cdc <_getc_r+0x1c>
   22cd4:	20800e17 	ldw	r2,56(r4)
   22cd8:	10000c26 	beq	r2,zero,22d0c <_getc_r+0x4c>
   22cdc:	28800117 	ldw	r2,4(r5)
   22ce0:	10bfffc4 	addi	r2,r2,-1
   22ce4:	28800115 	stw	r2,4(r5)
   22ce8:	10000f16 	blt	r2,zero,22d28 <_getc_r+0x68>
   22cec:	28800017 	ldw	r2,0(r5)
   22cf0:	10c00044 	addi	r3,r2,1
   22cf4:	28c00015 	stw	r3,0(r5)
   22cf8:	10800003 	ldbu	r2,0(r2)
   22cfc:	dfc00217 	ldw	ra,8(sp)
   22d00:	dc000117 	ldw	r16,4(sp)
   22d04:	dec00304 	addi	sp,sp,12
   22d08:	f800283a 	ret
   22d0c:	d9400015 	stw	r5,0(sp)
   22d10:	0029bbc0 	call	29bbc <__sinit>
   22d14:	d9400017 	ldw	r5,0(sp)
   22d18:	28800117 	ldw	r2,4(r5)
   22d1c:	10bfffc4 	addi	r2,r2,-1
   22d20:	28800115 	stw	r2,4(r5)
   22d24:	103ff10e 	bge	r2,zero,22cec <_getc_r+0x2c>
   22d28:	8009883a 	mov	r4,r16
   22d2c:	dfc00217 	ldw	ra,8(sp)
   22d30:	dc000117 	ldw	r16,4(sp)
   22d34:	dec00304 	addi	sp,sp,12
   22d38:	0023d241 	jmpi	23d24 <__srget_r>

00022d3c <getc>:
   22d3c:	defffd04 	addi	sp,sp,-12
   22d40:	008000f4 	movhi	r2,3
   22d44:	dc400115 	stw	r17,4(sp)
   22d48:	145b1417 	ldw	r17,27728(r2)
   22d4c:	dc000015 	stw	r16,0(sp)
   22d50:	dfc00215 	stw	ra,8(sp)
   22d54:	2021883a 	mov	r16,r4
   22d58:	88000226 	beq	r17,zero,22d64 <getc+0x28>
   22d5c:	88800e17 	ldw	r2,56(r17)
   22d60:	10000d26 	beq	r2,zero,22d98 <getc+0x5c>
   22d64:	80800117 	ldw	r2,4(r16)
   22d68:	10bfffc4 	addi	r2,r2,-1
   22d6c:	80800115 	stw	r2,4(r16)
   22d70:	10000f16 	blt	r2,zero,22db0 <getc+0x74>
   22d74:	80800017 	ldw	r2,0(r16)
   22d78:	10c00044 	addi	r3,r2,1
   22d7c:	80c00015 	stw	r3,0(r16)
   22d80:	10800003 	ldbu	r2,0(r2)
   22d84:	dfc00217 	ldw	ra,8(sp)
   22d88:	dc400117 	ldw	r17,4(sp)
   22d8c:	dc000017 	ldw	r16,0(sp)
   22d90:	dec00304 	addi	sp,sp,12
   22d94:	f800283a 	ret
   22d98:	8809883a 	mov	r4,r17
   22d9c:	0029bbc0 	call	29bbc <__sinit>
   22da0:	80800117 	ldw	r2,4(r16)
   22da4:	10bfffc4 	addi	r2,r2,-1
   22da8:	80800115 	stw	r2,4(r16)
   22dac:	103ff10e 	bge	r2,zero,22d74 <getc+0x38>
   22db0:	800b883a 	mov	r5,r16
   22db4:	8809883a 	mov	r4,r17
   22db8:	dfc00217 	ldw	ra,8(sp)
   22dbc:	dc400117 	ldw	r17,4(sp)
   22dc0:	dc000017 	ldw	r16,0(sp)
   22dc4:	dec00304 	addi	sp,sp,12
   22dc8:	0023d241 	jmpi	23d24 <__srget_r>

00022dcc <__swhatbuf_r>:
   22dcc:	deffea04 	addi	sp,sp,-88
   22dd0:	dc001215 	stw	r16,72(sp)
   22dd4:	2821883a 	mov	r16,r5
   22dd8:	2940038f 	ldh	r5,14(r5)
   22ddc:	dc801415 	stw	r18,80(sp)
   22de0:	dc401315 	stw	r17,76(sp)
   22de4:	dfc01515 	stw	ra,84(sp)
   22de8:	3023883a 	mov	r17,r6
   22dec:	3825883a 	mov	r18,r7
   22df0:	28001016 	blt	r5,zero,22e34 <__swhatbuf_r+0x68>
   22df4:	d80d883a 	mov	r6,sp
   22df8:	0022c600 	call	22c60 <_fstat_r>
   22dfc:	10000d16 	blt	r2,zero,22e34 <__swhatbuf_r+0x68>
   22e00:	d8c00117 	ldw	r3,4(sp)
   22e04:	00820004 	movi	r2,2048
   22e08:	18fc000c 	andi	r3,r3,61440
   22e0c:	18c80020 	cmpeqi	r3,r3,8192
   22e10:	90c00015 	stw	r3,0(r18)
   22e14:	00c10004 	movi	r3,1024
   22e18:	88c00015 	stw	r3,0(r17)
   22e1c:	dfc01517 	ldw	ra,84(sp)
   22e20:	dc801417 	ldw	r18,80(sp)
   22e24:	dc401317 	ldw	r17,76(sp)
   22e28:	dc001217 	ldw	r16,72(sp)
   22e2c:	dec01604 	addi	sp,sp,88
   22e30:	f800283a 	ret
   22e34:	8080030b 	ldhu	r2,12(r16)
   22e38:	90000015 	stw	zero,0(r18)
   22e3c:	1080200c 	andi	r2,r2,128
   22e40:	10000426 	beq	r2,zero,22e54 <__swhatbuf_r+0x88>
   22e44:	00801004 	movi	r2,64
   22e48:	88800015 	stw	r2,0(r17)
   22e4c:	0005883a 	mov	r2,zero
   22e50:	003ff206 	br	22e1c <__swhatbuf_r+0x50>
   22e54:	00810004 	movi	r2,1024
   22e58:	88800015 	stw	r2,0(r17)
   22e5c:	0005883a 	mov	r2,zero
   22e60:	003fee06 	br	22e1c <__swhatbuf_r+0x50>

00022e64 <__smakebuf_r>:
   22e64:	2880030b 	ldhu	r2,12(r5)
   22e68:	defffa04 	addi	sp,sp,-24
   22e6c:	dc000215 	stw	r16,8(sp)
   22e70:	dfc00515 	stw	ra,20(sp)
   22e74:	dc800415 	stw	r18,16(sp)
   22e78:	dc400315 	stw	r17,12(sp)
   22e7c:	1080008c 	andi	r2,r2,2
   22e80:	2821883a 	mov	r16,r5
   22e84:	10000b26 	beq	r2,zero,22eb4 <__smakebuf_r+0x50>
   22e88:	288010c4 	addi	r2,r5,67
   22e8c:	28800015 	stw	r2,0(r5)
   22e90:	28800415 	stw	r2,16(r5)
   22e94:	00800044 	movi	r2,1
   22e98:	28800515 	stw	r2,20(r5)
   22e9c:	dfc00517 	ldw	ra,20(sp)
   22ea0:	dc800417 	ldw	r18,16(sp)
   22ea4:	dc400317 	ldw	r17,12(sp)
   22ea8:	dc000217 	ldw	r16,8(sp)
   22eac:	dec00604 	addi	sp,sp,24
   22eb0:	f800283a 	ret
   22eb4:	d9c00104 	addi	r7,sp,4
   22eb8:	d80d883a 	mov	r6,sp
   22ebc:	2023883a 	mov	r17,r4
   22ec0:	0022dcc0 	call	22dcc <__swhatbuf_r>
   22ec4:	d9000117 	ldw	r4,4(sp)
   22ec8:	1025883a 	mov	r18,r2
   22ecc:	2000131e 	bne	r4,zero,22f1c <__smakebuf_r+0xb8>
   22ed0:	d9400017 	ldw	r5,0(sp)
   22ed4:	8809883a 	mov	r4,r17
   22ed8:	0022fc40 	call	22fc4 <_malloc_r>
   22edc:	10001c26 	beq	r2,zero,22f50 <__smakebuf_r+0xec>
   22ee0:	010000f4 	movhi	r4,3
   22ee4:	21263204 	addi	r4,r4,-26424
   22ee8:	80c0030b 	ldhu	r3,12(r16)
   22eec:	89000f15 	stw	r4,60(r17)
   22ef0:	80800015 	stw	r2,0(r16)
   22ef4:	80800415 	stw	r2,16(r16)
   22ef8:	d8800017 	ldw	r2,0(sp)
   22efc:	d9400117 	ldw	r5,4(sp)
   22f00:	18c02014 	ori	r3,r3,128
   22f04:	80c0030d 	sth	r3,12(r16)
   22f08:	80800515 	stw	r2,20(r16)
   22f0c:	28001d1e 	bne	r5,zero,22f84 <__smakebuf_r+0x120>
   22f10:	90c6b03a 	or	r3,r18,r3
   22f14:	80c0030d 	sth	r3,12(r16)
   22f18:	003fe006 	br	22e9c <__smakebuf_r+0x38>
   22f1c:	8140038f 	ldh	r5,14(r16)
   22f20:	8809883a 	mov	r4,r17
   22f24:	002b2a00 	call	2b2a0 <_isatty_r>
   22f28:	103fe926 	beq	r2,zero,22ed0 <__smakebuf_r+0x6c>
   22f2c:	8080030b 	ldhu	r2,12(r16)
   22f30:	80c010c4 	addi	r3,r16,67
   22f34:	80c00015 	stw	r3,0(r16)
   22f38:	10800054 	ori	r2,r2,1
   22f3c:	8080030d 	sth	r2,12(r16)
   22f40:	00800044 	movi	r2,1
   22f44:	80c00415 	stw	r3,16(r16)
   22f48:	80800515 	stw	r2,20(r16)
   22f4c:	003fe006 	br	22ed0 <__smakebuf_r+0x6c>
   22f50:	8080030b 	ldhu	r2,12(r16)
   22f54:	10c0800c 	andi	r3,r2,512
   22f58:	183fd01e 	bne	r3,zero,22e9c <__smakebuf_r+0x38>
   22f5c:	00ffff04 	movi	r3,-4
   22f60:	10c4703a 	and	r2,r2,r3
   22f64:	10800094 	ori	r2,r2,2
   22f68:	80c010c4 	addi	r3,r16,67
   22f6c:	8080030d 	sth	r2,12(r16)
   22f70:	00800044 	movi	r2,1
   22f74:	80c00015 	stw	r3,0(r16)
   22f78:	80c00415 	stw	r3,16(r16)
   22f7c:	80800515 	stw	r2,20(r16)
   22f80:	003fc606 	br	22e9c <__smakebuf_r+0x38>
   22f84:	8140038f 	ldh	r5,14(r16)
   22f88:	8809883a 	mov	r4,r17
   22f8c:	002b2a00 	call	2b2a0 <_isatty_r>
   22f90:	80c0030b 	ldhu	r3,12(r16)
   22f94:	103fde26 	beq	r2,zero,22f10 <__smakebuf_r+0xac>
   22f98:	18ffff0c 	andi	r3,r3,65532
   22f9c:	18c00054 	ori	r3,r3,1
   22fa0:	003fdb06 	br	22f10 <__smakebuf_r+0xac>

00022fa4 <malloc>:
   22fa4:	008000f4 	movhi	r2,3
   22fa8:	200b883a 	mov	r5,r4
   22fac:	111b1417 	ldw	r4,27728(r2)
   22fb0:	0022fc41 	jmpi	22fc4 <_malloc_r>

00022fb4 <free>:
   22fb4:	008000f4 	movhi	r2,3
   22fb8:	200b883a 	mov	r5,r4
   22fbc:	111b1417 	ldw	r4,27728(r2)
   22fc0:	0029dd81 	jmpi	29dd8 <_free_r>

00022fc4 <_malloc_r>:
   22fc4:	defff604 	addi	sp,sp,-40
   22fc8:	dc400115 	stw	r17,4(sp)
   22fcc:	2c4002c4 	addi	r17,r5,11
   22fd0:	dc800215 	stw	r18,8(sp)
   22fd4:	dfc00915 	stw	ra,36(sp)
   22fd8:	df000815 	stw	fp,32(sp)
   22fdc:	ddc00715 	stw	r23,28(sp)
   22fe0:	dd800615 	stw	r22,24(sp)
   22fe4:	dd400515 	stw	r21,20(sp)
   22fe8:	dd000415 	stw	r20,16(sp)
   22fec:	dcc00315 	stw	r19,12(sp)
   22ff0:	dc000015 	stw	r16,0(sp)
   22ff4:	888005e8 	cmpgeui	r2,r17,23
   22ff8:	2025883a 	mov	r18,r4
   22ffc:	10001b1e 	bne	r2,zero,2306c <_malloc_r+0xa8>
   23000:	29400468 	cmpgeui	r5,r5,17
   23004:	2800821e 	bne	r5,zero,23210 <_malloc_r+0x24c>
   23008:	0031fbc0 	call	31fbc <__malloc_lock>
   2300c:	04400404 	movi	r17,16
   23010:	01c00084 	movi	r7,2
   23014:	00800604 	movi	r2,24
   23018:	04c000f4 	movhi	r19,3
   2301c:	9cd52904 	addi	r19,r19,21668
   23020:	9885883a 	add	r2,r19,r2
   23024:	14000117 	ldw	r16,4(r2)
   23028:	10fffe04 	addi	r3,r2,-8
   2302c:	80c08b26 	beq	r16,r3,2325c <_malloc_r+0x298>
   23030:	80800117 	ldw	r2,4(r16)
   23034:	81000317 	ldw	r4,12(r16)
   23038:	00ffff04 	movi	r3,-4
   2303c:	10c4703a 	and	r2,r2,r3
   23040:	81400217 	ldw	r5,8(r16)
   23044:	8085883a 	add	r2,r16,r2
   23048:	10c00117 	ldw	r3,4(r2)
   2304c:	29000315 	stw	r4,12(r5)
   23050:	21400215 	stw	r5,8(r4)
   23054:	18c00054 	ori	r3,r3,1
   23058:	10c00115 	stw	r3,4(r2)
   2305c:	9009883a 	mov	r4,r18
   23060:	0031fe00 	call	31fe0 <__malloc_unlock>
   23064:	80800204 	addi	r2,r16,8
   23068:	00006c06 	br	2321c <_malloc_r+0x258>
   2306c:	00bffe04 	movi	r2,-8
   23070:	88a2703a 	and	r17,r17,r2
   23074:	88006616 	blt	r17,zero,23210 <_malloc_r+0x24c>
   23078:	89406536 	bltu	r17,r5,23210 <_malloc_r+0x24c>
   2307c:	0031fbc0 	call	31fbc <__malloc_lock>
   23080:	88807e28 	cmpgeui	r2,r17,504
   23084:	10012226 	beq	r2,zero,23510 <_malloc_r+0x54c>
   23088:	8804d27a 	srli	r2,r17,9
   2308c:	10006f26 	beq	r2,zero,2324c <_malloc_r+0x288>
   23090:	10c00168 	cmpgeui	r3,r2,5
   23094:	1800fe1e 	bne	r3,zero,23490 <_malloc_r+0x4cc>
   23098:	8804d1ba 	srli	r2,r17,6
   2309c:	11c00e44 	addi	r7,r2,57
   230a0:	380890fa 	slli	r4,r7,3
   230a4:	12000e04 	addi	r8,r2,56
   230a8:	04c000f4 	movhi	r19,3
   230ac:	9cd52904 	addi	r19,r19,21668
   230b0:	9909883a 	add	r4,r19,r4
   230b4:	24000117 	ldw	r16,4(r4)
   230b8:	213ffe04 	addi	r4,r4,-8
   230bc:	24000b26 	beq	r4,r16,230ec <_malloc_r+0x128>
   230c0:	01bfff04 	movi	r6,-4
   230c4:	00000306 	br	230d4 <_malloc_r+0x110>
   230c8:	1800d60e 	bge	r3,zero,23424 <_malloc_r+0x460>
   230cc:	84000317 	ldw	r16,12(r16)
   230d0:	24000626 	beq	r4,r16,230ec <_malloc_r+0x128>
   230d4:	80800117 	ldw	r2,4(r16)
   230d8:	1184703a 	and	r2,r2,r6
   230dc:	1447c83a 	sub	r3,r2,r17
   230e0:	19400408 	cmpgei	r5,r3,16
   230e4:	283ff826 	beq	r5,zero,230c8 <_malloc_r+0x104>
   230e8:	400f883a 	mov	r7,r8
   230ec:	9c000417 	ldw	r16,16(r19)
   230f0:	024000f4 	movhi	r9,3
   230f4:	4a552b04 	addi	r9,r9,21676
   230f8:	82405f26 	beq	r16,r9,23278 <_malloc_r+0x2b4>
   230fc:	80c00117 	ldw	r3,4(r16)
   23100:	00bfff04 	movi	r2,-4
   23104:	1884703a 	and	r2,r3,r2
   23108:	1447c83a 	sub	r3,r2,r17
   2310c:	19000410 	cmplti	r4,r3,16
   23110:	20010a26 	beq	r4,zero,2353c <_malloc_r+0x578>
   23114:	9a400515 	stw	r9,20(r19)
   23118:	9a400415 	stw	r9,16(r19)
   2311c:	1800ff0e 	bge	r3,zero,2351c <_malloc_r+0x558>
   23120:	10c08028 	cmpgeui	r3,r2,512
   23124:	1800c11e 	bne	r3,zero,2342c <_malloc_r+0x468>
   23128:	1006d0fa 	srli	r3,r2,3
   2312c:	1008d17a 	srli	r4,r2,5
   23130:	00800044 	movi	r2,1
   23134:	18c00044 	addi	r3,r3,1
   23138:	180690fa 	slli	r3,r3,3
   2313c:	99400117 	ldw	r5,4(r19)
   23140:	1104983a 	sll	r2,r2,r4
   23144:	98c7883a 	add	r3,r19,r3
   23148:	19000017 	ldw	r4,0(r3)
   2314c:	1144b03a 	or	r2,r2,r5
   23150:	197ffe04 	addi	r5,r3,-8
   23154:	81400315 	stw	r5,12(r16)
   23158:	81000215 	stw	r4,8(r16)
   2315c:	98800115 	stw	r2,4(r19)
   23160:	1c000015 	stw	r16,0(r3)
   23164:	24000315 	stw	r16,12(r4)
   23168:	3807d0ba 	srai	r3,r7,2
   2316c:	01000044 	movi	r4,1
   23170:	20c8983a 	sll	r4,r4,r3
   23174:	11004536 	bltu	r2,r4,2328c <_malloc_r+0x2c8>
   23178:	2086703a 	and	r3,r4,r2
   2317c:	18000a1e 	bne	r3,zero,231a8 <_malloc_r+0x1e4>
   23180:	00ffff04 	movi	r3,-4
   23184:	2109883a 	add	r4,r4,r4
   23188:	38ce703a 	and	r7,r7,r3
   2318c:	2086703a 	and	r3,r4,r2
   23190:	39c00104 	addi	r7,r7,4
   23194:	1800041e 	bne	r3,zero,231a8 <_malloc_r+0x1e4>
   23198:	2109883a 	add	r4,r4,r4
   2319c:	2086703a 	and	r3,r4,r2
   231a0:	39c00104 	addi	r7,r7,4
   231a4:	183ffc26 	beq	r3,zero,23198 <_malloc_r+0x1d4>
   231a8:	02bfff04 	movi	r10,-4
   231ac:	381690fa 	slli	r11,r7,3
   231b0:	3819883a 	mov	r12,r7
   231b4:	9ad7883a 	add	r11,r19,r11
   231b8:	5811883a 	mov	r8,r11
   231bc:	40800317 	ldw	r2,12(r8)
   231c0:	4080bc26 	beq	r8,r2,234b4 <_malloc_r+0x4f0>
   231c4:	10c00117 	ldw	r3,4(r2)
   231c8:	1021883a 	mov	r16,r2
   231cc:	10800317 	ldw	r2,12(r2)
   231d0:	1a86703a 	and	r3,r3,r10
   231d4:	1c4bc83a 	sub	r5,r3,r17
   231d8:	29800410 	cmplti	r6,r5,16
   231dc:	3000ba26 	beq	r6,zero,234c8 <_malloc_r+0x504>
   231e0:	283ff716 	blt	r5,zero,231c0 <_malloc_r+0x1fc>
   231e4:	80c7883a 	add	r3,r16,r3
   231e8:	19400117 	ldw	r5,4(r3)
   231ec:	81800217 	ldw	r6,8(r16)
   231f0:	9009883a 	mov	r4,r18
   231f4:	29400054 	ori	r5,r5,1
   231f8:	19400115 	stw	r5,4(r3)
   231fc:	30800315 	stw	r2,12(r6)
   23200:	11800215 	stw	r6,8(r2)
   23204:	0031fe00 	call	31fe0 <__malloc_unlock>
   23208:	80800204 	addi	r2,r16,8
   2320c:	00000306 	br	2321c <_malloc_r+0x258>
   23210:	00800304 	movi	r2,12
   23214:	90800015 	stw	r2,0(r18)
   23218:	0005883a 	mov	r2,zero
   2321c:	dfc00917 	ldw	ra,36(sp)
   23220:	df000817 	ldw	fp,32(sp)
   23224:	ddc00717 	ldw	r23,28(sp)
   23228:	dd800617 	ldw	r22,24(sp)
   2322c:	dd400517 	ldw	r21,20(sp)
   23230:	dd000417 	ldw	r20,16(sp)
   23234:	dcc00317 	ldw	r19,12(sp)
   23238:	dc800217 	ldw	r18,8(sp)
   2323c:	dc400117 	ldw	r17,4(sp)
   23240:	dc000017 	ldw	r16,0(sp)
   23244:	dec00a04 	addi	sp,sp,40
   23248:	f800283a 	ret
   2324c:	01008004 	movi	r4,512
   23250:	01c01004 	movi	r7,64
   23254:	02000fc4 	movi	r8,63
   23258:	003f9306 	br	230a8 <_malloc_r+0xe4>
   2325c:	14000317 	ldw	r16,12(r2)
   23260:	39c00084 	addi	r7,r7,2
   23264:	143f721e 	bne	r2,r16,23030 <_malloc_r+0x6c>
   23268:	9c000417 	ldw	r16,16(r19)
   2326c:	024000f4 	movhi	r9,3
   23270:	4a552b04 	addi	r9,r9,21676
   23274:	827fa11e 	bne	r16,r9,230fc <_malloc_r+0x138>
   23278:	3807d0ba 	srai	r3,r7,2
   2327c:	01000044 	movi	r4,1
   23280:	98800117 	ldw	r2,4(r19)
   23284:	20c8983a 	sll	r4,r4,r3
   23288:	113fbb2e 	bgeu	r2,r4,23178 <_malloc_r+0x1b4>
   2328c:	9c000217 	ldw	r16,8(r19)
   23290:	00bfff04 	movi	r2,-4
   23294:	85400117 	ldw	r21,4(r16)
   23298:	a8ac703a 	and	r22,r21,r2
   2329c:	b4400336 	bltu	r22,r17,232ac <_malloc_r+0x2e8>
   232a0:	b445c83a 	sub	r2,r22,r17
   232a4:	10c00408 	cmpgei	r3,r2,16
   232a8:	1800541e 	bne	r3,zero,233fc <_malloc_r+0x438>
   232ac:	008000f4 	movhi	r2,3
   232b0:	109b1517 	ldw	r2,27732(r2)
   232b4:	00c00134 	movhi	r3,4
   232b8:	1d622a17 	ldw	r21,-30552(r3)
   232bc:	10bfffd8 	cmpnei	r2,r2,-1
   232c0:	85b9883a 	add	fp,r16,r22
   232c4:	8d6b883a 	add	r21,r17,r21
   232c8:	1000d626 	beq	r2,zero,23624 <_malloc_r+0x660>
   232cc:	ad4403c4 	addi	r21,r21,4111
   232d0:	00bc0004 	movi	r2,-4096
   232d4:	a8aa703a 	and	r21,r21,r2
   232d8:	a80b883a 	mov	r5,r21
   232dc:	9009883a 	mov	r4,r18
   232e0:	0023da80 	call	23da8 <_sbrk_r>
   232e4:	102f883a 	mov	r23,r2
   232e8:	10bfffd8 	cmpnei	r2,r2,-1
   232ec:	1000a826 	beq	r2,zero,23590 <_malloc_r+0x5cc>
   232f0:	bf00a636 	bltu	r23,fp,2358c <_malloc_r+0x5c8>
   232f4:	00800134 	movhi	r2,4
   232f8:	15223517 	ldw	r20,-30508(r2)
   232fc:	ad29883a 	add	r20,r21,r20
   23300:	15223515 	stw	r20,-30508(r2)
   23304:	a007883a 	mov	r3,r20
   23308:	e5c0ec26 	beq	fp,r23,236bc <_malloc_r+0x6f8>
   2330c:	008000f4 	movhi	r2,3
   23310:	109b1517 	ldw	r2,27732(r2)
   23314:	10bfffd8 	cmpnei	r2,r2,-1
   23318:	1000ef26 	beq	r2,zero,236d8 <_malloc_r+0x714>
   2331c:	bf39c83a 	sub	fp,r23,fp
   23320:	e0c7883a 	add	r3,fp,r3
   23324:	00800134 	movhi	r2,4
   23328:	10e23515 	stw	r3,-30508(r2)
   2332c:	bf0001cc 	andi	fp,r23,7
   23330:	e000c526 	beq	fp,zero,23648 <_malloc_r+0x684>
   23334:	bf2fc83a 	sub	r23,r23,fp
   23338:	bdc00204 	addi	r23,r23,8
   2333c:	05040204 	movi	r20,4104
   23340:	a729c83a 	sub	r20,r20,fp
   23344:	bd6b883a 	add	r21,r23,r21
   23348:	a569c83a 	sub	r20,r20,r21
   2334c:	a503ffcc 	andi	r20,r20,4095
   23350:	a00b883a 	mov	r5,r20
   23354:	9009883a 	mov	r4,r18
   23358:	0023da80 	call	23da8 <_sbrk_r>
   2335c:	10ffffe0 	cmpeqi	r3,r2,-1
   23360:	1800f31e 	bne	r3,zero,23730 <_malloc_r+0x76c>
   23364:	15c5c83a 	sub	r2,r2,r23
   23368:	152b883a 	add	r21,r2,r20
   2336c:	00800134 	movhi	r2,4
   23370:	11623517 	ldw	r5,-30508(r2)
   23374:	9dc00215 	stw	r23,8(r19)
   23378:	ad400054 	ori	r21,r21,1
   2337c:	a169883a 	add	r20,r20,r5
   23380:	15223515 	stw	r20,-30508(r2)
   23384:	bd400115 	stw	r21,4(r23)
   23388:	84c0d626 	beq	r16,r19,236e4 <_malloc_r+0x720>
   2338c:	b0800428 	cmpgeui	r2,r22,16
   23390:	1000d626 	beq	r2,zero,236ec <_malloc_r+0x728>
   23394:	80c00117 	ldw	r3,4(r16)
   23398:	013ffe04 	movi	r4,-8
   2339c:	b0bffd04 	addi	r2,r22,-12
   233a0:	1104703a 	and	r2,r2,r4
   233a4:	18c0004c 	andi	r3,r3,1
   233a8:	1886b03a 	or	r3,r3,r2
   233ac:	80c00115 	stw	r3,4(r16)
   233b0:	01000144 	movi	r4,5
   233b4:	8087883a 	add	r3,r16,r2
   233b8:	19000115 	stw	r4,4(r3)
   233bc:	19000215 	stw	r4,8(r3)
   233c0:	10800428 	cmpgeui	r2,r2,16
   233c4:	1000df1e 	bne	r2,zero,23744 <_malloc_r+0x780>
   233c8:	bd400117 	ldw	r21,4(r23)
   233cc:	b821883a 	mov	r16,r23
   233d0:	00800134 	movhi	r2,4
   233d4:	10a22917 	ldw	r2,-30556(r2)
   233d8:	1500022e 	bgeu	r2,r20,233e4 <_malloc_r+0x420>
   233dc:	00800134 	movhi	r2,4
   233e0:	15222915 	stw	r20,-30556(r2)
   233e4:	00800134 	movhi	r2,4
   233e8:	10a22817 	ldw	r2,-30560(r2)
   233ec:	15006a2e 	bgeu	r2,r20,23598 <_malloc_r+0x5d4>
   233f0:	00800134 	movhi	r2,4
   233f4:	15222815 	stw	r20,-30560(r2)
   233f8:	00006706 	br	23598 <_malloc_r+0x5d4>
   233fc:	88c00054 	ori	r3,r17,1
   23400:	80c00115 	stw	r3,4(r16)
   23404:	8463883a 	add	r17,r16,r17
   23408:	10800054 	ori	r2,r2,1
   2340c:	9c400215 	stw	r17,8(r19)
   23410:	88800115 	stw	r2,4(r17)
   23414:	9009883a 	mov	r4,r18
   23418:	0031fe00 	call	31fe0 <__malloc_unlock>
   2341c:	80800204 	addi	r2,r16,8
   23420:	003f7e06 	br	2321c <_malloc_r+0x258>
   23424:	81000317 	ldw	r4,12(r16)
   23428:	003f0506 	br	23040 <_malloc_r+0x7c>
   2342c:	1006d27a 	srli	r3,r2,9
   23430:	19000168 	cmpgeui	r4,r3,5
   23434:	20005026 	beq	r4,zero,23578 <_malloc_r+0x5b4>
   23438:	19000568 	cmpgeui	r4,r3,21
   2343c:	20008c1e 	bne	r4,zero,23670 <_malloc_r+0x6ac>
   23440:	19401704 	addi	r5,r3,92
   23444:	280a90fa 	slli	r5,r5,3
   23448:	190016c4 	addi	r4,r3,91
   2344c:	994b883a 	add	r5,r19,r5
   23450:	28c00017 	ldw	r3,0(r5)
   23454:	297ffe04 	addi	r5,r5,-8
   23458:	28c07426 	beq	r5,r3,2362c <_malloc_r+0x668>
   2345c:	01bfff04 	movi	r6,-4
   23460:	19000117 	ldw	r4,4(r3)
   23464:	2188703a 	and	r4,r4,r6
   23468:	1100022e 	bgeu	r2,r4,23474 <_malloc_r+0x4b0>
   2346c:	18c00217 	ldw	r3,8(r3)
   23470:	28fffb1e 	bne	r5,r3,23460 <_malloc_r+0x49c>
   23474:	19400317 	ldw	r5,12(r3)
   23478:	98800117 	ldw	r2,4(r19)
   2347c:	81400315 	stw	r5,12(r16)
   23480:	80c00215 	stw	r3,8(r16)
   23484:	2c000215 	stw	r16,8(r5)
   23488:	1c000315 	stw	r16,12(r3)
   2348c:	003f3606 	br	23168 <_malloc_r+0x1a4>
   23490:	10c00568 	cmpgeui	r3,r2,21
   23494:	18004a26 	beq	r3,zero,235c0 <_malloc_r+0x5fc>
   23498:	10c01568 	cmpgeui	r3,r2,85
   2349c:	18007b1e 	bne	r3,zero,2368c <_malloc_r+0x6c8>
   234a0:	8804d33a 	srli	r2,r17,12
   234a4:	11c01bc4 	addi	r7,r2,111
   234a8:	380890fa 	slli	r4,r7,3
   234ac:	12001b84 	addi	r8,r2,110
   234b0:	003efd06 	br	230a8 <_malloc_r+0xe4>
   234b4:	63000044 	addi	r12,r12,1
   234b8:	608000cc 	andi	r2,r12,3
   234bc:	42000204 	addi	r8,r8,8
   234c0:	103f3e1e 	bne	r2,zero,231bc <_malloc_r+0x1f8>
   234c4:	00004506 	br	235dc <_malloc_r+0x618>
   234c8:	81000217 	ldw	r4,8(r16)
   234cc:	89800054 	ori	r6,r17,1
   234d0:	81800115 	stw	r6,4(r16)
   234d4:	20800315 	stw	r2,12(r4)
   234d8:	11000215 	stw	r4,8(r2)
   234dc:	8463883a 	add	r17,r16,r17
   234e0:	9c400515 	stw	r17,20(r19)
   234e4:	9c400415 	stw	r17,16(r19)
   234e8:	28800054 	ori	r2,r5,1
   234ec:	88800115 	stw	r2,4(r17)
   234f0:	8a400315 	stw	r9,12(r17)
   234f4:	8a400215 	stw	r9,8(r17)
   234f8:	80c7883a 	add	r3,r16,r3
   234fc:	19400015 	stw	r5,0(r3)
   23500:	9009883a 	mov	r4,r18
   23504:	0031fe00 	call	31fe0 <__malloc_unlock>
   23508:	80800204 	addi	r2,r16,8
   2350c:	003f4306 	br	2321c <_malloc_r+0x258>
   23510:	880ed0fa 	srli	r7,r17,3
   23514:	88800204 	addi	r2,r17,8
   23518:	003ebf06 	br	23018 <_malloc_r+0x54>
   2351c:	8085883a 	add	r2,r16,r2
   23520:	10c00117 	ldw	r3,4(r2)
   23524:	9009883a 	mov	r4,r18
   23528:	18c00054 	ori	r3,r3,1
   2352c:	10c00115 	stw	r3,4(r2)
   23530:	0031fe00 	call	31fe0 <__malloc_unlock>
   23534:	80800204 	addi	r2,r16,8
   23538:	003f3806 	br	2321c <_malloc_r+0x258>
   2353c:	89000054 	ori	r4,r17,1
   23540:	81000115 	stw	r4,4(r16)
   23544:	8463883a 	add	r17,r16,r17
   23548:	9c400515 	stw	r17,20(r19)
   2354c:	9c400415 	stw	r17,16(r19)
   23550:	19000054 	ori	r4,r3,1
   23554:	89000115 	stw	r4,4(r17)
   23558:	8085883a 	add	r2,r16,r2
   2355c:	8a400315 	stw	r9,12(r17)
   23560:	8a400215 	stw	r9,8(r17)
   23564:	10c00015 	stw	r3,0(r2)
   23568:	9009883a 	mov	r4,r18
   2356c:	0031fe00 	call	31fe0 <__malloc_unlock>
   23570:	80800204 	addi	r2,r16,8
   23574:	003f2906 	br	2321c <_malloc_r+0x258>
   23578:	1006d1ba 	srli	r3,r2,6
   2357c:	19400e44 	addi	r5,r3,57
   23580:	280a90fa 	slli	r5,r5,3
   23584:	19000e04 	addi	r4,r3,56
   23588:	003fb006 	br	2344c <_malloc_r+0x488>
   2358c:	84c04626 	beq	r16,r19,236a8 <_malloc_r+0x6e4>
   23590:	9c000217 	ldw	r16,8(r19)
   23594:	85400117 	ldw	r21,4(r16)
   23598:	00bfff04 	movi	r2,-4
   2359c:	a8aa703a 	and	r21,r21,r2
   235a0:	ac45c83a 	sub	r2,r21,r17
   235a4:	ac400236 	bltu	r21,r17,235b0 <_malloc_r+0x5ec>
   235a8:	10c00408 	cmpgei	r3,r2,16
   235ac:	183f931e 	bne	r3,zero,233fc <_malloc_r+0x438>
   235b0:	9009883a 	mov	r4,r18
   235b4:	0031fe00 	call	31fe0 <__malloc_unlock>
   235b8:	0005883a 	mov	r2,zero
   235bc:	003f1706 	br	2321c <_malloc_r+0x258>
   235c0:	11c01704 	addi	r7,r2,92
   235c4:	380890fa 	slli	r4,r7,3
   235c8:	120016c4 	addi	r8,r2,91
   235cc:	003eb606 	br	230a8 <_malloc_r+0xe4>
   235d0:	58800217 	ldw	r2,8(r11)
   235d4:	39ffffc4 	addi	r7,r7,-1
   235d8:	12c0701e 	bne	r2,r11,2379c <_malloc_r+0x7d8>
   235dc:	388000cc 	andi	r2,r7,3
   235e0:	5afffe04 	addi	r11,r11,-8
   235e4:	103ffa1e 	bne	r2,zero,235d0 <_malloc_r+0x60c>
   235e8:	98c00117 	ldw	r3,4(r19)
   235ec:	0104303a 	nor	r2,zero,r4
   235f0:	10c4703a 	and	r2,r2,r3
   235f4:	98800115 	stw	r2,4(r19)
   235f8:	2109883a 	add	r4,r4,r4
   235fc:	113f2336 	bltu	r2,r4,2328c <_malloc_r+0x2c8>
   23600:	203f2226 	beq	r4,zero,2328c <_malloc_r+0x2c8>
   23604:	2086703a 	and	r3,r4,r2
   23608:	1800041e 	bne	r3,zero,2361c <_malloc_r+0x658>
   2360c:	2109883a 	add	r4,r4,r4
   23610:	2086703a 	and	r3,r4,r2
   23614:	63000104 	addi	r12,r12,4
   23618:	183ffc26 	beq	r3,zero,2360c <_malloc_r+0x648>
   2361c:	600f883a 	mov	r7,r12
   23620:	003ee206 	br	231ac <_malloc_r+0x1e8>
   23624:	ad400404 	addi	r21,r21,16
   23628:	003f2b06 	br	232d8 <_malloc_r+0x314>
   2362c:	2009d0ba 	srai	r4,r4,2
   23630:	00800044 	movi	r2,1
   23634:	99800117 	ldw	r6,4(r19)
   23638:	1104983a 	sll	r2,r2,r4
   2363c:	1184b03a 	or	r2,r2,r6
   23640:	98800115 	stw	r2,4(r19)
   23644:	003f8d06 	br	2347c <_malloc_r+0x4b8>
   23648:	bd69883a 	add	r20,r23,r21
   2364c:	0529c83a 	sub	r20,zero,r20
   23650:	a503ffcc 	andi	r20,r20,4095
   23654:	a00b883a 	mov	r5,r20
   23658:	9009883a 	mov	r4,r18
   2365c:	0023da80 	call	23da8 <_sbrk_r>
   23660:	10ffffe0 	cmpeqi	r3,r2,-1
   23664:	183f3f26 	beq	r3,zero,23364 <_malloc_r+0x3a0>
   23668:	0029883a 	mov	r20,zero
   2366c:	003f3f06 	br	2336c <_malloc_r+0x3a8>
   23670:	19001568 	cmpgeui	r4,r3,85
   23674:	2000201e 	bne	r4,zero,236f8 <_malloc_r+0x734>
   23678:	1006d33a 	srli	r3,r2,12
   2367c:	19401bc4 	addi	r5,r3,111
   23680:	280a90fa 	slli	r5,r5,3
   23684:	19001b84 	addi	r4,r3,110
   23688:	003f7006 	br	2344c <_malloc_r+0x488>
   2368c:	10c05568 	cmpgeui	r3,r2,341
   23690:	1800201e 	bne	r3,zero,23714 <_malloc_r+0x750>
   23694:	8804d3fa 	srli	r2,r17,15
   23698:	11c01e04 	addi	r7,r2,120
   2369c:	380890fa 	slli	r4,r7,3
   236a0:	12001dc4 	addi	r8,r2,119
   236a4:	003e8006 	br	230a8 <_malloc_r+0xe4>
   236a8:	00800134 	movhi	r2,4
   236ac:	10e23517 	ldw	r3,-30508(r2)
   236b0:	a8c7883a 	add	r3,r21,r3
   236b4:	10e23515 	stw	r3,-30508(r2)
   236b8:	003f1406 	br	2330c <_malloc_r+0x348>
   236bc:	e083ffcc 	andi	r2,fp,4095
   236c0:	103f121e 	bne	r2,zero,2330c <_malloc_r+0x348>
   236c4:	9c000217 	ldw	r16,8(r19)
   236c8:	b56b883a 	add	r21,r22,r21
   236cc:	ad400054 	ori	r21,r21,1
   236d0:	85400115 	stw	r21,4(r16)
   236d4:	003f3e06 	br	233d0 <_malloc_r+0x40c>
   236d8:	008000f4 	movhi	r2,3
   236dc:	15db1515 	stw	r23,27732(r2)
   236e0:	003f1206 	br	2332c <_malloc_r+0x368>
   236e4:	b821883a 	mov	r16,r23
   236e8:	003f3906 	br	233d0 <_malloc_r+0x40c>
   236ec:	00800044 	movi	r2,1
   236f0:	b8800115 	stw	r2,4(r23)
   236f4:	003fae06 	br	235b0 <_malloc_r+0x5ec>
   236f8:	19005568 	cmpgeui	r4,r3,341
   236fc:	2000191e 	bne	r4,zero,23764 <_malloc_r+0x7a0>
   23700:	1006d3fa 	srli	r3,r2,15
   23704:	19401e04 	addi	r5,r3,120
   23708:	280a90fa 	slli	r5,r5,3
   2370c:	19001dc4 	addi	r4,r3,119
   23710:	003f4e06 	br	2344c <_malloc_r+0x488>
   23714:	10815568 	cmpgeui	r2,r2,1365
   23718:	1000191e 	bne	r2,zero,23780 <_malloc_r+0x7bc>
   2371c:	8804d4ba 	srli	r2,r17,18
   23720:	11c01f44 	addi	r7,r2,125
   23724:	380890fa 	slli	r4,r7,3
   23728:	12001f04 	addi	r8,r2,124
   2372c:	003e5e06 	br	230a8 <_malloc_r+0xe4>
   23730:	e73ffe04 	addi	fp,fp,-8
   23734:	af2b883a 	add	r21,r21,fp
   23738:	adebc83a 	sub	r21,r21,r23
   2373c:	0029883a 	mov	r20,zero
   23740:	003f0a06 	br	2336c <_malloc_r+0x3a8>
   23744:	81400204 	addi	r5,r16,8
   23748:	9009883a 	mov	r4,r18
   2374c:	0029dd80 	call	29dd8 <_free_r>
   23750:	9c000217 	ldw	r16,8(r19)
   23754:	00800134 	movhi	r2,4
   23758:	15223517 	ldw	r20,-30508(r2)
   2375c:	85400117 	ldw	r21,4(r16)
   23760:	003f1b06 	br	233d0 <_malloc_r+0x40c>
   23764:	18c15568 	cmpgeui	r3,r3,1365
   23768:	1800091e 	bne	r3,zero,23790 <_malloc_r+0x7cc>
   2376c:	1006d4ba 	srli	r3,r2,18
   23770:	19401f44 	addi	r5,r3,125
   23774:	280a90fa 	slli	r5,r5,3
   23778:	19001f04 	addi	r4,r3,124
   2377c:	003f3306 	br	2344c <_malloc_r+0x488>
   23780:	0100fe04 	movi	r4,1016
   23784:	01c01fc4 	movi	r7,127
   23788:	02001f84 	movi	r8,126
   2378c:	003e4606 	br	230a8 <_malloc_r+0xe4>
   23790:	0140fe04 	movi	r5,1016
   23794:	01001f84 	movi	r4,126
   23798:	003f2c06 	br	2344c <_malloc_r+0x488>
   2379c:	98800117 	ldw	r2,4(r19)
   237a0:	003f9506 	br	235f8 <_malloc_r+0x634>

000237a4 <memcpy>:
   237a4:	30c00430 	cmpltui	r3,r6,16
   237a8:	2005883a 	mov	r2,r4
   237ac:	18002d1e 	bne	r3,zero,23864 <memcpy+0xc0>
   237b0:	2906b03a 	or	r3,r5,r4
   237b4:	18c000cc 	andi	r3,r3,3
   237b8:	1800351e 	bne	r3,zero,23890 <memcpy+0xec>
   237bc:	32fffc04 	addi	r11,r6,-16
   237c0:	5816d13a 	srli	r11,r11,4
   237c4:	280f883a 	mov	r7,r5
   237c8:	2007883a 	mov	r3,r4
   237cc:	5ac00044 	addi	r11,r11,1
   237d0:	5816913a 	slli	r11,r11,4
   237d4:	22d5883a 	add	r10,r4,r11
   237d8:	39000117 	ldw	r4,4(r7)
   237dc:	3a400017 	ldw	r9,0(r7)
   237e0:	3a000217 	ldw	r8,8(r7)
   237e4:	19000115 	stw	r4,4(r3)
   237e8:	39000317 	ldw	r4,12(r7)
   237ec:	1a400015 	stw	r9,0(r3)
   237f0:	1a000215 	stw	r8,8(r3)
   237f4:	19000315 	stw	r4,12(r3)
   237f8:	18c00404 	addi	r3,r3,16
   237fc:	39c00404 	addi	r7,r7,16
   23800:	50fff51e 	bne	r10,r3,237d8 <memcpy+0x34>
   23804:	3100030c 	andi	r4,r6,12
   23808:	2acb883a 	add	r5,r5,r11
   2380c:	320003cc 	andi	r8,r6,15
   23810:	20002226 	beq	r4,zero,2389c <memcpy+0xf8>
   23814:	280f883a 	mov	r7,r5
   23818:	1813883a 	mov	r9,r3
   2381c:	39c00104 	addi	r7,r7,4
   23820:	3abfff17 	ldw	r10,-4(r7)
   23824:	41c9c83a 	sub	r4,r8,r7
   23828:	2909883a 	add	r4,r5,r4
   2382c:	4a800015 	stw	r10,0(r9)
   23830:	21000128 	cmpgeui	r4,r4,4
   23834:	4a400104 	addi	r9,r9,4
   23838:	203ff81e 	bne	r4,zero,2381c <memcpy+0x78>
   2383c:	413fff04 	addi	r4,r8,-4
   23840:	2008d0ba 	srli	r4,r4,2
   23844:	318000cc 	andi	r6,r6,3
   23848:	31ffffc4 	addi	r7,r6,-1
   2384c:	21000044 	addi	r4,r4,1
   23850:	200890ba 	slli	r4,r4,2
   23854:	1907883a 	add	r3,r3,r4
   23858:	290b883a 	add	r5,r5,r4
   2385c:	3000041e 	bne	r6,zero,23870 <memcpy+0xcc>
   23860:	f800283a 	ret
   23864:	2007883a 	mov	r3,r4
   23868:	31ffffc4 	addi	r7,r6,-1
   2386c:	303ffc26 	beq	r6,zero,23860 <memcpy+0xbc>
   23870:	39c00044 	addi	r7,r7,1
   23874:	19cf883a 	add	r7,r3,r7
   23878:	29800003 	ldbu	r6,0(r5)
   2387c:	18c00044 	addi	r3,r3,1
   23880:	29400044 	addi	r5,r5,1
   23884:	19bfffc5 	stb	r6,-1(r3)
   23888:	38fffb1e 	bne	r7,r3,23878 <memcpy+0xd4>
   2388c:	f800283a 	ret
   23890:	31ffffc4 	addi	r7,r6,-1
   23894:	2007883a 	mov	r3,r4
   23898:	003ff506 	br	23870 <memcpy+0xcc>
   2389c:	400d883a 	mov	r6,r8
   238a0:	003ff106 	br	23868 <memcpy+0xc4>

000238a4 <memset>:
   238a4:	20c000cc 	andi	r3,r4,3
   238a8:	2005883a 	mov	r2,r4
   238ac:	18003626 	beq	r3,zero,23988 <memset+0xe4>
   238b0:	31ffffc4 	addi	r7,r6,-1
   238b4:	30003326 	beq	r6,zero,23984 <memset+0xe0>
   238b8:	2811883a 	mov	r8,r5
   238bc:	2007883a 	mov	r3,r4
   238c0:	00000306 	br	238d0 <memset+0x2c>
   238c4:	39ffffc4 	addi	r7,r7,-1
   238c8:	39bfffe0 	cmpeqi	r6,r7,-1
   238cc:	30002d1e 	bne	r6,zero,23984 <memset+0xe0>
   238d0:	18c00044 	addi	r3,r3,1
   238d4:	198000cc 	andi	r6,r3,3
   238d8:	1a3fffc5 	stb	r8,-1(r3)
   238dc:	303ff91e 	bne	r6,zero,238c4 <memset+0x20>
   238e0:	39000130 	cmpltui	r4,r7,4
   238e4:	2000221e 	bne	r4,zero,23970 <memset+0xcc>
   238e8:	29003fcc 	andi	r4,r5,255
   238ec:	200c923a 	slli	r6,r4,8
   238f0:	3a000430 	cmpltui	r8,r7,16
   238f4:	3108b03a 	or	r4,r6,r4
   238f8:	200c943a 	slli	r6,r4,16
   238fc:	310cb03a 	or	r6,r6,r4
   23900:	40000e1e 	bne	r8,zero,2393c <memset+0x98>
   23904:	393ffc04 	addi	r4,r7,-16
   23908:	2008d13a 	srli	r4,r4,4
   2390c:	21000044 	addi	r4,r4,1
   23910:	2008913a 	slli	r4,r4,4
   23914:	1909883a 	add	r4,r3,r4
   23918:	19800015 	stw	r6,0(r3)
   2391c:	19800115 	stw	r6,4(r3)
   23920:	19800215 	stw	r6,8(r3)
   23924:	19800315 	stw	r6,12(r3)
   23928:	18c00404 	addi	r3,r3,16
   2392c:	20fffa1e 	bne	r4,r3,23918 <memset+0x74>
   23930:	3900030c 	andi	r4,r7,12
   23934:	39c003cc 	andi	r7,r7,15
   23938:	20000d26 	beq	r4,zero,23970 <memset+0xcc>
   2393c:	1811883a 	mov	r8,r3
   23940:	42000104 	addi	r8,r8,4
   23944:	3a09c83a 	sub	r4,r7,r8
   23948:	1909883a 	add	r4,r3,r4
   2394c:	21000128 	cmpgeui	r4,r4,4
   23950:	41bfff15 	stw	r6,-4(r8)
   23954:	203ffa1e 	bne	r4,zero,23940 <memset+0x9c>
   23958:	393fff04 	addi	r4,r7,-4
   2395c:	2008d0ba 	srli	r4,r4,2
   23960:	39c000cc 	andi	r7,r7,3
   23964:	21000044 	addi	r4,r4,1
   23968:	200890ba 	slli	r4,r4,2
   2396c:	1907883a 	add	r3,r3,r4
   23970:	38000426 	beq	r7,zero,23984 <memset+0xe0>
   23974:	19cf883a 	add	r7,r3,r7
   23978:	18c00044 	addi	r3,r3,1
   2397c:	197fffc5 	stb	r5,-1(r3)
   23980:	38fffd1e 	bne	r7,r3,23978 <memset+0xd4>
   23984:	f800283a 	ret
   23988:	2007883a 	mov	r3,r4
   2398c:	300f883a 	mov	r7,r6
   23990:	003fd306 	br	238e0 <memset+0x3c>

00023994 <_open_r>:
   23994:	2807883a 	mov	r3,r5
   23998:	defffe04 	addi	sp,sp,-8
   2399c:	dc000015 	stw	r16,0(sp)
   239a0:	300b883a 	mov	r5,r6
   239a4:	00800134 	movhi	r2,4
   239a8:	380d883a 	mov	r6,r7
   239ac:	2021883a 	mov	r16,r4
   239b0:	1809883a 	mov	r4,r3
   239b4:	dfc00115 	stw	ra,4(sp)
   239b8:	10222715 	stw	zero,-30564(r2)
   239bc:	00320f80 	call	320f8 <open>
   239c0:	10ffffd8 	cmpnei	r3,r2,-1
   239c4:	18000426 	beq	r3,zero,239d8 <_open_r+0x44>
   239c8:	dfc00117 	ldw	ra,4(sp)
   239cc:	dc000017 	ldw	r16,0(sp)
   239d0:	dec00204 	addi	sp,sp,8
   239d4:	f800283a 	ret
   239d8:	00c00134 	movhi	r3,4
   239dc:	18e22717 	ldw	r3,-30564(r3)
   239e0:	183ff926 	beq	r3,zero,239c8 <_open_r+0x34>
   239e4:	80c00015 	stw	r3,0(r16)
   239e8:	dfc00117 	ldw	ra,4(sp)
   239ec:	dc000017 	ldw	r16,0(sp)
   239f0:	dec00204 	addi	sp,sp,8
   239f4:	f800283a 	ret

000239f8 <_printf_r>:
   239f8:	defffd04 	addi	sp,sp,-12
   239fc:	2805883a 	mov	r2,r5
   23a00:	dfc00015 	stw	ra,0(sp)
   23a04:	d9800115 	stw	r6,4(sp)
   23a08:	d9c00215 	stw	r7,8(sp)
   23a0c:	21400217 	ldw	r5,8(r4)
   23a10:	d9c00104 	addi	r7,sp,4
   23a14:	100d883a 	mov	r6,r2
   23a18:	00258f40 	call	258f4 <___vfprintf_internal_r>
   23a1c:	dfc00017 	ldw	ra,0(sp)
   23a20:	dec00304 	addi	sp,sp,12
   23a24:	f800283a 	ret

00023a28 <printf>:
   23a28:	defffc04 	addi	sp,sp,-16
   23a2c:	dfc00015 	stw	ra,0(sp)
   23a30:	d9400115 	stw	r5,4(sp)
   23a34:	d9800215 	stw	r6,8(sp)
   23a38:	d9c00315 	stw	r7,12(sp)
   23a3c:	008000f4 	movhi	r2,3
   23a40:	109b1417 	ldw	r2,27728(r2)
   23a44:	200b883a 	mov	r5,r4
   23a48:	d9800104 	addi	r6,sp,4
   23a4c:	11000217 	ldw	r4,8(r2)
   23a50:	00279d00 	call	279d0 <__vfprintf_internal>
   23a54:	dfc00017 	ldw	ra,0(sp)
   23a58:	dec00404 	addi	sp,sp,16
   23a5c:	f800283a 	ret

00023a60 <_puts_r>:
   23a60:	defff504 	addi	sp,sp,-44
   23a64:	dc000815 	stw	r16,32(sp)
   23a68:	2021883a 	mov	r16,r4
   23a6c:	2809883a 	mov	r4,r5
   23a70:	dc400915 	stw	r17,36(sp)
   23a74:	dfc00a15 	stw	ra,40(sp)
   23a78:	2823883a 	mov	r17,r5
   23a7c:	0023f400 	call	23f40 <strlen>
   23a80:	11000044 	addi	r4,r2,1
   23a84:	d8800515 	stw	r2,20(sp)
   23a88:	00800044 	movi	r2,1
   23a8c:	00c000f4 	movhi	r3,3
   23a90:	d8800715 	stw	r2,28(sp)
   23a94:	d8800404 	addi	r2,sp,16
   23a98:	18d25c04 	addi	r3,r3,18800
   23a9c:	d8800115 	stw	r2,4(sp)
   23aa0:	00800084 	movi	r2,2
   23aa4:	dc400415 	stw	r17,16(sp)
   23aa8:	d8c00615 	stw	r3,24(sp)
   23aac:	d9000315 	stw	r4,12(sp)
   23ab0:	d8800215 	stw	r2,8(sp)
   23ab4:	81400217 	ldw	r5,8(r16)
   23ab8:	80000226 	beq	r16,zero,23ac4 <_puts_r+0x64>
   23abc:	80800e17 	ldw	r2,56(r16)
   23ac0:	10001326 	beq	r2,zero,23b10 <_puts_r+0xb0>
   23ac4:	2880030b 	ldhu	r2,12(r5)
   23ac8:	10c8000c 	andi	r3,r2,8192
   23acc:	1800061e 	bne	r3,zero,23ae8 <_puts_r+0x88>
   23ad0:	28c01917 	ldw	r3,100(r5)
   23ad4:	0137ffc4 	movi	r4,-8193
   23ad8:	10880014 	ori	r2,r2,8192
   23adc:	1906703a 	and	r3,r3,r4
   23ae0:	2880030d 	sth	r2,12(r5)
   23ae4:	28c01915 	stw	r3,100(r5)
   23ae8:	d9800104 	addi	r6,sp,4
   23aec:	8009883a 	mov	r4,r16
   23af0:	002a0d40 	call	2a0d4 <__sfvwrite_r>
   23af4:	10000b1e 	bne	r2,zero,23b24 <_puts_r+0xc4>
   23af8:	00800284 	movi	r2,10
   23afc:	dfc00a17 	ldw	ra,40(sp)
   23b00:	dc400917 	ldw	r17,36(sp)
   23b04:	dc000817 	ldw	r16,32(sp)
   23b08:	dec00b04 	addi	sp,sp,44
   23b0c:	f800283a 	ret
   23b10:	8009883a 	mov	r4,r16
   23b14:	d9400015 	stw	r5,0(sp)
   23b18:	0029bbc0 	call	29bbc <__sinit>
   23b1c:	d9400017 	ldw	r5,0(sp)
   23b20:	003fe806 	br	23ac4 <_puts_r+0x64>
   23b24:	00bfffc4 	movi	r2,-1
   23b28:	003ff406 	br	23afc <_puts_r+0x9c>

00023b2c <puts>:
   23b2c:	008000f4 	movhi	r2,3
   23b30:	200b883a 	mov	r5,r4
   23b34:	111b1417 	ldw	r4,27728(r2)
   23b38:	0023a601 	jmpi	23a60 <_puts_r>

00023b3c <lflush>:
   23b3c:	2080030b 	ldhu	r2,12(r4)
   23b40:	1080024c 	andi	r2,r2,9
   23b44:	10800258 	cmpnei	r2,r2,9
   23b48:	10000226 	beq	r2,zero,23b54 <lflush+0x18>
   23b4c:	0005883a 	mov	r2,zero
   23b50:	f800283a 	ret
   23b54:	00298981 	jmpi	29898 <fflush>

00023b58 <__srefill_r>:
   23b58:	defffc04 	addi	sp,sp,-16
   23b5c:	dc400115 	stw	r17,4(sp)
   23b60:	dc000015 	stw	r16,0(sp)
   23b64:	dfc00315 	stw	ra,12(sp)
   23b68:	dc800215 	stw	r18,8(sp)
   23b6c:	2023883a 	mov	r17,r4
   23b70:	2821883a 	mov	r16,r5
   23b74:	20000226 	beq	r4,zero,23b80 <__srefill_r+0x28>
   23b78:	20800e17 	ldw	r2,56(r4)
   23b7c:	10003a26 	beq	r2,zero,23c68 <__srefill_r+0x110>
   23b80:	80c0030b 	ldhu	r3,12(r16)
   23b84:	1908000c 	andi	r4,r3,8192
   23b88:	1805883a 	mov	r2,r3
   23b8c:	2000071e 	bne	r4,zero,23bac <__srefill_r+0x54>
   23b90:	81001917 	ldw	r4,100(r16)
   23b94:	18880014 	ori	r2,r3,8192
   23b98:	00f7ffc4 	movi	r3,-8193
   23b9c:	20c8703a 	and	r4,r4,r3
   23ba0:	8080030d 	sth	r2,12(r16)
   23ba4:	1007883a 	mov	r3,r2
   23ba8:	81001915 	stw	r4,100(r16)
   23bac:	80000115 	stw	zero,4(r16)
   23bb0:	1100080c 	andi	r4,r2,32
   23bb4:	20004d1e 	bne	r4,zero,23cec <__srefill_r+0x194>
   23bb8:	1100010c 	andi	r4,r2,4
   23bbc:	20001c1e 	bne	r4,zero,23c30 <__srefill_r+0xd8>
   23bc0:	1100040c 	andi	r4,r2,16
   23bc4:	20005126 	beq	r4,zero,23d0c <__srefill_r+0x1b4>
   23bc8:	1080020c 	andi	r2,r2,8
   23bcc:	1000371e 	bne	r2,zero,23cac <__srefill_r+0x154>
   23bd0:	18c00114 	ori	r3,r3,4
   23bd4:	80c0030d 	sth	r3,12(r16)
   23bd8:	80800417 	ldw	r2,16(r16)
   23bdc:	10003c26 	beq	r2,zero,23cd0 <__srefill_r+0x178>
   23be0:	8480030b 	ldhu	r18,12(r16)
   23be4:	908000cc 	andi	r2,r18,3
   23be8:	1000211e 	bne	r2,zero,23c70 <__srefill_r+0x118>
   23bec:	81800417 	ldw	r6,16(r16)
   23bf0:	80800817 	ldw	r2,32(r16)
   23bf4:	81c00517 	ldw	r7,20(r16)
   23bf8:	81400717 	ldw	r5,28(r16)
   23bfc:	81800015 	stw	r6,0(r16)
   23c00:	8809883a 	mov	r4,r17
   23c04:	103ee83a 	callr	r2
   23c08:	1007883a 	mov	r3,r2
   23c0c:	80800115 	stw	r2,4(r16)
   23c10:	0005883a 	mov	r2,zero
   23c14:	00c0370e 	bge	zero,r3,23cf4 <__srefill_r+0x19c>
   23c18:	dfc00317 	ldw	ra,12(sp)
   23c1c:	dc800217 	ldw	r18,8(sp)
   23c20:	dc400117 	ldw	r17,4(sp)
   23c24:	dc000017 	ldw	r16,0(sp)
   23c28:	dec00404 	addi	sp,sp,16
   23c2c:	f800283a 	ret
   23c30:	81400c17 	ldw	r5,48(r16)
   23c34:	283fe826 	beq	r5,zero,23bd8 <__srefill_r+0x80>
   23c38:	80801004 	addi	r2,r16,64
   23c3c:	28800226 	beq	r5,r2,23c48 <__srefill_r+0xf0>
   23c40:	8809883a 	mov	r4,r17
   23c44:	0029dd80 	call	29dd8 <_free_r>
   23c48:	80800f17 	ldw	r2,60(r16)
   23c4c:	80000c15 	stw	zero,48(r16)
   23c50:	80800115 	stw	r2,4(r16)
   23c54:	103fe026 	beq	r2,zero,23bd8 <__srefill_r+0x80>
   23c58:	80c00e17 	ldw	r3,56(r16)
   23c5c:	0005883a 	mov	r2,zero
   23c60:	80c00015 	stw	r3,0(r16)
   23c64:	003fec06 	br	23c18 <__srefill_r+0xc0>
   23c68:	0029bbc0 	call	29bbc <__sinit>
   23c6c:	003fc406 	br	23b80 <__srefill_r+0x28>
   23c70:	008000f4 	movhi	r2,3
   23c74:	111b1317 	ldw	r4,27724(r2)
   23c78:	014000b4 	movhi	r5,2
   23c7c:	00800044 	movi	r2,1
   23c80:	8080030d 	sth	r2,12(r16)
   23c84:	294ecf04 	addi	r5,r5,15164
   23c88:	002a5900 	call	2a590 <_fwalk>
   23c8c:	9080024c 	andi	r2,r18,9
   23c90:	8480030d 	sth	r18,12(r16)
   23c94:	10800258 	cmpnei	r2,r2,9
   23c98:	103fd41e 	bne	r2,zero,23bec <__srefill_r+0x94>
   23c9c:	800b883a 	mov	r5,r16
   23ca0:	8809883a 	mov	r4,r17
   23ca4:	00296100 	call	29610 <__sflush_r>
   23ca8:	003fd006 	br	23bec <__srefill_r+0x94>
   23cac:	800b883a 	mov	r5,r16
   23cb0:	8809883a 	mov	r4,r17
   23cb4:	00298380 	call	29838 <_fflush_r>
   23cb8:	10000c1e 	bne	r2,zero,23cec <__srefill_r+0x194>
   23cbc:	80c0030b 	ldhu	r3,12(r16)
   23cc0:	80000215 	stw	zero,8(r16)
   23cc4:	80000615 	stw	zero,24(r16)
   23cc8:	18fffdcc 	andi	r3,r3,65527
   23ccc:	003fc006 	br	23bd0 <__srefill_r+0x78>
   23cd0:	800b883a 	mov	r5,r16
   23cd4:	8809883a 	mov	r4,r17
   23cd8:	0022e640 	call	22e64 <__smakebuf_r>
   23cdc:	003fc006 	br	23be0 <__srefill_r+0x88>
   23ce0:	10801014 	ori	r2,r2,64
   23ce4:	80000115 	stw	zero,4(r16)
   23ce8:	8080030d 	sth	r2,12(r16)
   23cec:	00bfffc4 	movi	r2,-1
   23cf0:	003fc906 	br	23c18 <__srefill_r+0xc0>
   23cf4:	8080030b 	ldhu	r2,12(r16)
   23cf8:	183ff91e 	bne	r3,zero,23ce0 <__srefill_r+0x188>
   23cfc:	10800814 	ori	r2,r2,32
   23d00:	8080030d 	sth	r2,12(r16)
   23d04:	00bfffc4 	movi	r2,-1
   23d08:	003fc306 	br	23c18 <__srefill_r+0xc0>
   23d0c:	00800244 	movi	r2,9
   23d10:	88800015 	stw	r2,0(r17)
   23d14:	18c01014 	ori	r3,r3,64
   23d18:	80c0030d 	sth	r3,12(r16)
   23d1c:	00bfffc4 	movi	r2,-1
   23d20:	003fbd06 	br	23c18 <__srefill_r+0xc0>

00023d24 <__srget_r>:
   23d24:	defffd04 	addi	sp,sp,-12
   23d28:	dc400115 	stw	r17,4(sp)
   23d2c:	dc000015 	stw	r16,0(sp)
   23d30:	dfc00215 	stw	ra,8(sp)
   23d34:	2023883a 	mov	r17,r4
   23d38:	2821883a 	mov	r16,r5
   23d3c:	20000226 	beq	r4,zero,23d48 <__srget_r+0x24>
   23d40:	20800e17 	ldw	r2,56(r4)
   23d44:	10001026 	beq	r2,zero,23d88 <__srget_r+0x64>
   23d48:	800b883a 	mov	r5,r16
   23d4c:	8809883a 	mov	r4,r17
   23d50:	0023b580 	call	23b58 <__srefill_r>
   23d54:	10000e1e 	bne	r2,zero,23d90 <__srget_r+0x6c>
   23d58:	80c00017 	ldw	r3,0(r16)
   23d5c:	80800117 	ldw	r2,4(r16)
   23d60:	19000044 	addi	r4,r3,1
   23d64:	10bfffc4 	addi	r2,r2,-1
   23d68:	80800115 	stw	r2,4(r16)
   23d6c:	81000015 	stw	r4,0(r16)
   23d70:	18800003 	ldbu	r2,0(r3)
   23d74:	dfc00217 	ldw	ra,8(sp)
   23d78:	dc400117 	ldw	r17,4(sp)
   23d7c:	dc000017 	ldw	r16,0(sp)
   23d80:	dec00304 	addi	sp,sp,12
   23d84:	f800283a 	ret
   23d88:	0029bbc0 	call	29bbc <__sinit>
   23d8c:	003fee06 	br	23d48 <__srget_r+0x24>
   23d90:	00bfffc4 	movi	r2,-1
   23d94:	003ff706 	br	23d74 <__srget_r+0x50>

00023d98 <__srget>:
   23d98:	008000f4 	movhi	r2,3
   23d9c:	200b883a 	mov	r5,r4
   23da0:	111b1417 	ldw	r4,27728(r2)
   23da4:	0023d241 	jmpi	23d24 <__srget_r>

00023da8 <_sbrk_r>:
   23da8:	defffe04 	addi	sp,sp,-8
   23dac:	dc000015 	stw	r16,0(sp)
   23db0:	00800134 	movhi	r2,4
   23db4:	2021883a 	mov	r16,r4
   23db8:	2809883a 	mov	r4,r5
   23dbc:	dfc00115 	stw	ra,4(sp)
   23dc0:	10222715 	stw	zero,-30564(r2)
   23dc4:	00326380 	call	32638 <sbrk>
   23dc8:	10ffffd8 	cmpnei	r3,r2,-1
   23dcc:	18000426 	beq	r3,zero,23de0 <_sbrk_r+0x38>
   23dd0:	dfc00117 	ldw	ra,4(sp)
   23dd4:	dc000017 	ldw	r16,0(sp)
   23dd8:	dec00204 	addi	sp,sp,8
   23ddc:	f800283a 	ret
   23de0:	00c00134 	movhi	r3,4
   23de4:	18e22717 	ldw	r3,-30564(r3)
   23de8:	183ff926 	beq	r3,zero,23dd0 <_sbrk_r+0x28>
   23dec:	80c00015 	stw	r3,0(r16)
   23df0:	dfc00117 	ldw	ra,4(sp)
   23df4:	dc000017 	ldw	r16,0(sp)
   23df8:	dec00204 	addi	sp,sp,8
   23dfc:	f800283a 	ret

00023e00 <__sread>:
   23e00:	defffe04 	addi	sp,sp,-8
   23e04:	dc000015 	stw	r16,0(sp)
   23e08:	2821883a 	mov	r16,r5
   23e0c:	2940038f 	ldh	r5,14(r5)
   23e10:	dfc00115 	stw	ra,4(sp)
   23e14:	002c7080 	call	2c708 <_read_r>
   23e18:	10000716 	blt	r2,zero,23e38 <__sread+0x38>
   23e1c:	80c01417 	ldw	r3,80(r16)
   23e20:	1887883a 	add	r3,r3,r2
   23e24:	80c01415 	stw	r3,80(r16)
   23e28:	dfc00117 	ldw	ra,4(sp)
   23e2c:	dc000017 	ldw	r16,0(sp)
   23e30:	dec00204 	addi	sp,sp,8
   23e34:	f800283a 	ret
   23e38:	80c0030b 	ldhu	r3,12(r16)
   23e3c:	18fbffcc 	andi	r3,r3,61439
   23e40:	80c0030d 	sth	r3,12(r16)
   23e44:	dfc00117 	ldw	ra,4(sp)
   23e48:	dc000017 	ldw	r16,0(sp)
   23e4c:	dec00204 	addi	sp,sp,8
   23e50:	f800283a 	ret

00023e54 <__seofread>:
   23e54:	0005883a 	mov	r2,zero
   23e58:	f800283a 	ret

00023e5c <__swrite>:
   23e5c:	2880030b 	ldhu	r2,12(r5)
   23e60:	defffb04 	addi	sp,sp,-20
   23e64:	dcc00315 	stw	r19,12(sp)
   23e68:	dc800215 	stw	r18,8(sp)
   23e6c:	dc400115 	stw	r17,4(sp)
   23e70:	dc000015 	stw	r16,0(sp)
   23e74:	dfc00415 	stw	ra,16(sp)
   23e78:	10c0400c 	andi	r3,r2,256
   23e7c:	2821883a 	mov	r16,r5
   23e80:	2023883a 	mov	r17,r4
   23e84:	2940038f 	ldh	r5,14(r5)
   23e88:	3025883a 	mov	r18,r6
   23e8c:	3827883a 	mov	r19,r7
   23e90:	18000c1e 	bne	r3,zero,23ec4 <__swrite+0x68>
   23e94:	10bbffcc 	andi	r2,r2,61439
   23e98:	980f883a 	mov	r7,r19
   23e9c:	900d883a 	mov	r6,r18
   23ea0:	8809883a 	mov	r4,r17
   23ea4:	8080030d 	sth	r2,12(r16)
   23ea8:	dfc00417 	ldw	ra,16(sp)
   23eac:	dcc00317 	ldw	r19,12(sp)
   23eb0:	dc800217 	ldw	r18,8(sp)
   23eb4:	dc400117 	ldw	r17,4(sp)
   23eb8:	dc000017 	ldw	r16,0(sp)
   23ebc:	dec00504 	addi	sp,sp,20
   23ec0:	0027aac1 	jmpi	27aac <_write_r>
   23ec4:	01c00084 	movi	r7,2
   23ec8:	000d883a 	mov	r6,zero
   23ecc:	002b3b80 	call	2b3b8 <_lseek_r>
   23ed0:	8080030b 	ldhu	r2,12(r16)
   23ed4:	8140038f 	ldh	r5,14(r16)
   23ed8:	003fee06 	br	23e94 <__swrite+0x38>

00023edc <__sseek>:
   23edc:	defffe04 	addi	sp,sp,-8
   23ee0:	dc000015 	stw	r16,0(sp)
   23ee4:	2821883a 	mov	r16,r5
   23ee8:	2940038f 	ldh	r5,14(r5)
   23eec:	dfc00115 	stw	ra,4(sp)
   23ef0:	002b3b80 	call	2b3b8 <_lseek_r>
   23ef4:	10ffffd8 	cmpnei	r3,r2,-1
   23ef8:	18000826 	beq	r3,zero,23f1c <__sseek+0x40>
   23efc:	80c0030b 	ldhu	r3,12(r16)
   23f00:	80801415 	stw	r2,80(r16)
   23f04:	18c40014 	ori	r3,r3,4096
   23f08:	80c0030d 	sth	r3,12(r16)
   23f0c:	dfc00117 	ldw	ra,4(sp)
   23f10:	dc000017 	ldw	r16,0(sp)
   23f14:	dec00204 	addi	sp,sp,8
   23f18:	f800283a 	ret
   23f1c:	80c0030b 	ldhu	r3,12(r16)
   23f20:	18fbffcc 	andi	r3,r3,61439
   23f24:	80c0030d 	sth	r3,12(r16)
   23f28:	dfc00117 	ldw	ra,4(sp)
   23f2c:	dc000017 	ldw	r16,0(sp)
   23f30:	dec00204 	addi	sp,sp,8
   23f34:	f800283a 	ret

00023f38 <__sclose>:
   23f38:	2940038f 	ldh	r5,14(r5)
   23f3c:	0027c6c1 	jmpi	27c6c <_close_r>

00023f40 <strlen>:
   23f40:	208000cc 	andi	r2,r4,3
   23f44:	10000926 	beq	r2,zero,23f6c <strlen+0x2c>
   23f48:	2005883a 	mov	r2,r4
   23f4c:	00000306 	br	23f5c <strlen+0x1c>
   23f50:	10800044 	addi	r2,r2,1
   23f54:	10c000cc 	andi	r3,r2,3
   23f58:	18000526 	beq	r3,zero,23f70 <strlen+0x30>
   23f5c:	10c00007 	ldb	r3,0(r2)
   23f60:	183ffb1e 	bne	r3,zero,23f50 <strlen+0x10>
   23f64:	1105c83a 	sub	r2,r2,r4
   23f68:	f800283a 	ret
   23f6c:	2005883a 	mov	r2,r4
   23f70:	11400017 	ldw	r5,0(r2)
   23f74:	01ffbff4 	movhi	r7,65279
   23f78:	39ffbfc4 	addi	r7,r7,-257
   23f7c:	29c7883a 	add	r3,r5,r7
   23f80:	01a02074 	movhi	r6,32897
   23f84:	014a303a 	nor	r5,zero,r5
   23f88:	1946703a 	and	r3,r3,r5
   23f8c:	31a02004 	addi	r6,r6,-32640
   23f90:	1986703a 	and	r3,r3,r6
   23f94:	1800071e 	bne	r3,zero,23fb4 <strlen+0x74>
   23f98:	11400117 	ldw	r5,4(r2)
   23f9c:	10800104 	addi	r2,r2,4
   23fa0:	29c7883a 	add	r3,r5,r7
   23fa4:	014a303a 	nor	r5,zero,r5
   23fa8:	1946703a 	and	r3,r3,r5
   23fac:	1986703a 	and	r3,r3,r6
   23fb0:	183ff926 	beq	r3,zero,23f98 <strlen+0x58>
   23fb4:	10c00007 	ldb	r3,0(r2)
   23fb8:	183fea26 	beq	r3,zero,23f64 <strlen+0x24>
   23fbc:	10c00047 	ldb	r3,1(r2)
   23fc0:	10800044 	addi	r2,r2,1
   23fc4:	183fe726 	beq	r3,zero,23f64 <strlen+0x24>
   23fc8:	10c00047 	ldb	r3,1(r2)
   23fcc:	10800044 	addi	r2,r2,1
   23fd0:	183ffa1e 	bne	r3,zero,23fbc <strlen+0x7c>
   23fd4:	003fe306 	br	23f64 <strlen+0x24>

00023fd8 <strncat>:
   23fd8:	20c000cc 	andi	r3,r4,3
   23fdc:	2005883a 	mov	r2,r4
   23fe0:	1800261e 	bne	r3,zero,2407c <strncat+0xa4>
   23fe4:	20c00017 	ldw	r3,0(r4)
   23fe8:	02bfbff4 	movhi	r10,65279
   23fec:	52bfbfc4 	addi	r10,r10,-257
   23ff0:	00c8303a 	nor	r4,zero,r3
   23ff4:	02602074 	movhi	r9,32897
   23ff8:	1a87883a 	add	r3,r3,r10
   23ffc:	20c8703a 	and	r4,r4,r3
   24000:	4a602004 	addi	r9,r9,-32640
   24004:	2248703a 	and	r4,r4,r9
   24008:	1007883a 	mov	r3,r2
   2400c:	2000071e 	bne	r4,zero,2402c <strncat+0x54>
   24010:	1a000117 	ldw	r8,4(r3)
   24014:	18c00104 	addi	r3,r3,4
   24018:	428f883a 	add	r7,r8,r10
   2401c:	0210303a 	nor	r8,zero,r8
   24020:	3a0e703a 	and	r7,r7,r8
   24024:	3a4e703a 	and	r7,r7,r9
   24028:	383ff926 	beq	r7,zero,24010 <strncat+0x38>
   2402c:	19000007 	ldb	r4,0(r3)
   24030:	20000326 	beq	r4,zero,24040 <strncat+0x68>
   24034:	19c00047 	ldb	r7,1(r3)
   24038:	18c00044 	addi	r3,r3,1
   2403c:	383ffd1e 	bne	r7,zero,24034 <strncat+0x5c>
   24040:	2989883a 	add	r4,r5,r6
   24044:	18c00044 	addi	r3,r3,1
   24048:	31bfffc4 	addi	r6,r6,-1
   2404c:	29000a26 	beq	r5,r4,24078 <strncat+0xa0>
   24050:	29c00003 	ldbu	r7,0(r5)
   24054:	29400044 	addi	r5,r5,1
   24058:	19ffffc5 	stb	r7,-1(r3)
   2405c:	39c03fcc 	andi	r7,r7,255
   24060:	39c0201c 	xori	r7,r7,128
   24064:	39ffe004 	addi	r7,r7,-128
   24068:	38000326 	beq	r7,zero,24078 <strncat+0xa0>
   2406c:	303ff51e 	bne	r6,zero,24044 <strncat+0x6c>
   24070:	18000005 	stb	zero,0(r3)
   24074:	f800283a 	ret
   24078:	f800283a 	ret
   2407c:	2007883a 	mov	r3,r4
   24080:	003fea06 	br	2402c <strncat+0x54>

00024084 <sulp>:
   24084:	defffd04 	addi	sp,sp,-12
   24088:	dc400115 	stw	r17,4(sp)
   2408c:	3023883a 	mov	r17,r6
   24090:	dc000015 	stw	r16,0(sp)
   24094:	dfc00215 	stw	ra,8(sp)
   24098:	2821883a 	mov	r16,r5
   2409c:	002c2600 	call	2c260 <__ulp>
   240a0:	88000c26 	beq	r17,zero,240d4 <sulp+0x50>
   240a4:	8020d53a 	srli	r16,r16,20
   240a8:	01c01ac4 	movi	r7,107
   240ac:	8401ffcc 	andi	r16,r16,2047
   240b0:	3c21c83a 	sub	r16,r7,r16
   240b4:	0400070e 	bge	zero,r16,240d4 <sulp+0x50>
   240b8:	8020953a 	slli	r16,r16,20
   240bc:	01cffc34 	movhi	r7,16368
   240c0:	1009883a 	mov	r4,r2
   240c4:	180b883a 	mov	r5,r3
   240c8:	000d883a 	mov	r6,zero
   240cc:	81cf883a 	add	r7,r16,r7
   240d0:	00306780 	call	30678 <__muldf3>
   240d4:	dfc00217 	ldw	ra,8(sp)
   240d8:	dc400117 	ldw	r17,4(sp)
   240dc:	dc000017 	ldw	r16,0(sp)
   240e0:	dec00304 	addi	sp,sp,12
   240e4:	f800283a 	ret

000240e8 <_strtod_l>:
   240e8:	deffdf04 	addi	sp,sp,-132
   240ec:	008000f4 	movhi	r2,3
   240f0:	dd401c15 	stw	r21,112(sp)
   240f4:	1552f817 	ldw	r21,19424(r2)
   240f8:	dc001715 	stw	r16,92(sp)
   240fc:	2021883a 	mov	r16,r4
   24100:	a809883a 	mov	r4,r21
   24104:	dd801d15 	stw	r22,116(sp)
   24108:	dd001b15 	stw	r20,108(sp)
   2410c:	282d883a 	mov	r22,r5
   24110:	dc801915 	stw	r18,100(sp)
   24114:	dc401815 	stw	r17,96(sp)
   24118:	d9800315 	stw	r6,12(sp)
   2411c:	dfc02015 	stw	ra,128(sp)
   24120:	df001f15 	stw	fp,124(sp)
   24124:	ddc01e15 	stw	r23,120(sp)
   24128:	dcc01a15 	stw	r19,104(sp)
   2412c:	3829883a 	mov	r20,r7
   24130:	d8001315 	stw	zero,76(sp)
   24134:	0023f400 	call	23f40 <strlen>
   24138:	100d883a 	mov	r6,r2
   2413c:	0025883a 	mov	r18,zero
   24140:	0023883a 	mov	r17,zero
   24144:	dd801215 	stw	r22,72(sp)
   24148:	b007883a 	mov	r3,r22
   2414c:	1cc00003 	ldbu	r19,0(r3)
   24150:	010000b4 	movhi	r4,2
   24154:	1839883a 	mov	fp,r3
   24158:	98803fcc 	andi	r2,r19,255
   2415c:	100a90ba 	slli	r5,r2,2
   24160:	10800ba8 	cmpgeui	r2,r2,46
   24164:	1000311e 	bne	r2,zero,2422c <_strtod_l+0x144>
   24168:	2909883a 	add	r4,r5,r4
   2416c:	20905d17 	ldw	r2,16756(r4)
   24170:	1000683a 	jmp	r2
   24174:	000242d0 	cmplti	zero,zero,2315
   24178:	0002422c 	andhi	zero,zero,2312
   2417c:	0002422c 	andhi	zero,zero,2312
   24180:	0002422c 	andhi	zero,zero,2312
   24184:	0002422c 	andhi	zero,zero,2312
   24188:	0002422c 	andhi	zero,zero,2312
   2418c:	0002422c 	andhi	zero,zero,2312
   24190:	0002422c 	andhi	zero,zero,2312
   24194:	0002422c 	andhi	zero,zero,2312
   24198:	00024320 	cmpeqi	zero,zero,2316
   2419c:	00024320 	cmpeqi	zero,zero,2316
   241a0:	00024320 	cmpeqi	zero,zero,2316
   241a4:	00024320 	cmpeqi	zero,zero,2316
   241a8:	00024320 	cmpeqi	zero,zero,2316
   241ac:	0002422c 	andhi	zero,zero,2312
   241b0:	0002422c 	andhi	zero,zero,2312
   241b4:	0002422c 	andhi	zero,zero,2312
   241b8:	0002422c 	andhi	zero,zero,2312
   241bc:	0002422c 	andhi	zero,zero,2312
   241c0:	0002422c 	andhi	zero,zero,2312
   241c4:	0002422c 	andhi	zero,zero,2312
   241c8:	0002422c 	andhi	zero,zero,2312
   241cc:	0002422c 	andhi	zero,zero,2312
   241d0:	0002422c 	andhi	zero,zero,2312
   241d4:	0002422c 	andhi	zero,zero,2312
   241d8:	0002422c 	andhi	zero,zero,2312
   241dc:	0002422c 	andhi	zero,zero,2312
   241e0:	0002422c 	andhi	zero,zero,2312
   241e4:	0002422c 	andhi	zero,zero,2312
   241e8:	0002422c 	andhi	zero,zero,2312
   241ec:	0002422c 	andhi	zero,zero,2312
   241f0:	0002422c 	andhi	zero,zero,2312
   241f4:	00024320 	cmpeqi	zero,zero,2316
   241f8:	0002422c 	andhi	zero,zero,2312
   241fc:	0002422c 	andhi	zero,zero,2312
   24200:	0002422c 	andhi	zero,zero,2312
   24204:	0002422c 	andhi	zero,zero,2312
   24208:	0002422c 	andhi	zero,zero,2312
   2420c:	0002422c 	andhi	zero,zero,2312
   24210:	0002422c 	andhi	zero,zero,2312
   24214:	0002422c 	andhi	zero,zero,2312
   24218:	0002422c 	andhi	zero,zero,2312
   2421c:	0002422c 	andhi	zero,zero,2312
   24220:	00024f08 	cmpgei	zero,zero,2364
   24224:	0002422c 	andhi	zero,zero,2312
   24228:	00024ee4 	muli	zero,zero,2363
   2422c:	9cc03fcc 	andi	r19,r19,255
   24230:	9cc0201c 	xori	r19,r19,128
   24234:	d8000415 	stw	zero,16(sp)
   24238:	9cffe004 	addi	r19,r19,-128
   2423c:	98800c18 	cmpnei	r2,r19,48
   24240:	10007a26 	beq	r2,zero,2442c <_strtod_l+0x344>
   24244:	0023883a 	mov	r17,zero
   24248:	98800c08 	cmpgei	r2,r19,48
   2424c:	9825883a 	mov	r18,r19
   24250:	1003c626 	beq	r2,zero,2516c <_strtod_l+0x1084>
   24254:	e029883a 	mov	r20,fp
   24258:	0013883a 	mov	r9,zero
   2425c:	0011883a 	mov	r8,zero
   24260:	002f883a 	mov	r23,zero
   24264:	00000806 	br	24288 <_strtod_l+0x1a0>
   24268:	1a3ff404 	addi	r8,r3,-48
   2426c:	a5000044 	addi	r20,r20,1
   24270:	dd001215 	stw	r20,72(sp)
   24274:	a4800007 	ldb	r18,0(r20)
   24278:	bdc00044 	addi	r23,r23,1
   2427c:	90800c10 	cmplti	r2,r18,48
   24280:	9027883a 	mov	r19,r18
   24284:	10007e1e 	bne	r2,zero,24480 <_strtod_l+0x398>
   24288:	40c002a4 	muli	r3,r8,10
   2428c:	488002a4 	muli	r2,r9,10
   24290:	99000e90 	cmplti	r4,r19,58
   24294:	b9400248 	cmpgei	r5,r23,9
   24298:	1cc7883a 	add	r3,r3,r19
   2429c:	14c5883a 	add	r2,r2,r19
   242a0:	20002226 	beq	r4,zero,2432c <_strtod_l+0x244>
   242a4:	283ff026 	beq	r5,zero,24268 <_strtod_l+0x180>
   242a8:	127ff404 	addi	r9,r2,-48
   242ac:	003fef06 	br	2426c <_strtod_l+0x184>
   242b0:	90c01960 	cmpeqi	r3,r18,101
   242b4:	01400044 	movi	r5,1
   242b8:	1800ba1e 	bne	r3,zero,245a4 <_strtod_l+0x4bc>
   242bc:	90c01160 	cmpeqi	r3,r18,69
   242c0:	18007d26 	beq	r3,zero,244b8 <_strtod_l+0x3d0>
   242c4:	b800b71e 	bne	r23,zero,245a4 <_strtod_l+0x4bc>
   242c8:	8886b03a 	or	r3,r17,r2
   242cc:	1800b41e 	bne	r3,zero,245a0 <_strtod_l+0x4b8>
   242d0:	d8800317 	ldw	r2,12(sp)
   242d4:	10000226 	beq	r2,zero,242e0 <_strtod_l+0x1f8>
   242d8:	d8800317 	ldw	r2,12(sp)
   242dc:	15800015 	stw	r22,0(r2)
   242e0:	002d883a 	mov	r22,zero
   242e4:	002b883a 	mov	r21,zero
   242e8:	b005883a 	mov	r2,r22
   242ec:	a807883a 	mov	r3,r21
   242f0:	dfc02017 	ldw	ra,128(sp)
   242f4:	df001f17 	ldw	fp,124(sp)
   242f8:	ddc01e17 	ldw	r23,120(sp)
   242fc:	dd801d17 	ldw	r22,116(sp)
   24300:	dd401c17 	ldw	r21,112(sp)
   24304:	dd001b17 	ldw	r20,108(sp)
   24308:	dcc01a17 	ldw	r19,104(sp)
   2430c:	dc801917 	ldw	r18,100(sp)
   24310:	dc401817 	ldw	r17,96(sp)
   24314:	dc001717 	ldw	r16,92(sp)
   24318:	dec02104 	addi	sp,sp,132
   2431c:	f800283a 	ret
   24320:	18c00044 	addi	r3,r3,1
   24324:	d8c01215 	stw	r3,72(sp)
   24328:	003f8806 	br	2414c <_strtod_l+0x64>
   2432c:	a80b883a 	mov	r5,r21
   24330:	a009883a 	mov	r4,r20
   24334:	da400615 	stw	r9,24(sp)
   24338:	da000515 	stw	r8,20(sp)
   2433c:	d9800715 	stw	r6,28(sp)
   24340:	002cd880 	call	2cd88 <strncmp>
   24344:	da000517 	ldw	r8,20(sp)
   24348:	da400617 	ldw	r9,24(sp)
   2434c:	1000451e 	bne	r2,zero,24464 <_strtod_l+0x37c>
   24350:	d9800717 	ldw	r6,28(sp)
   24354:	a18d883a 	add	r6,r20,r6
   24358:	d9801215 	stw	r6,72(sp)
   2435c:	34800007 	ldb	r18,0(r6)
   24360:	b803eb1e 	bne	r23,zero,25310 <_strtod_l+0x1228>
   24364:	90800c18 	cmpnei	r2,r18,48
   24368:	1003a11e 	bne	r2,zero,251f0 <_strtod_l+0x1108>
   2436c:	d8c01217 	ldw	r3,72(sp)
   24370:	01400044 	movi	r5,1
   24374:	28cbc83a 	sub	r5,r5,r3
   24378:	1945883a 	add	r2,r3,r5
   2437c:	18c00044 	addi	r3,r3,1
   24380:	d8c01215 	stw	r3,72(sp)
   24384:	1c800007 	ldb	r18,0(r3)
   24388:	91000c20 	cmpeqi	r4,r18,48
   2438c:	203ffa1e 	bne	r4,zero,24378 <_strtod_l+0x290>
   24390:	90fff3c4 	addi	r3,r18,-49
   24394:	18c00268 	cmpgeui	r3,r3,9
   24398:	18027d1e 	bne	r3,zero,24d90 <_strtod_l+0xca8>
   2439c:	df001217 	ldw	fp,72(sp)
   243a0:	94bff404 	addi	r18,r18,-48
   243a4:	15000044 	addi	r20,r2,1
   243a8:	e015883a 	mov	r10,fp
   243ac:	002b883a 	mov	r21,zero
   243b0:	05c00044 	movi	r23,1
   243b4:	420002a4 	muli	r8,r8,10
   243b8:	0005883a 	mov	r2,zero
   243bc:	9211883a 	add	r8,r18,r8
   243c0:	50c00044 	addi	r3,r10,1
   243c4:	d8c01215 	stw	r3,72(sp)
   243c8:	54800047 	ldb	r18,1(r10)
   243cc:	91bff404 	addi	r6,r18,-48
   243d0:	30c002b0 	cmpltui	r3,r6,10
   243d4:	183fb626 	beq	r3,zero,242b0 <_strtod_l+0x1c8>
   243d8:	da801217 	ldw	r10,72(sp)
   243dc:	10800044 	addi	r2,r2,1
   243e0:	3025883a 	mov	r18,r6
   243e4:	303ff626 	beq	r6,zero,243c0 <_strtod_l+0x2d8>
   243e8:	10c00060 	cmpeqi	r3,r2,1
   243ec:	b9000044 	addi	r4,r23,1
   243f0:	a0a9883a 	add	r20,r20,r2
   243f4:	18048b1e 	bne	r3,zero,25624 <_strtod_l+0x153c>
   243f8:	15c5883a 	add	r2,r2,r23
   243fc:	11ffffc4 	addi	r7,r2,-1
   24400:	00000306 	br	24410 <_strtod_l+0x328>
   24404:	420002a4 	muli	r8,r8,10
   24408:	182f883a 	mov	r23,r3
   2440c:	19c34e26 	beq	r3,r7,25148 <_strtod_l+0x1060>
   24410:	b8c00044 	addi	r3,r23,1
   24414:	b9000248 	cmpgei	r4,r23,9
   24418:	19400448 	cmpgei	r5,r3,17
   2441c:	203ff926 	beq	r4,zero,24404 <_strtod_l+0x31c>
   24420:	283ff91e 	bne	r5,zero,24408 <_strtod_l+0x320>
   24424:	4a4002a4 	muli	r9,r9,10
   24428:	003ff706 	br	24408 <_strtod_l+0x320>
   2442c:	e0800043 	ldbu	r2,1(fp)
   24430:	e5c00044 	addi	r23,fp,1
   24434:	108037cc 	andi	r2,r2,223
   24438:	10801618 	cmpnei	r2,r2,88
   2443c:	10032a26 	beq	r2,zero,250e8 <_strtod_l+0x1000>
   24440:	ddc01215 	stw	r23,72(sp)
   24444:	bcc00007 	ldb	r19,0(r23)
   24448:	b839883a 	mov	fp,r23
   2444c:	bdc00044 	addi	r23,r23,1
   24450:	98800c20 	cmpeqi	r2,r19,48
   24454:	103ffa1e 	bne	r2,zero,24440 <_strtod_l+0x358>
   24458:	98009b26 	beq	r19,zero,246c8 <_strtod_l+0x5e0>
   2445c:	04400044 	movi	r17,1
   24460:	003f7906 	br	24248 <_strtod_l+0x160>
   24464:	9cc01960 	cmpeqi	r19,r19,101
   24468:	b82b883a 	mov	r21,r23
   2446c:	0005883a 	mov	r2,zero
   24470:	0029883a 	mov	r20,zero
   24474:	000b883a 	mov	r5,zero
   24478:	983f921e 	bne	r19,zero,242c4 <_strtod_l+0x1dc>
   2447c:	003f8f06 	br	242bc <_strtod_l+0x1d4>
   24480:	a80b883a 	mov	r5,r21
   24484:	a009883a 	mov	r4,r20
   24488:	da000715 	stw	r8,28(sp)
   2448c:	da400615 	stw	r9,24(sp)
   24490:	d9800515 	stw	r6,20(sp)
   24494:	002cd880 	call	2cd88 <strncmp>
   24498:	d9800517 	ldw	r6,20(sp)
   2449c:	da400617 	ldw	r9,24(sp)
   244a0:	da000717 	ldw	r8,28(sp)
   244a4:	10009226 	beq	r2,zero,246f0 <_strtod_l+0x608>
   244a8:	b82b883a 	mov	r21,r23
   244ac:	000b883a 	mov	r5,zero
   244b0:	0029883a 	mov	r20,zero
   244b4:	0005883a 	mov	r2,zero
   244b8:	0027883a 	mov	r19,zero
   244bc:	b8006b26 	beq	r23,zero,2466c <_strtod_l+0x584>
   244c0:	9d05c83a 	sub	r2,r19,r20
   244c4:	d8800915 	stw	r2,36(sp)
   244c8:	a800011e 	bne	r21,zero,244d0 <_strtod_l+0x3e8>
   244cc:	b82b883a 	mov	r21,r23
   244d0:	b8800450 	cmplti	r2,r23,17
   244d4:	b82d883a 	mov	r22,r23
   244d8:	1000011e 	bne	r2,zero,244e0 <_strtod_l+0x3f8>
   244dc:	05800404 	movi	r22,16
   244e0:	4009883a 	mov	r4,r8
   244e4:	da000515 	stw	r8,20(sp)
   244e8:	da400615 	stw	r9,24(sp)
   244ec:	00316700 	call	31670 <__floatunsidf>
   244f0:	b9000290 	cmplti	r4,r23,10
   244f4:	da000517 	ldw	r8,20(sp)
   244f8:	1025883a 	mov	r18,r2
   244fc:	1823883a 	mov	r17,r3
   24500:	2000171e 	bne	r4,zero,24560 <_strtod_l+0x478>
   24504:	b0bffdc4 	addi	r2,r22,-9
   24508:	100690fa 	slli	r3,r2,3
   2450c:	008000f4 	movhi	r2,3
   24510:	10932404 	addi	r2,r2,19600
   24514:	10c5883a 	add	r2,r2,r3
   24518:	11800017 	ldw	r6,0(r2)
   2451c:	11c00117 	ldw	r7,4(r2)
   24520:	880b883a 	mov	r5,r17
   24524:	9009883a 	mov	r4,r18
   24528:	00306780 	call	30678 <__muldf3>
   2452c:	da400617 	ldw	r9,24(sp)
   24530:	1025883a 	mov	r18,r2
   24534:	1823883a 	mov	r17,r3
   24538:	4809883a 	mov	r4,r9
   2453c:	00316700 	call	31670 <__floatunsidf>
   24540:	9009883a 	mov	r4,r18
   24544:	880b883a 	mov	r5,r17
   24548:	100d883a 	mov	r6,r2
   2454c:	180f883a 	mov	r7,r3
   24550:	00219000 	call	21900 <__adddf3>
   24554:	da000517 	ldw	r8,20(sp)
   24558:	1025883a 	mov	r18,r2
   2455c:	1823883a 	mov	r17,r3
   24560:	b8800408 	cmpgei	r2,r23,16
   24564:	1000681e 	bne	r2,zero,24708 <_strtod_l+0x620>
   24568:	9d05c83a 	sub	r2,r19,r20
   2456c:	1002f326 	beq	r2,zero,2513c <_strtod_l+0x1054>
   24570:	9d05c83a 	sub	r2,r19,r20
   24574:	0082700e 	bge	zero,r2,24f38 <_strtod_l+0xe50>
   24578:	108005c8 	cmpgei	r2,r2,23
   2457c:	10035726 	beq	r2,zero,252dc <_strtod_l+0x11f4>
   24580:	00800944 	movi	r2,37
   24584:	15c5c83a 	sub	r2,r2,r23
   24588:	9d07c83a 	sub	r3,r19,r20
   2458c:	10c3680e 	bge	r2,r3,25330 <_strtod_l+0x1248>
   24590:	bdadc83a 	sub	r22,r23,r22
   24594:	9d05c83a 	sub	r2,r19,r20
   24598:	b0ad883a 	add	r22,r22,r2
   2459c:	00005e06 	br	24718 <_strtod_l+0x630>
   245a0:	002f883a 	mov	r23,zero
   245a4:	dd801217 	ldw	r22,72(sp)
   245a8:	b0c00044 	addi	r3,r22,1
   245ac:	d8c01215 	stw	r3,72(sp)
   245b0:	b4800047 	ldb	r18,1(r22)
   245b4:	90c00ae0 	cmpeqi	r3,r18,43
   245b8:	1801f31e 	bne	r3,zero,24d88 <_strtod_l+0xca0>
   245bc:	90c00b60 	cmpeqi	r3,r18,45
   245c0:	1801bf1e 	bne	r3,zero,24cc0 <_strtod_l+0xbd8>
   245c4:	000d883a 	mov	r6,zero
   245c8:	90fff404 	addi	r3,r18,-48
   245cc:	18c002a8 	cmpgeui	r3,r3,10
   245d0:	1801b81e 	bne	r3,zero,24cb4 <_strtod_l+0xbcc>
   245d4:	90c00c18 	cmpnei	r3,r18,48
   245d8:	1800071e 	bne	r3,zero,245f8 <_strtod_l+0x510>
   245dc:	d8c01217 	ldw	r3,72(sp)
   245e0:	18c00044 	addi	r3,r3,1
   245e4:	d8c01215 	stw	r3,72(sp)
   245e8:	1c800007 	ldb	r18,0(r3)
   245ec:	18c00044 	addi	r3,r3,1
   245f0:	91000c20 	cmpeqi	r4,r18,48
   245f4:	203ffb1e 	bne	r4,zero,245e4 <_strtod_l+0x4fc>
   245f8:	90fff3c4 	addi	r3,r18,-49
   245fc:	18c00268 	cmpgeui	r3,r3,9
   24600:	183fad1e 	bne	r3,zero,244b8 <_strtod_l+0x3d0>
   24604:	dac01217 	ldw	r11,72(sp)
   24608:	94fff404 	addi	r19,r18,-48
   2460c:	59c00044 	addi	r7,r11,1
   24610:	d9c01215 	stw	r7,72(sp)
   24614:	5c800047 	ldb	r18,1(r11)
   24618:	90c00c08 	cmpgei	r3,r18,48
   2461c:	1800071e 	bne	r3,zero,2463c <_strtod_l+0x554>
   24620:	0002dd06 	br	25198 <_strtod_l+0x10b0>
   24624:	39c00044 	addi	r7,r7,1
   24628:	d9c01215 	stw	r7,72(sp)
   2462c:	54800047 	ldb	r18,1(r10)
   24630:	1cfff404 	addi	r19,r3,-48
   24634:	90c00c08 	cmpgei	r3,r18,48
   24638:	18000526 	beq	r3,zero,24650 <_strtod_l+0x568>
   2463c:	98c002a4 	muli	r3,r19,10
   24640:	91000e90 	cmplti	r4,r18,58
   24644:	3815883a 	mov	r10,r7
   24648:	1c87883a 	add	r3,r3,r18
   2464c:	203ff51e 	bne	r4,zero,24624 <_strtod_l+0x53c>
   24650:	3ac7c83a 	sub	r3,r7,r11
   24654:	18c00248 	cmpgei	r3,r3,9
   24658:	1802cf26 	beq	r3,zero,25198 <_strtod_l+0x10b0>
   2465c:	04d387c4 	movi	r19,19999
   24660:	303f9626 	beq	r6,zero,244bc <_strtod_l+0x3d4>
   24664:	04e7c83a 	sub	r19,zero,r19
   24668:	b83f951e 	bne	r23,zero,244c0 <_strtod_l+0x3d8>
   2466c:	8884b03a 	or	r2,r17,r2
   24670:	1000151e 	bne	r2,zero,246c8 <_strtod_l+0x5e0>
   24674:	283f161e 	bne	r5,zero,242d0 <_strtod_l+0x1e8>
   24678:	90801a60 	cmpeqi	r2,r18,105
   2467c:	1002cb1e 	bne	r2,zero,251ac <_strtod_l+0x10c4>
   24680:	90801a88 	cmpgei	r2,r18,106
   24684:	1002401e 	bne	r2,zero,24f88 <_strtod_l+0xea0>
   24688:	90801260 	cmpeqi	r2,r18,73
   2468c:	1002c71e 	bne	r2,zero,251ac <_strtod_l+0x10c4>
   24690:	948013a0 	cmpeqi	r18,r18,78
   24694:	903f0e26 	beq	r18,zero,242d0 <_strtod_l+0x1e8>
   24698:	014000f4 	movhi	r5,3
   2469c:	29526004 	addi	r5,r5,18816
   246a0:	d9001204 	addi	r4,sp,72
   246a4:	002afe80 	call	2afe8 <__match>
   246a8:	103f0926 	beq	r2,zero,242d0 <_strtod_l+0x1e8>
   246ac:	d8801217 	ldw	r2,72(sp)
   246b0:	10800007 	ldb	r2,0(r2)
   246b4:	10800a18 	cmpnei	r2,r2,40
   246b8:	10039326 	beq	r2,zero,25508 <_strtod_l+0x1420>
   246bc:	002d883a 	mov	r22,zero
   246c0:	055ffe34 	movhi	r21,32760
   246c4:	00000206 	br	246d0 <_strtod_l+0x5e8>
   246c8:	002d883a 	mov	r22,zero
   246cc:	002b883a 	mov	r21,zero
   246d0:	d8c00317 	ldw	r3,12(sp)
   246d4:	18000226 	beq	r3,zero,246e0 <_strtod_l+0x5f8>
   246d8:	d8801217 	ldw	r2,72(sp)
   246dc:	18800015 	stw	r2,0(r3)
   246e0:	d8800417 	ldw	r2,16(sp)
   246e4:	103f0026 	beq	r2,zero,242e8 <_strtod_l+0x200>
   246e8:	ad60003c 	xorhi	r21,r21,32768
   246ec:	003efe06 	br	242e8 <_strtod_l+0x200>
   246f0:	a18d883a 	add	r6,r20,r6
   246f4:	d9801215 	stw	r6,72(sp)
   246f8:	34800007 	ldb	r18,0(r6)
   246fc:	b82b883a 	mov	r21,r23
   24700:	0029883a 	mov	r20,zero
   24704:	003f3106 	br	243cc <_strtod_l+0x2e4>
   24708:	bdadc83a 	sub	r22,r23,r22
   2470c:	9d05c83a 	sub	r2,r19,r20
   24710:	b0ad883a 	add	r22,r22,r2
   24714:	05821f0e 	bge	zero,r22,24f94 <_strtod_l+0xeac>
   24718:	b08003cc 	andi	r2,r22,15
   2471c:	10000d26 	beq	r2,zero,24754 <_strtod_l+0x66c>
   24720:	100690fa 	slli	r3,r2,3
   24724:	008000f4 	movhi	r2,3
   24728:	10932404 	addi	r2,r2,19600
   2472c:	10c5883a 	add	r2,r2,r3
   24730:	11000017 	ldw	r4,0(r2)
   24734:	11400117 	ldw	r5,4(r2)
   24738:	900d883a 	mov	r6,r18
   2473c:	880f883a 	mov	r7,r17
   24740:	da000515 	stw	r8,20(sp)
   24744:	00306780 	call	30678 <__muldf3>
   24748:	da000517 	ldw	r8,20(sp)
   2474c:	1025883a 	mov	r18,r2
   24750:	1823883a 	mov	r17,r3
   24754:	027ffc04 	movi	r9,-16
   24758:	b252703a 	and	r9,r22,r9
   2475c:	48003f26 	beq	r9,zero,2485c <_strtod_l+0x774>
   24760:	48804d50 	cmplti	r2,r9,309
   24764:	10025b26 	beq	r2,zero,250d4 <_strtod_l+0xfec>
   24768:	4813d13a 	srai	r9,r9,4
   2476c:	48800090 	cmplti	r2,r9,2
   24770:	1003601e 	bne	r2,zero,254f4 <_strtod_l+0x140c>
   24774:	008000f4 	movhi	r2,3
   24778:	10931a04 	addi	r2,r2,19560
   2477c:	002d883a 	mov	r22,zero
   24780:	9009883a 	mov	r4,r18
   24784:	880b883a 	mov	r5,r17
   24788:	dc000715 	stw	r16,28(sp)
   2478c:	dc800815 	stw	r18,32(sp)
   24790:	d8800515 	stw	r2,20(sp)
   24794:	b025883a 	mov	r18,r22
   24798:	0007883a 	mov	r3,zero
   2479c:	882d883a 	mov	r22,r17
   247a0:	da000615 	stw	r8,24(sp)
   247a4:	4821883a 	mov	r16,r9
   247a8:	1023883a 	mov	r17,r2
   247ac:	8080004c 	andi	r2,r16,1
   247b0:	8021d07a 	srai	r16,r16,1
   247b4:	10000626 	beq	r2,zero,247d0 <_strtod_l+0x6e8>
   247b8:	89800017 	ldw	r6,0(r17)
   247bc:	89c00117 	ldw	r7,4(r17)
   247c0:	00306780 	call	30678 <__muldf3>
   247c4:	180b883a 	mov	r5,r3
   247c8:	1009883a 	mov	r4,r2
   247cc:	00c00044 	movi	r3,1
   247d0:	81800058 	cmpnei	r6,r16,1
   247d4:	94800044 	addi	r18,r18,1
   247d8:	8c400204 	addi	r17,r17,8
   247dc:	303ff31e 	bne	r6,zero,247ac <_strtod_l+0x6c4>
   247e0:	18c03fcc 	andi	r3,r3,255
   247e4:	b023883a 	mov	r17,r22
   247e8:	da000617 	ldw	r8,24(sp)
   247ec:	902d883a 	mov	r22,r18
   247f0:	dc000717 	ldw	r16,28(sp)
   247f4:	dc800817 	ldw	r18,32(sp)
   247f8:	18000226 	beq	r3,zero,24804 <_strtod_l+0x71c>
   247fc:	2025883a 	mov	r18,r4
   24800:	2823883a 	mov	r17,r5
   24804:	d8800517 	ldw	r2,20(sp)
   24808:	b01690fa 	slli	r11,r22,3
   2480c:	01ff2c34 	movhi	r7,64688
   24810:	900d883a 	mov	r6,r18
   24814:	12d7883a 	add	r11,r2,r11
   24818:	59000017 	ldw	r4,0(r11)
   2481c:	59400117 	ldw	r5,4(r11)
   24820:	89cf883a 	add	r7,r17,r7
   24824:	da000615 	stw	r8,24(sp)
   24828:	00306780 	call	30678 <__muldf3>
   2482c:	191ffc2c 	andhi	r4,r3,32752
   24830:	015f2834 	movhi	r5,31904
   24834:	1025883a 	mov	r18,r2
   24838:	29022636 	bltu	r5,r4,250d4 <_strtod_l+0xfec>
   2483c:	009f2434 	movhi	r2,31888
   24840:	da000617 	ldw	r8,24(sp)
   24844:	1102fd2e 	bgeu	r2,r4,2543c <_strtod_l+0x1354>
   24848:	045ffc34 	movhi	r17,32752
   2484c:	8c7fffc4 	addi	r17,r17,-1
   24850:	04bfffc4 	movi	r18,-1
   24854:	d8001015 	stw	zero,64(sp)
   24858:	00000106 	br	24860 <_strtod_l+0x778>
   2485c:	d8001015 	stw	zero,64(sp)
   24860:	da000015 	stw	r8,0(sp)
   24864:	b80f883a 	mov	r7,r23
   24868:	a80d883a 	mov	r6,r21
   2486c:	e00b883a 	mov	r5,fp
   24870:	8009883a 	mov	r4,r16
   24874:	002b86c0 	call	2b86c <__s2b>
   24878:	d8800715 	stw	r2,28(sp)
   2487c:	10021526 	beq	r2,zero,250d4 <_strtod_l+0xfec>
   24880:	d8c00917 	ldw	r3,36(sp)
   24884:	a4e7c83a 	sub	r19,r20,r19
   24888:	1805d7fa 	srai	r2,r3,31
   2488c:	d8c00815 	stw	r3,32(sp)
   24890:	9884703a 	and	r2,r19,r2
   24894:	d8800515 	stw	r2,20(sp)
   24898:	18019d16 	blt	r3,zero,24f10 <_strtod_l+0xe28>
   2489c:	d8c00717 	ldw	r3,28(sp)
   248a0:	00800434 	movhi	r2,16
   248a4:	dd401017 	ldw	r21,64(sp)
   248a8:	18c00304 	addi	r3,r3,12
   248ac:	10bfffc4 	addi	r2,r2,-1
   248b0:	002f883a 	mov	r23,zero
   248b4:	0027883a 	mov	r19,zero
   248b8:	d8c00d15 	stw	r3,52(sp)
   248bc:	d8801115 	stw	r2,68(sp)
   248c0:	dd800717 	ldw	r22,28(sp)
   248c4:	8009883a 	mov	r4,r16
   248c8:	b1400117 	ldw	r5,4(r22)
   248cc:	002b66c0 	call	2b66c <_Balloc>
   248d0:	1029883a 	mov	r20,r2
   248d4:	1000ce26 	beq	r2,zero,24c10 <_strtod_l+0xb28>
   248d8:	b1800417 	ldw	r6,16(r22)
   248dc:	d9400d17 	ldw	r5,52(sp)
   248e0:	11000304 	addi	r4,r2,12
   248e4:	31800084 	addi	r6,r6,2
   248e8:	300c90ba 	slli	r6,r6,2
   248ec:	dc800b15 	stw	r18,44(sp)
   248f0:	dc400a15 	stw	r17,40(sp)
   248f4:	00237a40 	call	237a4 <memcpy>
   248f8:	d8801504 	addi	r2,sp,84
   248fc:	d9c01404 	addi	r7,sp,80
   24900:	d8800015 	stw	r2,0(sp)
   24904:	900b883a 	mov	r5,r18
   24908:	880d883a 	mov	r6,r17
   2490c:	8009883a 	mov	r4,r16
   24910:	002c3c00 	call	2c3c0 <__d2b>
   24914:	d8801315 	stw	r2,76(sp)
   24918:	1000b526 	beq	r2,zero,24bf0 <_strtod_l+0xb08>
   2491c:	01400044 	movi	r5,1
   24920:	8009883a 	mov	r4,r16
   24924:	002bab80 	call	2bab8 <__i2b>
   24928:	1027883a 	mov	r19,r2
   2492c:	1000b826 	beq	r2,zero,24c10 <_strtod_l+0xb28>
   24930:	d8801417 	ldw	r2,80(sp)
   24934:	1000d316 	blt	r2,zero,24c84 <_strtod_l+0xb9c>
   24938:	d8c00517 	ldw	r3,20(sp)
   2493c:	d9c00817 	ldw	r7,32(sp)
   24940:	10f9883a 	add	fp,r2,r3
   24944:	d9001517 	ldw	r4,84(sp)
   24948:	1545c83a 	sub	r2,r2,r21
   2494c:	00c00d84 	movi	r3,54
   24950:	1105883a 	add	r2,r2,r4
   24954:	10bfffc4 	addi	r2,r2,-1
   24958:	117f0088 	cmpgei	r5,r2,-1022
   2495c:	1907c83a 	sub	r3,r3,r4
   24960:	2800b81e 	bne	r5,zero,24c44 <_strtod_l+0xb5c>
   24964:	05bf0084 	movi	r22,-1022
   24968:	b089c83a 	sub	r4,r22,r2
   2496c:	21400808 	cmpgei	r5,r4,32
   24970:	1907c83a 	sub	r3,r3,r4
   24974:	2800c71e 	bne	r5,zero,24c94 <_strtod_l+0xbac>
   24978:	05800044 	movi	r22,1
   2497c:	b104983a 	sll	r2,r22,r4
   24980:	d8000e15 	stw	zero,56(sp)
   24984:	d8800c15 	stw	r2,48(sp)
   24988:	38cf883a 	add	r7,r7,r3
   2498c:	e0c7883a 	add	r3,fp,r3
   24990:	a9ed883a 	add	r22,r21,r7
   24994:	e005883a 	mov	r2,fp
   24998:	1f00010e 	bge	r3,fp,249a0 <_strtod_l+0x8b8>
   2499c:	1805883a 	mov	r2,r3
   249a0:	b080010e 	bge	r22,r2,249a8 <_strtod_l+0x8c0>
   249a4:	b005883a 	mov	r2,r22
   249a8:	0080030e 	bge	zero,r2,249b8 <_strtod_l+0x8d0>
   249ac:	1887c83a 	sub	r3,r3,r2
   249b0:	b0adc83a 	sub	r22,r22,r2
   249b4:	e0b9c83a 	sub	fp,fp,r2
   249b8:	d9800517 	ldw	r6,20(sp)
   249bc:	01806f16 	blt	zero,r6,24b7c <_strtod_l+0xa94>
   249c0:	00c08516 	blt	zero,r3,24bd8 <_strtod_l+0xaf0>
   249c4:	d8800917 	ldw	r2,36(sp)
   249c8:	00808b16 	blt	zero,r2,24bf8 <_strtod_l+0xb10>
   249cc:	05809616 	blt	zero,r22,24c28 <_strtod_l+0xb40>
   249d0:	0700060e 	bge	zero,fp,249ec <_strtod_l+0x904>
   249d4:	980b883a 	mov	r5,r19
   249d8:	e00d883a 	mov	r6,fp
   249dc:	8009883a 	mov	r4,r16
   249e0:	002be540 	call	2be54 <__lshift>
   249e4:	1027883a 	mov	r19,r2
   249e8:	10008926 	beq	r2,zero,24c10 <_strtod_l+0xb28>
   249ec:	d9401317 	ldw	r5,76(sp)
   249f0:	a00d883a 	mov	r6,r20
   249f4:	8009883a 	mov	r4,r16
   249f8:	002c0340 	call	2c034 <__mdiff>
   249fc:	102f883a 	mov	r23,r2
   24a00:	10008326 	beq	r2,zero,24c10 <_strtod_l+0xb28>
   24a04:	10800317 	ldw	r2,12(r2)
   24a08:	980b883a 	mov	r5,r19
   24a0c:	b8000315 	stw	zero,12(r23)
   24a10:	b809883a 	mov	r4,r23
   24a14:	d8800615 	stw	r2,24(sp)
   24a18:	002bfdc0 	call	2bfdc <__mcmp>
   24a1c:	10028b16 	blt	r2,zero,2544c <_strtod_l+0x1364>
   24a20:	10025c26 	beq	r2,zero,25394 <_strtod_l+0x12ac>
   24a24:	980b883a 	mov	r5,r19
   24a28:	b809883a 	mov	r4,r23
   24a2c:	002c5240 	call	2c524 <__ratio>
   24a30:	000d883a 	mov	r6,zero
   24a34:	01d00034 	movhi	r7,16384
   24a38:	1009883a 	mov	r4,r2
   24a3c:	180b883a 	mov	r5,r3
   24a40:	1039883a 	mov	fp,r2
   24a44:	182d883a 	mov	r22,r3
   24a48:	00305880 	call	30588 <__ledf2>
   24a4c:	00808116 	blt	zero,r2,24c54 <_strtod_l+0xb6c>
   24a50:	d8800617 	ldw	r2,24(sp)
   24a54:	10009f26 	beq	r2,zero,24cd4 <_strtod_l+0xbec>
   24a58:	0011883a 	mov	r8,zero
   24a5c:	024ffc34 	movhi	r9,16368
   24a60:	d8000c15 	stw	zero,48(sp)
   24a64:	058ffc34 	movhi	r22,16368
   24a68:	8f1ffc2c 	andhi	fp,r17,32752
   24a6c:	009ff834 	movhi	r2,32736
   24a70:	e080a326 	beq	fp,r2,24d00 <_strtod_l+0xc18>
   24a74:	a8001d26 	beq	r21,zero,24aec <_strtod_l+0xa04>
   24a78:	0081a834 	movhi	r2,1696
   24a7c:	17001b36 	bltu	r2,fp,24aec <_strtod_l+0xa04>
   24a80:	d9000c17 	ldw	r4,48(sp)
   24a84:	01d07834 	movhi	r7,16864
   24a88:	01bff034 	movhi	r6,65472
   24a8c:	39ffffc4 	addi	r7,r7,-1
   24a90:	b00b883a 	mov	r5,r22
   24a94:	da400b15 	stw	r9,44(sp)
   24a98:	da000a15 	stw	r8,40(sp)
   24a9c:	00305880 	call	30588 <__ledf2>
   24aa0:	da000a17 	ldw	r8,40(sp)
   24aa4:	da400b17 	ldw	r9,44(sp)
   24aa8:	00800d16 	blt	zero,r2,24ae0 <_strtod_l+0x9f8>
   24aac:	d9000c17 	ldw	r4,48(sp)
   24ab0:	b00b883a 	mov	r5,r22
   24ab4:	002ed880 	call	2ed88 <__fixunsdfsi>
   24ab8:	1009883a 	mov	r4,r2
   24abc:	1000011e 	bne	r2,zero,24ac4 <_strtod_l+0x9dc>
   24ac0:	01000044 	movi	r4,1
   24ac4:	00316700 	call	31670 <__floatunsidf>
   24ac8:	1011883a 	mov	r8,r2
   24acc:	d8800c15 	stw	r2,48(sp)
   24ad0:	d8800617 	ldw	r2,24(sp)
   24ad4:	182d883a 	mov	r22,r3
   24ad8:	1001b21e 	bne	r2,zero,251a4 <_strtod_l+0x10bc>
   24adc:	1a60003c 	xorhi	r9,r3,32768
   24ae0:	0081ac34 	movhi	r2,1712
   24ae4:	4893883a 	add	r9,r9,r2
   24ae8:	4f13c83a 	sub	r9,r9,fp
   24aec:	9009883a 	mov	r4,r18
   24af0:	880b883a 	mov	r5,r17
   24af4:	da400b15 	stw	r9,44(sp)
   24af8:	da000a15 	stw	r8,40(sp)
   24afc:	002c2600 	call	2c260 <__ulp>
   24b00:	da000a17 	ldw	r8,40(sp)
   24b04:	da400b17 	ldw	r9,44(sp)
   24b08:	100d883a 	mov	r6,r2
   24b0c:	4009883a 	mov	r4,r8
   24b10:	480b883a 	mov	r5,r9
   24b14:	180f883a 	mov	r7,r3
   24b18:	00306780 	call	30678 <__muldf3>
   24b1c:	900d883a 	mov	r6,r18
   24b20:	880f883a 	mov	r7,r17
   24b24:	1009883a 	mov	r4,r2
   24b28:	180b883a 	mov	r5,r3
   24b2c:	00219000 	call	21900 <__adddf3>
   24b30:	1823883a 	mov	r17,r3
   24b34:	1025883a 	mov	r18,r2
   24b38:	1811883a 	mov	r8,r3
   24b3c:	a800021e 	bne	r21,zero,24b48 <_strtod_l+0xa60>
   24b40:	409ffc2c 	andhi	r2,r8,32752
   24b44:	e0809826 	beq	fp,r2,24da8 <_strtod_l+0xcc0>
   24b48:	d9401317 	ldw	r5,76(sp)
   24b4c:	8009883a 	mov	r4,r16
   24b50:	002b7100 	call	2b710 <_Bfree>
   24b54:	a00b883a 	mov	r5,r20
   24b58:	8009883a 	mov	r4,r16
   24b5c:	002b7100 	call	2b710 <_Bfree>
   24b60:	980b883a 	mov	r5,r19
   24b64:	8009883a 	mov	r4,r16
   24b68:	002b7100 	call	2b710 <_Bfree>
   24b6c:	b80b883a 	mov	r5,r23
   24b70:	8009883a 	mov	r4,r16
   24b74:	002b7100 	call	2b710 <_Bfree>
   24b78:	003f5106 	br	248c0 <_strtod_l+0x7d8>
   24b7c:	980b883a 	mov	r5,r19
   24b80:	8009883a 	mov	r4,r16
   24b84:	d8c00615 	stw	r3,24(sp)
   24b88:	002bd3c0 	call	2bd3c <__pow5mult>
   24b8c:	d8c00617 	ldw	r3,24(sp)
   24b90:	1027883a 	mov	r19,r2
   24b94:	10001e26 	beq	r2,zero,24c10 <_strtod_l+0xb28>
   24b98:	d9801317 	ldw	r6,76(sp)
   24b9c:	100b883a 	mov	r5,r2
   24ba0:	8009883a 	mov	r4,r16
   24ba4:	d8c00615 	stw	r3,24(sp)
   24ba8:	002bb0c0 	call	2bb0c <__multiply>
   24bac:	d8c00617 	ldw	r3,24(sp)
   24bb0:	10001726 	beq	r2,zero,24c10 <_strtod_l+0xb28>
   24bb4:	d9401317 	ldw	r5,76(sp)
   24bb8:	8009883a 	mov	r4,r16
   24bbc:	d8800f15 	stw	r2,60(sp)
   24bc0:	d8c00615 	stw	r3,24(sp)
   24bc4:	002b7100 	call	2b710 <_Bfree>
   24bc8:	d8800f17 	ldw	r2,60(sp)
   24bcc:	d8c00617 	ldw	r3,24(sp)
   24bd0:	d8801315 	stw	r2,76(sp)
   24bd4:	00ff7b0e 	bge	zero,r3,249c4 <_strtod_l+0x8dc>
   24bd8:	d9401317 	ldw	r5,76(sp)
   24bdc:	180d883a 	mov	r6,r3
   24be0:	8009883a 	mov	r4,r16
   24be4:	002be540 	call	2be54 <__lshift>
   24be8:	d8801315 	stw	r2,76(sp)
   24bec:	103f751e 	bne	r2,zero,249c4 <_strtod_l+0x8dc>
   24bf0:	1013883a 	mov	r9,r2
   24bf4:	00000706 	br	24c14 <_strtod_l+0xb2c>
   24bf8:	d9800817 	ldw	r6,32(sp)
   24bfc:	a00b883a 	mov	r5,r20
   24c00:	8009883a 	mov	r4,r16
   24c04:	002bd3c0 	call	2bd3c <__pow5mult>
   24c08:	1029883a 	mov	r20,r2
   24c0c:	103f6f1e 	bne	r2,zero,249cc <_strtod_l+0x8e4>
   24c10:	da401317 	ldw	r9,76(sp)
   24c14:	00800884 	movi	r2,34
   24c18:	80800015 	stw	r2,0(r16)
   24c1c:	002d883a 	mov	r22,zero
   24c20:	055ffc34 	movhi	r21,32752
   24c24:	00008806 	br	24e48 <_strtod_l+0xd60>
   24c28:	a00b883a 	mov	r5,r20
   24c2c:	b00d883a 	mov	r6,r22
   24c30:	8009883a 	mov	r4,r16
   24c34:	002be540 	call	2be54 <__lshift>
   24c38:	1029883a 	mov	r20,r2
   24c3c:	103f641e 	bne	r2,zero,249d0 <_strtod_l+0x8e8>
   24c40:	003ff306 	br	24c10 <_strtod_l+0xb28>
   24c44:	00800044 	movi	r2,1
   24c48:	d8000e15 	stw	zero,56(sp)
   24c4c:	d8800c15 	stw	r2,48(sp)
   24c50:	003f4d06 	br	24988 <_strtod_l+0x8a0>
   24c54:	b00b883a 	mov	r5,r22
   24c58:	000d883a 	mov	r6,zero
   24c5c:	01cff834 	movhi	r7,16352
   24c60:	e009883a 	mov	r4,fp
   24c64:	00306780 	call	30678 <__muldf3>
   24c68:	1011883a 	mov	r8,r2
   24c6c:	d8800c15 	stw	r2,48(sp)
   24c70:	d8800617 	ldw	r2,24(sp)
   24c74:	182d883a 	mov	r22,r3
   24c78:	10001f1e 	bne	r2,zero,24cf8 <_strtod_l+0xc10>
   24c7c:	1a60003c 	xorhi	r9,r3,32768
   24c80:	003f7906 	br	24a68 <_strtod_l+0x980>
   24c84:	d8c00817 	ldw	r3,32(sp)
   24c88:	df000517 	ldw	fp,20(sp)
   24c8c:	188fc83a 	sub	r7,r3,r2
   24c90:	003f2c06 	br	24944 <_strtod_l+0x85c>
   24c94:	013ef884 	movi	r4,-1054
   24c98:	2085c83a 	sub	r2,r4,r2
   24c9c:	01000044 	movi	r4,1
   24ca0:	2084983a 	sll	r2,r4,r2
   24ca4:	d8800e15 	stw	r2,56(sp)
   24ca8:	00800044 	movi	r2,1
   24cac:	d8800c15 	stw	r2,48(sp)
   24cb0:	003f3506 	br	24988 <_strtod_l+0x8a0>
   24cb4:	dd801215 	stw	r22,72(sp)
   24cb8:	0027883a 	mov	r19,zero
   24cbc:	003dff06 	br	244bc <_strtod_l+0x3d4>
   24cc0:	01800044 	movi	r6,1
   24cc4:	b0c00084 	addi	r3,r22,2
   24cc8:	d8c01215 	stw	r3,72(sp)
   24ccc:	b4800087 	ldb	r18,2(r22)
   24cd0:	003e3d06 	br	245c8 <_strtod_l+0x4e0>
   24cd4:	90006c26 	beq	r18,zero,24e88 <_strtod_l+0xda0>
   24cd8:	90800058 	cmpnei	r2,r18,1
   24cdc:	1000011e 	bne	r2,zero,24ce4 <_strtod_l+0xbfc>
   24ce0:	88022226 	beq	r17,zero,2556c <_strtod_l+0x1484>
   24ce4:	0011883a 	mov	r8,zero
   24ce8:	026ffc34 	movhi	r9,49136
   24cec:	d8000c15 	stw	zero,48(sp)
   24cf0:	058ffc34 	movhi	r22,16368
   24cf4:	003f5c06 	br	24a68 <_strtod_l+0x980>
   24cf8:	1813883a 	mov	r9,r3
   24cfc:	003f5a06 	br	24a68 <_strtod_l+0x980>
   24d00:	00bf2c34 	movhi	r2,64688
   24d04:	88a3883a 	add	r17,r17,r2
   24d08:	9009883a 	mov	r4,r18
   24d0c:	880b883a 	mov	r5,r17
   24d10:	da400f15 	stw	r9,60(sp)
   24d14:	da000e15 	stw	r8,56(sp)
   24d18:	002c2600 	call	2c260 <__ulp>
   24d1c:	da000e17 	ldw	r8,56(sp)
   24d20:	da400f17 	ldw	r9,60(sp)
   24d24:	100d883a 	mov	r6,r2
   24d28:	4009883a 	mov	r4,r8
   24d2c:	480b883a 	mov	r5,r9
   24d30:	180f883a 	mov	r7,r3
   24d34:	00306780 	call	30678 <__muldf3>
   24d38:	900d883a 	mov	r6,r18
   24d3c:	1009883a 	mov	r4,r2
   24d40:	180b883a 	mov	r5,r3
   24d44:	880f883a 	mov	r7,r17
   24d48:	00219000 	call	21900 <__adddf3>
   24d4c:	195ffc2c 	andhi	r5,r3,32752
   24d50:	011f2834 	movhi	r4,31904
   24d54:	1025883a 	mov	r18,r2
   24d58:	29005e36 	bltu	r5,r4,24ed4 <_strtod_l+0xdec>
   24d5c:	d8c00a17 	ldw	r3,40(sp)
   24d60:	009ffc34 	movhi	r2,32752
   24d64:	10bfffc4 	addi	r2,r2,-1
   24d68:	1880031e 	bne	r3,r2,24d78 <_strtod_l+0xc90>
   24d6c:	d8800b17 	ldw	r2,44(sp)
   24d70:	10bfffd8 	cmpnei	r2,r2,-1
   24d74:	103fa626 	beq	r2,zero,24c10 <_strtod_l+0xb28>
   24d78:	045ffc34 	movhi	r17,32752
   24d7c:	8c7fffc4 	addi	r17,r17,-1
   24d80:	04bfffc4 	movi	r18,-1
   24d84:	003f7006 	br	24b48 <_strtod_l+0xa60>
   24d88:	000d883a 	mov	r6,zero
   24d8c:	003fcd06 	br	24cc4 <_strtod_l+0xbdc>
   24d90:	90c01960 	cmpeqi	r3,r18,101
   24d94:	1800781e 	bne	r3,zero,24f78 <_strtod_l+0xe90>
   24d98:	90c01160 	cmpeqi	r3,r18,69
   24d9c:	1800761e 	bne	r3,zero,24f78 <_strtod_l+0xe90>
   24da0:	01400044 	movi	r5,1
   24da4:	003e3106 	br	2466c <_strtod_l+0x584>
   24da8:	df000c17 	ldw	fp,48(sp)
   24dac:	b00b883a 	mov	r5,r22
   24db0:	da000a15 	stw	r8,40(sp)
   24db4:	e009883a 	mov	r4,fp
   24db8:	002edfc0 	call	2edfc <__fixdfdi>
   24dbc:	1009883a 	mov	r4,r2
   24dc0:	180b883a 	mov	r5,r3
   24dc4:	002ef000 	call	2ef00 <__floatdidf>
   24dc8:	e009883a 	mov	r4,fp
   24dcc:	b00b883a 	mov	r5,r22
   24dd0:	100d883a 	mov	r6,r2
   24dd4:	180f883a 	mov	r7,r3
   24dd8:	0030ce80 	call	30ce8 <__subdf3>
   24ddc:	d9000617 	ldw	r4,24(sp)
   24de0:	d9401117 	ldw	r5,68(sp)
   24de4:	da000a17 	ldw	r8,40(sp)
   24de8:	2488b03a 	or	r4,r4,r18
   24dec:	1039883a 	mov	fp,r2
   24df0:	4150703a 	and	r8,r8,r5
   24df4:	2210b03a 	or	r8,r4,r8
   24df8:	182d883a 	mov	r22,r3
   24dfc:	01a52834 	movhi	r6,38048
   24e00:	40004526 	beq	r8,zero,24f18 <_strtod_l+0xe30>
   24e04:	01cff834 	movhi	r7,16352
   24e08:	318d6544 	addi	r6,r6,13717
   24e0c:	39ffffc4 	addi	r7,r7,-1
   24e10:	1009883a 	mov	r4,r2
   24e14:	180b883a 	mov	r5,r3
   24e18:	00305880 	call	30588 <__ledf2>
   24e1c:	10000716 	blt	r2,zero,24e3c <_strtod_l+0xd54>
   24e20:	018d6c34 	movhi	r6,13744
   24e24:	31b94d44 	addi	r6,r6,-6859
   24e28:	01cff834 	movhi	r7,16352
   24e2c:	e009883a 	mov	r4,fp
   24e30:	b00b883a 	mov	r5,r22
   24e34:	00304980 	call	30498 <__gedf2>
   24e38:	00bf430e 	bge	zero,r2,24b48 <_strtod_l+0xa60>
   24e3c:	da401317 	ldw	r9,76(sp)
   24e40:	902d883a 	mov	r22,r18
   24e44:	882b883a 	mov	r21,r17
   24e48:	480b883a 	mov	r5,r9
   24e4c:	8009883a 	mov	r4,r16
   24e50:	002b7100 	call	2b710 <_Bfree>
   24e54:	a00b883a 	mov	r5,r20
   24e58:	8009883a 	mov	r4,r16
   24e5c:	002b7100 	call	2b710 <_Bfree>
   24e60:	980b883a 	mov	r5,r19
   24e64:	8009883a 	mov	r4,r16
   24e68:	002b7100 	call	2b710 <_Bfree>
   24e6c:	d9400717 	ldw	r5,28(sp)
   24e70:	8009883a 	mov	r4,r16
   24e74:	002b7100 	call	2b710 <_Bfree>
   24e78:	b80b883a 	mov	r5,r23
   24e7c:	8009883a 	mov	r4,r16
   24e80:	002b7100 	call	2b710 <_Bfree>
   24e84:	003e1206 	br	246d0 <_strtod_l+0x5e8>
   24e88:	d8801117 	ldw	r2,68(sp)
   24e8c:	8884703a 	and	r2,r17,r2
   24e90:	103f941e 	bne	r2,zero,24ce4 <_strtod_l+0xbfc>
   24e94:	000d883a 	mov	r6,zero
   24e98:	01cffc34 	movhi	r7,16368
   24e9c:	e009883a 	mov	r4,fp
   24ea0:	b00b883a 	mov	r5,r22
   24ea4:	00305880 	call	30588 <__ledf2>
   24ea8:	10011c16 	blt	r2,zero,2531c <_strtod_l+0x1234>
   24eac:	b00b883a 	mov	r5,r22
   24eb0:	000d883a 	mov	r6,zero
   24eb4:	01cff834 	movhi	r7,16352
   24eb8:	e009883a 	mov	r4,fp
   24ebc:	00306780 	call	30678 <__muldf3>
   24ec0:	d8800c15 	stw	r2,48(sp)
   24ec4:	182d883a 	mov	r22,r3
   24ec8:	1011883a 	mov	r8,r2
   24ecc:	1a60003c 	xorhi	r9,r3,32768
   24ed0:	003ee506 	br	24a68 <_strtod_l+0x980>
   24ed4:	0440d434 	movhi	r17,848
   24ed8:	1c63883a 	add	r17,r3,r17
   24edc:	8811883a 	mov	r8,r17
   24ee0:	003f1606 	br	24b3c <_strtod_l+0xa54>
   24ee4:	00800044 	movi	r2,1
   24ee8:	d8800415 	stw	r2,16(sp)
   24eec:	1f000044 	addi	fp,r3,1
   24ef0:	df001215 	stw	fp,72(sp)
   24ef4:	1cc00047 	ldb	r19,1(r3)
   24ef8:	983cd01e 	bne	r19,zero,2423c <_strtod_l+0x154>
   24efc:	d8800317 	ldw	r2,12(sp)
   24f00:	103cf51e 	bne	r2,zero,242d8 <_strtod_l+0x1f0>
   24f04:	003cf606 	br	242e0 <_strtod_l+0x1f8>
   24f08:	d8000415 	stw	zero,16(sp)
   24f0c:	003ff706 	br	24eec <_strtod_l+0xe04>
   24f10:	d8000815 	stw	zero,32(sp)
   24f14:	003e6106 	br	2489c <_strtod_l+0x7b4>
   24f18:	01cff434 	movhi	r7,16336
   24f1c:	318d6544 	addi	r6,r6,13717
   24f20:	39ffffc4 	addi	r7,r7,-1
   24f24:	1009883a 	mov	r4,r2
   24f28:	180b883a 	mov	r5,r3
   24f2c:	00305880 	call	30588 <__ledf2>
   24f30:	103f050e 	bge	r2,zero,24b48 <_strtod_l+0xa60>
   24f34:	003fc106 	br	24e3c <_strtod_l+0xd54>
   24f38:	9d05c83a 	sub	r2,r19,r20
   24f3c:	10bffa90 	cmplti	r2,r2,-22
   24f40:	103df11e 	bne	r2,zero,24708 <_strtod_l+0x620>
   24f44:	a4c5c83a 	sub	r2,r20,r19
   24f48:	100690fa 	slli	r3,r2,3
   24f4c:	008000f4 	movhi	r2,3
   24f50:	10932404 	addi	r2,r2,19600
   24f54:	10c5883a 	add	r2,r2,r3
   24f58:	11800017 	ldw	r6,0(r2)
   24f5c:	11c00117 	ldw	r7,4(r2)
   24f60:	9009883a 	mov	r4,r18
   24f64:	880b883a 	mov	r5,r17
   24f68:	002fbb80 	call	2fbb8 <__divdf3>
   24f6c:	102d883a 	mov	r22,r2
   24f70:	182b883a 	mov	r21,r3
   24f74:	003dd606 	br	246d0 <_strtod_l+0x5e8>
   24f78:	002b883a 	mov	r21,zero
   24f7c:	0029883a 	mov	r20,zero
   24f80:	01400044 	movi	r5,1
   24f84:	003cd006 	br	242c8 <_strtod_l+0x1e0>
   24f88:	94801ba0 	cmpeqi	r18,r18,110
   24f8c:	903dc21e 	bne	r18,zero,24698 <_strtod_l+0x5b0>
   24f90:	003ccf06 	br	242d0 <_strtod_l+0x1e8>
   24f94:	b03e3126 	beq	r22,zero,2485c <_strtod_l+0x774>
   24f98:	05adc83a 	sub	r22,zero,r22
   24f9c:	b08003cc 	andi	r2,r22,15
   24fa0:	10000d26 	beq	r2,zero,24fd8 <_strtod_l+0xef0>
   24fa4:	100490fa 	slli	r2,r2,3
   24fa8:	00c000f4 	movhi	r3,3
   24fac:	18d32404 	addi	r3,r3,19600
   24fb0:	1885883a 	add	r2,r3,r2
   24fb4:	11800017 	ldw	r6,0(r2)
   24fb8:	11c00117 	ldw	r7,4(r2)
   24fbc:	9009883a 	mov	r4,r18
   24fc0:	880b883a 	mov	r5,r17
   24fc4:	da000515 	stw	r8,20(sp)
   24fc8:	002fbb80 	call	2fbb8 <__divdf3>
   24fcc:	da000517 	ldw	r8,20(sp)
   24fd0:	1025883a 	mov	r18,r2
   24fd4:	1823883a 	mov	r17,r3
   24fd8:	b02dd13a 	srai	r22,r22,4
   24fdc:	b03e1f26 	beq	r22,zero,2485c <_strtod_l+0x774>
   24fe0:	b0800808 	cmpgei	r2,r22,32
   24fe4:	1000361e 	bne	r2,zero,250c0 <_strtod_l+0xfd8>
   24fe8:	b080040c 	andi	r2,r22,16
   24fec:	d8801015 	stw	r2,64(sp)
   24ff0:	10000226 	beq	r2,zero,24ffc <_strtod_l+0xf14>
   24ff4:	00801a84 	movi	r2,106
   24ff8:	d8801015 	stw	r2,64(sp)
   24ffc:	024000f4 	movhi	r9,3
   25000:	4a526b04 	addi	r9,r9,18860
   25004:	880b883a 	mov	r5,r17
   25008:	dc000615 	stw	r16,24(sp)
   2500c:	9009883a 	mov	r4,r18
   25010:	b021883a 	mov	r16,r22
   25014:	0007883a 	mov	r3,zero
   25018:	882d883a 	mov	r22,r17
   2501c:	da000515 	stw	r8,20(sp)
   25020:	4823883a 	mov	r17,r9
   25024:	8080004c 	andi	r2,r16,1
   25028:	8021d07a 	srai	r16,r16,1
   2502c:	10000626 	beq	r2,zero,25048 <_strtod_l+0xf60>
   25030:	89800017 	ldw	r6,0(r17)
   25034:	89c00117 	ldw	r7,4(r17)
   25038:	00306780 	call	30678 <__muldf3>
   2503c:	180b883a 	mov	r5,r3
   25040:	1009883a 	mov	r4,r2
   25044:	00c00044 	movi	r3,1
   25048:	8c400204 	addi	r17,r17,8
   2504c:	803ff51e 	bne	r16,zero,25024 <_strtod_l+0xf3c>
   25050:	18c03fcc 	andi	r3,r3,255
   25054:	da000517 	ldw	r8,20(sp)
   25058:	dc000617 	ldw	r16,24(sp)
   2505c:	b023883a 	mov	r17,r22
   25060:	18000226 	beq	r3,zero,2506c <_strtod_l+0xf84>
   25064:	2025883a 	mov	r18,r4
   25068:	2823883a 	mov	r17,r5
   2506c:	d8801017 	ldw	r2,64(sp)
   25070:	10000b26 	beq	r2,zero,250a0 <_strtod_l+0xfb8>
   25074:	8804d53a 	srli	r2,r17,20
   25078:	10c1ffcc 	andi	r3,r2,2047
   2507c:	00801ac4 	movi	r2,107
   25080:	10c5c83a 	sub	r2,r2,r3
   25084:	0080060e 	bge	zero,r2,250a0 <_strtod_l+0xfb8>
   25088:	10c00810 	cmplti	r3,r2,32
   2508c:	18013d1e 	bne	r3,zero,25584 <_strtod_l+0x149c>
   25090:	10c00d50 	cmplti	r3,r2,53
   25094:	0025883a 	mov	r18,zero
   25098:	18015a1e 	bne	r3,zero,25604 <_strtod_l+0x151c>
   2509c:	0440dc34 	movhi	r17,880
   250a0:	000d883a 	mov	r6,zero
   250a4:	000f883a 	mov	r7,zero
   250a8:	9009883a 	mov	r4,r18
   250ac:	880b883a 	mov	r5,r17
   250b0:	da000515 	stw	r8,20(sp)
   250b4:	00304180 	call	30418 <__eqdf2>
   250b8:	da000517 	ldw	r8,20(sp)
   250bc:	103de81e 	bne	r2,zero,24860 <_strtod_l+0x778>
   250c0:	00800884 	movi	r2,34
   250c4:	80800015 	stw	r2,0(r16)
   250c8:	002d883a 	mov	r22,zero
   250cc:	002b883a 	mov	r21,zero
   250d0:	003d7f06 	br	246d0 <_strtod_l+0x5e8>
   250d4:	00800884 	movi	r2,34
   250d8:	80800015 	stw	r2,0(r16)
   250dc:	002d883a 	mov	r22,zero
   250e0:	055ffc34 	movhi	r21,32752
   250e4:	003d7a06 	br	246d0 <_strtod_l+0x5e8>
   250e8:	d8800417 	ldw	r2,16(sp)
   250ec:	018000f4 	movhi	r6,3
   250f0:	dd000215 	stw	r20,8(sp)
   250f4:	d8800115 	stw	r2,4(sp)
   250f8:	d8801304 	addi	r2,sp,76
   250fc:	d8800015 	stw	r2,0(sp)
   25100:	d9c01404 	addi	r7,sp,80
   25104:	31926604 	addi	r6,r6,18840
   25108:	d9401204 	addi	r5,sp,72
   2510c:	8009883a 	mov	r4,r16
   25110:	002a7ac0 	call	2a7ac <__gethex>
   25114:	14c001cc 	andi	r19,r2,7
   25118:	983d6b26 	beq	r19,zero,246c8 <_strtod_l+0x5e0>
   2511c:	98c00198 	cmpnei	r3,r19,6
   25120:	1800351e 	bne	r3,zero,251f8 <_strtod_l+0x1110>
   25124:	d8800317 	ldw	r2,12(sp)
   25128:	103c6d26 	beq	r2,zero,242e0 <_strtod_l+0x1f8>
   2512c:	15c00015 	stw	r23,0(r2)
   25130:	002d883a 	mov	r22,zero
   25134:	002b883a 	mov	r21,zero
   25138:	003c6b06 	br	242e8 <_strtod_l+0x200>
   2513c:	902d883a 	mov	r22,r18
   25140:	882b883a 	mov	r21,r17
   25144:	003d6206 	br	246d0 <_strtod_l+0x5e8>
   25148:	102f883a 	mov	r23,r2
   2514c:	18c00248 	cmpgei	r3,r3,9
   25150:	183c9826 	beq	r3,zero,243b4 <_strtod_l+0x2cc>
   25154:	b8800448 	cmpgei	r2,r23,17
   25158:	10008c1e 	bne	r2,zero,2538c <_strtod_l+0x12a4>
   2515c:	4a4002a4 	muli	r9,r9,10
   25160:	0005883a 	mov	r2,zero
   25164:	3253883a 	add	r9,r6,r9
   25168:	003c9506 	br	243c0 <_strtod_l+0x2d8>
   2516c:	a80b883a 	mov	r5,r21
   25170:	e009883a 	mov	r4,fp
   25174:	d9800515 	stw	r6,20(sp)
   25178:	002cd880 	call	2cd88 <strncmp>
   2517c:	d9800517 	ldw	r6,20(sp)
   25180:	10005026 	beq	r2,zero,252c4 <_strtod_l+0x11dc>
   25184:	002b883a 	mov	r21,zero
   25188:	0013883a 	mov	r9,zero
   2518c:	0011883a 	mov	r8,zero
   25190:	002f883a 	mov	r23,zero
   25194:	003cc506 	br	244ac <_strtod_l+0x3c4>
   25198:	98d38810 	cmplti	r3,r19,20000
   2519c:	183d301e 	bne	r3,zero,24660 <_strtod_l+0x578>
   251a0:	003d2e06 	br	2465c <_strtod_l+0x574>
   251a4:	1813883a 	mov	r9,r3
   251a8:	003e4d06 	br	24ae0 <_strtod_l+0x9f8>
   251ac:	014000f4 	movhi	r5,3
   251b0:	29525d04 	addi	r5,r5,18804
   251b4:	d9001204 	addi	r4,sp,72
   251b8:	002afe80 	call	2afe8 <__match>
   251bc:	103c4426 	beq	r2,zero,242d0 <_strtod_l+0x1e8>
   251c0:	d8801217 	ldw	r2,72(sp)
   251c4:	014000f4 	movhi	r5,3
   251c8:	29525e04 	addi	r5,r5,18808
   251cc:	10bfffc4 	addi	r2,r2,-1
   251d0:	d9001204 	addi	r4,sp,72
   251d4:	d8801215 	stw	r2,72(sp)
   251d8:	002afe80 	call	2afe8 <__match>
   251dc:	103fbf1e 	bne	r2,zero,250dc <_strtod_l+0xff4>
   251e0:	d8801217 	ldw	r2,72(sp)
   251e4:	10800044 	addi	r2,r2,1
   251e8:	d8801215 	stw	r2,72(sp)
   251ec:	003fbb06 	br	250dc <_strtod_l+0xff4>
   251f0:	0005883a 	mov	r2,zero
   251f4:	003c6606 	br	24390 <_strtod_l+0x2a8>
   251f8:	d9801317 	ldw	r6,76(sp)
   251fc:	30000826 	beq	r6,zero,25220 <_strtod_l+0x1138>
   25200:	01400d44 	movi	r5,53
   25204:	d9001504 	addi	r4,sp,84
   25208:	d8800515 	stw	r2,20(sp)
   2520c:	002c63c0 	call	2c63c <__copybits>
   25210:	d9401317 	ldw	r5,76(sp)
   25214:	8009883a 	mov	r4,r16
   25218:	002b7100 	call	2b710 <_Bfree>
   2521c:	d8800517 	ldw	r2,20(sp)
   25220:	98c001e8 	cmpgeui	r3,r19,7
   25224:	1800151e 	bne	r3,zero,2527c <_strtod_l+0x1194>
   25228:	982690ba 	slli	r19,r19,2
   2522c:	00c000b4 	movhi	r3,2
   25230:	98c7883a 	add	r3,r19,r3
   25234:	18d48f17 	ldw	r3,21052(r3)
   25238:	1800683a 	jmp	r3
   2523c:	0002527c 	xorhi	zero,zero,2377
   25240:	00025258 	cmpnei	zero,zero,2377
   25244:	000252b8 	rdprs	zero,zero,2378
   25248:	000252ac 	andhi	zero,zero,2378
   2524c:	0002529c 	xori	zero,zero,2378
   25250:	00025258 	cmpnei	zero,zero,2377
   25254:	00025290 	cmplti	zero,zero,2378
   25258:	d8c01417 	ldw	r3,80(sp)
   2525c:	dc401617 	ldw	r17,88(sp)
   25260:	013ffc34 	movhi	r4,65520
   25264:	18c10cc4 	addi	r3,r3,1075
   25268:	1806953a 	slli	r3,r3,20
   2526c:	213fffc4 	addi	r4,r4,-1
   25270:	dc801517 	ldw	r18,84(sp)
   25274:	8922703a 	and	r17,r17,r4
   25278:	88e2b03a 	or	r17,r17,r3
   2527c:	1080020c 	andi	r2,r2,8
   25280:	902d883a 	mov	r22,r18
   25284:	103fae26 	beq	r2,zero,25140 <_strtod_l+0x1058>
   25288:	8d600034 	orhi	r21,r17,32768
   2528c:	003d1006 	br	246d0 <_strtod_l+0x5e8>
   25290:	0023883a 	mov	r17,zero
   25294:	0025883a 	mov	r18,zero
   25298:	003ff806 	br	2527c <_strtod_l+0x1194>
   2529c:	04600034 	movhi	r17,32768
   252a0:	8c7fffc4 	addi	r17,r17,-1
   252a4:	04bfffc4 	movi	r18,-1
   252a8:	003ff406 	br	2527c <_strtod_l+0x1194>
   252ac:	045ffc34 	movhi	r17,32752
   252b0:	0025883a 	mov	r18,zero
   252b4:	003ff106 	br	2527c <_strtod_l+0x1194>
   252b8:	dc801517 	ldw	r18,84(sp)
   252bc:	dc401617 	ldw	r17,88(sp)
   252c0:	003fee06 	br	2527c <_strtod_l+0x1194>
   252c4:	e18d883a 	add	r6,fp,r6
   252c8:	d9801215 	stw	r6,72(sp)
   252cc:	34800007 	ldb	r18,0(r6)
   252d0:	0011883a 	mov	r8,zero
   252d4:	0013883a 	mov	r9,zero
   252d8:	003c2206 	br	24364 <_strtod_l+0x27c>
   252dc:	d8800917 	ldw	r2,36(sp)
   252e0:	900d883a 	mov	r6,r18
   252e4:	880f883a 	mov	r7,r17
   252e8:	100690fa 	slli	r3,r2,3
   252ec:	008000f4 	movhi	r2,3
   252f0:	10932404 	addi	r2,r2,19600
   252f4:	10c5883a 	add	r2,r2,r3
   252f8:	11000017 	ldw	r4,0(r2)
   252fc:	11400117 	ldw	r5,4(r2)
   25300:	00306780 	call	30678 <__muldf3>
   25304:	102d883a 	mov	r22,r2
   25308:	182b883a 	mov	r21,r3
   2530c:	003cf006 	br	246d0 <_strtod_l+0x5e8>
   25310:	b82b883a 	mov	r21,r23
   25314:	0029883a 	mov	r20,zero
   25318:	003c2c06 	br	243cc <_strtod_l+0x2e4>
   2531c:	0011883a 	mov	r8,zero
   25320:	026ff834 	movhi	r9,49120
   25324:	d8000c15 	stw	zero,48(sp)
   25328:	058ff834 	movhi	r22,16352
   2532c:	003dce06 	br	24a68 <_strtod_l+0x980>
   25330:	008003c4 	movi	r2,15
   25334:	15efc83a 	sub	r23,r2,r23
   25338:	b80490fa 	slli	r2,r23,3
   2533c:	040000f4 	movhi	r16,3
   25340:	84132404 	addi	r16,r16,19600
   25344:	8085883a 	add	r2,r16,r2
   25348:	11000017 	ldw	r4,0(r2)
   2534c:	11400117 	ldw	r5,4(r2)
   25350:	900d883a 	mov	r6,r18
   25354:	880f883a 	mov	r7,r17
   25358:	00306780 	call	30678 <__muldf3>
   2535c:	d9000917 	ldw	r4,36(sp)
   25360:	180b883a 	mov	r5,r3
   25364:	25efc83a 	sub	r23,r4,r23
   25368:	b80c90fa 	slli	r6,r23,3
   2536c:	1009883a 	mov	r4,r2
   25370:	81a1883a 	add	r16,r16,r6
   25374:	81800017 	ldw	r6,0(r16)
   25378:	81c00117 	ldw	r7,4(r16)
   2537c:	00306780 	call	30678 <__muldf3>
   25380:	102d883a 	mov	r22,r2
   25384:	182b883a 	mov	r21,r3
   25388:	003cd106 	br	246d0 <_strtod_l+0x5e8>
   2538c:	0005883a 	mov	r2,zero
   25390:	003c0b06 	br	243c0 <_strtod_l+0x2d8>
   25394:	d9000617 	ldw	r4,24(sp)
   25398:	00c00434 	movhi	r3,16
   2539c:	18ffffc4 	addi	r3,r3,-1
   253a0:	dd800b17 	ldw	r22,44(sp)
   253a4:	dd400a17 	ldw	r21,40(sp)
   253a8:	88c4703a 	and	r2,r17,r3
   253ac:	20004926 	beq	r4,zero,254d4 <_strtod_l+0x13ec>
   253b0:	10c07826 	beq	r2,r3,25594 <_strtod_l+0x14ac>
   253b4:	d8800e17 	ldw	r2,56(sp)
   253b8:	10004a26 	beq	r2,zero,254e4 <_strtod_l+0x13fc>
   253bc:	1444703a 	and	r2,r2,r17
   253c0:	10000d26 	beq	r2,zero,253f8 <_strtod_l+0x1310>
   253c4:	d8800617 	ldw	r2,24(sp)
   253c8:	d9801017 	ldw	r6,64(sp)
   253cc:	9009883a 	mov	r4,r18
   253d0:	880b883a 	mov	r5,r17
   253d4:	10005726 	beq	r2,zero,25534 <_strtod_l+0x144c>
   253d8:	00240840 	call	24084 <sulp>
   253dc:	100d883a 	mov	r6,r2
   253e0:	180f883a 	mov	r7,r3
   253e4:	9009883a 	mov	r4,r18
   253e8:	880b883a 	mov	r5,r17
   253ec:	00219000 	call	21900 <__adddf3>
   253f0:	102d883a 	mov	r22,r2
   253f4:	182b883a 	mov	r21,r3
   253f8:	d8801017 	ldw	r2,64(sp)
   253fc:	da401317 	ldw	r9,76(sp)
   25400:	103e9126 	beq	r2,zero,24e48 <_strtod_l+0xd60>
   25404:	b009883a 	mov	r4,r22
   25408:	a80b883a 	mov	r5,r21
   2540c:	000d883a 	mov	r6,zero
   25410:	01ce5434 	movhi	r7,14672
   25414:	da400515 	stw	r9,20(sp)
   25418:	00306780 	call	30678 <__muldf3>
   2541c:	102d883a 	mov	r22,r2
   25420:	1884b03a 	or	r2,r3,r2
   25424:	da400517 	ldw	r9,20(sp)
   25428:	182b883a 	mov	r21,r3
   2542c:	103e861e 	bne	r2,zero,24e48 <_strtod_l+0xd60>
   25430:	00800884 	movi	r2,34
   25434:	80800015 	stw	r2,0(r16)
   25438:	003e8306 	br	24e48 <_strtod_l+0xd60>
   2543c:	0440d434 	movhi	r17,848
   25440:	1c63883a 	add	r17,r3,r17
   25444:	d8001015 	stw	zero,64(sp)
   25448:	003d0506 	br	24860 <_strtod_l+0x778>
   2544c:	d8800617 	ldw	r2,24(sp)
   25450:	dd800b17 	ldw	r22,44(sp)
   25454:	dd400a17 	ldw	r21,40(sp)
   25458:	14a4b03a 	or	r18,r2,r18
   2545c:	903fe61e 	bne	r18,zero,253f8 <_strtod_l+0x1310>
   25460:	00800434 	movhi	r2,16
   25464:	10bfffc4 	addi	r2,r2,-1
   25468:	8884703a 	and	r2,r17,r2
   2546c:	103fe21e 	bne	r2,zero,253f8 <_strtod_l+0x1310>
   25470:	8c5ffc2c 	andhi	r17,r17,32752
   25474:	0081ac34 	movhi	r2,1712
   25478:	147fdf2e 	bgeu	r2,r17,253f8 <_strtod_l+0x1310>
   2547c:	b8800517 	ldw	r2,20(r23)
   25480:	1000031e 	bne	r2,zero,25490 <_strtod_l+0x13a8>
   25484:	b8800417 	ldw	r2,16(r23)
   25488:	10800090 	cmplti	r2,r2,2
   2548c:	103fda1e 	bne	r2,zero,253f8 <_strtod_l+0x1310>
   25490:	b80b883a 	mov	r5,r23
   25494:	8009883a 	mov	r4,r16
   25498:	01800044 	movi	r6,1
   2549c:	002be540 	call	2be54 <__lshift>
   254a0:	980b883a 	mov	r5,r19
   254a4:	1009883a 	mov	r4,r2
   254a8:	102f883a 	mov	r23,r2
   254ac:	002bfdc0 	call	2bfdc <__mcmp>
   254b0:	00bfd10e 	bge	zero,r2,253f8 <_strtod_l+0x1310>
   254b4:	d8801017 	ldw	r2,64(sp)
   254b8:	10004b26 	beq	r2,zero,255e8 <_strtod_l+0x1500>
   254bc:	0081ac34 	movhi	r2,1712
   254c0:	14404916 	blt	r2,r17,255e8 <_strtod_l+0x1500>
   254c4:	0080dc34 	movhi	r2,880
   254c8:	1440280e 	bge	r2,r17,2556c <_strtod_l+0x1484>
   254cc:	da401317 	ldw	r9,76(sp)
   254d0:	003fcc06 	br	25404 <_strtod_l+0x131c>
   254d4:	1484b03a 	or	r2,r2,r18
   254d8:	103fb61e 	bne	r2,zero,253b4 <_strtod_l+0x12cc>
   254dc:	8c5ffc2c 	andhi	r17,r17,32752
   254e0:	003ff406 	br	254b4 <_strtod_l+0x13cc>
   254e4:	d8800c17 	ldw	r2,48(sp)
   254e8:	14b8703a 	and	fp,r2,r18
   254ec:	e03fc226 	beq	fp,zero,253f8 <_strtod_l+0x1310>
   254f0:	003fb406 	br	253c4 <_strtod_l+0x12dc>
   254f4:	008000f4 	movhi	r2,3
   254f8:	10931a04 	addi	r2,r2,19560
   254fc:	002d883a 	mov	r22,zero
   25500:	d8800515 	stw	r2,20(sp)
   25504:	003cbf06 	br	24804 <_strtod_l+0x71c>
   25508:	014000f4 	movhi	r5,3
   2550c:	d9801504 	addi	r6,sp,84
   25510:	29526104 	addi	r5,r5,18820
   25514:	d9001204 	addi	r4,sp,72
   25518:	002b0380 	call	2b038 <__hexnan>
   2551c:	10800158 	cmpnei	r2,r2,5
   25520:	103c661e 	bne	r2,zero,246bc <_strtod_l+0x5d4>
   25524:	dd401617 	ldw	r21,88(sp)
   25528:	dd801517 	ldw	r22,84(sp)
   2552c:	ad5ffc34 	orhi	r21,r21,32752
   25530:	003c6706 	br	246d0 <_strtod_l+0x5e8>
   25534:	00240840 	call	24084 <sulp>
   25538:	100d883a 	mov	r6,r2
   2553c:	180f883a 	mov	r7,r3
   25540:	9009883a 	mov	r4,r18
   25544:	880b883a 	mov	r5,r17
   25548:	0030ce80 	call	30ce8 <__subdf3>
   2554c:	000d883a 	mov	r6,zero
   25550:	000f883a 	mov	r7,zero
   25554:	1009883a 	mov	r4,r2
   25558:	180b883a 	mov	r5,r3
   2555c:	102d883a 	mov	r22,r2
   25560:	182b883a 	mov	r21,r3
   25564:	00304180 	call	30418 <__eqdf2>
   25568:	103fa31e 	bne	r2,zero,253f8 <_strtod_l+0x1310>
   2556c:	00800884 	movi	r2,34
   25570:	da401317 	ldw	r9,76(sp)
   25574:	80800015 	stw	r2,0(r16)
   25578:	002d883a 	mov	r22,zero
   2557c:	002b883a 	mov	r21,zero
   25580:	003e3106 	br	24e48 <_strtod_l+0xd60>
   25584:	00ffffc4 	movi	r3,-1
   25588:	1884983a 	sll	r2,r3,r2
   2558c:	14a4703a 	and	r18,r2,r18
   25590:	003ec306 	br	250a0 <_strtod_l+0xfb8>
   25594:	d8801017 	ldw	r2,64(sp)
   25598:	10001126 	beq	r2,zero,255e0 <_strtod_l+0x14f8>
   2559c:	889ffc2c 	andhi	r2,r17,32752
   255a0:	00c1a834 	movhi	r3,1696
   255a4:	18800e36 	bltu	r3,r2,255e0 <_strtod_l+0x14f8>
   255a8:	1004d53a 	srli	r2,r2,20
   255ac:	00c01ac4 	movi	r3,107
   255b0:	1887c83a 	sub	r3,r3,r2
   255b4:	00bfffc4 	movi	r2,-1
   255b8:	10c4983a 	sll	r2,r2,r3
   255bc:	90bf7d1e 	bne	r18,r2,253b4 <_strtod_l+0x12cc>
   255c0:	009ffc34 	movhi	r2,32752
   255c4:	10bfffc4 	addi	r2,r2,-1
   255c8:	88801326 	beq	r17,r2,25618 <_strtod_l+0x1530>
   255cc:	8c5ffc2c 	andhi	r17,r17,32752
   255d0:	00800434 	movhi	r2,16
   255d4:	002d883a 	mov	r22,zero
   255d8:	88ab883a 	add	r21,r17,r2
   255dc:	003f8606 	br	253f8 <_strtod_l+0x1310>
   255e0:	00bfffc4 	movi	r2,-1
   255e4:	003ff506 	br	255bc <_strtod_l+0x14d4>
   255e8:	05400434 	movhi	r21,16
   255ec:	00bffc34 	movhi	r2,65520
   255f0:	88a3883a 	add	r17,r17,r2
   255f4:	ad7fffc4 	addi	r21,r21,-1
   255f8:	05bfffc4 	movi	r22,-1
   255fc:	8d6ab03a 	or	r21,r17,r21
   25600:	003f7d06 	br	253f8 <_strtod_l+0x1310>
   25604:	10bff804 	addi	r2,r2,-32
   25608:	00ffffc4 	movi	r3,-1
   2560c:	1884983a 	sll	r2,r3,r2
   25610:	1462703a 	and	r17,r2,r17
   25614:	003ea206 	br	250a0 <_strtod_l+0xfb8>
   25618:	94bfffd8 	cmpnei	r18,r18,-1
   2561c:	903feb1e 	bne	r18,zero,255cc <_strtod_l+0x14e4>
   25620:	003d7b06 	br	24c10 <_strtod_l+0xb28>
   25624:	b807883a 	mov	r3,r23
   25628:	202f883a 	mov	r23,r4
   2562c:	003ec706 	br	2514c <_strtod_l+0x1064>

00025630 <_strtod_r>:
   25630:	01c000f4 	movhi	r7,3
   25634:	39d62b04 	addi	r7,r7,22700
   25638:	00240e81 	jmpi	240e8 <_strtod_l>

0002563c <strtod_l>:
   2563c:	00c000f4 	movhi	r3,3
   25640:	2005883a 	mov	r2,r4
   25644:	191b1417 	ldw	r4,27728(r3)
   25648:	300f883a 	mov	r7,r6
   2564c:	280d883a 	mov	r6,r5
   25650:	100b883a 	mov	r5,r2
