
hello_sw.elf:     file format elf32-littlenios2
hello_sw.elf
architecture: nios2:r1, flags 0x00000112:
EXEC_P, HAS_SYMS, D_PAGED
start address 0x0002023c

Program Header:
    LOAD off    0x00001000 vaddr 0x00020000 paddr 0x00020000 align 2**12
         filesz 0x00000020 memsz 0x00000020 flags r-x
    LOAD off    0x00001020 vaddr 0x00020020 paddr 0x00020020 align 2**12
         filesz 0x00014ff0 memsz 0x00014ff0 flags r-x
    LOAD off    0x00016010 vaddr 0x00035010 paddr 0x00036c18 align 2**12
         filesz 0x00001c08 memsz 0x00001c08 flags rw-
    LOAD off    0x00018820 vaddr 0x00038820 paddr 0x00038820 align 2**12
         filesz 0x00000000 memsz 0x0000016c flags rw-

Sections:
Idx Name          Size      VMA       LMA       File off  Algn
  0 .entry        00000020  00020000  00020000  00001000  2**5
                  CONTENTS, ALLOC, LOAD, READONLY, CODE
  1 .exceptions   0000021c  00020020  00020020  00001020  2**2
                  CONTENTS, ALLOC, LOAD, READONLY, CODE
  2 .text         0001441c  0002023c  0002023c  0000123c  2**2
                  CONTENTS, ALLOC, LOAD, READONLY, CODE
  3 .rodata       000009b8  00034658  00034658  00015658  2**2
                  CONTENTS, ALLOC, LOAD, READONLY, DATA
  4 .rwdata       00001c08  00035010  00036c18  00016010  2**2
                  CONTENTS, ALLOC, LOAD, DATA, SMALL_DATA
  5 .bss          0000016c  00038820  00038820  00018820  2**2
                  ALLOC, SMALL_DATA
  6 .onchip_memory 00000000  0003898c  0003898c  00017c18  2**0
                  CONTENTS
  7 .comment      0000002c  00000000  00000000  00017c18  2**0
                  CONTENTS, READONLY
  8 .debug_aranges 00001540  00000000  00000000  00017c48  2**3
                  CONTENTS, READONLY, DEBUGGING
  9 .debug_info   00060e05  00000000  00000000  00019188  2**0
                  CONTENTS, READONLY, DEBUGGING
 10 .debug_abbrev 00014244  00000000  00000000  00079f8d  2**0
                  CONTENTS, READONLY, DEBUGGING
 11 .debug_line   00021291  00000000  00000000  0008e1d1  2**0
                  CONTENTS, READONLY, DEBUGGING
 12 .debug_frame  00002d30  00000000  00000000  000af464  2**2
                  CONTENTS, READONLY, DEBUGGING
 13 .debug_str    00004ef1  00000000  00000000  000b2194  2**0
                  CONTENTS, READONLY, DEBUGGING
 14 .debug_loc    00026000  00000000  00000000  000b7085  2**0
                  CONTENTS, READONLY, DEBUGGING
 15 .debug_alt_sim_info 00000030  00000000  00000000  000dd088  2**2
                  CONTENTS, READONLY, DEBUGGING
 16 .debug_ranges 00002548  00000000  00000000  000dd0b8  2**3
                  CONTENTS, READONLY, DEBUGGING
 17 .thread_model 00000003  00000000  00000000  000e3516  2**0
                  CONTENTS, READONLY
 18 .cpu          00000003  00000000  00000000  000e3519  2**0
                  CONTENTS, READONLY
 19 .qsys         00000001  00000000  00000000  000e351c  2**0
                  CONTENTS, READONLY
 20 .simulation_enabled 00000001  00000000  00000000  000e351d  2**0
                  CONTENTS, READONLY
 21 .sysid_hash   00000004  00000000  00000000  000e351e  2**0
                  CONTENTS, READONLY
 22 .sysid_base   00000004  00000000  00000000  000e3522  2**0
                  CONTENTS, READONLY
 23 .sysid_time   00000004  00000000  00000000  000e3526  2**0
                  CONTENTS, READONLY
 24 .stderr_dev   00000009  00000000  00000000  000e352a  2**0
                  CONTENTS, READONLY
 25 .stdin_dev    00000009  00000000  00000000  000e3533  2**0
                  CONTENTS, READONLY
 26 .stdout_dev   00000009  00000000  00000000  000e353c  2**0
                  CONTENTS, READONLY
 27 .sopc_system_name 00000012  00000000  00000000  000e3545  2**0
                  CONTENTS, READONLY
 28 .quartus_project_dir 00000020  00000000  00000000  000e3557  2**0
                  CONTENTS, READONLY
 29 .jdi          00004fec  00000000  00000000  000e3577  2**0
                  CONTENTS, READONLY
 30 .sopcinfo     00048eb2  00000000  00000000  000e8563  2**0
                  CONTENTS, READONLY
SYMBOL TABLE:
00020000 l    d  .entry	00000000 .entry
00020020 l    d  .exceptions	00000000 .exceptions
0002023c l    d  .text	00000000 .text
00034658 l    d  .rodata	00000000 .rodata
00035010 l    d  .rwdata	00000000 .rwdata
00038820 l    d  .bss	00000000 .bss
0003898c l    d  .onchip_memory	00000000 .onchip_memory
00000000 l    d  .comment	00000000 .comment
00000000 l    d  .debug_aranges	00000000 .debug_aranges
00000000 l    d  .debug_info	00000000 .debug_info
00000000 l    d  .debug_abbrev	00000000 .debug_abbrev
00000000 l    d  .debug_line	00000000 .debug_line
00000000 l    d  .debug_frame	00000000 .debug_frame
00000000 l    d  .debug_str	00000000 .debug_str
00000000 l    d  .debug_loc	00000000 .debug_loc
00000000 l    d  .debug_alt_sim_info	00000000 .debug_alt_sim_info
00000000 l    d  .debug_ranges	00000000 .debug_ranges
00000000 l    df *ABS*	00000000 /home/nik/eie/ip/lab4/jtag-uart-test/software/hello_sw_bsp//obj/HAL/src/crt0.o
00020284 l       .text	00000000 alt_after_alt_main
00000000 l    df *ABS*	00000000 alt_irq_handler.c
00000000 l    df *ABS*	00000000 alt_instruction_exception_entry.c
00000000 l    df *ABS*	00000000 hello_world.c
00000000 l    df *ABS*	00000000 s_round.c
00000000 l    df *ABS*	00000000 lib2-divmod.c
00000000 l    df *ABS*	00000000 addsf3.c
00000000 l    df *ABS*	00000000 mulsf3.c
00000000 l    df *ABS*	00000000 fixsfsi.c
00000000 l    df *ABS*	00000000 floatsisf.c
00000000 l    df *ABS*	00000000 adddf3.c
00000000 l    df *ABS*	00000000 fixdfsi.c
00000000 l    df *ABS*	00000000 floatsidf.c
00000000 l    df *ABS*	00000000 extendsfdf2.c
00000000 l    df *ABS*	00000000 truncdfsf2.c
00000000 l    df *ABS*	00000000 libgcc2.c
00000000 l    df *ABS*	00000000 libgcc2.c
00000000 l    df *ABS*	00000000 atof.c
00000000 l    df *ABS*	00000000 calloc.c
00000000 l    df *ABS*	00000000 mallocr.c
00000000 l    df *ABS*	00000000 fflush.c
00000000 l    df *ABS*	00000000 findfp.c
00022ae8 l     F .text	00000008 __fp_lock
00022afc l     F .text	00000168 __sinit.part.0
00022c64 l     F .text	00000008 __fp_unlock
00000000 l    df *ABS*	00000000 fopen.c
00000000 l    df *ABS*	00000000 fprintf.c
00000000 l    df *ABS*	00000000 mallocr.c
00000000 l    df *ABS*	00000000 fseek.c
00000000 l    df *ABS*	00000000 fseeko.c
00000000 l    df *ABS*	00000000 fstatr.c
00000000 l    df *ABS*	00000000 fwalk.c
00000000 l    df *ABS*	00000000 fwrite.c
00000000 l    df *ABS*	00000000 getc.c
00000000 l    df *ABS*	00000000 impure.c
00035010 l     O .rwdata	00000424 impure_data
00000000 l    df *ABS*	00000000 int_errno.c
00000000 l    df *ABS*	00000000 makebuf.c
00000000 l    df *ABS*	00000000 malloc.c
00000000 l    df *ABS*	00000000 mallocr.c
00000000 l    df *ABS*	00000000 memcpy.c
00000000 l    df *ABS*	00000000 memset.c
00000000 l    df *ABS*	00000000 openr.c
00000000 l    df *ABS*	00000000 refill.c
000247f8 l     F .text	0000001c lflush
00000000 l    df *ABS*	00000000 rget.c
00000000 l    df *ABS*	00000000 sbrkr.c
00000000 l    df *ABS*	00000000 stdio.c
00000000 l    df *ABS*	00000000 strtod.c
00024bfc l     F .text	00000064 sulp
0003493c l     O .rodata	00000028 tinytens
00034928 l     O .rodata	00000014 fpi.4065
00034914 l     O .rodata	00000014 fpinan.4101
00000000 l    df *ABS*	00000000 vfprintf.c
00028564 l     F .text	000000c0 __sbprintf
000349b8 l     O .rodata	00000010 blanks.5176
000349a8 l     O .rodata	00000010 zeroes.5177
00000000 l    df *ABS*	00000000 writer.c
00000000 l    df *ABS*	00000000 wsetup.c
00000000 l    df *ABS*	00000000 closer.c
00000000 l    df *ABS*	00000000 dtoa.c
0002883c l     F .text	000001fc quorem
00000000 l    df *ABS*	00000000 fclose.c
00000000 l    df *ABS*	00000000 flags.c
00000000 l    df *ABS*	00000000 fvwrite.c
00000000 l    df *ABS*	00000000 gdtoa-gethex.c
0002a804 l     F .text	000000dc rshift
00000000 l    df *ABS*	00000000 gdtoa-hexnan.c
00000000 l    df *ABS*	00000000 isattyr.c
00000000 l    df *ABS*	00000000 lnumeric.c
00036bec l     O .rwdata	00000002 numempty
00000000 l    df *ABS*	00000000 locale.c
00000000 l    df *ABS*	00000000 localeconv.c
00000000 l    df *ABS*	00000000 lseekr.c
00000000 l    df *ABS*	00000000 mbtowc_r.c
00000000 l    df *ABS*	00000000 memchr.c
00000000 l    df *ABS*	00000000 memmove.c
00000000 l    df *ABS*	00000000 mprec.c
00034bc4 l     O .rodata	0000000c p05.3991
00000000 l    df *ABS*	00000000 readr.c
00000000 l    df *ABS*	00000000 mallocr.c
00000000 l    df *ABS*	00000000 strcmp.c
00000000 l    df *ABS*	00000000 strlen.c
00000000 l    df *ABS*	00000000 strncmp.c
00000000 l    df *ABS*	00000000 vfprintf.c
0002d018 l     F .text	000000f4 __sprint_r.part.0
0002e444 l     F .text	000000c0 __sbprintf
00034cf8 l     O .rodata	00000010 blanks.5153
00034ce8 l     O .rodata	00000010 zeroes.5154
00000000 l    df *ABS*	00000000 wctomb_r.c
00000000 l    df *ABS*	00000000 assert.c
00000000 l    df *ABS*	00000000 ctype_.c
00000000 l    df *ABS*	00000000 fiprintf.c
00000000 l    df *ABS*	00000000 fputwc.c
00000000 l    df *ABS*	00000000 vfiprintfr_1.c
00000000 l    df *ABS*	00000000 wbuf.c
00000000 l    df *ABS*	00000000 wcrtomb.c
00000000 l    df *ABS*	00000000 abort.c
00000000 l    df *ABS*	00000000 signal.c
0002ea80 l     F .text	0000004c _init_signal_r.part.0
00000000 l    df *ABS*	00000000 signalr.c
00000000 l    df *ABS*	00000000 libgcc2.c
00000000 l    df *ABS*	00000000 libgcc2.c
00000000 l    df *ABS*	00000000 libgcc2.c
00000000 l    df *ABS*	00000000 libgcc2.c
00000000 l    df *ABS*	00000000 libgcc2.c
00000000 l    df *ABS*	00000000 libgcc2.c
00000000 l    df *ABS*	00000000 eqsf2.c
00000000 l    df *ABS*	00000000 lesf2.c
00000000 l    df *ABS*	00000000 unordsf2.c
00000000 l    df *ABS*	00000000 divdf3.c
00000000 l    df *ABS*	00000000 eqdf2.c
00000000 l    df *ABS*	00000000 gedf2.c
00000000 l    df *ABS*	00000000 ledf2.c
00000000 l    df *ABS*	00000000 muldf3.c
00000000 l    df *ABS*	00000000 subdf3.c
00000000 l    df *ABS*	00000000 unorddf2.c
00000000 l    df *ABS*	00000000 floatunsidf.c
00000000 l    df *ABS*	00000000 alt_close.c
00031710 l     F .text	0000003c alt_get_errno
00000000 l    df *ABS*	00000000 alt_dev.c
0003181c l     F .text	0000002c alt_dev_null_write
00000000 l    df *ABS*	00000000 alt_errno.c
00000000 l    df *ABS*	00000000 alt_exit.c
00000000 l    df *ABS*	00000000 alt_fstat.c
00031880 l     F .text	0000003c alt_get_errno
00000000 l    df *ABS*	00000000 alt_getpid.c
00000000 l    df *ABS*	00000000 alt_irq_register.c
00000000 l    df *ABS*	00000000 alt_irq_vars.c
00000000 l    df *ABS*	00000000 alt_isatty.c
00031b0c l     F .text	0000003c alt_get_errno
00000000 l    df *ABS*	00000000 alt_kill.c
00031bec l     F .text	0000003c alt_get_errno
00000000 l    df *ABS*	00000000 alt_load.c
00031d54 l     F .text	00000068 alt_load_section
00000000 l    df *ABS*	00000000 alt_lseek.c
00031e40 l     F .text	0000003c alt_get_errno
00000000 l    df *ABS*	00000000 alt_main.c
00000000 l    df *ABS*	00000000 alt_malloc_lock.c
00000000 l    df *ABS*	00000000 alt_open.c
00032014 l     F .text	0000003c alt_get_errno
00032050 l     F .text	000000b8 alt_file_locked
00000000 l    df *ABS*	00000000 alt_printf.c
00000000 l    df *ABS*	00000000 alt_putchar.c
00000000 l    df *ABS*	00000000 alt_read.c
000324b8 l     F .text	0000003c alt_get_errno
00000000 l    df *ABS*	00000000 alt_release_fd.c
00000000 l    df *ABS*	00000000 alt_sbrk.c
00036c0c l     O .rwdata	00000004 heap_end
00000000 l    df *ABS*	00000000 alt_write.c
00032700 l     F .text	0000003c alt_get_errno
00000000 l    df *ABS*	00000000 alt_sys_init.c
00032834 l     F .text	00000034 alt_dev_reg
00035b50 l     O .rwdata	00001060 jtag_uart
00036bb0 l     O .rwdata	0000002c accelerometer_spi
00000000 l    df *ABS*	00000000 altera_avalon_jtag_uart_fd.c
00000000 l    df *ABS*	00000000 altera_avalon_jtag_uart_init.c
00032b44 l     F .text	00000210 altera_avalon_jtag_uart_irq
00032d54 l     F .text	000000a0 altera_avalon_jtag_uart_timeout
00000000 l    df *ABS*	00000000 altera_avalon_jtag_uart_ioctl.c
00000000 l    df *ABS*	00000000 altera_avalon_jtag_uart_read.c
00000000 l    df *ABS*	00000000 altera_avalon_jtag_uart_write.c
00000000 l    df *ABS*	00000000 altera_avalon_timer_sc.c
00033398 l     F .text	00000080 alt_avalon_timer_sc_irq
00000000 l    df *ABS*	00000000 altera_avalon_timer_vars.c
00000000 l    df *ABS*	00000000 altera_up_avalon_accelerometer_spi.c
00000000 l    df *ABS*	00000000 alt_alarm_start.c
00000000 l    df *ABS*	00000000 alt_dcache_flush_all.c
00000000 l    df *ABS*	00000000 alt_dev_llist_insert.c
000339e0 l     F .text	0000003c alt_get_errno
00000000 l    df *ABS*	00000000 alt_do_ctors.c
00000000 l    df *ABS*	00000000 alt_do_dtors.c
00000000 l    df *ABS*	00000000 alt_find_dev.c
00000000 l    df *ABS*	00000000 alt_find_file.c
00000000 l    df *ABS*	00000000 alt_get_fd.c
00000000 l    df *ABS*	00000000 alt_icache_flush_all.c
00000000 l    df *ABS*	00000000 alt_io_redirect.c
00033df8 l     F .text	000000b0 alt_open_fd
00000000 l    df *ABS*	00000000 alt_tick.c
00000000 l    df *ABS*	00000000 altera_nios2_gen2_irq.c
00000000 l    df *ABS*	00000000 alt_icache_flush.c
00000000 l    df *ABS*	00000000 atexit.c
00000000 l    df *ABS*	00000000 exit.c
00000000 l    df *ABS*	00000000 memcmp.c
00000000 l    df *ABS*	00000000 putchar.c
00000000 l    df *ABS*	00000000 __atexit.c
00000000 l    df *ABS*	00000000 __call_atexit.c
00000000 l    df *ABS*	00000000 putc.c
00038860 g     O .bss	00000004 alt_instruction_exception_handler
000342e4 g     F .text	00000018 putchar
0002c700 g     F .text	00000070 _mprec_log10
0002c7dc g     F .text	00000060 __any_on
0002b3d4 g     F .text	00000058 _isatty_r
00034bd0 g     O .rodata	00000028 __mprec_tinytens
00031f50 g     F .text	0000007c alt_main
00020288 g     F .text	00000034 led_write
0003888c g     O .bss	00000100 alt_irq
0002b4ec g     F .text	00000064 _lseek_r
00036c18 g       *ABS*	00000000 __flash_rwdata_start
0002a290 g     F .text	000000b8 __sflags
00030428 g     F .text	00000080 .hidden __eqdf2
0003898c g       *ABS*	00000000 __alt_heap_start
0002ef10 g     F .text	00000070 .hidden __floatdidf
0002ed34 g     F .text	00000060 _kill_r
0002e974 g     F .text	0000006c _wcrtomb_r
0002eae0 g     F .text	00000084 _signal_r
00024b98 g     F .text	0000005c __sseek
00022de4 g     F .text	00000010 __sinit
0002e814 g     F .text	00000148 __swbuf_r
0002b434 g     F .text	00000074 _setlocale_r
00022c6c g     F .text	00000068 __sfmoreglue
00031ff0 g     F .text	00000024 __malloc_unlock
00020db8 g     F .text	000000e4 round
000261a8 g     F .text	0000000c _strtod_r
00038854 g     O .bss	00000004 altera_avalon_timer_ts_freq
0002b674 g     F .text	0000012c memmove
00022dd0 g     F .text	00000014 _cleanup
0002b7a0 g     F .text	000000a4 _Balloc
0002185c g     F .text	00000070 .hidden __fixsfsi
0002034c g     F .text	000000cc sys_timer_isr
000304a8 g     F .text	000000f0 .hidden __gtdf2
000340d0 g     F .text	00000024 altera_nios2_gen2_irq_init
00020000 g     F .entry	0000001c __reset
0002b4cc g     F .text	00000008 __localeconv_l
000335e4 g     F .text	000000d4 alt_up_accelerometer_spi_read_x_axis
00020020 g       *ABS*	00000000 __flash_exceptions_start
00023828 g     F .text	00000060 _fstat_r
0003882c g     O .bss	00000004 errno
00024a54 g     F .text	00000010 __srget
00024b10 g     F .text	00000008 __seofread
00038848 g     O .bss	00000004 alt_argv
0003ebdc g       *ABS*	00000000 _gp
0003196c g     F .text	00000020 getpid
000359d0 g     O .rwdata	00000180 alt_fd_list
00023ac0 g     F .text	0000007c _getc_r
00023b3c g     F .text	00000090 getc
000342dc g     F .text	00000008 _putchar_r
00033b8c g     F .text	00000090 alt_find_dev
000245a4 g     F .text	00000100 memcpy
0002b16c g     F .text	00000268 __hexnan
00022af0 g     F .text	0000000c _cleanup_r
000223e8 g     F .text	000000bc .hidden __floatsidf
00033ea8 g     F .text	0000007c alt_io_redirect
00030598 g     F .text	000000f0 .hidden __ltdf2
00034658 g       *ABS*	00000000 __DTOR_END__
00034184 g     F .text	00000098 alt_exception_cause_generated_bad_addr
0002c658 g     F .text	000000a8 __ratio
0002e428 g     F .text	0000001c __vfiprintf_internal
00032f50 g     F .text	00000220 altera_avalon_jtag_uart_read
00023da4 g     F .text	00000010 malloc
00020f90 g     F .text	00000064 .hidden __udivsi3
00031b48 g     F .text	000000a4 isatty
0002eb64 g     F .text	000000c4 _raise_r
0002e540 g     F .text	00000064 __assert_func
00034c20 g     O .rodata	000000c8 __mprec_tens
0002fabc g     F .text	000000c0 .hidden __lesf2
0002ed98 g     F .text	00000074 .hidden __fixunsdfsi
000340f4 g     F .text	00000090 alt_icache_flush
00038838 g     O .bss	00000004 __malloc_top_pad
0002ed94 g     F .text	00000004 _getpid_r
0002b4d4 g     F .text	0000000c _localeconv_r
0002bbec g     F .text	00000054 __i2b
0002a348 g     F .text	000004bc __sfvwrite_r
0002ec28 g     F .text	000000b8 __sigtramp_r
00024a64 g     F .text	00000058 _sbrk_r
0002c83c g     F .text	00000064 _read_r
00036c00 g     O .rwdata	00000004 alt_max_fd
0002a188 g     F .text	000000f8 _fclose_r
00022ac0 g     F .text	00000028 fflush
00038834 g     O .bss	00000004 __malloc_max_sbrked_mem
0003198c g     F .text	00000180 alt_irq_register
000224a4 g     F .text	000000fc .hidden __extendsfdf2
000219f0 g     F .text	00000978 .hidden __adddf3
0002fa44 g     F .text	00000078 .hidden __nesf2
0002c3f0 g     F .text	00000104 __b2d
0002f510 g     F .text	00000534 .hidden __umoddi3
00031e7c g     F .text	000000d4 lseek
00036bdc g     O .rwdata	00000004 _global_impure_ptr
0002c8a0 g     F .text	00000564 _realloc_r
0003898c g       *ABS*	00000000 __bss_end
00033fc8 g     F .text	00000108 alt_tick
00034a6c g     O .rodata	00000100 __hexdig
0002ef80 g     F .text	00000590 .hidden __udivdi3
0002e774 g     F .text	00000024 _fputwc_r
00034bf8 g     O .rodata	00000028 __mprec_bigtens
0002b9a0 g     F .text	00000138 __s2b
0002ea68 g     F .text	00000018 abort
00031680 g     F .text	00000090 .hidden __floatunsidf
0002c110 g     F .text	00000058 __mcmp
00022e04 g     F .text	00000014 __fp_lock_all
00033f24 g     F .text	000000a4 alt_alarm_stop
00038840 g     O .bss	00000004 alt_irq_active
000233b8 g     F .text	00000454 _fseeko_r
000200fc g     F .exceptions	000000cc alt_irq_handler
000359a8 g     O .rwdata	00000028 alt_dev_null
00024c60 g     F .text	00001548 _strtod_l
0002b11c g     F .text	00000050 __match
00033994 g     F .text	0000004c alt_dcache_flush_all
0002bad8 g     F .text	00000064 __hi0bits
0002276c g     F .text	00000018 calloc
00022368 g     F .text	00000080 .hidden __fixdfsi
000261d0 g     F .text	00000020 strtod
00036c18 g       *ABS*	00000000 __ram_rwdata_end
00020418 g     F .text	0000007c timer_init
00020000 g       *ABS*	00000000 __alt_mem_onchip_memory
00036bf8 g     O .rwdata	00000008 alt_dev_list
0003273c g     F .text	000000f8 write
000344ac g     F .text	000000cc _putc_r
00022764 g     F .text	00000008 atof
00035010 g       *ABS*	00000000 __ram_rodata_end
000318bc g     F .text	000000b0 fstat
00022f5c g     F .text	00000024 fprintf
00031c28 g     F .text	0000012c kill
00030598 g     F .text	000000f0 .hidden __ledf2
000261f0 g     F .text	00000120 strtof_l
0002be70 g     F .text	00000118 __pow5mult
00038824 g     O .bss	00000001 led
0002d124 g     F .text	00001304 ___vfiprintf_internal_r
00020ff4 g     F .text	0000005c .hidden __umodsi3
0003898c g       *ABS*	00000000 end
0002380c g     F .text	0000001c fseeko
0002339c g     F .text	0000001c fseek
00032a90 g     F .text	000000b4 altera_avalon_jtag_uart_init
000201c8 g     F .exceptions	00000074 alt_instruction_exception_entry
00034658 g       *ABS*	00000000 __CTOR_LIST__
00040000 g       *ABS*	00000000 __alt_stack_pointer
00033418 g     F .text	0000007c alt_avalon_timer_sc_init
00022710 g     F .text	00000054 .hidden __clzsi2
00033170 g     F .text	00000228 altera_avalon_jtag_uart_write
00022df4 g     F .text	00000004 __sfp_lock_acquire
0002b5a0 g     F .text	000000d4 memchr
0002646c g     F .text	000020dc ___vfprintf_internal_r
0002309c g     F .text	000002fc _free_r
0003225c g     F .text	0000022c alt_printf
00034e4c g     O .rodata	00000180 _ctype_b
0002b4a8 g     F .text	0000000c __locale_mb_cur_max
0003438c g     F .text	00000120 __call_exitprocs
000249e0 g     F .text	00000074 __srget_r
00036be4 g     O .rwdata	00000004 __malloc_sbrk_base
0002023c g     F .text	0000004c _start
00038828 g     O .bss	00000004 level
00038858 g     O .bss	00000004 _alt_tick_rate
0002bf88 g     F .text	00000188 __lshift
0003885c g     O .bss	00000004 _alt_nticks
0002ecf0 g     F .text	00000018 signal
000324f4 g     F .text	000000fc read
000328a4 g     F .text	00000088 alt_sys_init
000334d0 g     F .text	00000044 alt_up_accelerometer_spi_read_address_register
000218cc g     F .text	00000124 .hidden __floatsisf
00024794 g     F .text	00000064 _open_r
000342fc g     F .text	00000090 __register_exitproc
0002cf54 g     F .text	000000c4 strncmp
0002bc40 g     F .text	00000230 __multiply
00032df4 g     F .text	00000068 altera_avalon_jtag_uart_close
00035010 g       *ABS*	00000000 __ram_rwdata_start
00034658 g       *ABS*	00000000 __ram_rodata_start
00038864 g     O .bss	00000028 __malloc_current_mallinfo
0002fa44 g     F .text	00000078 .hidden __eqsf2
0002c4f4 g     F .text	00000164 __d2b
0003292c g     F .text	00000060 altera_avalon_jtag_uart_read_fd
00033d24 g     F .text	000000a0 alt_get_fd
000336b8 g     F .text	000000d4 alt_up_accelerometer_spi_read_y_axis
000287e4 g     F .text	00000058 _close_r
00034264 g     F .text	00000078 memcmp
000329ec g     F .text	00000050 altera_avalon_jtag_uart_close_fd
0003898c g       *ABS*	00000000 __alt_stack_base
00032a3c g     F .text	00000054 altera_avalon_jtag_uart_ioctl_fd
000239c8 g     F .text	000000c4 _fwrite_r
00028688 g     F .text	0000015c __swsetup_r
0002fbc8 g     F .text	00000860 .hidden __divdf3
00022cd4 g     F .text	000000fc __sfp
0002c770 g     F .text	0000006c __copybits
00035434 g     O .rwdata	00000408 __malloc_av_
00022e00 g     F .text	00000004 __sinit_lock_release
00030688 g     F .text	00000670 .hidden __muldf3
00024abc g     F .text	00000054 __sread
00033c1c g     F .text	00000108 alt_find_file
00033a1c g     F .text	000000a8 alt_dev_llist_insert
00031fcc g     F .text	00000024 __malloc_lock
00022f34 g     F .text	00000028 _fprintf_r
00032648 g     F .text	000000b8 sbrk
00022a60 g     F .text	00000060 _fflush_r
00022784 g     F .text	000000b4 _calloc_r
00022f1c g     F .text	00000018 fopen
00038820 g       *ABS*	00000000 __bss_start
000246a4 g     F .text	000000f0 memset
00020630 g     F .text	00000788 main
0003884c g     O .bss	00000004 alt_envp
00038830 g     O .bss	00000004 __malloc_max_total_mem
0003298c g     F .text	00000060 altera_avalon_jtag_uart_write_fd
0002e95c g     F .text	00000018 __swbuf
0002fabc g     F .text	000000c0 .hidden __ltsf2
00024bf4 g     F .text	00000008 __sclose
00040000 g       *ABS*	00000000 __alt_heap_limit
0002a280 g     F .text	00000010 fclose
000225a0 g     F .text	00000170 .hidden __truncdfsf2
00028a38 g     F .text	00001750 _dtoa_r
00023dc4 g     F .text	000007e0 _malloc_r
0002e510 g     F .text	00000030 __ascii_wctomb
00036c04 g     O .rwdata	00000004 alt_errno
0002e5b8 g     F .text	00000020 _fiprintf_r
0002ed08 g     F .text	0000001c _init_signal
00023888 g     F .text	00000098 _fwalk
0002b550 g     F .text	0000000c _mbtowc_r
00034578 g     F .text	000000e0 putc
00020e9c g     F .text	00000080 .hidden __divsi3
00022f80 g     F .text	0000011c _malloc_trim_r
00034658 g       *ABS*	00000000 __CTOR_END__
000214ac g     F .text	000003b0 .hidden __mulsf3
0002ce04 g     F .text	000000b8 strcmp
00034658 g       *ABS*	00000000 __flash_rodata_start
00034658 g       *ABS*	00000000 __DTOR_LIST__
0002ee80 g     F .text	00000090 .hidden __fixunsdfdi
00030428 g     F .text	00000080 .hidden __nedf2
00032868 g     F .text	0000003c alt_irq_init
000325f0 g     F .text	00000058 alt_release_fd
00034804 g     O .rodata	00000100 .hidden __clz_tab
0003883c g     O .bss	00000004 _PathLocale
0002ee0c g     F .text	00000074 .hidden __fixdfdi
00026310 g     F .text	0000015c strtof
000261b4 g     F .text	0000001c strtod_l
0003421c g     F .text	00000014 atexit
00028624 g     F .text	00000064 _write_r
0002b4b4 g     F .text	00000018 setlocale
00036be0 g     O .rwdata	00000004 _impure_ptr
00038844 g     O .bss	00000004 alt_argc
00022838 g     F .text	00000228 __sflush_r
00038850 g     O .bss	00000004 altera_avalon_timer_ts_base
00033b28 g     F .text	00000064 _do_dtors
00023398 g     F .text	00000004 _fseek_r
00024814 g     F .text	000001cc __srefill_r
00020020 g       .exceptions	00000000 alt_irq_entry
0002b55c g     F .text	00000044 __ascii_mbtowc
0002c394 g     F .text	0000005c __ulp
00022e18 g     F .text	00000014 __fp_unlock_all
00038820 g     O .bss	00000001 pwm
00034b70 g     O .rodata	0000000c _C_numeric_locale
00036bf0 g     O .rwdata	00000008 alt_fs_list
00020564 g     F .text	000000cc fir_quantized
00020020 g       *ABS*	00000000 __ram_exceptions_start
00033494 g     F .text	0000003c alt_up_accelerometer_spi_open_dev
0002b4e0 g     F .text	0000000c localeconv
00023bcc g     F .text	00000098 __swhatbuf_r
00023a8c g     F .text	00000034 fwrite
00036c18 g       *ABS*	00000000 _edata
0003898c g       *ABS*	00000000 _end
0002fb7c g     F .text	0000004c .hidden __unordsf2
0002e610 g     F .text	00000164 __fputwc
0002023c g       *ABS*	00000000 __ram_exceptions_end
00032e5c g     F .text	000000f4 altera_avalon_jtag_uart_ioctl
00024b18 g     F .text	00000080 __swrite
00036be8 g     O .rwdata	00000004 __malloc_trim_threshold
00034230 g     F .text	00000034 exit
0002e5d8 g     F .text	00000038 fiprintf
0002e810 g     F .text	00000004 _vfiprintf_r
00023920 g     F .text	000000a8 _fwalk_reent
0002c168 g     F .text	0000022c __mdiff
00020f1c g     F .text	00000074 .hidden __modsi3
0003378c g     F .text	000000d4 alt_up_accelerometer_spi_read_z_axis
00040000 g       *ABS*	00000000 __alt_data_end
00020020 g     F .exceptions	00000000 alt_exception
00022df8 g     F .text	00000004 __sfp_lock_release
00034d48 g     O .rodata	00000101 _ctype_
0003162c g     F .text	00000054 .hidden __unorddf2
000202bc g     F .text	00000090 convert_read
00022e2c g     F .text	000000f0 _fopen_r
00031848 g     F .text	00000038 _exit
00033860 g     F .text	00000134 alt_alarm_start
00033514 g     F .text	00000068 alt_up_accelerometer_spi_read
0003357c g     F .text	00000068 alt_up_accelerometer_spi_write
00023c64 g     F .text	00000140 __smakebuf_r
0002cebc g     F .text	00000098 strlen
0002eacc g     F .text	00000014 _init_signal_r
00032108 g     F .text	00000154 open
000304a8 g     F .text	000000f0 .hidden __gedf2
00032488 g     F .text	00000030 alt_putchar
0002a8e0 g     F .text	0000083c __gethex
0002e5a4 g     F .text	00000014 __assert
0002d10c g     F .text	00000018 __sprint_r
00033dc4 g     F .text	00000034 alt_icache_flush_all
0002b42c g     F .text	00000008 __numeric_load_locale
00036c08 g     O .rwdata	00000004 alt_priority_mask
00028548 g     F .text	0000001c __vfprintf_internal
0002e504 g     F .text	0000000c _wctomb_r
00030cf8 g     F .text	00000934 .hidden __subdf3
0002bb3c g     F .text	000000b0 __lo0bits
00036c10 g     O .rwdata	00000008 alt_alarm_list
00033ac4 g     F .text	00000064 _do_ctors
0002ed24 g     F .text	00000010 __sigtramp
0002e9e0 g     F .text	00000088 wcrtomb
0003174c g     F .text	000000d0 close
00021050 g     F .text	0000045c .hidden __addsf3
0003583c g     O .rwdata	0000016c __global_locale
00031dbc g     F .text	00000084 alt_load
00020494 g     F .text	000000d0 fir
0002e798 g     F .text	00000078 fputwc
0002ece0 g     F .text	00000010 raise
00023db4 g     F .text	00000010 free
00022dfc g     F .text	00000004 __sinit_lock_acquire
0002b868 g     F .text	00000138 __multadd
0002b844 g     F .text	00000024 _Bfree



Disassembly of section .entry:

00020000 <__reset>:
#if NIOS2_ICACHE_SIZE > 0 && defined(ALT_ALLOW_CODE_AT_RESET) && (!defined(ALT_SIM_OPTIMIZE) || defined(NIOS2_ECC_PRESENT))
    /* Assume the instruction cache size is always a power of two. */
#if NIOS2_ICACHE_SIZE > 0x8000
    movhi r2, %hi(NIOS2_ICACHE_SIZE)
#else
    movui r2, NIOS2_ICACHE_SIZE
   20000:	00840014 	movui	r2,4096
#endif

0:
    initi r2
   20004:	1001483a 	initi	r2
    addi r2, r2, -NIOS2_ICACHE_LINE_SIZE
   20008:	10bff804 	addi	r2,r2,-32
    bgt r2, zero, 0b
   2000c:	00bffd16 	blt	zero,r2,20004 <__reset+0x4>
 * Jump to the _start entry point in the .text section if reset code
 * is allowed or if optimizing for RTL simulation.
 */
#if defined(ALT_ALLOW_CODE_AT_RESET) || defined(ALT_SIM_OPTIMIZE)
    /* Jump to the _start entry point in the .text section. */
    movhi r1, %hi(_start)
   20010:	004000b4 	movhi	at,2
    ori r1, r1, %lo(_start)
   20014:	08408f14 	ori	at,at,572
    jmp r1
   20018:	0800683a 	jmp	at
   2001c:	00000000 	call	0 <__alt_mem_onchip_memory-0x20000>

Disassembly of section .exceptions:

00020020 <alt_exception>:

#else /* ALT_EXCEPTION_STACK disabled */
        /* 
         * Reserve space on normal stack for registers about to be pushed.
         */
        addi  sp, sp, -76
   20020:	deffed04 	addi	sp,sp,-76
         * documentation for details).
         *
         * Leave a gap in the stack frame at 4(sp) for the muldiv handler to
         * store zero into.
         */
        stw   ra,  0(sp)
   20024:	dfc00015 	stw	ra,0(sp)
        stw   r1,   8(sp)
   20028:	d8400215 	stw	at,8(sp)
        stw   r2,  12(sp)
   2002c:	d8800315 	stw	r2,12(sp)
        stw   r3,  16(sp)
   20030:	d8c00415 	stw	r3,16(sp)
        stw   r4,  20(sp)
   20034:	d9000515 	stw	r4,20(sp)
        stw   r5,  24(sp)
   20038:	d9400615 	stw	r5,24(sp)
        stw   r6,  28(sp)
   2003c:	d9800715 	stw	r6,28(sp)
        stw   r7,  32(sp)
   20040:	d9c00815 	stw	r7,32(sp)
        rdctl r5, estatus   /* Read early to avoid usage stall */
   20044:	000b307a 	rdctl	r5,estatus
        stw   r8,  36(sp)
   20048:	da000915 	stw	r8,36(sp)
        stw   r9,  40(sp)
   2004c:	da400a15 	stw	r9,40(sp)
        stw   r10, 44(sp)
   20050:	da800b15 	stw	r10,44(sp)
        stw   r11, 48(sp)
   20054:	dac00c15 	stw	r11,48(sp)
        stw   r12, 52(sp)
   20058:	db000d15 	stw	r12,52(sp)
        stw   r13, 56(sp)
   2005c:	db400e15 	stw	r13,56(sp)
        stw   r14, 60(sp)
   20060:	db800f15 	stw	r14,60(sp)
        stw   r15, 64(sp)
   20064:	dbc01015 	stw	r15,64(sp)
        /*
         * ea-4 contains the address of the instruction being executed
         * when the exception occured. For interrupt exceptions, we will
         * will be re-issue the isntruction. Store it in 72(sp)
         */
        stw   r5,  68(sp)  /* estatus */
   20068:	d9401115 	stw	r5,68(sp)
        addi  r15, ea, -4  /* instruction that caused exception */
   2006c:	ebffff04 	addi	r15,ea,-4
        stw   r15,  72(sp)
   20070:	dbc01215 	stw	r15,72(sp)
#else
        /*
         * Test to see if the exception was a software exception or caused 
         * by an external interrupt, and vector accordingly.
         */
        rdctl r4, ipending
   20074:	0009313a 	rdctl	r4,ipending
        andi  r2, r5, 1
   20078:	2880004c 	andi	r2,r5,1
        beq   r2, zero, .Lnot_irq
   2007c:	10000326 	beq	r2,zero,2008c <alt_exception+0x6c>
        beq   r4, zero, .Lnot_irq
   20080:	20000226 	beq	r4,zero,2008c <alt_exception+0x6c>
        /*
         * Now that all necessary registers have been preserved, call 
         * alt_irq_handler() to process the interrupts.
         */

        call alt_irq_handler
   20084:	00200fc0 	call	200fc <alt_irq_handler>

        .section .exceptions.irqreturn, "xa"

        br    .Lexception_exit
   20088:	00000706 	br	200a8 <alt_exception+0x88>
         * upon completion, so we write ea (address of instruction *after*
         * the one where the exception occured) into 72(sp). The actual
         * instruction that caused the exception is written in r2, which these
         * handlers will utilize.
         */
        stw ea, 72(sp) /* EA is PC+4 so will skip over instruction causing exception */
   2008c:	df401215 	stw	ea,72(sp)
.Lunknown_16bit:
        addi.n r4, r4, 2 /* Need PC+2 to skip over instruction causing exception */
        stw r4, 72(sp)

#else /* CDX is not Enabled and all instructions are 32bits */
        ldw r2, -4(ea) /* Instruction value that caused exception */
   20090:	e8bfff17 	ldw	r2,-4(ea)
         * debugger is present) or go into an infinite loop since the
         * handling behavior is undefined; in that case we will not return here.
         */

        /* Load exception-causing address as first argument (r4) */
        addi   r4, ea, -4
   20094:	e93fff04 	addi	r4,ea,-4

        /* Call the instruction-exception entry */
        call   alt_instruction_exception_entry
   20098:	00201c80 	call	201c8 <alt_instruction_exception_entry>
         * instruction
         *
         * Return code was 0: Skip. The instruction after the exception is
         * already stored in 72(sp).
         */
        bne   r2, r0, .Lexception_exit
   2009c:	1000021e 	bne	r2,zero,200a8 <alt_exception+0x88>

        /*
         * Otherwise, modify 72(sp) to re-issue the instruction that caused the
         * exception.
         */
        addi  r15, ea, -4  /* instruction that caused exception */
   200a0:	ebffff04 	addi	r15,ea,-4
        stw   r15,  72(sp)
   200a4:	dbc01215 	stw	r15,72(sp)
        /* 
         * Restore the saved registers, so that all general purpose registers 
         * have been restored to their state at the time the interrupt occured.
         */

        ldw   r5,  68(sp)
   200a8:	d9401117 	ldw	r5,68(sp)
        ldw   ea,  72(sp)  /* This becomes the PC once eret is executed */
   200ac:	df401217 	ldw	ea,72(sp)
        ldw   ra,   0(sp)
   200b0:	dfc00017 	ldw	ra,0(sp)

        wrctl estatus, r5
   200b4:	2801707a 	wrctl	estatus,r5

        ldw   r1,   8(sp)
   200b8:	d8400217 	ldw	at,8(sp)
        ldw   r2,  12(sp)
   200bc:	d8800317 	ldw	r2,12(sp)
        ldw   r3,  16(sp)
   200c0:	d8c00417 	ldw	r3,16(sp)
        ldw   r4,  20(sp)
   200c4:	d9000517 	ldw	r4,20(sp)
        ldw   r5,  24(sp)
   200c8:	d9400617 	ldw	r5,24(sp)
        ldw   r6,  28(sp)
   200cc:	d9800717 	ldw	r6,28(sp)
        ldw   r7,  32(sp)
   200d0:	d9c00817 	ldw	r7,32(sp)

#if defined(ALT_EXCEPTION_STACK) && defined(ALT_STACK_CHECK)
        ldw   et, %gprel(alt_exception_old_stack_limit)(gp)
#endif

        ldw   r8,  36(sp)
   200d4:	da000917 	ldw	r8,36(sp)
        ldw   r9,  40(sp)
   200d8:	da400a17 	ldw	r9,40(sp)
        ldw   r10, 44(sp)
   200dc:	da800b17 	ldw	r10,44(sp)
        ldw   r11, 48(sp)
   200e0:	dac00c17 	ldw	r11,48(sp)
        ldw   r12, 52(sp)
   200e4:	db000d17 	ldw	r12,52(sp)
        ldw   r13, 56(sp)
   200e8:	db400e17 	ldw	r13,56(sp)
        ldw   r14, 60(sp)
   200ec:	db800f17 	ldw	r14,60(sp)
        ldw   r15, 64(sp)
   200f0:	dbc01017 	ldw	r15,64(sp)
        stw   et, %gprel(alt_stack_limit_value)(gp)
        stw   zero, %gprel(alt_exception_old_stack_limit)(gp)
#endif /* ALT_STACK_CHECK */
        ldw   sp,  76(sp)
#else /* ALT_EXCEPTION_STACK disabled */
        addi  sp, sp, 76
   200f4:	dec01304 	addi	sp,sp,76

        /*
         * Return to the interrupted instruction.
         */

        eret
   200f8:	ef80083a 	eret

000200fc <alt_irq_handler>:
 * instruction is present if the macro ALT_CI_INTERRUPT_VECTOR defined.
 */

void alt_irq_handler (void) __attribute__ ((section (".exceptions")));
void alt_irq_handler (void)
{
   200fc:	defff904 	addi	sp,sp,-28
   20100:	dfc00615 	stw	ra,24(sp)
   20104:	df000515 	stw	fp,20(sp)
   20108:	df000504 	addi	fp,sp,20
  
  /*
   * Notify the operating system that we are at interrupt level.
   */ 
  
  ALT_OS_INT_ENTER();
   2010c:	0001883a 	nop
#ifndef NIOS2_EIC_PRESENT
static ALT_INLINE alt_u32 ALT_ALWAYS_INLINE alt_irq_pending (void)
{
  alt_u32 active;

  NIOS2_READ_IPENDING (active);
   20110:	0005313a 	rdctl	r2,ipending
   20114:	e0bffc15 	stw	r2,-16(fp)

  return active;
   20118:	e0bffc17 	ldw	r2,-16(fp)
   * Consider the case where the high priority interupt is asserted during
   * the interrupt entry sequence for a lower priority interrupt to see why
   * this is the case.
   */

  active = alt_irq_pending ();
   2011c:	e0bfff15 	stw	r2,-4(fp)

  do
  {
    i = 0;
   20120:	e03ffd15 	stw	zero,-12(fp)
    mask = 1;
   20124:	00800044 	movi	r2,1
   20128:	e0bffe15 	stw	r2,-8(fp)
     * called to clear the interrupt condition.
     */

    do
    {
      if (active & mask)
   2012c:	e0ffff17 	ldw	r3,-4(fp)
   20130:	e0bffe17 	ldw	r2,-8(fp)
   20134:	1884703a 	and	r2,r3,r2
   20138:	10001226 	beq	r2,zero,20184 <alt_irq_handler+0x88>
      { 
#ifdef ALT_ENHANCED_INTERRUPT_API_PRESENT
        alt_irq[i].handler(alt_irq[i].context); 
#else
        alt_irq[i].handler(alt_irq[i].context, i); 
   2013c:	e0bffd17 	ldw	r2,-12(fp)
   20140:	100690fa 	slli	r3,r2,3
   20144:	00800134 	movhi	r2,4
   20148:	1885883a 	add	r2,r3,r2
   2014c:	10e22317 	ldw	r3,-30580(r2)
   20150:	e0bffd17 	ldw	r2,-12(fp)
   20154:	100890fa 	slli	r4,r2,3
   20158:	00800134 	movhi	r2,4
   2015c:	2085883a 	add	r2,r4,r2
   20160:	10a22417 	ldw	r2,-30576(r2)
   20164:	e17ffd17 	ldw	r5,-12(fp)
   20168:	1009883a 	mov	r4,r2
   2016c:	183ee83a 	callr	r3
#endif
        break;
   20170:	0001883a 	nop
  NIOS2_READ_IPENDING (active);
   20174:	0005313a 	rdctl	r2,ipending
   20178:	e0bffb15 	stw	r2,-20(fp)
  return active;
   2017c:	e0bffb17 	ldw	r2,-20(fp)
   20180:	00000706 	br	201a0 <alt_irq_handler+0xa4>
      }
      mask <<= 1;
   20184:	e0bffe17 	ldw	r2,-8(fp)
   20188:	1085883a 	add	r2,r2,r2
   2018c:	e0bffe15 	stw	r2,-8(fp)
      i++;
   20190:	e0bffd17 	ldw	r2,-12(fp)
   20194:	10800044 	addi	r2,r2,1
   20198:	e0bffd15 	stw	r2,-12(fp)
      if (active & mask)
   2019c:	003fe306 	br	2012c <alt_irq_handler+0x30>

    } while (1);

    active = alt_irq_pending ();
   201a0:	e0bfff15 	stw	r2,-4(fp)
    
  } while (active);
   201a4:	e0bfff17 	ldw	r2,-4(fp)
   201a8:	103fdd1e 	bne	r2,zero,20120 <alt_irq_handler+0x24>

  /*
   * Notify the operating system that interrupt processing is complete.
   */ 

  ALT_OS_INT_EXIT();
   201ac:	0001883a 	nop
}
   201b0:	0001883a 	nop
   201b4:	e037883a 	mov	sp,fp
   201b8:	dfc00117 	ldw	ra,4(sp)
   201bc:	df000017 	ldw	fp,0(sp)
   201c0:	dec00204 	addi	sp,sp,8
   201c4:	f800283a 	ret

000201c8 <alt_instruction_exception_entry>:
 * that handler if it has been registered. Absent a handler, it will
 * break break or hang as discussed below.
 */
int 
alt_instruction_exception_entry (alt_u32 exception_pc)
{
   201c8:	defffb04 	addi	sp,sp,-20
   201cc:	dfc00415 	stw	ra,16(sp)
   201d0:	df000315 	stw	fp,12(sp)
   201d4:	df000304 	addi	fp,sp,12
   201d8:	e13ffd15 	stw	r4,-12(fp)
 * NIOS2_EXCEPTION_CAUSE_NOT_PRESENT. Your handling routine should
 * check the validity of the cause argument before proceeding.
 */
#ifdef NIOS2_HAS_EXTRA_EXCEPTION_INFO
  /* Get exception cause & "badaddr" */
  NIOS2_READ_EXCEPTION(cause);
   201dc:	000531fa 	rdctl	r2,exception
   201e0:	e0bfff15 	stw	r2,-4(fp)
  cause = ( (cause & NIOS2_EXCEPTION_REG_CAUSE_MASK) >>
   201e4:	e0bfff17 	ldw	r2,-4(fp)
   201e8:	1004d0ba 	srli	r2,r2,2
   201ec:	108007cc 	andi	r2,r2,31
   201f0:	e0bfff15 	stw	r2,-4(fp)
              NIOS2_EXCEPTION_REG_CAUSE_OFST );

  NIOS2_READ_BADADDR(badaddr);
   201f4:	0005333a 	rdctl	r2,badaddr
   201f8:	e0bffe15 	stw	r2,-8(fp)
#else
  cause = NIOS2_EXCEPTION_CAUSE_NOT_PRESENT;
  badaddr = 0;
#endif /* NIOS2_HAS_EXTRA_EXCEPTION_INFO */

  if(alt_instruction_exception_handler) {
   201fc:	d0a72117 	ldw	r2,-25468(gp)
   20200:	10000726 	beq	r2,zero,20220 <alt_instruction_exception_entry+0x58>
     * Call handler. Its return value indicates whether the exception-causing
     * instruction should be re-issued. The code that called us,
     * alt_eceptions_entry.S, will look at this value and adjust the ea
     * register as necessary
     */
    return alt_instruction_exception_handler(cause, exception_pc, badaddr);
   20204:	d0a72117 	ldw	r2,-25468(gp)
   20208:	e0ffff17 	ldw	r3,-4(fp)
   2020c:	e1bffe17 	ldw	r6,-8(fp)
   20210:	e17ffd17 	ldw	r5,-12(fp)
   20214:	1809883a 	mov	r4,r3
   20218:	103ee83a 	callr	r2
   2021c:	00000206 	br	20228 <alt_instruction_exception_entry+0x60>
   *    (a peripheral which negates its interrupt output before its
   *    interrupt handler has been executed will cause spurious interrupts)
   */
  else {
#ifdef NIOS2_HAS_DEBUG_STUB
    NIOS2_BREAK();
   20220:	003da03a 	break	0
      ;
#endif /* NIOS2_HAS_DEBUG_STUB */
  }

  /* We should not get here. Remove compiler warning. */
  return NIOS2_EXCEPTION_RETURN_REISSUE_INST;
   20224:	0005883a 	mov	r2,zero
}
   20228:	e037883a 	mov	sp,fp
   2022c:	dfc00117 	ldw	ra,4(sp)
   20230:	df000017 	ldw	fp,0(sp)
   20234:	dec00204 	addi	sp,sp,8
   20238:	f800283a 	ret

Disassembly of section .text:

0002023c <_start>:

    /* Assume the data cache size is always a power of two. */
#if NIOS2_DCACHE_SIZE > 0x8000
    movhi r2, %hi(NIOS2_DCACHE_SIZE)
#else
    movui r2, NIOS2_DCACHE_SIZE
   2023c:	00820014 	movui	r2,2048
#endif

0:
    initd 0(r2)
   20240:	10000033 	initd	0(r2)
#ifdef NIOS2_ECC_PRESENT
    addi r2, r2, -4
#else
    addi r2, r2, -NIOS2_DCACHE_LINE_SIZE
   20244:	10bff804 	addi	r2,r2,-32
#endif
    bgt r2, zero, 0b
   20248:	00bffd16 	blt	zero,r2,20240 <_start+0x4>

    /*
     * Now that the caches are initialized, set up the stack pointer and global pointer.
     * The values provided by the linker are assumed to be correctly aligned.
     */
    movhi sp, %hi(__alt_stack_pointer)
   2024c:	06c00134 	movhi	sp,4
    ori sp, sp, %lo(__alt_stack_pointer)
   20250:	dec00014 	ori	sp,sp,0
    movhi gp, %hi(_gp)
   20254:	068000f4 	movhi	gp,3
    ori gp, gp, %lo(_gp)
   20258:	d6baf714 	ori	gp,gp,60380
 */
#ifndef ALT_SIM_OPTIMIZE
    /* Log that the BSS is about to be cleared. */
    ALT_LOG_PUTS(alt_log_msg_bss)

    movhi r2, %hi(__bss_start)
   2025c:	008000f4 	movhi	r2,3
    ori r2, r2, %lo(__bss_start)
   20260:	10a20814 	ori	r2,r2,34848

    movhi r3, %hi(__bss_end)
   20264:	00c000f4 	movhi	r3,3
    ori r3, r3, %lo(__bss_end)
   20268:	18e26314 	ori	r3,r3,35212

    beq r2, r3, 1f
   2026c:	10c00326 	beq	r2,r3,2027c <_start+0x40>

0:
    stw zero, (r2)
   20270:	10000015 	stw	zero,0(r2)
    addi r2, r2, 4
   20274:	10800104 	addi	r2,r2,4
    bltu r2, r3, 0b
   20278:	10fffd36 	bltu	r2,r3,20270 <_start+0x34>
     * section aren't defined until alt_load() has been called).
     */
    mov   et, zero
#endif

    call alt_load
   2027c:	0031dbc0 	call	31dbc <alt_load>

    /* Log that alt_main is about to be called. */
    ALT_LOG_PUTS(alt_log_msg_alt_main)

    /* Call the C entry point. It should never return. */
    call alt_main
   20280:	0031f500 	call	31f50 <alt_main>

00020284 <alt_after_alt_main>:

    /* Wait in infinite loop in case alt_main does return. */
alt_after_alt_main:
    br alt_after_alt_main
   20284:	003fff06 	br	20284 <alt_after_alt_main>

00020288 <led_write>:

alt_8 pwm = 0;
alt_u8 led;
int level;

void led_write(alt_u8 led_pattern) {
   20288:	defffe04 	addi	sp,sp,-8
   2028c:	df000115 	stw	fp,4(sp)
   20290:	df000104 	addi	fp,sp,4
   20294:	2005883a 	mov	r2,r4
   20298:	e0bfff05 	stb	r2,-4(fp)
    IOWR(LED_BASE, 0, led_pattern);
   2029c:	e0ffff03 	ldbu	r3,-4(fp)
   202a0:	00800134 	movhi	r2,4
   202a4:	10c41035 	stwio	r3,4160(r2)
}
   202a8:	0001883a 	nop
   202ac:	e037883a 	mov	sp,fp
   202b0:	df000017 	ldw	fp,0(sp)
   202b4:	dec00104 	addi	sp,sp,4
   202b8:	f800283a 	ret

000202bc <convert_read>:

void convert_read(alt_32 acc_read, int * level, alt_u8 * led) {
   202bc:	defffb04 	addi	sp,sp,-20
   202c0:	df000415 	stw	fp,16(sp)
   202c4:	df000404 	addi	fp,sp,16
   202c8:	e13ffe15 	stw	r4,-8(fp)
   202cc:	e17ffd15 	stw	r5,-12(fp)
   202d0:	e1bffc15 	stw	r6,-16(fp)
    acc_read += OFFSET;
   202d4:	e0bffe17 	ldw	r2,-8(fp)
   202d8:	10bff804 	addi	r2,r2,-32
   202dc:	e0bffe15 	stw	r2,-8(fp)
    alt_u8 val = (acc_read >> 6) & 0x07;
   202e0:	e0bffe17 	ldw	r2,-8(fp)
   202e4:	1005d1ba 	srai	r2,r2,6
   202e8:	108001cc 	andi	r2,r2,7
   202ec:	e0bfffc5 	stb	r2,-1(fp)
    * led = (8 >> val) | (8 << (8 - val));
   202f0:	e0bfffc3 	ldbu	r2,-1(fp)
   202f4:	00c00204 	movi	r3,8
   202f8:	1885d83a 	sra	r2,r3,r2
   202fc:	1009883a 	mov	r4,r2
   20300:	e0bfffc3 	ldbu	r2,-1(fp)
   20304:	00c00204 	movi	r3,8
   20308:	1885c83a 	sub	r2,r3,r2
   2030c:	00c00204 	movi	r3,8
   20310:	1884983a 	sll	r2,r3,r2
   20314:	2084b03a 	or	r2,r4,r2
   20318:	1007883a 	mov	r3,r2
   2031c:	e0bffc17 	ldw	r2,-16(fp)
   20320:	10c00005 	stb	r3,0(r2)
    * level = (acc_read >> 1) & 0x1f;
   20324:	e0bffe17 	ldw	r2,-8(fp)
   20328:	1005d07a 	srai	r2,r2,1
   2032c:	10c007cc 	andi	r3,r2,31
   20330:	e0bffd17 	ldw	r2,-12(fp)
   20334:	10c00015 	stw	r3,0(r2)
}
   20338:	0001883a 	nop
   2033c:	e037883a 	mov	sp,fp
   20340:	df000017 	ldw	fp,0(sp)
   20344:	dec00104 	addi	sp,sp,4
   20348:	f800283a 	ret

0002034c <sys_timer_isr>:

void sys_timer_isr() {
   2034c:	defffe04 	addi	sp,sp,-8
   20350:	dfc00115 	stw	ra,4(sp)
   20354:	df000015 	stw	fp,0(sp)
   20358:	d839883a 	mov	fp,sp
    IOWR_ALTERA_AVALON_TIMER_STATUS(TIMER_BASE, 0);
   2035c:	0007883a 	mov	r3,zero
   20360:	00800134 	movhi	r2,4
   20364:	10c40835 	stwio	r3,4128(r2)

    if (pwm < abs(level)) {
   20368:	d0a71103 	ldbu	r2,-25532(gp)
   2036c:	10c03fcc 	andi	r3,r2,255
   20370:	18c0201c 	xori	r3,r3,128
   20374:	18ffe004 	addi	r3,r3,-128
   20378:	d0a71317 	ldw	r2,-25524(gp)
   2037c:	1000010e 	bge	r2,zero,20384 <sys_timer_isr+0x38>
   20380:	0085c83a 	sub	r2,zero,r2
   20384:	18800f0e 	bge	r3,r2,203c4 <sys_timer_isr+0x78>

        if (level < 0) {
   20388:	d0a71317 	ldw	r2,-25524(gp)
   2038c:	1000060e 	bge	r2,zero,203a8 <sys_timer_isr+0x5c>
            led_write(led << 1);
   20390:	d0a71203 	ldbu	r2,-25528(gp)
   20394:	1085883a 	add	r2,r2,r2
   20398:	10803fcc 	andi	r2,r2,255
   2039c:	1009883a 	mov	r4,r2
   203a0:	00202880 	call	20288 <led_write>
   203a4:	00000b06 	br	203d4 <sys_timer_isr+0x88>
        } else {
            led_write(led >> 1);
   203a8:	d0a71203 	ldbu	r2,-25528(gp)
   203ac:	10803fcc 	andi	r2,r2,255
   203b0:	1004d07a 	srli	r2,r2,1
   203b4:	10803fcc 	andi	r2,r2,255
   203b8:	1009883a 	mov	r4,r2
   203bc:	00202880 	call	20288 <led_write>
   203c0:	00000406 	br	203d4 <sys_timer_isr+0x88>
        }

    } else {
        led_write(led);
   203c4:	d0a71203 	ldbu	r2,-25528(gp)
   203c8:	10803fcc 	andi	r2,r2,255
   203cc:	1009883a 	mov	r4,r2
   203d0:	00202880 	call	20288 <led_write>
    }

    if (pwm > PWM_PERIOD) {
   203d4:	d0a71103 	ldbu	r2,-25532(gp)
   203d8:	10803fcc 	andi	r2,r2,255
   203dc:	1080201c 	xori	r2,r2,128
   203e0:	10bfe004 	addi	r2,r2,-128
   203e4:	10800450 	cmplti	r2,r2,17
   203e8:	1000021e 	bne	r2,zero,203f4 <sys_timer_isr+0xa8>
        pwm = 0;
   203ec:	d0271105 	stb	zero,-25532(gp)
    } else {
        pwm++;
    }

}
   203f0:	00000306 	br	20400 <sys_timer_isr+0xb4>
        pwm++;
   203f4:	d0a71103 	ldbu	r2,-25532(gp)
   203f8:	10800044 	addi	r2,r2,1
   203fc:	d0a71105 	stb	r2,-25532(gp)
}
   20400:	0001883a 	nop
   20404:	e037883a 	mov	sp,fp
   20408:	dfc00117 	ldw	ra,4(sp)
   2040c:	df000017 	ldw	fp,0(sp)
   20410:	dec00204 	addi	sp,sp,8
   20414:	f800283a 	ret

00020418 <timer_init>:

void timer_init(void * isr) {
   20418:	defffd04 	addi	sp,sp,-12
   2041c:	dfc00215 	stw	ra,8(sp)
   20420:	df000115 	stw	fp,4(sp)
   20424:	df000104 	addi	fp,sp,4
   20428:	e13fff15 	stw	r4,-4(fp)

    IOWR_ALTERA_AVALON_TIMER_CONTROL(TIMER_BASE, 0x0003);
   2042c:	00c000c4 	movi	r3,3
   20430:	00800134 	movhi	r2,4
   20434:	10c40935 	stwio	r3,4132(r2)
    IOWR_ALTERA_AVALON_TIMER_STATUS(TIMER_BASE, 0);
   20438:	0007883a 	mov	r3,zero
   2043c:	00800134 	movhi	r2,4
   20440:	10c40835 	stwio	r3,4128(r2)
    IOWR_ALTERA_AVALON_TIMER_PERIODL(TIMER_BASE, 0x0900);
   20444:	00c24004 	movi	r3,2304
   20448:	00800134 	movhi	r2,4
   2044c:	10c40a35 	stwio	r3,4136(r2)
    IOWR_ALTERA_AVALON_TIMER_PERIODH(TIMER_BASE, 0x0000);
   20450:	0007883a 	mov	r3,zero
   20454:	00800134 	movhi	r2,4
   20458:	10c40b35 	stwio	r3,4140(r2)
    alt_irq_register(TIMER_IRQ, 0, isr);
   2045c:	e0bfff17 	ldw	r2,-4(fp)
   20460:	100d883a 	mov	r6,r2
   20464:	000b883a 	mov	r5,zero
   20468:	01000044 	movi	r4,1
   2046c:	003198c0 	call	3198c <alt_irq_register>
    IOWR_ALTERA_AVALON_TIMER_CONTROL(TIMER_BASE, 0x0007);
   20470:	00c001c4 	movi	r3,7
   20474:	00800134 	movhi	r2,4
   20478:	10c40935 	stwio	r3,4132(r2)

}
   2047c:	0001883a 	nop
   20480:	e037883a 	mov	sp,fp
   20484:	dfc00117 	ldw	ra,4(sp)
   20488:	df000017 	ldw	fp,0(sp)
   2048c:	dec00204 	addi	sp,sp,8
   20490:	f800283a 	ret

00020494 <fir>:


alt_32 fir(float coeffs[], alt_32 raw_data[], int n){
   20494:	defff904 	addi	sp,sp,-28
   20498:	dfc00615 	stw	ra,24(sp)
   2049c:	df000515 	stw	fp,20(sp)
   204a0:	dc000415 	stw	r16,16(sp)
   204a4:	df000504 	addi	fp,sp,20
   204a8:	e13ffd15 	stw	r4,-12(fp)
   204ac:	e17ffc15 	stw	r5,-16(fp)
   204b0:	e1bffb15 	stw	r6,-20(fp)
	// N-TAP FIR filter
	float y = 0;
   204b4:	e03ffe15 	stw	zero,-8(fp)

	for (; n > 0; n--){ // runs n times for
   204b8:	00002006 	br	2053c <fir+0xa8>
		// alt_printf("n value: %x\n", (alt_32)(n-1));
		// this print command makes it run smoother??
		y += coeffs[n-1]*(float)raw_data[n-1];
   204bc:	e0fffb17 	ldw	r3,-20(fp)
   204c0:	00900034 	movhi	r2,16384
   204c4:	10bfffc4 	addi	r2,r2,-1
   204c8:	1885883a 	add	r2,r3,r2
   204cc:	100490ba 	slli	r2,r2,2
   204d0:	e0fffd17 	ldw	r3,-12(fp)
   204d4:	1885883a 	add	r2,r3,r2
   204d8:	14000017 	ldw	r16,0(r2)
   204dc:	e0fffb17 	ldw	r3,-20(fp)
   204e0:	00900034 	movhi	r2,16384
   204e4:	10bfffc4 	addi	r2,r2,-1
   204e8:	1885883a 	add	r2,r3,r2
   204ec:	100490ba 	slli	r2,r2,2
   204f0:	e0fffc17 	ldw	r3,-16(fp)
   204f4:	1885883a 	add	r2,r3,r2
   204f8:	10800017 	ldw	r2,0(r2)
   204fc:	1009883a 	mov	r4,r2
   20500:	00218cc0 	call	218cc <__floatsisf>
   20504:	1007883a 	mov	r3,r2
   20508:	180b883a 	mov	r5,r3
   2050c:	8009883a 	mov	r4,r16
   20510:	00214ac0 	call	214ac <__mulsf3>
   20514:	1007883a 	mov	r3,r2
   20518:	1805883a 	mov	r2,r3
   2051c:	100b883a 	mov	r5,r2
   20520:	e13ffe17 	ldw	r4,-8(fp)
   20524:	00210500 	call	21050 <__addsf3>
   20528:	1007883a 	mov	r3,r2
   2052c:	e0fffe15 	stw	r3,-8(fp)
	for (; n > 0; n--){ // runs n times for
   20530:	e0bffb17 	ldw	r2,-20(fp)
   20534:	10bfffc4 	addi	r2,r2,-1
   20538:	e0bffb15 	stw	r2,-20(fp)
   2053c:	e0bffb17 	ldw	r2,-20(fp)
   20540:	00bfde16 	blt	zero,r2,204bc <fir+0x28>
	}

	return (alt_32)y; // cast back to alt_32
   20544:	e13ffe17 	ldw	r4,-8(fp)
   20548:	002185c0 	call	2185c <__fixsfsi>
}
   2054c:	e6ffff04 	addi	sp,fp,-4
   20550:	dfc00217 	ldw	ra,8(sp)
   20554:	df000117 	ldw	fp,4(sp)
   20558:	dc000017 	ldw	r16,0(sp)
   2055c:	dec00304 	addi	sp,sp,12
   20560:	f800283a 	ret

00020564 <fir_quantized>:

alt_32 fir_quantized(alt_32 coeffs[], alt_32 raw_data[], int n){
   20564:	defffa04 	addi	sp,sp,-24
   20568:	dfc00515 	stw	ra,20(sp)
   2056c:	df000415 	stw	fp,16(sp)
   20570:	df000404 	addi	fp,sp,16
   20574:	e13ffe15 	stw	r4,-8(fp)
   20578:	e17ffd15 	stw	r5,-12(fp)
   2057c:	e1bffc15 	stw	r6,-16(fp)
	// N-TAP quantized FIR filter
	alt_32 y = 0;
   20580:	e03fff15 	stw	zero,-4(fp)

	for (; n > 0; n--){ // runs n times for
   20584:	00001706 	br	205e4 <fir_quantized+0x80>
//		alt_printf("Rounded coeff: %x\n", coeffs[n-1]);
		y += coeffs[n-1]*raw_data[n-1];
   20588:	e0fffc17 	ldw	r3,-16(fp)
   2058c:	00900034 	movhi	r2,16384
   20590:	10bfffc4 	addi	r2,r2,-1
   20594:	1885883a 	add	r2,r3,r2
   20598:	100490ba 	slli	r2,r2,2
   2059c:	e0fffe17 	ldw	r3,-8(fp)
   205a0:	1885883a 	add	r2,r3,r2
   205a4:	10c00017 	ldw	r3,0(r2)
   205a8:	e13ffc17 	ldw	r4,-16(fp)
   205ac:	00900034 	movhi	r2,16384
   205b0:	10bfffc4 	addi	r2,r2,-1
   205b4:	2085883a 	add	r2,r4,r2
   205b8:	100490ba 	slli	r2,r2,2
   205bc:	e13ffd17 	ldw	r4,-12(fp)
   205c0:	2085883a 	add	r2,r4,r2
   205c4:	10800017 	ldw	r2,0(r2)
   205c8:	1885383a 	mul	r2,r3,r2
   205cc:	e0ffff17 	ldw	r3,-4(fp)
   205d0:	1885883a 	add	r2,r3,r2
   205d4:	e0bfff15 	stw	r2,-4(fp)
	for (; n > 0; n--){ // runs n times for
   205d8:	e0bffc17 	ldw	r2,-16(fp)
   205dc:	10bfffc4 	addi	r2,r2,-1
   205e0:	e0bffc15 	stw	r2,-16(fp)
   205e4:	e0bffc17 	ldw	r2,-16(fp)
   205e8:	00bfe716 	blt	zero,r2,20588 <fir_quantized+0x24>
	}

	return round(y/100000); // converting back to appropriate value for LEDs
   205ec:	e0bfff17 	ldw	r2,-4(fp)
   205f0:	014000b4 	movhi	r5,2
   205f4:	2961a804 	addi	r5,r5,-31072
   205f8:	1009883a 	mov	r4,r2
   205fc:	0020e9c0 	call	20e9c <__divsi3>
   20600:	1009883a 	mov	r4,r2
   20604:	00223e80 	call	223e8 <__floatsidf>
   20608:	100d883a 	mov	r6,r2
   2060c:	180f883a 	mov	r7,r3
   20610:	3009883a 	mov	r4,r6
   20614:	380b883a 	mov	r5,r7
   20618:	00223680 	call	22368 <__fixdfsi>
}
   2061c:	e037883a 	mov	sp,fp
   20620:	dfc00117 	ldw	ra,4(sp)
   20624:	df000017 	ldw	fp,0(sp)
   20628:	dec00204 	addi	sp,sp,8
   2062c:	f800283a 	ret

00020630 <main>:

int main() {
   20630:	deffaa04 	addi	sp,sp,-344
   20634:	dfc05515 	stw	ra,340(sp)
   20638:	df005415 	stw	fp,336(sp)
   2063c:	ddc05315 	stw	r23,332(sp)
   20640:	dd805215 	stw	r22,328(sp)
   20644:	dd405115 	stw	r21,324(sp)
   20648:	dd005015 	stw	r20,320(sp)
   2064c:	dcc04f15 	stw	r19,316(sp)
   20650:	dc804e15 	stw	r18,312(sp)
   20654:	dc404d15 	stw	r17,308(sp)
   20658:	dc004c15 	stw	r16,304(sp)
   2065c:	df005404 	addi	fp,sp,336

	float matlab_coeffs[] = {0.00464135470656760, 	0.00737747226463043,
   20660:	e0ffb504 	addi	r3,fp,-300
   20664:	008000f4 	movhi	r2,3
   20668:	1091d004 	addi	r2,r2,18240
   2066c:	01003104 	movi	r4,196
   20670:	200d883a 	mov	r6,r4
   20674:	100b883a 	mov	r5,r2
   20678:	1809883a 	mov	r4,r3
   2067c:	00245a40 	call	245a4 <memcpy>
			-0.00935761974859676,	6.11463173516297e-05,
			0.00326564674118811, 	-0.00711018685736960,
			-0.00240768675012549,	0.00737747226463043,
			0.00464135470656760};

	int n = 49; 	// len of coeff array
   20680:	00800c44 	movi	r2,49
   20684:	e0bfef15 	stw	r2,-68(fp)
	// init coeffs from matlab
	float *fir_coeffs = calloc((n+1), sizeof(float)); // init a 49-tap filter, leave space for null pointer
   20688:	e0bfef17 	ldw	r2,-68(fp)
   2068c:	10800044 	addi	r2,r2,1
   20690:	01400104 	movi	r5,4
   20694:	1009883a 	mov	r4,r2
   20698:	002276c0 	call	2276c <calloc>
   2069c:	e0bfee15 	stw	r2,-72(fp)
	for (int coeff = 0; coeff < n; coeff++){
   206a0:	e03ff315 	stw	zero,-52(fp)
   206a4:	00000d06 	br	206dc <main+0xac>
		fir_coeffs[coeff] = matlab_coeffs[coeff]; // populating
   206a8:	e0bff317 	ldw	r2,-52(fp)
   206ac:	100490ba 	slli	r2,r2,2
   206b0:	e0ffee17 	ldw	r3,-72(fp)
   206b4:	1885883a 	add	r2,r3,r2
   206b8:	e0fff317 	ldw	r3,-52(fp)
   206bc:	180690ba 	slli	r3,r3,2
   206c0:	e13ff804 	addi	r4,fp,-32
   206c4:	20c9883a 	add	r4,r4,r3
   206c8:	20ffbd17 	ldw	r3,-268(r4)
   206cc:	10c00015 	stw	r3,0(r2)
	for (int coeff = 0; coeff < n; coeff++){
   206d0:	e0bff317 	ldw	r2,-52(fp)
   206d4:	10800044 	addi	r2,r2,1
   206d8:	e0bff315 	stw	r2,-52(fp)
   206dc:	e0fff317 	ldw	r3,-52(fp)
   206e0:	e0bfef17 	ldw	r2,-68(fp)
   206e4:	18bff016 	blt	r3,r2,206a8 <main+0x78>
	}


    alt_32 x_read[n]; 									// raw data array
   206e8:	e0bfef17 	ldw	r2,-68(fp)
   206ec:	d807883a 	mov	r3,sp
   206f0:	e0ffac15 	stw	r3,-336(fp)
   206f4:	10ffffc4 	addi	r3,r2,-1
   206f8:	e0ffed15 	stw	r3,-76(fp)
   206fc:	1007883a 	mov	r3,r2
   20700:	e0ffb315 	stw	r3,-308(fp)
   20704:	e03fb415 	stw	zero,-304(fp)
   20708:	e0ffb317 	ldw	r3,-308(fp)
   2070c:	1806d6fa 	srli	r3,r3,27
   20710:	e13fb417 	ldw	r4,-304(fp)
   20714:	202e917a 	slli	r23,r4,5
   20718:	1deeb03a 	or	r23,r3,r23
   2071c:	e0ffb317 	ldw	r3,-308(fp)
   20720:	182c917a 	slli	r22,r3,5
   20724:	1007883a 	mov	r3,r2
   20728:	e0ffb115 	stw	r3,-316(fp)
   2072c:	e03fb215 	stw	zero,-312(fp)
   20730:	e0ffb117 	ldw	r3,-316(fp)
   20734:	1806d6fa 	srli	r3,r3,27
   20738:	e13fb217 	ldw	r4,-312(fp)
   2073c:	202a917a 	slli	r21,r4,5
   20740:	1d6ab03a 	or	r21,r3,r21
   20744:	e0ffb117 	ldw	r3,-316(fp)
   20748:	1828917a 	slli	r20,r3,5
   2074c:	100490ba 	slli	r2,r2,2
   20750:	108000c4 	addi	r2,r2,3
   20754:	1004d0ba 	srli	r2,r2,2
   20758:	100490ba 	slli	r2,r2,2
   2075c:	d8b7c83a 	sub	sp,sp,r2
   20760:	d805883a 	mov	r2,sp
   20764:	108000c4 	addi	r2,r2,3
   20768:	1004d0ba 	srli	r2,r2,2
   2076c:	100490ba 	slli	r2,r2,2
   20770:	e0bfec15 	stw	r2,-80(fp)
    alt_32 y; 											// filtered output

    alt_32 int_coeffs[n];
   20774:	e0bfef17 	ldw	r2,-68(fp)
   20778:	10ffffc4 	addi	r3,r2,-1
   2077c:	e0ffeb15 	stw	r3,-84(fp)
   20780:	1007883a 	mov	r3,r2
   20784:	e0ffaf15 	stw	r3,-324(fp)
   20788:	e03fb015 	stw	zero,-320(fp)
   2078c:	e0ffaf17 	ldw	r3,-324(fp)
   20790:	1806d6fa 	srli	r3,r3,27
   20794:	e13fb017 	ldw	r4,-320(fp)
   20798:	2026917a 	slli	r19,r4,5
   2079c:	1ce6b03a 	or	r19,r3,r19
   207a0:	e0ffaf17 	ldw	r3,-324(fp)
   207a4:	1824917a 	slli	r18,r3,5
   207a8:	1007883a 	mov	r3,r2
   207ac:	e0ffad15 	stw	r3,-332(fp)
   207b0:	e03fae15 	stw	zero,-328(fp)
   207b4:	e0ffad17 	ldw	r3,-332(fp)
   207b8:	1806d6fa 	srli	r3,r3,27
   207bc:	e13fae17 	ldw	r4,-328(fp)
   207c0:	2022917a 	slli	r17,r4,5
   207c4:	1c62b03a 	or	r17,r3,r17
   207c8:	e0ffad17 	ldw	r3,-332(fp)
   207cc:	1820917a 	slli	r16,r3,5
   207d0:	100490ba 	slli	r2,r2,2
   207d4:	108000c4 	addi	r2,r2,3
   207d8:	1004d0ba 	srli	r2,r2,2
   207dc:	100490ba 	slli	r2,r2,2
   207e0:	d8b7c83a 	sub	sp,sp,r2
   207e4:	d805883a 	mov	r2,sp
   207e8:	108000c4 	addi	r2,r2,3
   207ec:	1004d0ba 	srli	r2,r2,2
   207f0:	100490ba 	slli	r2,r2,2
   207f4:	e0bfea15 	stw	r2,-88(fp)
    for(int j = 0; j < n; j++){
   207f8:	e03ff515 	stw	zero,-44(fp)
   207fc:	00002006 	br	20880 <main+0x250>
    	int_coeffs[j] = (alt_32)round(fir_coeffs[j]*100000); // populate quantized coeffs
   20800:	e0bff517 	ldw	r2,-44(fp)
   20804:	100490ba 	slli	r2,r2,2
   20808:	e0ffee17 	ldw	r3,-72(fp)
   2080c:	1885883a 	add	r2,r3,r2
   20810:	10c00017 	ldw	r3,0(r2)
   20814:	0151f0f4 	movhi	r5,18371
   20818:	29540004 	addi	r5,r5,20480
   2081c:	1809883a 	mov	r4,r3
   20820:	00214ac0 	call	214ac <__mulsf3>
   20824:	1007883a 	mov	r3,r2
   20828:	1805883a 	mov	r2,r3
   2082c:	1009883a 	mov	r4,r2
   20830:	00224a40 	call	224a4 <__extendsfdf2>
   20834:	100d883a 	mov	r6,r2
   20838:	180f883a 	mov	r7,r3
   2083c:	3009883a 	mov	r4,r6
   20840:	380b883a 	mov	r5,r7
   20844:	0020db80 	call	20db8 <round>
   20848:	100d883a 	mov	r6,r2
   2084c:	180f883a 	mov	r7,r3
   20850:	3009883a 	mov	r4,r6
   20854:	380b883a 	mov	r5,r7
   20858:	00223680 	call	22368 <__fixdfsi>
   2085c:	1009883a 	mov	r4,r2
   20860:	e0ffea17 	ldw	r3,-88(fp)
   20864:	e0bff517 	ldw	r2,-44(fp)
   20868:	100490ba 	slli	r2,r2,2
   2086c:	1885883a 	add	r2,r3,r2
   20870:	11000015 	stw	r4,0(r2)
    for(int j = 0; j < n; j++){
   20874:	e0bff517 	ldw	r2,-44(fp)
   20878:	10800044 	addi	r2,r2,1
   2087c:	e0bff515 	stw	r2,-44(fp)
   20880:	e0fff517 	ldw	r3,-44(fp)
   20884:	e0bfef17 	ldw	r2,-68(fp)
   20888:	18bfdd16 	blt	r3,r2,20800 <main+0x1d0>
    	// multiplying by 10^m to grab m of the decimal places
    }

    FILE* fp;
    alt_8 mode = 0; // mode 0 = unfiltered, mode 1 = filtered.
   2088c:	e03ff645 	stb	zero,-39(fp)
    char prompt = 0;
   20890:	e03ff685 	stb	zero,-38(fp)
    fp = fopen ("/dev/jtag_uart", "r+");
   20894:	014000f4 	movhi	r5,3
   20898:	29519604 	addi	r5,r5,18008
   2089c:	010000f4 	movhi	r4,3
   208a0:	21119704 	addi	r4,r4,18012
   208a4:	0022f1c0 	call	22f1c <fopen>
   208a8:	e0bfe915 	stw	r2,-92(fp)

    alt_up_accelerometer_spi_dev * acc_dev;
    acc_dev = alt_up_accelerometer_spi_open_dev("/dev/accelerometer_spi");
   208ac:	010000f4 	movhi	r4,3
   208b0:	21119b04 	addi	r4,r4,18028
   208b4:	00334940 	call	33494 <alt_up_accelerometer_spi_open_dev>
   208b8:	e0bfe815 	stw	r2,-96(fp)
    if (acc_dev == NULL) { // if return 1, check if the spi ip name is "accelerometer_spi"
   208bc:	e0bfe817 	ldw	r2,-96(fp)
   208c0:	1000031e 	bne	r2,zero,208d0 <main+0x2a0>
        return 1;
   208c4:	00800044 	movi	r2,1
   208c8:	e6ffac17 	ldw	sp,-336(fp)
   208cc:	00012d06 	br	20d84 <main+0x754>
    }

    timer_init(sys_timer_isr);
   208d0:	010000b4 	movhi	r4,2
   208d4:	2100d304 	addi	r4,r4,844
   208d8:	00204180 	call	20418 <timer_init>

    while(1) {

    	for(alt_u8 j = 0; j < 200; j++){
   208dc:	e03ff6c5 	stb	zero,-37(fp)
   208e0:	00003606 	br	209bc <main+0x38c>
    		// shift register
			for (int i = 0; i < n; i++){
   208e4:	e03ff715 	stw	zero,-36(fp)
   208e8:	00000e06 	br	20924 <main+0x2f4>
				x_read[i+1] = x_read[i];
   208ec:	e0bff717 	ldw	r2,-36(fp)
   208f0:	10800044 	addi	r2,r2,1
   208f4:	e13fec17 	ldw	r4,-80(fp)
   208f8:	e0fff717 	ldw	r3,-36(fp)
   208fc:	180690ba 	slli	r3,r3,2
   20900:	20c7883a 	add	r3,r4,r3
   20904:	18c00017 	ldw	r3,0(r3)
   20908:	e13fec17 	ldw	r4,-80(fp)
   2090c:	100490ba 	slli	r2,r2,2
   20910:	2085883a 	add	r2,r4,r2
   20914:	10c00015 	stw	r3,0(r2)
			for (int i = 0; i < n; i++){
   20918:	e0bff717 	ldw	r2,-36(fp)
   2091c:	10800044 	addi	r2,r2,1
   20920:	e0bff715 	stw	r2,-36(fp)
   20924:	e0fff717 	ldw	r3,-36(fp)
   20928:	e0bfef17 	ldw	r2,-68(fp)
   2092c:	18bfef16 	blt	r3,r2,208ec <main+0x2bc>
			}

			// update accel value
			alt_up_accelerometer_spi_read_x_axis(acc_dev, & x_read[0]);
   20930:	e0bfec17 	ldw	r2,-80(fp)
   20934:	100b883a 	mov	r5,r2
   20938:	e13fe817 	ldw	r4,-96(fp)
   2093c:	00335e40 	call	335e4 <alt_up_accelerometer_spi_read_x_axis>
			// filter output

			if (mode == 1) {
   20940:	e0bff647 	ldb	r2,-39(fp)
   20944:	10800058 	cmpnei	r2,r2,1
   20948:	10000c1e 	bne	r2,zero,2097c <main+0x34c>

				y = fir_quantized(int_coeffs, x_read, n);
   2094c:	e0bfea17 	ldw	r2,-88(fp)
   20950:	e0ffec17 	ldw	r3,-80(fp)
   20954:	e1bfef17 	ldw	r6,-68(fp)
   20958:	180b883a 	mov	r5,r3
   2095c:	1009883a 	mov	r4,r2
   20960:	00205640 	call	20564 <fir_quantized>
   20964:	e0bff415 	stw	r2,-48(fp)
				alt_printf("y value (filtered): %x\n", y);
   20968:	e17ff417 	ldw	r5,-48(fp)
   2096c:	010000f4 	movhi	r4,3
   20970:	2111a104 	addi	r4,r4,18052
   20974:	003225c0 	call	3225c <alt_printf>
   20978:	00000906 	br	209a0 <main+0x370>

			} else if (mode == 0) {
   2097c:	e0bff647 	ldb	r2,-39(fp)
   20980:	1000071e 	bne	r2,zero,209a0 <main+0x370>

				y = x_read[0];
   20984:	e0bfec17 	ldw	r2,-80(fp)
   20988:	10800017 	ldw	r2,0(r2)
   2098c:	e0bff415 	stw	r2,-48(fp)
				alt_printf("y value (raw): %x\n", y);
   20990:	e17ff417 	ldw	r5,-48(fp)
   20994:	010000f4 	movhi	r4,3
   20998:	2111a704 	addi	r4,r4,18076
   2099c:	003225c0 	call	3225c <alt_printf>
			}

			convert_read(y, & level, & led);
   209a0:	d1a71204 	addi	r6,gp,-25528
   209a4:	d1671304 	addi	r5,gp,-25524
   209a8:	e13ff417 	ldw	r4,-48(fp)
   209ac:	00202bc0 	call	202bc <convert_read>
    	for(alt_u8 j = 0; j < 200; j++){
   209b0:	e0bff6c3 	ldbu	r2,-37(fp)
   209b4:	10800044 	addi	r2,r2,1
   209b8:	e0bff6c5 	stb	r2,-37(fp)
   209bc:	e0bff6c3 	ldbu	r2,-37(fp)
   209c0:	10803230 	cmpltui	r2,r2,200
   209c4:	103fc71e 	bne	r2,zero,208e4 <main+0x2b4>
    	}

    	if (fp) {
   209c8:	e0bfe917 	ldw	r2,-92(fp)
   209cc:	103fc326 	beq	r2,zero,208dc <main+0x2ac>
    		prompt = getc(fp);
   209d0:	e13fe917 	ldw	r4,-92(fp)
   209d4:	0023b3c0 	call	23b3c <getc>
   209d8:	e0bff685 	stb	r2,-38(fp)
    		fprintf(fp, "<--> Detected the character %c <--> \n", prompt);
   209dc:	e0bff687 	ldb	r2,-38(fp)
   209e0:	100d883a 	mov	r6,r2
   209e4:	014000f4 	movhi	r5,3
   209e8:	2951ac04 	addi	r5,r5,18096
   209ec:	e13fe917 	ldw	r4,-92(fp)
   209f0:	0022f5c0 	call	22f5c <fprintf>
    		if (prompt == '1') {
   209f4:	e0bff687 	ldb	r2,-38(fp)
   209f8:	10800c58 	cmpnei	r2,r2,49
   209fc:	1000031e 	bne	r2,zero,20a0c <main+0x3dc>
    			mode = 1;
   20a00:	00800044 	movi	r2,1
   20a04:	e0bff645 	stb	r2,-39(fp)
   20a08:	003fb406 	br	208dc <main+0x2ac>
    		} else if (prompt == '0') {
   20a0c:	e0bff687 	ldb	r2,-38(fp)
   20a10:	10800c18 	cmpnei	r2,r2,48
   20a14:	1000021e 	bne	r2,zero,20a20 <main+0x3f0>
    			mode = 0;
   20a18:	e03ff645 	stb	zero,-39(fp)
   20a1c:	003faf06 	br	208dc <main+0x2ac>
    		} else if (prompt == 'c') {
   20a20:	e0bff687 	ldb	r2,-38(fp)
   20a24:	108018d8 	cmpnei	r2,r2,99
   20a28:	103fac1e 	bne	r2,zero,208dc <main+0x2ac>

    			alt_printf("BOARD: preparing for coefficient update\n");
   20a2c:	010000f4 	movhi	r4,3
   20a30:	2111b604 	addi	r4,r4,18136
   20a34:	003225c0 	call	3225c <alt_printf>

    			char *buffer = calloc(30, sizeof(char));
   20a38:	01400044 	movi	r5,1
   20a3c:	01000784 	movi	r4,30
   20a40:	002276c0 	call	2276c <calloc>
   20a44:	e0bfe715 	stw	r2,-100(fp)
    			float *new_coeffs = calloc(49, sizeof(char));
   20a48:	01400044 	movi	r5,1
   20a4c:	01000c44 	movi	r4,49
   20a50:	002276c0 	call	2276c <calloc>
   20a54:	e0bfe615 	stw	r2,-104(fp)
    			buffer[29] = '\0'; // set a null pointer
   20a58:	e0bfe717 	ldw	r2,-100(fp)
   20a5c:	10800744 	addi	r2,r2,29
   20a60:	10000005 	stb	zero,0(r2)

    			int coeff_count = 0; // counts number of coeffs
   20a64:	e03ff215 	stw	zero,-56(fp)
    			int character_count = 0;
   20a68:	e03ff115 	stw	zero,-60(fp)

    			prompt = getc(fp); // reads from jtag_uart interface
   20a6c:	e13fe917 	ldw	r4,-92(fp)
   20a70:	0023b3c0 	call	23b3c <getc>
   20a74:	e0bff685 	stb	r2,-38(fp)

    			while (prompt != 'x'){
   20a78:	00003606 	br	20b54 <main+0x524>
    				fflush(stdout);
   20a7c:	d0a00117 	ldw	r2,-32764(gp)
   20a80:	10800217 	ldw	r2,8(r2)
   20a84:	1009883a 	mov	r4,r2
   20a88:	0022ac00 	call	22ac0 <fflush>
    				alt_printf("BOARD << received: %c \n", prompt);
   20a8c:	e0bff687 	ldb	r2,-38(fp)
   20a90:	100b883a 	mov	r5,r2
   20a94:	010000f4 	movhi	r4,3
   20a98:	2111c104 	addi	r4,r4,18180
   20a9c:	003225c0 	call	3225c <alt_printf>
    				fflush(stdout);
   20aa0:	d0a00117 	ldw	r2,-32764(gp)
   20aa4:	10800217 	ldw	r2,8(r2)
   20aa8:	1009883a 	mov	r4,r2
   20aac:	0022ac00 	call	22ac0 <fflush>

    				if (prompt == ','){
   20ab0:	e0bff687 	ldb	r2,-38(fp)
   20ab4:	10800b18 	cmpnei	r2,r2,44
   20ab8:	10001b1e 	bne	r2,zero,20b28 <main+0x4f8>

    					new_coeffs[coeff_count] = atof(buffer);
   20abc:	e13fe717 	ldw	r4,-100(fp)
   20ac0:	00227640 	call	22764 <atof>
   20ac4:	100d883a 	mov	r6,r2
   20ac8:	180f883a 	mov	r7,r3
   20acc:	e0bff217 	ldw	r2,-56(fp)
   20ad0:	100490ba 	slli	r2,r2,2
   20ad4:	e0ffe617 	ldw	r3,-104(fp)
   20ad8:	18a1883a 	add	r16,r3,r2
   20adc:	3009883a 	mov	r4,r6
   20ae0:	380b883a 	mov	r5,r7
   20ae4:	00225a00 	call	225a0 <__truncdfsf2>
   20ae8:	1007883a 	mov	r3,r2
   20aec:	80c00015 	stw	r3,0(r16)
    					for(; character_count > 0; character_count--){
   20af0:	00000706 	br	20b10 <main+0x4e0>
    						buffer[character_count] = '\0'; // two in one: clears buffer, and resets char count to 0
   20af4:	e0bff117 	ldw	r2,-60(fp)
   20af8:	e0ffe717 	ldw	r3,-100(fp)
   20afc:	1885883a 	add	r2,r3,r2
   20b00:	10000005 	stb	zero,0(r2)
    					for(; character_count > 0; character_count--){
   20b04:	e0bff117 	ldw	r2,-60(fp)
   20b08:	10bfffc4 	addi	r2,r2,-1
   20b0c:	e0bff115 	stw	r2,-60(fp)
   20b10:	e0bff117 	ldw	r2,-60(fp)
   20b14:	00bff716 	blt	zero,r2,20af4 <main+0x4c4>
    					}
    					coeff_count++;
   20b18:	e0bff217 	ldw	r2,-56(fp)
   20b1c:	10800044 	addi	r2,r2,1
   20b20:	e0bff215 	stw	r2,-56(fp)
   20b24:	00000806 	br	20b48 <main+0x518>

    				} else {

						buffer[character_count] = prompt;
   20b28:	e0bff117 	ldw	r2,-60(fp)
   20b2c:	e0ffe717 	ldw	r3,-100(fp)
   20b30:	1885883a 	add	r2,r3,r2
   20b34:	e0fff683 	ldbu	r3,-38(fp)
   20b38:	10c00005 	stb	r3,0(r2)
						character_count++;
   20b3c:	e0bff117 	ldw	r2,-60(fp)
   20b40:	10800044 	addi	r2,r2,1
   20b44:	e0bff115 	stw	r2,-60(fp)
    				}

    				prompt = getc(fp);
   20b48:	e13fe917 	ldw	r4,-92(fp)
   20b4c:	0023b3c0 	call	23b3c <getc>
   20b50:	e0bff685 	stb	r2,-38(fp)
    			while (prompt != 'x'){
   20b54:	e0bff687 	ldb	r2,-38(fp)
   20b58:	10801e18 	cmpnei	r2,r2,120
   20b5c:	103fc71e 	bne	r2,zero,20a7c <main+0x44c>
    			}

    			fprintf(fp, "<UPDATED_COEFFICIENTS> %f\n", new_coeffs[0]);
   20b60:	e0bfe617 	ldw	r2,-104(fp)
   20b64:	10c00017 	ldw	r3,0(r2)
   20b68:	1809883a 	mov	r4,r3
   20b6c:	00224a40 	call	224a4 <__extendsfdf2>
   20b70:	1009883a 	mov	r4,r2
   20b74:	180b883a 	mov	r5,r3
   20b78:	200d883a 	mov	r6,r4
   20b7c:	280f883a 	mov	r7,r5
   20b80:	014000f4 	movhi	r5,3
   20b84:	2951c704 	addi	r5,r5,18204
   20b88:	e13fe917 	ldw	r4,-92(fp)
   20b8c:	0022f5c0 	call	22f5c <fprintf>
    			fprintf(fp, "<UPDATED_COEFFICIENTS> %f\n", new_coeffs[1]);
   20b90:	e0bfe617 	ldw	r2,-104(fp)
   20b94:	10800104 	addi	r2,r2,4
   20b98:	10c00017 	ldw	r3,0(r2)
   20b9c:	1809883a 	mov	r4,r3
   20ba0:	00224a40 	call	224a4 <__extendsfdf2>
   20ba4:	1009883a 	mov	r4,r2
   20ba8:	180b883a 	mov	r5,r3
   20bac:	200d883a 	mov	r6,r4
   20bb0:	280f883a 	mov	r7,r5
   20bb4:	014000f4 	movhi	r5,3
   20bb8:	2951c704 	addi	r5,r5,18204
   20bbc:	e13fe917 	ldw	r4,-92(fp)
   20bc0:	0022f5c0 	call	22f5c <fprintf>
    			fprintf(fp, "<UPDATED_COEFFICIENTS> %f\n", new_coeffs[2]);
   20bc4:	e0bfe617 	ldw	r2,-104(fp)
   20bc8:	10800204 	addi	r2,r2,8
   20bcc:	10c00017 	ldw	r3,0(r2)
   20bd0:	1809883a 	mov	r4,r3
   20bd4:	00224a40 	call	224a4 <__extendsfdf2>
   20bd8:	1009883a 	mov	r4,r2
   20bdc:	180b883a 	mov	r5,r3
   20be0:	200d883a 	mov	r6,r4
   20be4:	280f883a 	mov	r7,r5
   20be8:	014000f4 	movhi	r5,3
   20bec:	2951c704 	addi	r5,r5,18204
   20bf0:	e13fe917 	ldw	r4,-92(fp)
   20bf4:	0022f5c0 	call	22f5c <fprintf>
    			fprintf(fp, "<UPDATED_COEFFICIENTS> %f\n", new_coeffs[3]);
   20bf8:	e0bfe617 	ldw	r2,-104(fp)
   20bfc:	10800304 	addi	r2,r2,12
   20c00:	10c00017 	ldw	r3,0(r2)
   20c04:	1809883a 	mov	r4,r3
   20c08:	00224a40 	call	224a4 <__extendsfdf2>
   20c0c:	1009883a 	mov	r4,r2
   20c10:	180b883a 	mov	r5,r3
   20c14:	200d883a 	mov	r6,r4
   20c18:	280f883a 	mov	r7,r5
   20c1c:	014000f4 	movhi	r5,3
   20c20:	2951c704 	addi	r5,r5,18204
   20c24:	e13fe917 	ldw	r4,-92(fp)
   20c28:	0022f5c0 	call	22f5c <fprintf>
    			fprintf(fp, "<UPDATED_COEFFICIENTS> %f\n", new_coeffs[4]);
   20c2c:	e0bfe617 	ldw	r2,-104(fp)
   20c30:	10800404 	addi	r2,r2,16
   20c34:	10c00017 	ldw	r3,0(r2)
   20c38:	1809883a 	mov	r4,r3
   20c3c:	00224a40 	call	224a4 <__extendsfdf2>
   20c40:	1009883a 	mov	r4,r2
   20c44:	180b883a 	mov	r5,r3
   20c48:	200d883a 	mov	r6,r4
   20c4c:	280f883a 	mov	r7,r5
   20c50:	014000f4 	movhi	r5,3
   20c54:	2951c704 	addi	r5,r5,18204
   20c58:	e13fe917 	ldw	r4,-92(fp)
   20c5c:	0022f5c0 	call	22f5c <fprintf>
    			fprintf(fp, "...\n");
   20c60:	e1ffe917 	ldw	r7,-92(fp)
   20c64:	01800104 	movi	r6,4
   20c68:	01400044 	movi	r5,1
   20c6c:	010000f4 	movhi	r4,3
   20c70:	2111ce04 	addi	r4,r4,18232
   20c74:	0023a8c0 	call	23a8c <fwrite>
    			fprintf(fp, "<UPDATED_COEFFICIENTS> %f\n", new_coeffs[49]);
   20c78:	e0bfe617 	ldw	r2,-104(fp)
   20c7c:	10803104 	addi	r2,r2,196
   20c80:	10c00017 	ldw	r3,0(r2)
   20c84:	1809883a 	mov	r4,r3
   20c88:	00224a40 	call	224a4 <__extendsfdf2>
   20c8c:	1009883a 	mov	r4,r2
   20c90:	180b883a 	mov	r5,r3
   20c94:	200d883a 	mov	r6,r4
   20c98:	280f883a 	mov	r7,r5
   20c9c:	014000f4 	movhi	r5,3
   20ca0:	2951c704 	addi	r5,r5,18204
   20ca4:	e13fe917 	ldw	r4,-92(fp)
   20ca8:	0022f5c0 	call	22f5c <fprintf>

    			for(int newc = 0; newc < 50; newc++){
   20cac:	e03ff015 	stw	zero,-64(fp)
   20cb0:	00002a06 	br	20d5c <main+0x72c>
    				fir_coeffs[newc] = new_coeffs[newc];
   20cb4:	e0bff017 	ldw	r2,-64(fp)
   20cb8:	100490ba 	slli	r2,r2,2
   20cbc:	e0ffe617 	ldw	r3,-104(fp)
   20cc0:	1889883a 	add	r4,r3,r2
   20cc4:	e0bff017 	ldw	r2,-64(fp)
   20cc8:	100490ba 	slli	r2,r2,2
   20ccc:	e0ffee17 	ldw	r3,-72(fp)
   20cd0:	1885883a 	add	r2,r3,r2
   20cd4:	20c00017 	ldw	r3,0(r4)
   20cd8:	10c00015 	stw	r3,0(r2)
    				int_coeffs[newc] = (alt_32)round(new_coeffs[newc]*100000);
   20cdc:	e0bff017 	ldw	r2,-64(fp)
   20ce0:	100490ba 	slli	r2,r2,2
   20ce4:	e0ffe617 	ldw	r3,-104(fp)
   20ce8:	1885883a 	add	r2,r3,r2
   20cec:	10c00017 	ldw	r3,0(r2)
   20cf0:	0151f0f4 	movhi	r5,18371
   20cf4:	29540004 	addi	r5,r5,20480
   20cf8:	1809883a 	mov	r4,r3
   20cfc:	00214ac0 	call	214ac <__mulsf3>
   20d00:	1007883a 	mov	r3,r2
   20d04:	1805883a 	mov	r2,r3
   20d08:	1009883a 	mov	r4,r2
   20d0c:	00224a40 	call	224a4 <__extendsfdf2>
   20d10:	100d883a 	mov	r6,r2
   20d14:	180f883a 	mov	r7,r3
   20d18:	3009883a 	mov	r4,r6
   20d1c:	380b883a 	mov	r5,r7
   20d20:	0020db80 	call	20db8 <round>
   20d24:	100d883a 	mov	r6,r2
   20d28:	180f883a 	mov	r7,r3
   20d2c:	3009883a 	mov	r4,r6
   20d30:	380b883a 	mov	r5,r7
   20d34:	00223680 	call	22368 <__fixdfsi>
   20d38:	1009883a 	mov	r4,r2
   20d3c:	e0ffea17 	ldw	r3,-88(fp)
   20d40:	e0bff017 	ldw	r2,-64(fp)
   20d44:	100490ba 	slli	r2,r2,2
   20d48:	1885883a 	add	r2,r3,r2
   20d4c:	11000015 	stw	r4,0(r2)
    			for(int newc = 0; newc < 50; newc++){
   20d50:	e0bff017 	ldw	r2,-64(fp)
   20d54:	10800044 	addi	r2,r2,1
   20d58:	e0bff015 	stw	r2,-64(fp)
   20d5c:	e0bff017 	ldw	r2,-64(fp)
   20d60:	10800c90 	cmplti	r2,r2,50
   20d64:	103fd31e 	bne	r2,zero,20cb4 <main+0x684>
    			}

    			free(buffer);
   20d68:	e13fe717 	ldw	r4,-100(fp)
   20d6c:	0023db40 	call	23db4 <free>
    			free(new_coeffs);
   20d70:	e13fe617 	ldw	r4,-104(fp)
   20d74:	0023db40 	call	23db4 <free>
    			buffer=NULL;
   20d78:	e03fe715 	stw	zero,-100(fp)
    			new_coeffs=NULL;
   20d7c:	e03fe615 	stw	zero,-104(fp)
    	for(alt_u8 j = 0; j < 200; j++){
   20d80:	003ed606 	br	208dc <main+0x2ac>
    	}
    }


    return 0;
}
   20d84:	e6fff804 	addi	sp,fp,-32
   20d88:	dfc00917 	ldw	ra,36(sp)
   20d8c:	df000817 	ldw	fp,32(sp)
   20d90:	ddc00717 	ldw	r23,28(sp)
   20d94:	dd800617 	ldw	r22,24(sp)
   20d98:	dd400517 	ldw	r21,20(sp)
   20d9c:	dd000417 	ldw	r20,16(sp)
   20da0:	dcc00317 	ldw	r19,12(sp)
   20da4:	dc800217 	ldw	r18,8(sp)
   20da8:	dc400117 	ldw	r17,4(sp)
   20dac:	dc000017 	ldw	r16,0(sp)
   20db0:	dec00a04 	addi	sp,sp,40
   20db4:	f800283a 	ret

00020db8 <round>:
   20db8:	2811d53a 	srai	r8,r5,20
   20dbc:	2807883a 	mov	r3,r5
   20dc0:	2005883a 	mov	r2,r4
   20dc4:	4201ffcc 	andi	r8,r8,2047
   20dc8:	41bf0044 	addi	r6,r8,-1023
   20dcc:	32400508 	cmpgei	r9,r6,20
   20dd0:	4800081e 	bne	r9,zero,20df4 <round+0x3c>
   20dd4:	30002216 	blt	r6,zero,20e60 <round+0xa8>
   20dd8:	01000434 	movhi	r4,16
   20ddc:	213fffc4 	addi	r4,r4,-1
   20de0:	2189d83a 	sra	r4,r4,r6
   20de4:	290a703a 	and	r5,r5,r4
   20de8:	288ab03a 	or	r5,r5,r2
   20dec:	2800211e 	bne	r5,zero,20e74 <round+0xbc>
   20df0:	f800283a 	ret
   20df4:	32400d10 	cmplti	r9,r6,52
   20df8:	48000a1e 	bne	r9,zero,20e24 <round+0x6c>
   20dfc:	31810018 	cmpnei	r6,r6,1024
   20e00:	303ffb1e 	bne	r6,zero,20df0 <round+0x38>
   20e04:	deffff04 	addi	sp,sp,-4
   20e08:	200d883a 	mov	r6,r4
   20e0c:	280f883a 	mov	r7,r5
   20e10:	dfc00015 	stw	ra,0(sp)
   20e14:	00219f00 	call	219f0 <__adddf3>
   20e18:	dfc00017 	ldw	ra,0(sp)
   20e1c:	dec00104 	addi	sp,sp,4
   20e20:	f800283a 	ret
   20e24:	013fffc4 	movi	r4,-1
   20e28:	423efb44 	addi	r8,r8,-1043
   20e2c:	2210d83a 	srl	r8,r4,r8
   20e30:	1208703a 	and	r4,r2,r8
   20e34:	20001626 	beq	r4,zero,20e90 <round+0xd8>
   20e38:	01000cc4 	movi	r4,51
   20e3c:	2189c83a 	sub	r4,r4,r6
   20e40:	01800044 	movi	r6,1
   20e44:	310c983a 	sll	r6,r6,r4
   20e48:	308d883a 	add	r6,r6,r2
   20e4c:	3080012e 	bgeu	r6,r2,20e54 <round+0x9c>
   20e50:	28c00044 	addi	r3,r5,1
   20e54:	0210303a 	nor	r8,zero,r8
   20e58:	4184703a 	and	r2,r8,r6
   20e5c:	f800283a 	ret
   20e60:	31bfffe0 	cmpeqi	r6,r6,-1
   20e64:	28e0002c 	andhi	r3,r5,32768
   20e68:	30000a1e 	bne	r6,zero,20e94 <round+0xdc>
   20e6c:	0005883a 	mov	r2,zero
   20e70:	f800283a 	ret
   20e74:	01c00234 	movhi	r7,8
   20e78:	398dd83a 	sra	r6,r7,r6
   20e7c:	0108303a 	nor	r4,zero,r4
   20e80:	0005883a 	mov	r2,zero
   20e84:	30c7883a 	add	r3,r6,r3
   20e88:	1906703a 	and	r3,r3,r4
   20e8c:	f800283a 	ret
   20e90:	f800283a 	ret
   20e94:	18cffc34 	orhi	r3,r3,16368
   20e98:	003ff406 	br	20e6c <round+0xb4>

00020e9c <__divsi3>:
   20e9c:	20001a16 	blt	r4,zero,20f08 <__divsi3+0x6c>
   20ea0:	000f883a 	mov	r7,zero
   20ea4:	2800020e 	bge	r5,zero,20eb0 <__divsi3+0x14>
   20ea8:	014bc83a 	sub	r5,zero,r5
   20eac:	39c0005c 	xori	r7,r7,1
   20eb0:	200d883a 	mov	r6,r4
   20eb4:	00c00044 	movi	r3,1
   20eb8:	2900092e 	bgeu	r5,r4,20ee0 <__divsi3+0x44>
   20ebc:	00800804 	movi	r2,32
   20ec0:	00c00044 	movi	r3,1
   20ec4:	00000106 	br	20ecc <__divsi3+0x30>
   20ec8:	10001226 	beq	r2,zero,20f14 <__divsi3+0x78>
   20ecc:	294b883a 	add	r5,r5,r5
   20ed0:	10bfffc4 	addi	r2,r2,-1
   20ed4:	18c7883a 	add	r3,r3,r3
   20ed8:	293ffb36 	bltu	r5,r4,20ec8 <__divsi3+0x2c>
   20edc:	18000d26 	beq	r3,zero,20f14 <__divsi3+0x78>
   20ee0:	0005883a 	mov	r2,zero
   20ee4:	31400236 	bltu	r6,r5,20ef0 <__divsi3+0x54>
   20ee8:	314dc83a 	sub	r6,r6,r5
   20eec:	10c4b03a 	or	r2,r2,r3
   20ef0:	1806d07a 	srli	r3,r3,1
   20ef4:	280ad07a 	srli	r5,r5,1
   20ef8:	183ffa1e 	bne	r3,zero,20ee4 <__divsi3+0x48>
   20efc:	38000126 	beq	r7,zero,20f04 <__divsi3+0x68>
   20f00:	0085c83a 	sub	r2,zero,r2
   20f04:	f800283a 	ret
   20f08:	0109c83a 	sub	r4,zero,r4
   20f0c:	01c00044 	movi	r7,1
   20f10:	003fe406 	br	20ea4 <__divsi3+0x8>
   20f14:	0005883a 	mov	r2,zero
   20f18:	003ff806 	br	20efc <__divsi3+0x60>

00020f1c <__modsi3>:
   20f1c:	20001916 	blt	r4,zero,20f84 <__modsi3+0x68>
   20f20:	000f883a 	mov	r7,zero
   20f24:	2005883a 	mov	r2,r4
   20f28:	2800010e 	bge	r5,zero,20f30 <__modsi3+0x14>
   20f2c:	014bc83a 	sub	r5,zero,r5
   20f30:	00c00044 	movi	r3,1
   20f34:	2900092e 	bgeu	r5,r4,20f5c <__modsi3+0x40>
   20f38:	01800804 	movi	r6,32
   20f3c:	00c00044 	movi	r3,1
   20f40:	00000106 	br	20f48 <__modsi3+0x2c>
   20f44:	30000d26 	beq	r6,zero,20f7c <__modsi3+0x60>
   20f48:	294b883a 	add	r5,r5,r5
   20f4c:	31bfffc4 	addi	r6,r6,-1
   20f50:	18c7883a 	add	r3,r3,r3
   20f54:	293ffb36 	bltu	r5,r4,20f44 <__modsi3+0x28>
   20f58:	18000826 	beq	r3,zero,20f7c <__modsi3+0x60>
   20f5c:	1806d07a 	srli	r3,r3,1
   20f60:	11400136 	bltu	r2,r5,20f68 <__modsi3+0x4c>
   20f64:	1145c83a 	sub	r2,r2,r5
   20f68:	280ad07a 	srli	r5,r5,1
   20f6c:	183ffb1e 	bne	r3,zero,20f5c <__modsi3+0x40>
   20f70:	38000126 	beq	r7,zero,20f78 <__modsi3+0x5c>
   20f74:	0085c83a 	sub	r2,zero,r2
   20f78:	f800283a 	ret
   20f7c:	2005883a 	mov	r2,r4
   20f80:	003ffb06 	br	20f70 <__modsi3+0x54>
   20f84:	0109c83a 	sub	r4,zero,r4
   20f88:	01c00044 	movi	r7,1
   20f8c:	003fe506 	br	20f24 <__modsi3+0x8>

00020f90 <__udivsi3>:
   20f90:	200d883a 	mov	r6,r4
   20f94:	2900152e 	bgeu	r5,r4,20fec <__udivsi3+0x5c>
   20f98:	28001416 	blt	r5,zero,20fec <__udivsi3+0x5c>
   20f9c:	00800804 	movi	r2,32
   20fa0:	00c00044 	movi	r3,1
   20fa4:	00000206 	br	20fb0 <__udivsi3+0x20>
   20fa8:	10000e26 	beq	r2,zero,20fe4 <__udivsi3+0x54>
   20fac:	28000516 	blt	r5,zero,20fc4 <__udivsi3+0x34>
   20fb0:	294b883a 	add	r5,r5,r5
   20fb4:	10bfffc4 	addi	r2,r2,-1
   20fb8:	18c7883a 	add	r3,r3,r3
   20fbc:	293ffa36 	bltu	r5,r4,20fa8 <__udivsi3+0x18>
   20fc0:	18000826 	beq	r3,zero,20fe4 <__udivsi3+0x54>
   20fc4:	0005883a 	mov	r2,zero
   20fc8:	31400236 	bltu	r6,r5,20fd4 <__udivsi3+0x44>
   20fcc:	314dc83a 	sub	r6,r6,r5
   20fd0:	10c4b03a 	or	r2,r2,r3
   20fd4:	1806d07a 	srli	r3,r3,1
   20fd8:	280ad07a 	srli	r5,r5,1
   20fdc:	183ffa1e 	bne	r3,zero,20fc8 <__udivsi3+0x38>
   20fe0:	f800283a 	ret
   20fe4:	0005883a 	mov	r2,zero
   20fe8:	f800283a 	ret
   20fec:	00c00044 	movi	r3,1
   20ff0:	003ff406 	br	20fc4 <__udivsi3+0x34>

00020ff4 <__umodsi3>:
   20ff4:	2005883a 	mov	r2,r4
   20ff8:	2900132e 	bgeu	r5,r4,21048 <__umodsi3+0x54>
   20ffc:	28001216 	blt	r5,zero,21048 <__umodsi3+0x54>
   21000:	01800804 	movi	r6,32
   21004:	00c00044 	movi	r3,1
   21008:	00000206 	br	21014 <__umodsi3+0x20>
   2100c:	30000c26 	beq	r6,zero,21040 <__umodsi3+0x4c>
   21010:	28000516 	blt	r5,zero,21028 <__umodsi3+0x34>
   21014:	294b883a 	add	r5,r5,r5
   21018:	31bfffc4 	addi	r6,r6,-1
   2101c:	18c7883a 	add	r3,r3,r3
   21020:	293ffa36 	bltu	r5,r4,2100c <__umodsi3+0x18>
   21024:	18000626 	beq	r3,zero,21040 <__umodsi3+0x4c>
   21028:	1806d07a 	srli	r3,r3,1
   2102c:	11400136 	bltu	r2,r5,21034 <__umodsi3+0x40>
   21030:	1145c83a 	sub	r2,r2,r5
   21034:	280ad07a 	srli	r5,r5,1
   21038:	183ffb1e 	bne	r3,zero,21028 <__umodsi3+0x34>
   2103c:	f800283a 	ret
   21040:	2005883a 	mov	r2,r4
   21044:	f800283a 	ret
   21048:	00c00044 	movi	r3,1
   2104c:	003ff606 	br	21028 <__umodsi3+0x34>

00021050 <__addsf3>:
   21050:	280cd5fa 	srli	r6,r5,23
   21054:	2006d5fa 	srli	r3,r4,23
   21058:	2010d7fa 	srli	r8,r4,31
   2105c:	01c02034 	movhi	r7,128
   21060:	2818d7fa 	srli	r12,r5,31
   21064:	defffc04 	addi	sp,sp,-16
   21068:	39ffffc4 	addi	r7,r7,-1
   2106c:	3914703a 	and	r10,r7,r4
   21070:	32403fcc 	andi	r9,r6,255
   21074:	dc800215 	stw	r18,8(sp)
   21078:	dc400115 	stw	r17,4(sp)
   2107c:	395a703a 	and	r13,r7,r5
   21080:	1c403fcc 	andi	r17,r3,255
   21084:	dfc00315 	stw	ra,12(sp)
   21088:	dc000015 	stw	r16,0(sp)
   2108c:	501c90fa 	slli	r14,r10,3
   21090:	681690fa 	slli	r11,r13,3
   21094:	500d883a 	mov	r6,r10
   21098:	4025883a 	mov	r18,r8
   2109c:	8a45c83a 	sub	r2,r17,r9
   210a0:	43004b26 	beq	r8,r12,211d0 <__addsf3+0x180>
   210a4:	0080390e 	bge	zero,r2,2118c <__addsf3+0x13c>
   210a8:	48006326 	beq	r9,zero,21238 <__addsf3+0x1e8>
   210ac:	88c03fe0 	cmpeqi	r3,r17,255
   210b0:	1800401e 	bne	r3,zero,211b4 <__addsf3+0x164>
   210b4:	5ac10034 	orhi	r11,r11,1024
   210b8:	10c00708 	cmpgei	r3,r2,28
   210bc:	1800ab1e 	bne	r3,zero,2136c <__addsf3+0x31c>
   210c0:	01000804 	movi	r4,32
   210c4:	2089c83a 	sub	r4,r4,r2
   210c8:	5908983a 	sll	r4,r11,r4
   210cc:	5884d83a 	srl	r2,r11,r2
   210d0:	2008c03a 	cmpne	r4,r4,zero
   210d4:	1104b03a 	or	r2,r2,r4
   210d8:	7085c83a 	sub	r2,r14,r2
   210dc:	10c1002c 	andhi	r3,r2,1024
   210e0:	18008526 	beq	r3,zero,212f8 <__addsf3+0x2a8>
   210e4:	04010034 	movhi	r16,1024
   210e8:	843fffc4 	addi	r16,r16,-1
   210ec:	1420703a 	and	r16,r2,r16
   210f0:	8009883a 	mov	r4,r16
   210f4:	00227100 	call	22710 <__clzsi2>
   210f8:	10fffec4 	addi	r3,r2,-5
   210fc:	80c4983a 	sll	r2,r16,r3
   21100:	1c409516 	blt	r3,r17,21358 <__addsf3+0x308>
   21104:	1c47c83a 	sub	r3,r3,r17
   21108:	1c000044 	addi	r16,r3,1
   2110c:	01000804 	movi	r4,32
   21110:	2409c83a 	sub	r4,r4,r16
   21114:	1108983a 	sll	r4,r2,r4
   21118:	1404d83a 	srl	r2,r2,r16
   2111c:	0023883a 	mov	r17,zero
   21120:	2008c03a 	cmpne	r4,r4,zero
   21124:	1104b03a 	or	r2,r2,r4
   21128:	10c001cc 	andi	r3,r2,7
   2112c:	18000426 	beq	r3,zero,21140 <__addsf3+0xf0>
   21130:	10c003cc 	andi	r3,r2,15
   21134:	18c00120 	cmpeqi	r3,r3,4
   21138:	1800011e 	bne	r3,zero,21140 <__addsf3+0xf0>
   2113c:	10800104 	addi	r2,r2,4
   21140:	10c1002c 	andhi	r3,r2,1024
   21144:	18006e26 	beq	r3,zero,21300 <__addsf3+0x2b0>
   21148:	88c00044 	addi	r3,r17,1
   2114c:	19003fe0 	cmpeqi	r4,r3,255
   21150:	20006d1e 	bne	r4,zero,21308 <__addsf3+0x2b8>
   21154:	100491ba 	slli	r2,r2,6
   21158:	100cd27a 	srli	r6,r2,9
   2115c:	18803fcc 	andi	r2,r3,255
   21160:	100495fa 	slli	r2,r2,23
   21164:	94803fcc 	andi	r18,r18,255
   21168:	902497fa 	slli	r18,r18,31
   2116c:	1184b03a 	or	r2,r2,r6
   21170:	1484b03a 	or	r2,r2,r18
   21174:	dfc00317 	ldw	ra,12(sp)
   21178:	dc800217 	ldw	r18,8(sp)
   2117c:	dc400117 	ldw	r17,4(sp)
   21180:	dc000017 	ldw	r16,0(sp)
   21184:	dec00404 	addi	sp,sp,16
   21188:	f800283a 	ret
   2118c:	10003026 	beq	r2,zero,21250 <__addsf3+0x200>
   21190:	4c49c83a 	sub	r4,r9,r17
   21194:	88007f1e 	bne	r17,zero,21394 <__addsf3+0x344>
   21198:	70003f26 	beq	r14,zero,21298 <__addsf3+0x248>
   2119c:	213fffc4 	addi	r4,r4,-1
   211a0:	2000b326 	beq	r4,zero,21470 <__addsf3+0x420>
   211a4:	48803fe0 	cmpeqi	r2,r9,255
   211a8:	10007d26 	beq	r2,zero,213a0 <__addsf3+0x350>
   211ac:	6025883a 	mov	r18,r12
   211b0:	6815883a 	mov	r10,r13
   211b4:	50005426 	beq	r10,zero,21308 <__addsf3+0x2b8>
   211b8:	00802034 	movhi	r2,128
   211bc:	51801034 	orhi	r6,r10,64
   211c0:	10bfffc4 	addi	r2,r2,-1
   211c4:	308c703a 	and	r6,r6,r2
   211c8:	00ffffc4 	movi	r3,-1
   211cc:	003fe306 	br	2115c <__addsf3+0x10c>
   211d0:	0080500e 	bge	zero,r2,21314 <__addsf3+0x2c4>
   211d4:	48002a26 	beq	r9,zero,21280 <__addsf3+0x230>
   211d8:	88c03fe0 	cmpeqi	r3,r17,255
   211dc:	183ff51e 	bne	r3,zero,211b4 <__addsf3+0x164>
   211e0:	5ac10034 	orhi	r11,r11,1024
   211e4:	10c00708 	cmpgei	r3,r2,28
   211e8:	1800741e 	bne	r3,zero,213bc <__addsf3+0x36c>
   211ec:	00c00804 	movi	r3,32
   211f0:	1887c83a 	sub	r3,r3,r2
   211f4:	58c6983a 	sll	r3,r11,r3
   211f8:	5884d83a 	srl	r2,r11,r2
   211fc:	1806c03a 	cmpne	r3,r3,zero
   21200:	10c4b03a 	or	r2,r2,r3
   21204:	1385883a 	add	r2,r2,r14
   21208:	10c1002c 	andhi	r3,r2,1024
   2120c:	18003a26 	beq	r3,zero,212f8 <__addsf3+0x2a8>
   21210:	8c400044 	addi	r17,r17,1
   21214:	88c03fe0 	cmpeqi	r3,r17,255
   21218:	18003b1e 	bne	r3,zero,21308 <__addsf3+0x2b8>
   2121c:	1008d07a 	srli	r4,r2,1
   21220:	00df8034 	movhi	r3,32256
   21224:	18ffffc4 	addi	r3,r3,-1
   21228:	1080004c 	andi	r2,r2,1
   2122c:	20c8703a 	and	r4,r4,r3
   21230:	2084b03a 	or	r2,r4,r2
   21234:	003fbc06 	br	21128 <__addsf3+0xd8>
   21238:	58001a26 	beq	r11,zero,212a4 <__addsf3+0x254>
   2123c:	10bfffc4 	addi	r2,r2,-1
   21240:	10007c26 	beq	r2,zero,21434 <__addsf3+0x3e4>
   21244:	88c03fe0 	cmpeqi	r3,r17,255
   21248:	183f9b26 	beq	r3,zero,210b8 <__addsf3+0x68>
   2124c:	003fd906 	br	211b4 <__addsf3+0x164>
   21250:	88800044 	addi	r2,r17,1
   21254:	10803f8c 	andi	r2,r2,254
   21258:	1000461e 	bne	r2,zero,21374 <__addsf3+0x324>
   2125c:	88006e1e 	bne	r17,zero,21418 <__addsf3+0x3c8>
   21260:	70007f26 	beq	r14,zero,21460 <__addsf3+0x410>
   21264:	583fbd26 	beq	r11,zero,2115c <__addsf3+0x10c>
   21268:	72c5c83a 	sub	r2,r14,r11
   2126c:	1101002c 	andhi	r4,r2,1024
   21270:	20008326 	beq	r4,zero,21480 <__addsf3+0x430>
   21274:	5b85c83a 	sub	r2,r11,r14
   21278:	6025883a 	mov	r18,r12
   2127c:	003faa06 	br	21128 <__addsf3+0xd8>
   21280:	58000826 	beq	r11,zero,212a4 <__addsf3+0x254>
   21284:	10bfffc4 	addi	r2,r2,-1
   21288:	10006826 	beq	r2,zero,2142c <__addsf3+0x3dc>
   2128c:	88c03fe0 	cmpeqi	r3,r17,255
   21290:	183fd426 	beq	r3,zero,211e4 <__addsf3+0x194>
   21294:	003fc706 	br	211b4 <__addsf3+0x164>
   21298:	6025883a 	mov	r18,r12
   2129c:	6815883a 	mov	r10,r13
   212a0:	4823883a 	mov	r17,r9
   212a4:	88803fe0 	cmpeqi	r2,r17,255
   212a8:	103fc21e 	bne	r2,zero,211b4 <__addsf3+0x164>
   212ac:	00802034 	movhi	r2,128
   212b0:	10bfffc4 	addi	r2,r2,-1
   212b4:	508c703a 	and	r6,r10,r2
   212b8:	8807883a 	mov	r3,r17
   212bc:	003fa706 	br	2115c <__addsf3+0x10c>
   212c0:	881f883a 	mov	r15,r17
   212c4:	8c400044 	addi	r17,r17,1
   212c8:	88803f8c 	andi	r2,r17,254
   212cc:	10004a1e 	bne	r2,zero,213f8 <__addsf3+0x3a8>
   212d0:	78005a1e 	bne	r15,zero,2143c <__addsf3+0x3ec>
   212d4:	70006e26 	beq	r14,zero,21490 <__addsf3+0x440>
   212d8:	583fa026 	beq	r11,zero,2115c <__addsf3+0x10c>
   212dc:	72c5883a 	add	r2,r14,r11
   212e0:	10c1002c 	andhi	r3,r2,1024
   212e4:	18006f26 	beq	r3,zero,214a4 <__addsf3+0x454>
   212e8:	00ff0034 	movhi	r3,64512
   212ec:	18ffffc4 	addi	r3,r3,-1
   212f0:	10c4703a 	and	r2,r2,r3
   212f4:	04400044 	movi	r17,1
   212f8:	10c001cc 	andi	r3,r2,7
   212fc:	183f8c1e 	bne	r3,zero,21130 <__addsf3+0xe0>
   21300:	1014d0fa 	srli	r10,r2,3
   21304:	003fe706 	br	212a4 <__addsf3+0x254>
   21308:	00ffffc4 	movi	r3,-1
   2130c:	000d883a 	mov	r6,zero
   21310:	003f9206 	br	2115c <__addsf3+0x10c>
   21314:	103fea26 	beq	r2,zero,212c0 <__addsf3+0x270>
   21318:	4c49c83a 	sub	r4,r9,r17
   2131c:	88003026 	beq	r17,zero,213e0 <__addsf3+0x390>
   21320:	48803fe0 	cmpeqi	r2,r9,255
   21324:	103fa21e 	bne	r2,zero,211b0 <__addsf3+0x160>
   21328:	73810034 	orhi	r14,r14,1024
   2132c:	20800708 	cmpgei	r2,r4,28
   21330:	1000491e 	bne	r2,zero,21458 <__addsf3+0x408>
   21334:	00800804 	movi	r2,32
   21338:	1105c83a 	sub	r2,r2,r4
   2133c:	7084983a 	sll	r2,r14,r2
   21340:	7108d83a 	srl	r4,r14,r4
   21344:	1004c03a 	cmpne	r2,r2,zero
   21348:	2088b03a 	or	r4,r4,r2
   2134c:	22c5883a 	add	r2,r4,r11
   21350:	4823883a 	mov	r17,r9
   21354:	003fac06 	br	21208 <__addsf3+0x1b8>
   21358:	013f0034 	movhi	r4,64512
   2135c:	213fffc4 	addi	r4,r4,-1
   21360:	88e3c83a 	sub	r17,r17,r3
   21364:	1104703a 	and	r2,r2,r4
   21368:	003f6f06 	br	21128 <__addsf3+0xd8>
   2136c:	00800044 	movi	r2,1
   21370:	003f5906 	br	210d8 <__addsf3+0x88>
   21374:	72e1c83a 	sub	r16,r14,r11
   21378:	8081002c 	andhi	r2,r16,1024
   2137c:	1000231e 	bne	r2,zero,2140c <__addsf3+0x3bc>
   21380:	803f5b1e 	bne	r16,zero,210f0 <__addsf3+0xa0>
   21384:	0025883a 	mov	r18,zero
   21388:	0007883a 	mov	r3,zero
   2138c:	000d883a 	mov	r6,zero
   21390:	003f7206 	br	2115c <__addsf3+0x10c>
   21394:	48803fe0 	cmpeqi	r2,r9,255
   21398:	103f841e 	bne	r2,zero,211ac <__addsf3+0x15c>
   2139c:	73810034 	orhi	r14,r14,1024
   213a0:	20800708 	cmpgei	r2,r4,28
   213a4:	10000726 	beq	r2,zero,213c4 <__addsf3+0x374>
   213a8:	01000044 	movi	r4,1
   213ac:	5905c83a 	sub	r2,r11,r4
   213b0:	6025883a 	mov	r18,r12
   213b4:	4823883a 	mov	r17,r9
   213b8:	003f4806 	br	210dc <__addsf3+0x8c>
   213bc:	00800044 	movi	r2,1
   213c0:	003f9006 	br	21204 <__addsf3+0x1b4>
   213c4:	00800804 	movi	r2,32
   213c8:	1105c83a 	sub	r2,r2,r4
   213cc:	7084983a 	sll	r2,r14,r2
   213d0:	7108d83a 	srl	r4,r14,r4
   213d4:	1004c03a 	cmpne	r2,r2,zero
   213d8:	2088b03a 	or	r4,r4,r2
   213dc:	003ff306 	br	213ac <__addsf3+0x35c>
   213e0:	703fae26 	beq	r14,zero,2129c <__addsf3+0x24c>
   213e4:	213fffc4 	addi	r4,r4,-1
   213e8:	20002b26 	beq	r4,zero,21498 <__addsf3+0x448>
   213ec:	48803fe0 	cmpeqi	r2,r9,255
   213f0:	103fce26 	beq	r2,zero,2132c <__addsf3+0x2dc>
   213f4:	003f6e06 	br	211b0 <__addsf3+0x160>
   213f8:	88803fe0 	cmpeqi	r2,r17,255
   213fc:	103fc21e 	bne	r2,zero,21308 <__addsf3+0x2b8>
   21400:	72c5883a 	add	r2,r14,r11
   21404:	1004d07a 	srli	r2,r2,1
   21408:	003fbb06 	br	212f8 <__addsf3+0x2a8>
   2140c:	5ba1c83a 	sub	r16,r11,r14
   21410:	6025883a 	mov	r18,r12
   21414:	003f3606 	br	210f0 <__addsf3+0xa0>
   21418:	7000091e 	bne	r14,zero,21440 <__addsf3+0x3f0>
   2141c:	583f631e 	bne	r11,zero,211ac <__addsf3+0x15c>
   21420:	0025883a 	mov	r18,zero
   21424:	380d883a 	mov	r6,r7
   21428:	003f6706 	br	211c8 <__addsf3+0x178>
   2142c:	72c5883a 	add	r2,r14,r11
   21430:	003f7506 	br	21208 <__addsf3+0x1b8>
   21434:	72c5c83a 	sub	r2,r14,r11
   21438:	003f2806 	br	210dc <__addsf3+0x8c>
   2143c:	703f5c26 	beq	r14,zero,211b0 <__addsf3+0x160>
   21440:	583f5c26 	beq	r11,zero,211b4 <__addsf3+0x164>
   21444:	20c0102c 	andhi	r3,r4,64
   21448:	183f5a26 	beq	r3,zero,211b4 <__addsf3+0x164>
   2144c:	2940102c 	andhi	r5,r5,64
   21450:	283f581e 	bne	r5,zero,211b4 <__addsf3+0x164>
   21454:	003f5506 	br	211ac <__addsf3+0x15c>
   21458:	01000044 	movi	r4,1
   2145c:	003fbb06 	br	2134c <__addsf3+0x2fc>
   21460:	58000826 	beq	r11,zero,21484 <__addsf3+0x434>
   21464:	6025883a 	mov	r18,r12
   21468:	680d883a 	mov	r6,r13
   2146c:	003f3b06 	br	2115c <__addsf3+0x10c>
   21470:	5b85c83a 	sub	r2,r11,r14
   21474:	6025883a 	mov	r18,r12
   21478:	4823883a 	mov	r17,r9
   2147c:	003f1706 	br	210dc <__addsf3+0x8c>
   21480:	103f9d1e 	bne	r2,zero,212f8 <__addsf3+0x2a8>
   21484:	0025883a 	mov	r18,zero
   21488:	000d883a 	mov	r6,zero
   2148c:	003f3306 	br	2115c <__addsf3+0x10c>
   21490:	680d883a 	mov	r6,r13
   21494:	003f3106 	br	2115c <__addsf3+0x10c>
   21498:	72c5883a 	add	r2,r14,r11
   2149c:	4823883a 	mov	r17,r9
   214a0:	003f5906 	br	21208 <__addsf3+0x1b8>
   214a4:	0023883a 	mov	r17,zero
   214a8:	003f9306 	br	212f8 <__addsf3+0x2a8>

000214ac <__mulsf3>:
   214ac:	defff704 	addi	sp,sp,-36
   214b0:	dc400215 	stw	r17,8(sp)
   214b4:	2022d5fa 	srli	r17,r4,23
   214b8:	dc000115 	stw	r16,4(sp)
   214bc:	04002034 	movhi	r16,128
   214c0:	dd000515 	stw	r20,20(sp)
   214c4:	843fffc4 	addi	r16,r16,-1
   214c8:	dfc00815 	stw	ra,32(sp)
   214cc:	dd800715 	stw	r22,28(sp)
   214d0:	dd400615 	stw	r21,24(sp)
   214d4:	dcc00415 	stw	r19,16(sp)
   214d8:	dc800315 	stw	r18,12(sp)
   214dc:	8c403fcc 	andi	r17,r17,255
   214e0:	2028d7fa 	srli	r20,r4,31
   214e4:	8120703a 	and	r16,r16,r4
   214e8:	88004e26 	beq	r17,zero,21624 <__mulsf3+0x178>
   214ec:	88803fe0 	cmpeqi	r2,r17,255
   214f0:	1000511e 	bne	r2,zero,21638 <__mulsf3+0x18c>
   214f4:	802090fa 	slli	r16,r16,3
   214f8:	8c7fe044 	addi	r17,r17,-127
   214fc:	002d883a 	mov	r22,zero
   21500:	84010034 	orhi	r16,r16,1024
   21504:	0027883a 	mov	r19,zero
   21508:	2804d5fa 	srli	r2,r5,23
   2150c:	01002034 	movhi	r4,128
   21510:	213fffc4 	addi	r4,r4,-1
   21514:	10803fcc 	andi	r2,r2,255
   21518:	282ad7fa 	srli	r21,r5,31
   2151c:	2164703a 	and	r18,r4,r5
   21520:	10004a26 	beq	r2,zero,2164c <__mulsf3+0x1a0>
   21524:	11003fe0 	cmpeqi	r4,r2,255
   21528:	20001e1e 	bne	r4,zero,215a4 <__mulsf3+0xf8>
   2152c:	900890fa 	slli	r4,r18,3
   21530:	10bfe044 	addi	r2,r2,-127
   21534:	88a3883a 	add	r17,r17,r2
   21538:	24810034 	orhi	r18,r4,1024
   2153c:	0009883a 	mov	r4,zero
   21540:	b1800428 	cmpgeui	r6,r22,16
   21544:	a544f03a 	xor	r2,r20,r21
   21548:	89c00044 	addi	r7,r17,1
   2154c:	3000461e 	bne	r6,zero,21668 <__mulsf3+0x1bc>
   21550:	b00690ba 	slli	r3,r22,2
   21554:	018000b4 	movhi	r6,2
   21558:	198d883a 	add	r6,r3,r6
   2155c:	30c55917 	ldw	r3,5476(r6)
   21560:	1800683a 	jmp	r3
   21564:	00021668 	cmpgeui	zero,zero,2137
   21568:	000215bc 	xorhi	zero,zero,2134
   2156c:	000215bc 	xorhi	zero,zero,2134
   21570:	000215b8 	rdprs	zero,zero,2134
   21574:	000215c4 	movi	zero,2135
   21578:	000215c4 	movi	zero,2135
   2157c:	0002179c 	xori	zero,zero,2142
   21580:	000215b8 	rdprs	zero,zero,2134
   21584:	000215c4 	movi	zero,2135
   21588:	0002179c 	xori	zero,zero,2142
   2158c:	000215c4 	movi	zero,2135
   21590:	000215b8 	rdprs	zero,zero,2134
   21594:	0002172c 	andhi	zero,zero,2140
   21598:	0002172c 	andhi	zero,zero,2140
   2159c:	0002172c 	andhi	zero,zero,2140
   215a0:	00021800 	call	2180 <__alt_mem_onchip_memory-0x1de80>
   215a4:	8c403fc4 	addi	r17,r17,255
   215a8:	9000621e 	bne	r18,zero,21734 <__mulsf3+0x288>
   215ac:	b5800094 	ori	r22,r22,2
   215b0:	01000084 	movi	r4,2
   215b4:	003fe206 	br	21540 <__mulsf3+0x94>
   215b8:	a805883a 	mov	r2,r21
   215bc:	9021883a 	mov	r16,r18
   215c0:	2027883a 	mov	r19,r4
   215c4:	98c000a0 	cmpeqi	r3,r19,2
   215c8:	1800241e 	bne	r3,zero,2165c <__mulsf3+0x1b0>
   215cc:	98c000e0 	cmpeqi	r3,r19,3
   215d0:	18009d1e 	bne	r3,zero,21848 <__mulsf3+0x39c>
   215d4:	98c00060 	cmpeqi	r3,r19,1
   215d8:	18004126 	beq	r3,zero,216e0 <__mulsf3+0x234>
   215dc:	0007883a 	mov	r3,zero
   215e0:	0009883a 	mov	r4,zero
   215e4:	1c003fcc 	andi	r16,r3,255
   215e8:	802095fa 	slli	r16,r16,23
   215ec:	10803fcc 	andi	r2,r2,255
   215f0:	100497fa 	slli	r2,r2,31
   215f4:	8120b03a 	or	r16,r16,r4
   215f8:	8084b03a 	or	r2,r16,r2
   215fc:	dfc00817 	ldw	ra,32(sp)
   21600:	dd800717 	ldw	r22,28(sp)
   21604:	dd400617 	ldw	r21,24(sp)
   21608:	dd000517 	ldw	r20,20(sp)
   2160c:	dcc00417 	ldw	r19,16(sp)
   21610:	dc800317 	ldw	r18,12(sp)
   21614:	dc400217 	ldw	r17,8(sp)
   21618:	dc000117 	ldw	r16,4(sp)
   2161c:	dec00904 	addi	sp,sp,36
   21620:	f800283a 	ret
   21624:	8000521e 	bne	r16,zero,21770 <__mulsf3+0x2c4>
   21628:	05800104 	movi	r22,4
   2162c:	0023883a 	mov	r17,zero
   21630:	04c00044 	movi	r19,1
   21634:	003fb406 	br	21508 <__mulsf3+0x5c>
   21638:	8000491e 	bne	r16,zero,21760 <__mulsf3+0x2b4>
   2163c:	05800204 	movi	r22,8
   21640:	04403fc4 	movi	r17,255
   21644:	04c00084 	movi	r19,2
   21648:	003faf06 	br	21508 <__mulsf3+0x5c>
   2164c:	90003c1e 	bne	r18,zero,21740 <__mulsf3+0x294>
   21650:	b5800054 	ori	r22,r22,1
   21654:	01000044 	movi	r4,1
   21658:	003fb906 	br	21540 <__mulsf3+0x94>
   2165c:	00ffffc4 	movi	r3,-1
   21660:	0009883a 	mov	r4,zero
   21664:	003fdf06 	br	215e4 <__mulsf3+0x138>
   21668:	9012d43a 	srli	r9,r18,16
   2166c:	80ffffcc 	andi	r3,r16,65535
   21670:	8010d43a 	srli	r8,r16,16
   21674:	913fffcc 	andi	r4,r18,65535
   21678:	190b383a 	mul	r5,r3,r4
   2167c:	4125383a 	mul	r18,r8,r4
   21680:	48cd383a 	mul	r6,r9,r3
   21684:	2806d43a 	srli	r3,r5,16
   21688:	4251383a 	mul	r8,r8,r9
   2168c:	348d883a 	add	r6,r6,r18
   21690:	1987883a 	add	r3,r3,r6
   21694:	1c80022e 	bgeu	r3,r18,216a0 <__mulsf3+0x1f4>
   21698:	01000074 	movhi	r4,1
   2169c:	4111883a 	add	r8,r8,r4
   216a0:	1808943a 	slli	r4,r3,16
   216a4:	1820d43a 	srli	r16,r3,16
   216a8:	297fffcc 	andi	r5,r5,65535
   216ac:	2149883a 	add	r4,r4,r5
   216b0:	200691ba 	slli	r3,r4,6
   216b4:	8221883a 	add	r16,r16,r8
   216b8:	802091ba 	slli	r16,r16,6
   216bc:	2008d6ba 	srli	r4,r4,26
   216c0:	1806c03a 	cmpne	r3,r3,zero
   216c4:	8142002c 	andhi	r5,r16,2048
   216c8:	1908b03a 	or	r4,r3,r4
   216cc:	8120b03a 	or	r16,r16,r4
   216d0:	28005b26 	beq	r5,zero,21840 <__mulsf3+0x394>
   216d4:	8006d07a 	srli	r3,r16,1
   216d8:	8400004c 	andi	r16,r16,1
   216dc:	1c20b03a 	or	r16,r3,r16
   216e0:	38c01fc4 	addi	r3,r7,127
   216e4:	00c0320e 	bge	zero,r3,217b0 <__mulsf3+0x304>
   216e8:	810001cc 	andi	r4,r16,7
   216ec:	20000426 	beq	r4,zero,21700 <__mulsf3+0x254>
   216f0:	810003cc 	andi	r4,r16,15
   216f4:	21000120 	cmpeqi	r4,r4,4
   216f8:	2000011e 	bne	r4,zero,21700 <__mulsf3+0x254>
   216fc:	84000104 	addi	r16,r16,4
   21700:	8102002c 	andhi	r4,r16,2048
   21704:	20000426 	beq	r4,zero,21718 <__mulsf3+0x26c>
   21708:	00fe0034 	movhi	r3,63488
   2170c:	18ffffc4 	addi	r3,r3,-1
   21710:	80e0703a 	and	r16,r16,r3
   21714:	38c02004 	addi	r3,r7,128
   21718:	19003fc8 	cmpgei	r4,r3,255
   2171c:	203fcf1e 	bne	r4,zero,2165c <__mulsf3+0x1b0>
   21720:	802091ba 	slli	r16,r16,6
   21724:	8008d27a 	srli	r4,r16,9
   21728:	003fae06 	br	215e4 <__mulsf3+0x138>
   2172c:	a005883a 	mov	r2,r20
   21730:	003fa406 	br	215c4 <__mulsf3+0x118>
   21734:	b58000d4 	ori	r22,r22,3
   21738:	010000c4 	movi	r4,3
   2173c:	003f8006 	br	21540 <__mulsf3+0x94>
   21740:	9009883a 	mov	r4,r18
   21744:	00227100 	call	22710 <__clzsi2>
   21748:	10fffec4 	addi	r3,r2,-5
   2174c:	88a3c83a 	sub	r17,r17,r2
   21750:	90e4983a 	sll	r18,r18,r3
   21754:	8c7fe284 	addi	r17,r17,-118
   21758:	0009883a 	mov	r4,zero
   2175c:	003f7806 	br	21540 <__mulsf3+0x94>
   21760:	05800304 	movi	r22,12
   21764:	04403fc4 	movi	r17,255
   21768:	04c000c4 	movi	r19,3
   2176c:	003f6606 	br	21508 <__mulsf3+0x5c>
   21770:	8009883a 	mov	r4,r16
   21774:	d9400015 	stw	r5,0(sp)
   21778:	00227100 	call	22710 <__clzsi2>
   2177c:	10fffec4 	addi	r3,r2,-5
   21780:	047fe284 	movi	r17,-118
   21784:	80e0983a 	sll	r16,r16,r3
   21788:	d9400017 	ldw	r5,0(sp)
   2178c:	88a3c83a 	sub	r17,r17,r2
   21790:	002d883a 	mov	r22,zero
   21794:	0027883a 	mov	r19,zero
   21798:	003f5b06 	br	21508 <__mulsf3+0x5c>
   2179c:	01002034 	movhi	r4,128
   217a0:	0005883a 	mov	r2,zero
   217a4:	213fffc4 	addi	r4,r4,-1
   217a8:	00ffffc4 	movi	r3,-1
   217ac:	003f8d06 	br	215e4 <__mulsf3+0x138>
   217b0:	01000044 	movi	r4,1
   217b4:	20c7c83a 	sub	r3,r4,r3
   217b8:	19000708 	cmpgei	r4,r3,28
   217bc:	203f871e 	bne	r4,zero,215dc <__mulsf3+0x130>
   217c0:	39002784 	addi	r4,r7,158
   217c4:	8108983a 	sll	r4,r16,r4
   217c8:	80e0d83a 	srl	r16,r16,r3
   217cc:	2008c03a 	cmpne	r4,r4,zero
   217d0:	8120b03a 	or	r16,r16,r4
   217d4:	80c001cc 	andi	r3,r16,7
   217d8:	18000426 	beq	r3,zero,217ec <__mulsf3+0x340>
   217dc:	80c003cc 	andi	r3,r16,15
   217e0:	18c00120 	cmpeqi	r3,r3,4
   217e4:	1800011e 	bne	r3,zero,217ec <__mulsf3+0x340>
   217e8:	84000104 	addi	r16,r16,4
   217ec:	80c1002c 	andhi	r3,r16,1024
   217f0:	183fcb26 	beq	r3,zero,21720 <__mulsf3+0x274>
   217f4:	00c00044 	movi	r3,1
   217f8:	0009883a 	mov	r4,zero
   217fc:	003f7906 	br	215e4 <__mulsf3+0x138>
   21800:	8080102c 	andhi	r2,r16,64
   21804:	10000826 	beq	r2,zero,21828 <__mulsf3+0x37c>
   21808:	9080102c 	andhi	r2,r18,64
   2180c:	1000061e 	bne	r2,zero,21828 <__mulsf3+0x37c>
   21810:	00802034 	movhi	r2,128
   21814:	10bfffc4 	addi	r2,r2,-1
   21818:	91001034 	orhi	r4,r18,64
   2181c:	2088703a 	and	r4,r4,r2
   21820:	a805883a 	mov	r2,r21
   21824:	003fe006 	br	217a8 <__mulsf3+0x2fc>
   21828:	00802034 	movhi	r2,128
   2182c:	10bfffc4 	addi	r2,r2,-1
   21830:	81001034 	orhi	r4,r16,64
   21834:	2088703a 	and	r4,r4,r2
   21838:	a005883a 	mov	r2,r20
   2183c:	003fda06 	br	217a8 <__mulsf3+0x2fc>
   21840:	880f883a 	mov	r7,r17
   21844:	003fa606 	br	216e0 <__mulsf3+0x234>
   21848:	00c02034 	movhi	r3,128
   2184c:	81001034 	orhi	r4,r16,64
   21850:	18ffffc4 	addi	r3,r3,-1
   21854:	20c8703a 	and	r4,r4,r3
   21858:	003fd306 	br	217a8 <__mulsf3+0x2fc>

0002185c <__fixsfsi>:
   2185c:	200ad5fa 	srli	r5,r4,23
   21860:	00c02034 	movhi	r3,128
   21864:	18ffffc4 	addi	r3,r3,-1
   21868:	29403fcc 	andi	r5,r5,255
   2186c:	29801ff0 	cmpltui	r6,r5,127
   21870:	200ed7fa 	srli	r7,r4,31
   21874:	1906703a 	and	r3,r3,r4
   21878:	3000061e 	bne	r6,zero,21894 <__fixsfsi+0x38>
   2187c:	288027b0 	cmpltui	r2,r5,158
   21880:	1000061e 	bne	r2,zero,2189c <__fixsfsi+0x40>
   21884:	00a00034 	movhi	r2,32768
   21888:	10bfffc4 	addi	r2,r2,-1
   2188c:	3885883a 	add	r2,r7,r2
   21890:	f800283a 	ret
   21894:	0005883a 	mov	r2,zero
   21898:	f800283a 	ret
   2189c:	28802590 	cmplti	r2,r5,150
   218a0:	18c02034 	orhi	r3,r3,128
   218a4:	1000051e 	bne	r2,zero,218bc <__fixsfsi+0x60>
   218a8:	28bfda84 	addi	r2,r5,-150
   218ac:	1884983a 	sll	r2,r3,r2
   218b0:	383ff926 	beq	r7,zero,21898 <__fixsfsi+0x3c>
   218b4:	0085c83a 	sub	r2,zero,r2
   218b8:	f800283a 	ret
   218bc:	00802584 	movi	r2,150
   218c0:	1145c83a 	sub	r2,r2,r5
   218c4:	1884d83a 	srl	r2,r3,r2
   218c8:	003ff906 	br	218b0 <__fixsfsi+0x54>

000218cc <__floatsisf>:
   218cc:	defffd04 	addi	sp,sp,-12
   218d0:	dfc00215 	stw	ra,8(sp)
   218d4:	dc400115 	stw	r17,4(sp)
   218d8:	dc000015 	stw	r16,0(sp)
   218dc:	20001226 	beq	r4,zero,21928 <__floatsisf+0x5c>
   218e0:	2022d7fa 	srli	r17,r4,31
   218e4:	2021883a 	mov	r16,r4
   218e8:	20001d16 	blt	r4,zero,21960 <__floatsisf+0x94>
   218ec:	8009883a 	mov	r4,r16
   218f0:	00227100 	call	22710 <__clzsi2>
   218f4:	100b883a 	mov	r5,r2
   218f8:	00802784 	movi	r2,158
   218fc:	1145c83a 	sub	r2,r2,r5
   21900:	10c025c8 	cmpgei	r3,r2,151
   21904:	1800181e 	bne	r3,zero,21968 <__floatsisf+0x9c>
   21908:	28c00248 	cmpgei	r3,r5,9
   2190c:	18003426 	beq	r3,zero,219e0 <__floatsisf+0x114>
   21910:	297ffe04 	addi	r5,r5,-8
   21914:	8160983a 	sll	r16,r16,r5
   21918:	00c02034 	movhi	r3,128
   2191c:	18ffffc4 	addi	r3,r3,-1
   21920:	80e0703a 	and	r16,r16,r3
   21924:	00000306 	br	21934 <__floatsisf+0x68>
   21928:	0023883a 	mov	r17,zero
   2192c:	0005883a 	mov	r2,zero
   21930:	0021883a 	mov	r16,zero
   21934:	10803fcc 	andi	r2,r2,255
   21938:	100495fa 	slli	r2,r2,23
   2193c:	8c403fcc 	andi	r17,r17,255
   21940:	882297fa 	slli	r17,r17,31
   21944:	1404b03a 	or	r2,r2,r16
   21948:	1444b03a 	or	r2,r2,r17
   2194c:	dfc00217 	ldw	ra,8(sp)
   21950:	dc400117 	ldw	r17,4(sp)
   21954:	dc000017 	ldw	r16,0(sp)
   21958:	dec00304 	addi	sp,sp,12
   2195c:	f800283a 	ret
   21960:	0121c83a 	sub	r16,zero,r4
   21964:	003fe106 	br	218ec <__floatsisf+0x20>
   21968:	10c02690 	cmplti	r3,r2,154
   2196c:	1800071e 	bne	r3,zero,2198c <__floatsisf+0xc0>
   21970:	28c006c4 	addi	r3,r5,27
   21974:	01000144 	movi	r4,5
   21978:	80c6983a 	sll	r3,r16,r3
   2197c:	2149c83a 	sub	r4,r4,r5
   21980:	8120d83a 	srl	r16,r16,r4
   21984:	1806c03a 	cmpne	r3,r3,zero
   21988:	80e0b03a 	or	r16,r16,r3
   2198c:	28c00190 	cmplti	r3,r5,6
   21990:	1800021e 	bne	r3,zero,2199c <__floatsisf+0xd0>
   21994:	28fffec4 	addi	r3,r5,-5
   21998:	80e0983a 	sll	r16,r16,r3
   2199c:	00ff0034 	movhi	r3,64512
   219a0:	18ffffc4 	addi	r3,r3,-1
   219a4:	810001cc 	andi	r4,r16,7
   219a8:	80cc703a 	and	r6,r16,r3
   219ac:	20000926 	beq	r4,zero,219d4 <__floatsisf+0x108>
   219b0:	810003cc 	andi	r4,r16,15
   219b4:	21000120 	cmpeqi	r4,r4,4
   219b8:	2000061e 	bne	r4,zero,219d4 <__floatsisf+0x108>
   219bc:	31800104 	addi	r6,r6,4
   219c0:	3101002c 	andhi	r4,r6,1024
   219c4:	20000326 	beq	r4,zero,219d4 <__floatsisf+0x108>
   219c8:	30cc703a 	and	r6,r6,r3
   219cc:	00c027c4 	movi	r3,159
   219d0:	1945c83a 	sub	r2,r3,r5
   219d4:	302091ba 	slli	r16,r6,6
   219d8:	8020d27a 	srli	r16,r16,9
   219dc:	003fd506 	br	21934 <__floatsisf+0x68>
   219e0:	01002034 	movhi	r4,128
   219e4:	213fffc4 	addi	r4,r4,-1
   219e8:	8120703a 	and	r16,r16,r4
   219ec:	003fd106 	br	21934 <__floatsisf+0x68>

000219f0 <__adddf3>:
   219f0:	02000434 	movhi	r8,16
   219f4:	423fffc4 	addi	r8,r8,-1
   219f8:	3a12703a 	and	r9,r7,r8
   219fc:	2a06703a 	and	r3,r5,r8
   21a00:	2818d53a 	srli	r12,r5,20
   21a04:	3804d53a 	srli	r2,r7,20
   21a08:	481490fa 	slli	r10,r9,3
   21a0c:	280ad7fa 	srli	r5,r5,31
   21a10:	180690fa 	slli	r3,r3,3
   21a14:	2016d77a 	srli	r11,r4,29
   21a18:	3012d77a 	srli	r9,r6,29
   21a1c:	380ed7fa 	srli	r7,r7,31
   21a20:	defffb04 	addi	sp,sp,-20
   21a24:	dc400115 	stw	r17,4(sp)
   21a28:	dc000015 	stw	r16,0(sp)
   21a2c:	dfc00415 	stw	ra,16(sp)
   21a30:	dcc00315 	stw	r19,12(sp)
   21a34:	dc800215 	stw	r18,8(sp)
   21a38:	201c90fa 	slli	r14,r4,3
   21a3c:	301a90fa 	slli	r13,r6,3
   21a40:	6441ffcc 	andi	r17,r12,2047
   21a44:	2821883a 	mov	r16,r5
   21a48:	58c6b03a 	or	r3,r11,r3
   21a4c:	1081ffcc 	andi	r2,r2,2047
   21a50:	4a92b03a 	or	r9,r9,r10
   21a54:	29c06326 	beq	r5,r7,21be4 <__adddf3+0x1f4>
   21a58:	888bc83a 	sub	r5,r17,r2
   21a5c:	0140560e 	bge	zero,r5,21bb8 <__adddf3+0x1c8>
   21a60:	10007526 	beq	r2,zero,21c38 <__adddf3+0x248>
   21a64:	8881ffd8 	cmpnei	r2,r17,2047
   21a68:	10012d26 	beq	r2,zero,21f20 <__adddf3+0x530>
   21a6c:	4a402034 	orhi	r9,r9,128
   21a70:	28800e48 	cmpgei	r2,r5,57
   21a74:	1000f41e 	bne	r2,zero,21e48 <__adddf3+0x458>
   21a78:	28800808 	cmpgei	r2,r5,32
   21a7c:	1001471e 	bne	r2,zero,21f9c <__adddf3+0x5ac>
   21a80:	00800804 	movi	r2,32
   21a84:	1145c83a 	sub	r2,r2,r5
   21a88:	6948d83a 	srl	r4,r13,r5
   21a8c:	48a4983a 	sll	r18,r9,r2
   21a90:	6884983a 	sll	r2,r13,r2
   21a94:	494ad83a 	srl	r5,r9,r5
   21a98:	9124b03a 	or	r18,r18,r4
   21a9c:	101ac03a 	cmpne	r13,r2,zero
   21aa0:	9364b03a 	or	r18,r18,r13
   21aa4:	1947c83a 	sub	r3,r3,r5
   21aa8:	74a5c83a 	sub	r18,r14,r18
   21aac:	7489803a 	cmpltu	r4,r14,r18
   21ab0:	1909c83a 	sub	r4,r3,r4
   21ab4:	2080202c 	andhi	r2,r4,128
   21ab8:	10008626 	beq	r2,zero,21cd4 <__adddf3+0x2e4>
   21abc:	00802034 	movhi	r2,128
   21ac0:	10bfffc4 	addi	r2,r2,-1
   21ac4:	20a6703a 	and	r19,r4,r2
   21ac8:	9800d626 	beq	r19,zero,21e24 <__adddf3+0x434>
   21acc:	9809883a 	mov	r4,r19
   21ad0:	00227100 	call	22710 <__clzsi2>
   21ad4:	133ffe04 	addi	r12,r2,-8
   21ad8:	01000804 	movi	r4,32
   21adc:	2309c83a 	sub	r4,r4,r12
   21ae0:	9108d83a 	srl	r4,r18,r4
   21ae4:	9b04983a 	sll	r2,r19,r12
   21ae8:	9324983a 	sll	r18,r18,r12
   21aec:	2088b03a 	or	r4,r4,r2
   21af0:	6440c716 	blt	r12,r17,21e10 <__adddf3+0x420>
   21af4:	6459c83a 	sub	r12,r12,r17
   21af8:	62000044 	addi	r8,r12,1
   21afc:	40800808 	cmpgei	r2,r8,32
   21b00:	1001191e 	bne	r2,zero,21f68 <__adddf3+0x578>
   21b04:	00800804 	movi	r2,32
   21b08:	1205c83a 	sub	r2,r2,r8
   21b0c:	9206d83a 	srl	r3,r18,r8
   21b10:	90a4983a 	sll	r18,r18,r2
   21b14:	2084983a 	sll	r2,r4,r2
   21b18:	2208d83a 	srl	r4,r4,r8
   21b1c:	9024c03a 	cmpne	r18,r18,zero
   21b20:	10c4b03a 	or	r2,r2,r3
   21b24:	14a4b03a 	or	r18,r2,r18
   21b28:	0023883a 	mov	r17,zero
   21b2c:	908001cc 	andi	r2,r18,7
   21b30:	10000726 	beq	r2,zero,21b50 <__adddf3+0x160>
   21b34:	908003cc 	andi	r2,r18,15
   21b38:	10800120 	cmpeqi	r2,r2,4
   21b3c:	1000041e 	bne	r2,zero,21b50 <__adddf3+0x160>
   21b40:	90c00104 	addi	r3,r18,4
   21b44:	1ca5803a 	cmpltu	r18,r3,r18
   21b48:	2489883a 	add	r4,r4,r18
   21b4c:	1825883a 	mov	r18,r3
   21b50:	2080202c 	andhi	r2,r4,128
   21b54:	10006126 	beq	r2,zero,21cdc <__adddf3+0x2ec>
   21b58:	89400044 	addi	r5,r17,1
   21b5c:	2881ffe0 	cmpeqi	r2,r5,2047
   21b60:	2941ffcc 	andi	r5,r5,2047
   21b64:	1000731e 	bne	r2,zero,21d34 <__adddf3+0x344>
   21b68:	023fe034 	movhi	r8,65408
   21b6c:	423fffc4 	addi	r8,r8,-1
   21b70:	2210703a 	and	r8,r4,r8
   21b74:	4006927a 	slli	r3,r8,9
   21b78:	9024d0fa 	srli	r18,r18,3
   21b7c:	4004977a 	slli	r2,r8,29
   21b80:	1806d33a 	srli	r3,r3,12
   21b84:	1484b03a 	or	r2,r2,r18
   21b88:	280a953a 	slli	r5,r5,20
   21b8c:	84003fcc 	andi	r16,r16,255
   21b90:	802097fa 	slli	r16,r16,31
   21b94:	28c6b03a 	or	r3,r5,r3
   21b98:	1c06b03a 	or	r3,r3,r16
   21b9c:	dfc00417 	ldw	ra,16(sp)
   21ba0:	dcc00317 	ldw	r19,12(sp)
   21ba4:	dc800217 	ldw	r18,8(sp)
   21ba8:	dc400117 	ldw	r17,4(sp)
   21bac:	dc000017 	ldw	r16,0(sp)
   21bb0:	dec00504 	addi	sp,sp,20
   21bb4:	f800283a 	ret
   21bb8:	28002726 	beq	r5,zero,21c58 <__adddf3+0x268>
   21bbc:	144bc83a 	sub	r5,r2,r17
   21bc0:	8800be1e 	bne	r17,zero,21ebc <__adddf3+0x4cc>
   21bc4:	1b88b03a 	or	r4,r3,r14
   21bc8:	20013126 	beq	r4,zero,22090 <__adddf3+0x6a0>
   21bcc:	293fffc4 	addi	r4,r5,-1
   21bd0:	20017226 	beq	r4,zero,2219c <__adddf3+0x7ac>
   21bd4:	2941ffd8 	cmpnei	r5,r5,2047
   21bd8:	2801c226 	beq	r5,zero,222e4 <__adddf3+0x8f4>
   21bdc:	200b883a 	mov	r5,r4
   21be0:	0000b906 	br	21ec8 <__adddf3+0x4d8>
   21be4:	888bc83a 	sub	r5,r17,r2
   21be8:	0140700e 	bge	zero,r5,21dac <__adddf3+0x3bc>
   21bec:	10002a26 	beq	r2,zero,21c98 <__adddf3+0x2a8>
   21bf0:	8881ffd8 	cmpnei	r2,r17,2047
   21bf4:	1000ca26 	beq	r2,zero,21f20 <__adddf3+0x530>
   21bf8:	4a402034 	orhi	r9,r9,128
   21bfc:	28800e48 	cmpgei	r2,r5,57
   21c00:	1000421e 	bne	r2,zero,21d0c <__adddf3+0x31c>
   21c04:	28800808 	cmpgei	r2,r5,32
   21c08:	1000ff26 	beq	r2,zero,22008 <__adddf3+0x618>
   21c0c:	2cbff804 	addi	r18,r5,-32
   21c10:	29000820 	cmpeqi	r4,r5,32
   21c14:	4c84d83a 	srl	r2,r9,r18
   21c18:	2000041e 	bne	r4,zero,21c2c <__adddf3+0x23c>
   21c1c:	01001004 	movi	r4,64
   21c20:	214bc83a 	sub	r5,r4,r5
   21c24:	4952983a 	sll	r9,r9,r5
   21c28:	6a5ab03a 	or	r13,r13,r9
   21c2c:	6824c03a 	cmpne	r18,r13,zero
   21c30:	90a4b03a 	or	r18,r18,r2
   21c34:	00003706 	br	21d14 <__adddf3+0x324>
   21c38:	4b44b03a 	or	r2,r9,r13
   21c3c:	1000b126 	beq	r2,zero,21f04 <__adddf3+0x514>
   21c40:	28bfffc4 	addi	r2,r5,-1
   21c44:	10011a26 	beq	r2,zero,220b0 <__adddf3+0x6c0>
   21c48:	2941ffd8 	cmpnei	r5,r5,2047
   21c4c:	28012526 	beq	r5,zero,220e4 <__adddf3+0x6f4>
   21c50:	100b883a 	mov	r5,r2
   21c54:	003f8606 	br	21a70 <__adddf3+0x80>
   21c58:	8a800044 	addi	r10,r17,1
   21c5c:	5281ff8c 	andi	r10,r10,2046
   21c60:	50008b1e 	bne	r10,zero,21e90 <__adddf3+0x4a0>
   21c64:	1b96b03a 	or	r11,r3,r14
   21c68:	4b44b03a 	or	r2,r9,r13
   21c6c:	8801031e 	bne	r17,zero,2207c <__adddf3+0x68c>
   21c70:	58014126 	beq	r11,zero,22178 <__adddf3+0x788>
   21c74:	1001571e 	bne	r2,zero,221d4 <__adddf3+0x7e4>
   21c78:	1804977a 	slli	r2,r3,29
   21c7c:	01480034 	movhi	r5,8192
   21c80:	297fffc4 	addi	r5,r5,-1
   21c84:	2148703a 	and	r4,r4,r5
   21c88:	1810d0fa 	srli	r8,r3,3
   21c8c:	1104b03a 	or	r2,r2,r4
   21c90:	500b883a 	mov	r5,r10
   21c94:	00001806 	br	21cf8 <__adddf3+0x308>
   21c98:	4b44b03a 	or	r2,r9,r13
   21c9c:	10010a26 	beq	r2,zero,220c8 <__adddf3+0x6d8>
   21ca0:	28bfffc4 	addi	r2,r5,-1
   21ca4:	10000426 	beq	r2,zero,21cb8 <__adddf3+0x2c8>
   21ca8:	2941ffd8 	cmpnei	r5,r5,2047
   21cac:	28014226 	beq	r5,zero,221b8 <__adddf3+0x7c8>
   21cb0:	100b883a 	mov	r5,r2
   21cb4:	003fd106 	br	21bfc <__adddf3+0x20c>
   21cb8:	7365883a 	add	r18,r14,r13
   21cbc:	1a47883a 	add	r3,r3,r9
   21cc0:	9389803a 	cmpltu	r4,r18,r14
   21cc4:	1909883a 	add	r4,r3,r4
   21cc8:	2080202c 	andhi	r2,r4,128
   21ccc:	10009b1e 	bne	r2,zero,21f3c <__adddf3+0x54c>
   21cd0:	04400044 	movi	r17,1
   21cd4:	908001cc 	andi	r2,r18,7
   21cd8:	103f961e 	bne	r2,zero,21b34 <__adddf3+0x144>
   21cdc:	9024d0fa 	srli	r18,r18,3
   21ce0:	2004977a 	slli	r2,r4,29
   21ce4:	2010d0fa 	srli	r8,r4,3
   21ce8:	880b883a 	mov	r5,r17
   21cec:	9084b03a 	or	r2,r18,r2
   21cf0:	28c1ffe0 	cmpeqi	r3,r5,2047
   21cf4:	1800251e 	bne	r3,zero,21d8c <__adddf3+0x39c>
   21cf8:	00c00434 	movhi	r3,16
   21cfc:	18ffffc4 	addi	r3,r3,-1
   21d00:	40c6703a 	and	r3,r8,r3
   21d04:	2941ffcc 	andi	r5,r5,2047
   21d08:	003f9f06 	br	21b88 <__adddf3+0x198>
   21d0c:	4b64b03a 	or	r18,r9,r13
   21d10:	9024c03a 	cmpne	r18,r18,zero
   21d14:	93a5883a 	add	r18,r18,r14
   21d18:	9389803a 	cmpltu	r4,r18,r14
   21d1c:	20c9883a 	add	r4,r4,r3
   21d20:	2080202c 	andhi	r2,r4,128
   21d24:	103feb26 	beq	r2,zero,21cd4 <__adddf3+0x2e4>
   21d28:	8c400044 	addi	r17,r17,1
   21d2c:	8881ffe0 	cmpeqi	r2,r17,2047
   21d30:	10008326 	beq	r2,zero,21f40 <__adddf3+0x550>
   21d34:	0141ffc4 	movi	r5,2047
   21d38:	0007883a 	mov	r3,zero
   21d3c:	0005883a 	mov	r2,zero
   21d40:	003f9106 	br	21b88 <__adddf3+0x198>
   21d44:	4b44b03a 	or	r2,r9,r13
   21d48:	180a977a 	slli	r5,r3,29
   21d4c:	1810d0fa 	srli	r8,r3,3
   21d50:	10016c26 	beq	r2,zero,22304 <__adddf3+0x914>
   21d54:	00c80034 	movhi	r3,8192
   21d58:	18ffffc4 	addi	r3,r3,-1
   21d5c:	20c4703a 	and	r2,r4,r3
   21d60:	4100022c 	andhi	r4,r8,8
   21d64:	1144b03a 	or	r2,r2,r5
   21d68:	20000826 	beq	r4,zero,21d8c <__adddf3+0x39c>
   21d6c:	4808d0fa 	srli	r4,r9,3
   21d70:	2140022c 	andhi	r5,r4,8
   21d74:	2800051e 	bne	r5,zero,21d8c <__adddf3+0x39c>
   21d78:	4804977a 	slli	r2,r9,29
   21d7c:	30cc703a 	and	r6,r6,r3
   21d80:	3821883a 	mov	r16,r7
   21d84:	3084b03a 	or	r2,r6,r2
   21d88:	2011883a 	mov	r8,r4
   21d8c:	4086b03a 	or	r3,r8,r2
   21d90:	18017126 	beq	r3,zero,22358 <__adddf3+0x968>
   21d94:	01000434 	movhi	r4,16
   21d98:	40c00234 	orhi	r3,r8,8
   21d9c:	213fffc4 	addi	r4,r4,-1
   21da0:	1906703a 	and	r3,r3,r4
   21da4:	0141ffc4 	movi	r5,2047
   21da8:	003f7706 	br	21b88 <__adddf3+0x198>
   21dac:	28002926 	beq	r5,zero,21e54 <__adddf3+0x464>
   21db0:	144bc83a 	sub	r5,r2,r17
   21db4:	88008c26 	beq	r17,zero,21fe8 <__adddf3+0x5f8>
   21db8:	1101ffd8 	cmpnei	r4,r2,2047
   21dbc:	20011126 	beq	r4,zero,22204 <__adddf3+0x814>
   21dc0:	18c02034 	orhi	r3,r3,128
   21dc4:	29000e48 	cmpgei	r4,r5,57
   21dc8:	2000d51e 	bne	r4,zero,22120 <__adddf3+0x730>
   21dcc:	29000808 	cmpgei	r4,r5,32
   21dd0:	2001511e 	bne	r4,zero,22318 <__adddf3+0x928>
   21dd4:	01000804 	movi	r4,32
   21dd8:	2149c83a 	sub	r4,r4,r5
   21ddc:	1924983a 	sll	r18,r3,r4
   21de0:	714cd83a 	srl	r6,r14,r5
   21de4:	7108983a 	sll	r4,r14,r4
   21de8:	194ad83a 	srl	r5,r3,r5
   21dec:	91a4b03a 	or	r18,r18,r6
   21df0:	2006c03a 	cmpne	r3,r4,zero
   21df4:	90e4b03a 	or	r18,r18,r3
   21df8:	4953883a 	add	r9,r9,r5
   21dfc:	9365883a 	add	r18,r18,r13
   21e00:	9349803a 	cmpltu	r4,r18,r13
   21e04:	2249883a 	add	r4,r4,r9
   21e08:	1023883a 	mov	r17,r2
   21e0c:	003fc406 	br	21d20 <__adddf3+0x330>
   21e10:	023fe034 	movhi	r8,65408
   21e14:	423fffc4 	addi	r8,r8,-1
   21e18:	8b23c83a 	sub	r17,r17,r12
   21e1c:	2208703a 	and	r4,r4,r8
   21e20:	003f4206 	br	21b2c <__adddf3+0x13c>
   21e24:	9009883a 	mov	r4,r18
   21e28:	00227100 	call	22710 <__clzsi2>
   21e2c:	13000604 	addi	r12,r2,24
   21e30:	60c00808 	cmpgei	r3,r12,32
   21e34:	183f2826 	beq	r3,zero,21ad8 <__adddf3+0xe8>
   21e38:	113ffe04 	addi	r4,r2,-8
   21e3c:	9108983a 	sll	r4,r18,r4
   21e40:	0025883a 	mov	r18,zero
   21e44:	003f2a06 	br	21af0 <__adddf3+0x100>
   21e48:	4b64b03a 	or	r18,r9,r13
   21e4c:	9024c03a 	cmpne	r18,r18,zero
   21e50:	003f1506 	br	21aa8 <__adddf3+0xb8>
   21e54:	8a000044 	addi	r8,r17,1
   21e58:	4081ff8c 	andi	r2,r8,2046
   21e5c:	1000751e 	bne	r2,zero,22034 <__adddf3+0x644>
   21e60:	1b84b03a 	or	r2,r3,r14
   21e64:	8800bc1e 	bne	r17,zero,22158 <__adddf3+0x768>
   21e68:	10010c26 	beq	r2,zero,2229c <__adddf3+0x8ac>
   21e6c:	4b44b03a 	or	r2,r9,r13
   21e70:	1001111e 	bne	r2,zero,222b8 <__adddf3+0x8c8>
   21e74:	180c977a 	slli	r6,r3,29
   21e78:	00880034 	movhi	r2,8192
   21e7c:	10bfffc4 	addi	r2,r2,-1
   21e80:	2084703a 	and	r2,r4,r2
   21e84:	1810d0fa 	srli	r8,r3,3
   21e88:	1184b03a 	or	r2,r2,r6
   21e8c:	003f9a06 	br	21cf8 <__adddf3+0x308>
   21e90:	7365c83a 	sub	r18,r14,r13
   21e94:	1a67c83a 	sub	r19,r3,r9
   21e98:	7489803a 	cmpltu	r4,r14,r18
   21e9c:	9927c83a 	sub	r19,r19,r4
   21ea0:	9880202c 	andhi	r2,r19,128
   21ea4:	10006f1e 	bne	r2,zero,22064 <__adddf3+0x674>
   21ea8:	94c4b03a 	or	r2,r18,r19
   21eac:	103f061e 	bne	r2,zero,21ac8 <__adddf3+0xd8>
   21eb0:	0011883a 	mov	r8,zero
   21eb4:	0021883a 	mov	r16,zero
   21eb8:	003f8f06 	br	21cf8 <__adddf3+0x308>
   21ebc:	1101ffd8 	cmpnei	r4,r2,2047
   21ec0:	20008f26 	beq	r4,zero,22100 <__adddf3+0x710>
   21ec4:	18c02034 	orhi	r3,r3,128
   21ec8:	29000e48 	cmpgei	r4,r5,57
   21ecc:	20003e1e 	bne	r4,zero,21fc8 <__adddf3+0x5d8>
   21ed0:	29000808 	cmpgei	r4,r5,32
   21ed4:	2000951e 	bne	r4,zero,2212c <__adddf3+0x73c>
   21ed8:	01000804 	movi	r4,32
   21edc:	2149c83a 	sub	r4,r4,r5
   21ee0:	1924983a 	sll	r18,r3,r4
   21ee4:	714cd83a 	srl	r6,r14,r5
   21ee8:	711c983a 	sll	r14,r14,r4
   21eec:	1946d83a 	srl	r3,r3,r5
   21ef0:	91a4b03a 	or	r18,r18,r6
   21ef4:	701cc03a 	cmpne	r14,r14,zero
   21ef8:	93a4b03a 	or	r18,r18,r14
   21efc:	48d3c83a 	sub	r9,r9,r3
   21f00:	00003306 	br	21fd0 <__adddf3+0x5e0>
   21f04:	1824977a 	slli	r18,r3,29
   21f08:	01880034 	movhi	r6,8192
   21f0c:	31bfffc4 	addi	r6,r6,-1
   21f10:	2184703a 	and	r2,r4,r6
   21f14:	1810d0fa 	srli	r8,r3,3
   21f18:	1484b03a 	or	r2,r2,r18
   21f1c:	003f7406 	br	21cf0 <__adddf3+0x300>
   21f20:	1804977a 	slli	r2,r3,29
   21f24:	01480034 	movhi	r5,8192
   21f28:	297fffc4 	addi	r5,r5,-1
   21f2c:	2148703a 	and	r4,r4,r5
   21f30:	1810d0fa 	srli	r8,r3,3
   21f34:	1104b03a 	or	r2,r2,r4
   21f38:	003f9406 	br	21d8c <__adddf3+0x39c>
   21f3c:	04400084 	movi	r17,2
   21f40:	00bfe034 	movhi	r2,65408
   21f44:	10bfffc4 	addi	r2,r2,-1
   21f48:	9006d07a 	srli	r3,r18,1
   21f4c:	2088703a 	and	r4,r4,r2
   21f50:	200497fa 	slli	r2,r4,31
   21f54:	9480004c 	andi	r18,r18,1
   21f58:	1ca4b03a 	or	r18,r3,r18
   21f5c:	2008d07a 	srli	r4,r4,1
   21f60:	14a4b03a 	or	r18,r2,r18
   21f64:	003ef106 	br	21b2c <__adddf3+0x13c>
   21f68:	633ff844 	addi	r12,r12,-31
   21f6c:	40800820 	cmpeqi	r2,r8,32
   21f70:	2318d83a 	srl	r12,r4,r12
   21f74:	1000041e 	bne	r2,zero,21f88 <__adddf3+0x598>
   21f78:	00801004 	movi	r2,64
   21f7c:	1211c83a 	sub	r8,r2,r8
   21f80:	2208983a 	sll	r4,r4,r8
   21f84:	9124b03a 	or	r18,r18,r4
   21f88:	9024c03a 	cmpne	r18,r18,zero
   21f8c:	9324b03a 	or	r18,r18,r12
   21f90:	0009883a 	mov	r4,zero
   21f94:	0023883a 	mov	r17,zero
   21f98:	003f4e06 	br	21cd4 <__adddf3+0x2e4>
   21f9c:	2cbff804 	addi	r18,r5,-32
   21fa0:	29000820 	cmpeqi	r4,r5,32
   21fa4:	4c84d83a 	srl	r2,r9,r18
   21fa8:	2000041e 	bne	r4,zero,21fbc <__adddf3+0x5cc>
   21fac:	01001004 	movi	r4,64
   21fb0:	214bc83a 	sub	r5,r4,r5
   21fb4:	4952983a 	sll	r9,r9,r5
   21fb8:	6a5ab03a 	or	r13,r13,r9
   21fbc:	6824c03a 	cmpne	r18,r13,zero
   21fc0:	90a4b03a 	or	r18,r18,r2
   21fc4:	003eb806 	br	21aa8 <__adddf3+0xb8>
   21fc8:	1b88b03a 	or	r4,r3,r14
   21fcc:	2024c03a 	cmpne	r18,r4,zero
   21fd0:	6ca5c83a 	sub	r18,r13,r18
   21fd4:	6c89803a 	cmpltu	r4,r13,r18
   21fd8:	4909c83a 	sub	r4,r9,r4
   21fdc:	3821883a 	mov	r16,r7
   21fe0:	1023883a 	mov	r17,r2
   21fe4:	003eb306 	br	21ab4 <__adddf3+0xc4>
   21fe8:	1b88b03a 	or	r4,r3,r14
   21fec:	20008c26 	beq	r4,zero,22220 <__adddf3+0x830>
   21ff0:	293fffc4 	addi	r4,r5,-1
   21ff4:	2000d326 	beq	r4,zero,22344 <__adddf3+0x954>
   21ff8:	2941ffd8 	cmpnei	r5,r5,2047
   21ffc:	28008126 	beq	r5,zero,22204 <__adddf3+0x814>
   22000:	200b883a 	mov	r5,r4
   22004:	003f6f06 	br	21dc4 <__adddf3+0x3d4>
   22008:	00800804 	movi	r2,32
   2200c:	1145c83a 	sub	r2,r2,r5
   22010:	6948d83a 	srl	r4,r13,r5
   22014:	48a4983a 	sll	r18,r9,r2
   22018:	6884983a 	sll	r2,r13,r2
   2201c:	494ad83a 	srl	r5,r9,r5
   22020:	9124b03a 	or	r18,r18,r4
   22024:	101ac03a 	cmpne	r13,r2,zero
   22028:	9364b03a 	or	r18,r18,r13
   2202c:	1947883a 	add	r3,r3,r5
   22030:	003f3806 	br	21d14 <__adddf3+0x324>
   22034:	4081ffe0 	cmpeqi	r2,r8,2047
   22038:	103f3e1e 	bne	r2,zero,21d34 <__adddf3+0x344>
   2203c:	7345883a 	add	r2,r14,r13
   22040:	139d803a 	cmpltu	r14,r2,r14
   22044:	1a49883a 	add	r4,r3,r9
   22048:	2389883a 	add	r4,r4,r14
   2204c:	202497fa 	slli	r18,r4,31
   22050:	1004d07a 	srli	r2,r2,1
   22054:	2008d07a 	srli	r4,r4,1
   22058:	4023883a 	mov	r17,r8
   2205c:	90a4b03a 	or	r18,r18,r2
   22060:	003f1c06 	br	21cd4 <__adddf3+0x2e4>
   22064:	6ba5c83a 	sub	r18,r13,r14
   22068:	48c9c83a 	sub	r4,r9,r3
   2206c:	6c85803a 	cmpltu	r2,r13,r18
   22070:	20a7c83a 	sub	r19,r4,r2
   22074:	3821883a 	mov	r16,r7
   22078:	003e9306 	br	21ac8 <__adddf3+0xd8>
   2207c:	58006f1e 	bne	r11,zero,2223c <__adddf3+0x84c>
   22080:	10001f1e 	bne	r2,zero,22100 <__adddf3+0x710>
   22084:	00bfffc4 	movi	r2,-1
   22088:	0021883a 	mov	r16,zero
   2208c:	003f4106 	br	21d94 <__adddf3+0x3a4>
   22090:	4808977a 	slli	r4,r9,29
   22094:	00c80034 	movhi	r3,8192
   22098:	18ffffc4 	addi	r3,r3,-1
   2209c:	30c4703a 	and	r2,r6,r3
   220a0:	4810d0fa 	srli	r8,r9,3
   220a4:	1104b03a 	or	r2,r2,r4
   220a8:	3821883a 	mov	r16,r7
   220ac:	003f1006 	br	21cf0 <__adddf3+0x300>
   220b0:	7365c83a 	sub	r18,r14,r13
   220b4:	1a47c83a 	sub	r3,r3,r9
   220b8:	7489803a 	cmpltu	r4,r14,r18
   220bc:	1909c83a 	sub	r4,r3,r4
   220c0:	04400044 	movi	r17,1
   220c4:	003e7b06 	br	21ab4 <__adddf3+0xc4>
   220c8:	1824977a 	slli	r18,r3,29
   220cc:	01c80034 	movhi	r7,8192
   220d0:	39ffffc4 	addi	r7,r7,-1
   220d4:	21c4703a 	and	r2,r4,r7
   220d8:	1810d0fa 	srli	r8,r3,3
   220dc:	1484b03a 	or	r2,r2,r18
   220e0:	003f0306 	br	21cf0 <__adddf3+0x300>
   220e4:	1824977a 	slli	r18,r3,29
   220e8:	01480034 	movhi	r5,8192
   220ec:	297fffc4 	addi	r5,r5,-1
   220f0:	2144703a 	and	r2,r4,r5
   220f4:	1810d0fa 	srli	r8,r3,3
   220f8:	1484b03a 	or	r2,r2,r18
   220fc:	003f2306 	br	21d8c <__adddf3+0x39c>
   22100:	4806977a 	slli	r3,r9,29
   22104:	00880034 	movhi	r2,8192
   22108:	10bfffc4 	addi	r2,r2,-1
   2210c:	3084703a 	and	r2,r6,r2
   22110:	4810d0fa 	srli	r8,r9,3
   22114:	10c4b03a 	or	r2,r2,r3
   22118:	3821883a 	mov	r16,r7
   2211c:	003f1b06 	br	21d8c <__adddf3+0x39c>
   22120:	1b88b03a 	or	r4,r3,r14
   22124:	2024c03a 	cmpne	r18,r4,zero
   22128:	003f3406 	br	21dfc <__adddf3+0x40c>
   2212c:	2cbff804 	addi	r18,r5,-32
   22130:	29800820 	cmpeqi	r6,r5,32
   22134:	1c88d83a 	srl	r4,r3,r18
   22138:	3000041e 	bne	r6,zero,2214c <__adddf3+0x75c>
   2213c:	01801004 	movi	r6,64
   22140:	314bc83a 	sub	r5,r6,r5
   22144:	1946983a 	sll	r3,r3,r5
   22148:	70dcb03a 	or	r14,r14,r3
   2214c:	7024c03a 	cmpne	r18,r14,zero
   22150:	9124b03a 	or	r18,r18,r4
   22154:	003f9e06 	br	21fd0 <__adddf3+0x5e0>
   22158:	103efa1e 	bne	r2,zero,21d44 <__adddf3+0x354>
   2215c:	4804977a 	slli	r2,r9,29
   22160:	00c80034 	movhi	r3,8192
   22164:	18ffffc4 	addi	r3,r3,-1
   22168:	30cc703a 	and	r6,r6,r3
   2216c:	4810d0fa 	srli	r8,r9,3
   22170:	1184b03a 	or	r2,r2,r6
   22174:	003f0506 	br	21d8c <__adddf3+0x39c>
   22178:	10004426 	beq	r2,zero,2228c <__adddf3+0x89c>
   2217c:	4806977a 	slli	r3,r9,29
   22180:	00880034 	movhi	r2,8192
   22184:	10bfffc4 	addi	r2,r2,-1
   22188:	3084703a 	and	r2,r6,r2
   2218c:	4810d0fa 	srli	r8,r9,3
   22190:	10c4b03a 	or	r2,r2,r3
   22194:	3821883a 	mov	r16,r7
   22198:	003ed706 	br	21cf8 <__adddf3+0x308>
   2219c:	6ba5c83a 	sub	r18,r13,r14
   221a0:	48c7c83a 	sub	r3,r9,r3
   221a4:	6c85803a 	cmpltu	r2,r13,r18
   221a8:	1889c83a 	sub	r4,r3,r2
   221ac:	3821883a 	mov	r16,r7
   221b0:	04400044 	movi	r17,1
   221b4:	003e3f06 	br	21ab4 <__adddf3+0xc4>
   221b8:	180a977a 	slli	r5,r3,29
   221bc:	00880034 	movhi	r2,8192
   221c0:	10bfffc4 	addi	r2,r2,-1
   221c4:	2084703a 	and	r2,r4,r2
   221c8:	1810d0fa 	srli	r8,r3,3
   221cc:	1144b03a 	or	r2,r2,r5
   221d0:	003eee06 	br	21d8c <__adddf3+0x39c>
   221d4:	7365c83a 	sub	r18,r14,r13
   221d8:	7485803a 	cmpltu	r2,r14,r18
   221dc:	1a49c83a 	sub	r4,r3,r9
   221e0:	2089c83a 	sub	r4,r4,r2
   221e4:	2080202c 	andhi	r2,r4,128
   221e8:	10002626 	beq	r2,zero,22284 <__adddf3+0x894>
   221ec:	6ba5c83a 	sub	r18,r13,r14
   221f0:	48c7c83a 	sub	r3,r9,r3
   221f4:	6c85803a 	cmpltu	r2,r13,r18
   221f8:	1889c83a 	sub	r4,r3,r2
   221fc:	3821883a 	mov	r16,r7
   22200:	003e4a06 	br	21b2c <__adddf3+0x13c>
   22204:	4806977a 	slli	r3,r9,29
   22208:	00880034 	movhi	r2,8192
   2220c:	10bfffc4 	addi	r2,r2,-1
   22210:	3084703a 	and	r2,r6,r2
   22214:	4810d0fa 	srli	r8,r9,3
   22218:	10c4b03a 	or	r2,r2,r3
   2221c:	003edb06 	br	21d8c <__adddf3+0x39c>
   22220:	4806977a 	slli	r3,r9,29
   22224:	00880034 	movhi	r2,8192
   22228:	10bfffc4 	addi	r2,r2,-1
   2222c:	3084703a 	and	r2,r6,r2
   22230:	4810d0fa 	srli	r8,r9,3
   22234:	10c4b03a 	or	r2,r2,r3
   22238:	003ead06 	br	21cf0 <__adddf3+0x300>
   2223c:	180a977a 	slli	r5,r3,29
   22240:	1810d0fa 	srli	r8,r3,3
   22244:	10002f26 	beq	r2,zero,22304 <__adddf3+0x914>
   22248:	00c80034 	movhi	r3,8192
   2224c:	18ffffc4 	addi	r3,r3,-1
   22250:	20c4703a 	and	r2,r4,r3
   22254:	4100022c 	andhi	r4,r8,8
   22258:	1144b03a 	or	r2,r2,r5
   2225c:	203ecb26 	beq	r4,zero,21d8c <__adddf3+0x39c>
   22260:	4808d0fa 	srli	r4,r9,3
   22264:	2140022c 	andhi	r5,r4,8
   22268:	283ec81e 	bne	r5,zero,21d8c <__adddf3+0x39c>
   2226c:	4812977a 	slli	r9,r9,29
   22270:	30c4703a 	and	r2,r6,r3
   22274:	3821883a 	mov	r16,r7
   22278:	1244b03a 	or	r2,r2,r9
   2227c:	2011883a 	mov	r8,r4
   22280:	003ec206 	br	21d8c <__adddf3+0x39c>
   22284:	9104b03a 	or	r2,r18,r4
   22288:	103e921e 	bne	r2,zero,21cd4 <__adddf3+0x2e4>
   2228c:	0011883a 	mov	r8,zero
   22290:	100b883a 	mov	r5,r2
   22294:	0021883a 	mov	r16,zero
   22298:	003e9706 	br	21cf8 <__adddf3+0x308>
   2229c:	4804977a 	slli	r2,r9,29
   222a0:	00c80034 	movhi	r3,8192
   222a4:	18ffffc4 	addi	r3,r3,-1
   222a8:	30cc703a 	and	r6,r6,r3
   222ac:	4810d0fa 	srli	r8,r9,3
   222b0:	1184b03a 	or	r2,r2,r6
   222b4:	003e9006 	br	21cf8 <__adddf3+0x308>
   222b8:	7365883a 	add	r18,r14,r13
   222bc:	1a47883a 	add	r3,r3,r9
   222c0:	9389803a 	cmpltu	r4,r18,r14
   222c4:	1909883a 	add	r4,r3,r4
   222c8:	2080202c 	andhi	r2,r4,128
   222cc:	103e8126 	beq	r2,zero,21cd4 <__adddf3+0x2e4>
   222d0:	00bfe034 	movhi	r2,65408
   222d4:	10bfffc4 	addi	r2,r2,-1
   222d8:	2088703a 	and	r4,r4,r2
   222dc:	04400044 	movi	r17,1
   222e0:	003e7c06 	br	21cd4 <__adddf3+0x2e4>
   222e4:	4804977a 	slli	r2,r9,29
   222e8:	00c80034 	movhi	r3,8192
   222ec:	18ffffc4 	addi	r3,r3,-1
   222f0:	30cc703a 	and	r6,r6,r3
   222f4:	4810d0fa 	srli	r8,r9,3
   222f8:	1184b03a 	or	r2,r2,r6
   222fc:	3821883a 	mov	r16,r7
   22300:	003ea206 	br	21d8c <__adddf3+0x39c>
   22304:	00880034 	movhi	r2,8192
   22308:	10bfffc4 	addi	r2,r2,-1
   2230c:	2084703a 	and	r2,r4,r2
   22310:	1144b03a 	or	r2,r2,r5
   22314:	003e9d06 	br	21d8c <__adddf3+0x39c>
   22318:	293ff804 	addi	r4,r5,-32
   2231c:	29800820 	cmpeqi	r6,r5,32
   22320:	1908d83a 	srl	r4,r3,r4
   22324:	3000041e 	bne	r6,zero,22338 <__adddf3+0x948>
   22328:	01801004 	movi	r6,64
   2232c:	314bc83a 	sub	r5,r6,r5
   22330:	1946983a 	sll	r3,r3,r5
   22334:	70dcb03a 	or	r14,r14,r3
   22338:	7024c03a 	cmpne	r18,r14,zero
   2233c:	9124b03a 	or	r18,r18,r4
   22340:	003eae06 	br	21dfc <__adddf3+0x40c>
   22344:	7365883a 	add	r18,r14,r13
   22348:	1a47883a 	add	r3,r3,r9
   2234c:	9345803a 	cmpltu	r2,r18,r13
   22350:	1889883a 	add	r4,r3,r2
   22354:	003e5c06 	br	21cc8 <__adddf3+0x2d8>
   22358:	0005883a 	mov	r2,zero
   2235c:	0141ffc4 	movi	r5,2047
   22360:	0007883a 	mov	r3,zero
   22364:	003e0806 	br	21b88 <__adddf3+0x198>

00022368 <__fixdfsi>:
   22368:	2806d53a 	srli	r3,r5,20
   2236c:	01800434 	movhi	r6,16
   22370:	31bfffc4 	addi	r6,r6,-1
   22374:	18c1ffcc 	andi	r3,r3,2047
   22378:	19c0ffd0 	cmplti	r7,r3,1023
   2237c:	2810d7fa 	srli	r8,r5,31
   22380:	298a703a 	and	r5,r5,r6
   22384:	3800061e 	bne	r7,zero,223a0 <__fixdfsi+0x38>
   22388:	18810790 	cmplti	r2,r3,1054
   2238c:	1000061e 	bne	r2,zero,223a8 <__fixdfsi+0x40>
   22390:	00a00034 	movhi	r2,32768
   22394:	10bfffc4 	addi	r2,r2,-1
   22398:	4085883a 	add	r2,r8,r2
   2239c:	f800283a 	ret
   223a0:	0005883a 	mov	r2,zero
   223a4:	f800283a 	ret
   223a8:	01810cc4 	movi	r6,1075
   223ac:	30cdc83a 	sub	r6,r6,r3
   223b0:	30800808 	cmpgei	r2,r6,32
   223b4:	29400434 	orhi	r5,r5,16
   223b8:	1000071e 	bne	r2,zero,223d8 <__fixdfsi+0x70>
   223bc:	18befb44 	addi	r2,r3,-1043
   223c0:	2884983a 	sll	r2,r5,r2
   223c4:	2188d83a 	srl	r4,r4,r6
   223c8:	1104b03a 	or	r2,r2,r4
   223cc:	403ff526 	beq	r8,zero,223a4 <__fixdfsi+0x3c>
   223d0:	0085c83a 	sub	r2,zero,r2
   223d4:	f800283a 	ret
   223d8:	008104c4 	movi	r2,1043
   223dc:	10c5c83a 	sub	r2,r2,r3
   223e0:	2884d83a 	srl	r2,r5,r2
   223e4:	003ff906 	br	223cc <__fixdfsi+0x64>

000223e8 <__floatsidf>:
   223e8:	defffd04 	addi	sp,sp,-12
   223ec:	dfc00215 	stw	ra,8(sp)
   223f0:	dc400115 	stw	r17,4(sp)
   223f4:	dc000015 	stw	r16,0(sp)
   223f8:	20001326 	beq	r4,zero,22448 <__floatsidf+0x60>
   223fc:	2022d7fa 	srli	r17,r4,31
   22400:	2021883a 	mov	r16,r4
   22404:	20002516 	blt	r4,zero,2249c <__floatsidf+0xb4>
   22408:	8009883a 	mov	r4,r16
   2240c:	00227100 	call	22710 <__clzsi2>
   22410:	01410784 	movi	r5,1054
   22414:	288bc83a 	sub	r5,r5,r2
   22418:	10c002c8 	cmpgei	r3,r2,11
   2241c:	2941ffcc 	andi	r5,r5,2047
   22420:	1800171e 	bne	r3,zero,22480 <__floatsidf+0x98>
   22424:	00c002c4 	movi	r3,11
   22428:	1887c83a 	sub	r3,r3,r2
   2242c:	80c6d83a 	srl	r3,r16,r3
   22430:	01000434 	movhi	r4,16
   22434:	10800544 	addi	r2,r2,21
   22438:	213fffc4 	addi	r4,r4,-1
   2243c:	8084983a 	sll	r2,r16,r2
   22440:	1906703a 	and	r3,r3,r4
   22444:	00000406 	br	22458 <__floatsidf+0x70>
   22448:	0023883a 	mov	r17,zero
   2244c:	000b883a 	mov	r5,zero
   22450:	0007883a 	mov	r3,zero
   22454:	0005883a 	mov	r2,zero
   22458:	280a953a 	slli	r5,r5,20
   2245c:	8c403fcc 	andi	r17,r17,255
   22460:	882297fa 	slli	r17,r17,31
   22464:	28c6b03a 	or	r3,r5,r3
   22468:	1c46b03a 	or	r3,r3,r17
   2246c:	dfc00217 	ldw	ra,8(sp)
   22470:	dc400117 	ldw	r17,4(sp)
   22474:	dc000017 	ldw	r16,0(sp)
   22478:	dec00304 	addi	sp,sp,12
   2247c:	f800283a 	ret
   22480:	10bffd44 	addi	r2,r2,-11
   22484:	8086983a 	sll	r3,r16,r2
   22488:	00800434 	movhi	r2,16
   2248c:	10bfffc4 	addi	r2,r2,-1
   22490:	1886703a 	and	r3,r3,r2
   22494:	0005883a 	mov	r2,zero
   22498:	003fef06 	br	22458 <__floatsidf+0x70>
   2249c:	0121c83a 	sub	r16,zero,r4
   224a0:	003fd906 	br	22408 <__floatsidf+0x20>

000224a4 <__extendsfdf2>:
   224a4:	200ad5fa 	srli	r5,r4,23
   224a8:	defffd04 	addi	sp,sp,-12
   224ac:	dc000015 	stw	r16,0(sp)
   224b0:	29403fcc 	andi	r5,r5,255
   224b4:	04002034 	movhi	r16,128
   224b8:	28800044 	addi	r2,r5,1
   224bc:	dc400115 	stw	r17,4(sp)
   224c0:	843fffc4 	addi	r16,r16,-1
   224c4:	dfc00215 	stw	ra,8(sp)
   224c8:	10803f8c 	andi	r2,r2,254
   224cc:	2022d7fa 	srli	r17,r4,31
   224d0:	8120703a 	and	r16,r16,r4
   224d4:	10000d26 	beq	r2,zero,2250c <__extendsfdf2+0x68>
   224d8:	8008d0fa 	srli	r4,r16,3
   224dc:	8020977a 	slli	r16,r16,29
   224e0:	28c0e004 	addi	r3,r5,896
   224e4:	180a953a 	slli	r5,r3,20
   224e8:	880697fa 	slli	r3,r17,31
   224ec:	8005883a 	mov	r2,r16
   224f0:	290ab03a 	or	r5,r5,r4
   224f4:	28c6b03a 	or	r3,r5,r3
   224f8:	dfc00217 	ldw	ra,8(sp)
   224fc:	dc400117 	ldw	r17,4(sp)
   22500:	dc000017 	ldw	r16,0(sp)
   22504:	dec00304 	addi	sp,sp,12
   22508:	f800283a 	ret
   2250c:	2800111e 	bne	r5,zero,22554 <__extendsfdf2+0xb0>
   22510:	80001926 	beq	r16,zero,22578 <__extendsfdf2+0xd4>
   22514:	8009883a 	mov	r4,r16
   22518:	00227100 	call	22710 <__clzsi2>
   2251c:	10c002c8 	cmpgei	r3,r2,11
   22520:	18001b1e 	bne	r3,zero,22590 <__extendsfdf2+0xec>
   22524:	010002c4 	movi	r4,11
   22528:	2089c83a 	sub	r4,r4,r2
   2252c:	10c00544 	addi	r3,r2,21
   22530:	810ad83a 	srl	r5,r16,r4
   22534:	80e0983a 	sll	r16,r16,r3
   22538:	00c0e244 	movi	r3,905
   2253c:	01000434 	movhi	r4,16
   22540:	213fffc4 	addi	r4,r4,-1
   22544:	1885c83a 	sub	r2,r3,r2
   22548:	2908703a 	and	r4,r5,r4
   2254c:	10c1ffcc 	andi	r3,r2,2047
   22550:	003fe406 	br	224e4 <__extendsfdf2+0x40>
   22554:	80000b26 	beq	r16,zero,22584 <__extendsfdf2+0xe0>
   22558:	800ad0fa 	srli	r5,r16,3
   2255c:	00800434 	movhi	r2,16
   22560:	10bfffc4 	addi	r2,r2,-1
   22564:	29000234 	orhi	r4,r5,8
   22568:	8020977a 	slli	r16,r16,29
   2256c:	2088703a 	and	r4,r4,r2
   22570:	00c1ffc4 	movi	r3,2047
   22574:	003fdb06 	br	224e4 <__extendsfdf2+0x40>
   22578:	0007883a 	mov	r3,zero
   2257c:	0009883a 	mov	r4,zero
   22580:	003fd806 	br	224e4 <__extendsfdf2+0x40>
   22584:	00c1ffc4 	movi	r3,2047
   22588:	0009883a 	mov	r4,zero
   2258c:	003fd506 	br	224e4 <__extendsfdf2+0x40>
   22590:	113ffd44 	addi	r4,r2,-11
   22594:	810a983a 	sll	r5,r16,r4
   22598:	0021883a 	mov	r16,zero
   2259c:	003fe606 	br	22538 <__extendsfdf2+0x94>

000225a0 <__truncdfsf2>:
   225a0:	2806d53a 	srli	r3,r5,20
   225a4:	01800434 	movhi	r6,16
   225a8:	31bfffc4 	addi	r6,r6,-1
   225ac:	298c703a 	and	r6,r5,r6
   225b0:	300490fa 	slli	r2,r6,3
   225b4:	18c1ffcc 	andi	r3,r3,2047
   225b8:	200cd77a 	srli	r6,r4,29
   225bc:	19c00044 	addi	r7,r3,1
   225c0:	39c1ff8c 	andi	r7,r7,2046
   225c4:	280ad7fa 	srli	r5,r5,31
   225c8:	201090fa 	slli	r8,r4,3
   225cc:	308cb03a 	or	r6,r6,r2
   225d0:	38000b26 	beq	r7,zero,22600 <__truncdfsf2+0x60>
   225d4:	18bf2004 	addi	r2,r3,-896
   225d8:	11c03fc8 	cmpgei	r7,r2,255
   225dc:	38001226 	beq	r7,zero,22628 <__truncdfsf2+0x88>
   225e0:	00ffffc4 	movi	r3,-1
   225e4:	0009883a 	mov	r4,zero
   225e8:	18c03fcc 	andi	r3,r3,255
   225ec:	180495fa 	slli	r2,r3,23
   225f0:	280a97fa 	slli	r5,r5,31
   225f4:	1104b03a 	or	r2,r2,r4
   225f8:	1144b03a 	or	r2,r2,r5
   225fc:	f800283a 	ret
   22600:	3208b03a 	or	r4,r6,r8
   22604:	1800041e 	bne	r3,zero,22618 <__truncdfsf2+0x78>
   22608:	20001d1e 	bne	r4,zero,22680 <__truncdfsf2+0xe0>
   2260c:	0007883a 	mov	r3,zero
   22610:	0009883a 	mov	r4,zero
   22614:	003ff406 	br	225e8 <__truncdfsf2+0x48>
   22618:	203ff126 	beq	r4,zero,225e0 <__truncdfsf2+0x40>
   2261c:	31001034 	orhi	r4,r6,64
   22620:	00ffffc4 	movi	r3,-1
   22624:	003ff006 	br	225e8 <__truncdfsf2+0x48>
   22628:	0080170e 	bge	zero,r2,22688 <__truncdfsf2+0xe8>
   2262c:	200891ba 	slli	r4,r4,6
   22630:	300c90fa 	slli	r6,r6,3
   22634:	4010d77a 	srli	r8,r8,29
   22638:	2008c03a 	cmpne	r4,r4,zero
   2263c:	218cb03a 	or	r6,r4,r6
   22640:	3208b03a 	or	r4,r6,r8
   22644:	20c001cc 	andi	r3,r4,7
   22648:	18002f26 	beq	r3,zero,22708 <__truncdfsf2+0x168>
   2264c:	20c003cc 	andi	r3,r4,15
   22650:	18c00118 	cmpnei	r3,r3,4
   22654:	18000126 	beq	r3,zero,2265c <__truncdfsf2+0xbc>
   22658:	21000104 	addi	r4,r4,4
   2265c:	20c1002c 	andhi	r3,r4,1024
   22660:	18002926 	beq	r3,zero,22708 <__truncdfsf2+0x168>
   22664:	10c00044 	addi	r3,r2,1
   22668:	18803fe0 	cmpeqi	r2,r3,255
   2266c:	103fdc1e 	bne	r2,zero,225e0 <__truncdfsf2+0x40>
   22670:	200891ba 	slli	r4,r4,6
   22674:	2008d27a 	srli	r4,r4,9
   22678:	003fdb06 	br	225e8 <__truncdfsf2+0x48>
   2267c:	0007883a 	mov	r3,zero
   22680:	01000144 	movi	r4,5
   22684:	003ffa06 	br	22670 <__truncdfsf2+0xd0>
   22688:	113ffa50 	cmplti	r4,r2,-23
   2268c:	203ffb1e 	bne	r4,zero,2267c <__truncdfsf2+0xdc>
   22690:	01000784 	movi	r4,30
   22694:	2089c83a 	sub	r4,r4,r2
   22698:	21c00808 	cmpgei	r7,r4,32
   2269c:	31802034 	orhi	r6,r6,128
   226a0:	38001126 	beq	r7,zero,226e8 <__truncdfsf2+0x148>
   226a4:	01ffff84 	movi	r7,-2
   226a8:	3885c83a 	sub	r2,r7,r2
   226ac:	21000820 	cmpeqi	r4,r4,32
   226b0:	3084d83a 	srl	r2,r6,r2
   226b4:	2000031e 	bne	r4,zero,226c4 <__truncdfsf2+0x124>
   226b8:	18ff2884 	addi	r3,r3,-862
   226bc:	30c6983a 	sll	r3,r6,r3
   226c0:	40d0b03a 	or	r8,r8,r3
   226c4:	4008c03a 	cmpne	r4,r8,zero
   226c8:	2088b03a 	or	r4,r4,r2
   226cc:	20c001cc 	andi	r3,r4,7
   226d0:	0005883a 	mov	r2,zero
   226d4:	183fdd1e 	bne	r3,zero,2264c <__truncdfsf2+0xac>
   226d8:	2081002c 	andhi	r2,r4,1024
   226dc:	103fe426 	beq	r2,zero,22670 <__truncdfsf2+0xd0>
   226e0:	00c00044 	movi	r3,1
   226e4:	003fe206 	br	22670 <__truncdfsf2+0xd0>
   226e8:	18ff2084 	addi	r3,r3,-894
   226ec:	40c4983a 	sll	r2,r8,r3
   226f0:	30c6983a 	sll	r3,r6,r3
   226f4:	4108d83a 	srl	r4,r8,r4
   226f8:	100cc03a 	cmpne	r6,r2,zero
   226fc:	30c6b03a 	or	r3,r6,r3
   22700:	20c8b03a 	or	r4,r4,r3
   22704:	003ff106 	br	226cc <__truncdfsf2+0x12c>
   22708:	1007883a 	mov	r3,r2
   2270c:	003fd806 	br	22670 <__truncdfsf2+0xd0>

00022710 <__clzsi2>:
   22710:	00bfffd4 	movui	r2,65535
   22714:	11000436 	bltu	r2,r4,22728 <__clzsi2+0x18>
   22718:	20804030 	cmpltui	r2,r4,256
   2271c:	10000e26 	beq	r2,zero,22758 <__clzsi2+0x48>
   22720:	01400804 	movi	r5,32
   22724:	00000406 	br	22738 <__clzsi2+0x28>
   22728:	00804034 	movhi	r2,256
   2272c:	20800736 	bltu	r4,r2,2274c <__clzsi2+0x3c>
   22730:	2008d63a 	srli	r4,r4,24
   22734:	01400204 	movi	r5,8
   22738:	00c000f4 	movhi	r3,3
   2273c:	20c7883a 	add	r3,r4,r3
   22740:	18920103 	ldbu	r2,18436(r3)
   22744:	2885c83a 	sub	r2,r5,r2
   22748:	f800283a 	ret
   2274c:	2008d43a 	srli	r4,r4,16
   22750:	01400404 	movi	r5,16
   22754:	003ff806 	br	22738 <__clzsi2+0x28>
   22758:	2008d23a 	srli	r4,r4,8
   2275c:	01400604 	movi	r5,24
   22760:	003ff506 	br	22738 <__clzsi2+0x28>

00022764 <atof>:
   22764:	000b883a 	mov	r5,zero
   22768:	00261d01 	jmpi	261d0 <strtod>

0002276c <calloc>:
   2276c:	00c000f4 	movhi	r3,3
   22770:	2005883a 	mov	r2,r4
   22774:	191af817 	ldw	r4,27616(r3)
   22778:	280d883a 	mov	r6,r5
   2277c:	100b883a 	mov	r5,r2
   22780:	00227841 	jmpi	22784 <_calloc_r>

00022784 <_calloc_r>:
   22784:	298b383a 	mul	r5,r5,r6
   22788:	deffff04 	addi	sp,sp,-4
   2278c:	dfc00015 	stw	ra,0(sp)
   22790:	0023dc40 	call	23dc4 <_malloc_r>
   22794:	1009883a 	mov	r4,r2
   22798:	10000c26 	beq	r2,zero,227cc <_calloc_r+0x48>
   2279c:	11bfff17 	ldw	r6,-4(r2)
   227a0:	00bfff04 	movi	r2,-4
   227a4:	308c703a 	and	r6,r6,r2
   227a8:	31bfff04 	addi	r6,r6,-4
   227ac:	30800968 	cmpgeui	r2,r6,37
   227b0:	1000141e 	bne	r2,zero,22804 <_calloc_r+0x80>
   227b4:	30800530 	cmpltui	r2,r6,20
   227b8:	10000826 	beq	r2,zero,227dc <_calloc_r+0x58>
   227bc:	2005883a 	mov	r2,r4
   227c0:	10000015 	stw	zero,0(r2)
   227c4:	10000115 	stw	zero,4(r2)
   227c8:	10000215 	stw	zero,8(r2)
   227cc:	2005883a 	mov	r2,r4
   227d0:	dfc00017 	ldw	ra,0(sp)
   227d4:	dec00104 	addi	sp,sp,4
   227d8:	f800283a 	ret
   227dc:	20000015 	stw	zero,0(r4)
   227e0:	20000115 	stw	zero,4(r4)
   227e4:	30800728 	cmpgeui	r2,r6,28
   227e8:	10000d26 	beq	r2,zero,22820 <_calloc_r+0x9c>
   227ec:	20000215 	stw	zero,8(r4)
   227f0:	20000315 	stw	zero,12(r4)
   227f4:	31800920 	cmpeqi	r6,r6,36
   227f8:	30000b1e 	bne	r6,zero,22828 <_calloc_r+0xa4>
   227fc:	20800404 	addi	r2,r4,16
   22800:	003fef06 	br	227c0 <_calloc_r+0x3c>
   22804:	000b883a 	mov	r5,zero
   22808:	00246a40 	call	246a4 <memset>
   2280c:	1009883a 	mov	r4,r2
   22810:	2005883a 	mov	r2,r4
   22814:	dfc00017 	ldw	ra,0(sp)
   22818:	dec00104 	addi	sp,sp,4
   2281c:	f800283a 	ret
   22820:	20800204 	addi	r2,r4,8
   22824:	003fe606 	br	227c0 <_calloc_r+0x3c>
   22828:	20000415 	stw	zero,16(r4)
   2282c:	20800604 	addi	r2,r4,24
   22830:	20000515 	stw	zero,20(r4)
   22834:	003fe206 	br	227c0 <_calloc_r+0x3c>

00022838 <__sflush_r>:
   22838:	2880030b 	ldhu	r2,12(r5)
   2283c:	defffb04 	addi	sp,sp,-20
   22840:	dcc00315 	stw	r19,12(sp)
   22844:	dc000015 	stw	r16,0(sp)
   22848:	dfc00415 	stw	ra,16(sp)
   2284c:	dc800215 	stw	r18,8(sp)
   22850:	dc400115 	stw	r17,4(sp)
   22854:	10c0020c 	andi	r3,r2,8
   22858:	2821883a 	mov	r16,r5
   2285c:	2027883a 	mov	r19,r4
   22860:	18003f1e 	bne	r3,zero,22960 <__sflush_r+0x128>
   22864:	28c00117 	ldw	r3,4(r5)
   22868:	10820014 	ori	r2,r2,2048
   2286c:	2880030d 	sth	r2,12(r5)
   22870:	00c0550e 	bge	zero,r3,229c8 <__sflush_r+0x190>
   22874:	82000a17 	ldw	r8,40(r16)
   22878:	40003126 	beq	r8,zero,22940 <__sflush_r+0x108>
   2287c:	9c400017 	ldw	r17,0(r19)
   22880:	1104000c 	andi	r4,r2,4096
   22884:	98000015 	stw	zero,0(r19)
   22888:	81400717 	ldw	r5,28(r16)
   2288c:	1007883a 	mov	r3,r2
   22890:	2000521e 	bne	r4,zero,229dc <__sflush_r+0x1a4>
   22894:	01c00044 	movi	r7,1
   22898:	000d883a 	mov	r6,zero
   2289c:	9809883a 	mov	r4,r19
   228a0:	403ee83a 	callr	r8
   228a4:	10ffffd8 	cmpnei	r3,r2,-1
   228a8:	18005826 	beq	r3,zero,22a0c <__sflush_r+0x1d4>
   228ac:	80c0030b 	ldhu	r3,12(r16)
   228b0:	82000a17 	ldw	r8,40(r16)
   228b4:	81400717 	ldw	r5,28(r16)
   228b8:	18c0010c 	andi	r3,r3,4
   228bc:	18000626 	beq	r3,zero,228d8 <__sflush_r+0xa0>
   228c0:	81000117 	ldw	r4,4(r16)
   228c4:	80c00c17 	ldw	r3,48(r16)
   228c8:	1105c83a 	sub	r2,r2,r4
   228cc:	18000226 	beq	r3,zero,228d8 <__sflush_r+0xa0>
   228d0:	80c00f17 	ldw	r3,60(r16)
   228d4:	10c5c83a 	sub	r2,r2,r3
   228d8:	100d883a 	mov	r6,r2
   228dc:	000f883a 	mov	r7,zero
   228e0:	9809883a 	mov	r4,r19
   228e4:	403ee83a 	callr	r8
   228e8:	10ffffd8 	cmpnei	r3,r2,-1
   228ec:	18003d1e 	bne	r3,zero,229e4 <__sflush_r+0x1ac>
   228f0:	99000017 	ldw	r4,0(r19)
   228f4:	80c0030b 	ldhu	r3,12(r16)
   228f8:	20004e26 	beq	r4,zero,22a34 <__sflush_r+0x1fc>
   228fc:	21400760 	cmpeqi	r5,r4,29
   22900:	2800021e 	bne	r5,zero,2290c <__sflush_r+0xd4>
   22904:	210005a0 	cmpeqi	r4,r4,22
   22908:	20002c26 	beq	r4,zero,229bc <__sflush_r+0x184>
   2290c:	80800417 	ldw	r2,16(r16)
   22910:	18fdffcc 	andi	r3,r3,63487
   22914:	80c0030d 	sth	r3,12(r16)
   22918:	80000115 	stw	zero,4(r16)
   2291c:	80800015 	stw	r2,0(r16)
   22920:	81400c17 	ldw	r5,48(r16)
   22924:	9c400015 	stw	r17,0(r19)
   22928:	28000526 	beq	r5,zero,22940 <__sflush_r+0x108>
   2292c:	80801004 	addi	r2,r16,64
   22930:	28800226 	beq	r5,r2,2293c <__sflush_r+0x104>
   22934:	9809883a 	mov	r4,r19
   22938:	002309c0 	call	2309c <_free_r>
   2293c:	80000c15 	stw	zero,48(r16)
   22940:	0005883a 	mov	r2,zero
   22944:	dfc00417 	ldw	ra,16(sp)
   22948:	dcc00317 	ldw	r19,12(sp)
   2294c:	dc800217 	ldw	r18,8(sp)
   22950:	dc400117 	ldw	r17,4(sp)
   22954:	dc000017 	ldw	r16,0(sp)
   22958:	dec00504 	addi	sp,sp,20
   2295c:	f800283a 	ret
   22960:	2c800417 	ldw	r18,16(r5)
   22964:	903ff626 	beq	r18,zero,22940 <__sflush_r+0x108>
   22968:	2c400017 	ldw	r17,0(r5)
   2296c:	108000cc 	andi	r2,r2,3
   22970:	2c800015 	stw	r18,0(r5)
   22974:	8ca3c83a 	sub	r17,r17,r18
   22978:	1000161e 	bne	r2,zero,229d4 <__sflush_r+0x19c>
   2297c:	28800517 	ldw	r2,20(r5)
   22980:	80800215 	stw	r2,8(r16)
   22984:	04400316 	blt	zero,r17,22994 <__sflush_r+0x15c>
   22988:	003fed06 	br	22940 <__sflush_r+0x108>
   2298c:	90a5883a 	add	r18,r18,r2
   22990:	047feb0e 	bge	zero,r17,22940 <__sflush_r+0x108>
   22994:	80800917 	ldw	r2,36(r16)
   22998:	81400717 	ldw	r5,28(r16)
   2299c:	880f883a 	mov	r7,r17
   229a0:	900d883a 	mov	r6,r18
   229a4:	9809883a 	mov	r4,r19
   229a8:	103ee83a 	callr	r2
   229ac:	88a3c83a 	sub	r17,r17,r2
   229b0:	00bff616 	blt	zero,r2,2298c <__sflush_r+0x154>
   229b4:	80c0030b 	ldhu	r3,12(r16)
   229b8:	00bfffc4 	movi	r2,-1
   229bc:	18c01014 	ori	r3,r3,64
   229c0:	80c0030d 	sth	r3,12(r16)
   229c4:	003fdf06 	br	22944 <__sflush_r+0x10c>
   229c8:	28c00f17 	ldw	r3,60(r5)
   229cc:	00ffa916 	blt	zero,r3,22874 <__sflush_r+0x3c>
   229d0:	003fdb06 	br	22940 <__sflush_r+0x108>
   229d4:	0005883a 	mov	r2,zero
   229d8:	003fe906 	br	22980 <__sflush_r+0x148>
   229dc:	80801417 	ldw	r2,80(r16)
   229e0:	003fb506 	br	228b8 <__sflush_r+0x80>
   229e4:	80c0030b 	ldhu	r3,12(r16)
   229e8:	81000417 	ldw	r4,16(r16)
   229ec:	80000115 	stw	zero,4(r16)
   229f0:	197dffcc 	andi	r5,r3,63487
   229f4:	8140030d 	sth	r5,12(r16)
   229f8:	81000015 	stw	r4,0(r16)
   229fc:	18c4000c 	andi	r3,r3,4096
   22a00:	183fc726 	beq	r3,zero,22920 <__sflush_r+0xe8>
   22a04:	80801415 	stw	r2,80(r16)
   22a08:	003fc506 	br	22920 <__sflush_r+0xe8>
   22a0c:	98c00017 	ldw	r3,0(r19)
   22a10:	183fa626 	beq	r3,zero,228ac <__sflush_r+0x74>
   22a14:	19000760 	cmpeqi	r4,r3,29
   22a18:	20000e1e 	bne	r4,zero,22a54 <__sflush_r+0x21c>
   22a1c:	18c00598 	cmpnei	r3,r3,22
   22a20:	18000c26 	beq	r3,zero,22a54 <__sflush_r+0x21c>
   22a24:	80c0030b 	ldhu	r3,12(r16)
   22a28:	18c01014 	ori	r3,r3,64
   22a2c:	80c0030d 	sth	r3,12(r16)
   22a30:	003fc406 	br	22944 <__sflush_r+0x10c>
   22a34:	81000417 	ldw	r4,16(r16)
   22a38:	197dffcc 	andi	r5,r3,63487
   22a3c:	8140030d 	sth	r5,12(r16)
   22a40:	80000115 	stw	zero,4(r16)
   22a44:	81000015 	stw	r4,0(r16)
   22a48:	18c4000c 	andi	r3,r3,4096
   22a4c:	183fb426 	beq	r3,zero,22920 <__sflush_r+0xe8>
   22a50:	003fec06 	br	22a04 <__sflush_r+0x1cc>
   22a54:	9c400015 	stw	r17,0(r19)
   22a58:	0005883a 	mov	r2,zero
   22a5c:	003fb906 	br	22944 <__sflush_r+0x10c>

00022a60 <_fflush_r>:
   22a60:	defffd04 	addi	sp,sp,-12
   22a64:	dc000115 	stw	r16,4(sp)
   22a68:	dfc00215 	stw	ra,8(sp)
   22a6c:	2021883a 	mov	r16,r4
   22a70:	20000226 	beq	r4,zero,22a7c <_fflush_r+0x1c>
   22a74:	20800e17 	ldw	r2,56(r4)
   22a78:	10000726 	beq	r2,zero,22a98 <_fflush_r+0x38>
   22a7c:	2880030f 	ldh	r2,12(r5)
   22a80:	10000a1e 	bne	r2,zero,22aac <_fflush_r+0x4c>
   22a84:	0005883a 	mov	r2,zero
   22a88:	dfc00217 	ldw	ra,8(sp)
   22a8c:	dc000117 	ldw	r16,4(sp)
   22a90:	dec00304 	addi	sp,sp,12
   22a94:	f800283a 	ret
   22a98:	d9400015 	stw	r5,0(sp)
   22a9c:	0022de40 	call	22de4 <__sinit>
   22aa0:	d9400017 	ldw	r5,0(sp)
   22aa4:	2880030f 	ldh	r2,12(r5)
   22aa8:	103ff626 	beq	r2,zero,22a84 <_fflush_r+0x24>
   22aac:	8009883a 	mov	r4,r16
   22ab0:	dfc00217 	ldw	ra,8(sp)
   22ab4:	dc000117 	ldw	r16,4(sp)
   22ab8:	dec00304 	addi	sp,sp,12
   22abc:	00228381 	jmpi	22838 <__sflush_r>

00022ac0 <fflush>:
   22ac0:	200b883a 	mov	r5,r4
   22ac4:	20000326 	beq	r4,zero,22ad4 <fflush+0x14>
   22ac8:	008000f4 	movhi	r2,3
   22acc:	111af817 	ldw	r4,27616(r2)
   22ad0:	0022a601 	jmpi	22a60 <_fflush_r>
   22ad4:	008000f4 	movhi	r2,3
   22ad8:	111af717 	ldw	r4,27612(r2)
   22adc:	014000b4 	movhi	r5,2
   22ae0:	294a9804 	addi	r5,r5,10848
   22ae4:	00239201 	jmpi	23920 <_fwalk_reent>

00022ae8 <__fp_lock>:
   22ae8:	0005883a 	mov	r2,zero
   22aec:	f800283a 	ret

00022af0 <_cleanup_r>:
   22af0:	014000f4 	movhi	r5,3
   22af4:	29686204 	addi	r5,r5,-24184
   22af8:	00239201 	jmpi	23920 <_fwalk_reent>

00022afc <__sinit.part.0>:
   22afc:	00c000b4 	movhi	r3,2
   22b00:	20800117 	ldw	r2,4(r4)
   22b04:	18cabc04 	addi	r3,r3,10992
   22b08:	20c00f15 	stw	r3,60(r4)
   22b0c:	2140bb04 	addi	r5,r4,748
   22b10:	00c000c4 	movi	r3,3
   22b14:	20c0b915 	stw	r3,740(r4)
   22b18:	2140ba15 	stw	r5,744(r4)
   22b1c:	2000b815 	stw	zero,736(r4)
   22b20:	10001705 	stb	zero,92(r2)
   22b24:	10001745 	stb	zero,93(r2)
   22b28:	10001785 	stb	zero,94(r2)
   22b2c:	100017c5 	stb	zero,95(r2)
   22b30:	10001805 	stb	zero,96(r2)
   22b34:	10001845 	stb	zero,97(r2)
   22b38:	10001885 	stb	zero,98(r2)
   22b3c:	100018c5 	stb	zero,99(r2)
   22b40:	00c00104 	movi	r3,4
   22b44:	10c00315 	stw	r3,12(r2)
   22b48:	020000b4 	movhi	r8,2
   22b4c:	20c00217 	ldw	r3,8(r4)
   22b50:	01c000b4 	movhi	r7,2
   22b54:	018000b4 	movhi	r6,2
   22b58:	014000b4 	movhi	r5,2
   22b5c:	4212af04 	addi	r8,r8,19132
   22b60:	39d2c604 	addi	r7,r7,19224
   22b64:	3192e604 	addi	r6,r6,19352
   22b68:	2952fd04 	addi	r5,r5,19444
   22b6c:	02400074 	movhi	r9,1
   22b70:	10001915 	stw	zero,100(r2)
   22b74:	10000015 	stw	zero,0(r2)
   22b78:	10000115 	stw	zero,4(r2)
   22b7c:	10000215 	stw	zero,8(r2)
   22b80:	10000415 	stw	zero,16(r2)
   22b84:	10000515 	stw	zero,20(r2)
   22b88:	10000615 	stw	zero,24(r2)
   22b8c:	10800715 	stw	r2,28(r2)
   22b90:	12000815 	stw	r8,32(r2)
   22b94:	11c00915 	stw	r7,36(r2)
   22b98:	11800a15 	stw	r6,40(r2)
   22b9c:	11400b15 	stw	r5,44(r2)
   22ba0:	4a400284 	addi	r9,r9,10
   22ba4:	1a400315 	stw	r9,12(r3)
   22ba8:	18001915 	stw	zero,100(r3)
   22bac:	18000015 	stw	zero,0(r3)
   22bb0:	18000115 	stw	zero,4(r3)
   22bb4:	18000215 	stw	zero,8(r3)
   22bb8:	18000415 	stw	zero,16(r3)
   22bbc:	18001705 	stb	zero,92(r3)
   22bc0:	18001745 	stb	zero,93(r3)
   22bc4:	18001785 	stb	zero,94(r3)
   22bc8:	180017c5 	stb	zero,95(r3)
   22bcc:	18001805 	stb	zero,96(r3)
   22bd0:	18001845 	stb	zero,97(r3)
   22bd4:	18001885 	stb	zero,98(r3)
   22bd8:	180018c5 	stb	zero,99(r3)
   22bdc:	20800317 	ldw	r2,12(r4)
   22be0:	024000b4 	movhi	r9,2
   22be4:	18000515 	stw	zero,20(r3)
   22be8:	18000615 	stw	zero,24(r3)
   22bec:	18c00715 	stw	r3,28(r3)
   22bf0:	1a000815 	stw	r8,32(r3)
   22bf4:	19c00915 	stw	r7,36(r3)
   22bf8:	19800a15 	stw	r6,40(r3)
   22bfc:	19400b15 	stw	r5,44(r3)
   22c00:	4a400484 	addi	r9,r9,18
   22c04:	10001915 	stw	zero,100(r2)
   22c08:	10000015 	stw	zero,0(r2)
   22c0c:	10000115 	stw	zero,4(r2)
   22c10:	10000215 	stw	zero,8(r2)
   22c14:	12400315 	stw	r9,12(r2)
   22c18:	10000415 	stw	zero,16(r2)
   22c1c:	10000515 	stw	zero,20(r2)
   22c20:	10000615 	stw	zero,24(r2)
   22c24:	10001705 	stb	zero,92(r2)
   22c28:	10001745 	stb	zero,93(r2)
   22c2c:	10001785 	stb	zero,94(r2)
   22c30:	100017c5 	stb	zero,95(r2)
   22c34:	10001805 	stb	zero,96(r2)
   22c38:	10001845 	stb	zero,97(r2)
   22c3c:	10001885 	stb	zero,98(r2)
   22c40:	100018c5 	stb	zero,99(r2)
   22c44:	10800715 	stw	r2,28(r2)
   22c48:	12000815 	stw	r8,32(r2)
   22c4c:	11c00915 	stw	r7,36(r2)
   22c50:	11800a15 	stw	r6,40(r2)
   22c54:	11400b15 	stw	r5,44(r2)
   22c58:	00800044 	movi	r2,1
   22c5c:	20800e15 	stw	r2,56(r4)
   22c60:	f800283a 	ret

00022c64 <__fp_unlock>:
   22c64:	0005883a 	mov	r2,zero
   22c68:	f800283a 	ret

00022c6c <__sfmoreglue>:
   22c6c:	defffc04 	addi	sp,sp,-16
   22c70:	dc400115 	stw	r17,4(sp)
   22c74:	2c7fffc4 	addi	r17,r5,-1
   22c78:	8c401a24 	muli	r17,r17,104
   22c7c:	dc800215 	stw	r18,8(sp)
   22c80:	2825883a 	mov	r18,r5
   22c84:	89401d04 	addi	r5,r17,116
   22c88:	dc000015 	stw	r16,0(sp)
   22c8c:	dfc00315 	stw	ra,12(sp)
   22c90:	0023dc40 	call	23dc4 <_malloc_r>
   22c94:	1021883a 	mov	r16,r2
   22c98:	10000726 	beq	r2,zero,22cb8 <__sfmoreglue+0x4c>
   22c9c:	11000304 	addi	r4,r2,12
   22ca0:	10000015 	stw	zero,0(r2)
   22ca4:	14800115 	stw	r18,4(r2)
   22ca8:	11000215 	stw	r4,8(r2)
   22cac:	89801a04 	addi	r6,r17,104
   22cb0:	000b883a 	mov	r5,zero
   22cb4:	00246a40 	call	246a4 <memset>
   22cb8:	8005883a 	mov	r2,r16
   22cbc:	dfc00317 	ldw	ra,12(sp)
   22cc0:	dc800217 	ldw	r18,8(sp)
   22cc4:	dc400117 	ldw	r17,4(sp)
   22cc8:	dc000017 	ldw	r16,0(sp)
   22ccc:	dec00404 	addi	sp,sp,16
   22cd0:	f800283a 	ret

00022cd4 <__sfp>:
   22cd4:	defffd04 	addi	sp,sp,-12
   22cd8:	008000f4 	movhi	r2,3
   22cdc:	dc000015 	stw	r16,0(sp)
   22ce0:	141af717 	ldw	r16,27612(r2)
   22ce4:	dc400115 	stw	r17,4(sp)
   22ce8:	dfc00215 	stw	ra,8(sp)
   22cec:	80800e17 	ldw	r2,56(r16)
   22cf0:	2023883a 	mov	r17,r4
   22cf4:	10002b26 	beq	r2,zero,22da4 <__sfp+0xd0>
   22cf8:	8400b804 	addi	r16,r16,736
   22cfc:	80c00117 	ldw	r3,4(r16)
   22d00:	80800217 	ldw	r2,8(r16)
   22d04:	18ffffc4 	addi	r3,r3,-1
   22d08:	1800030e 	bge	r3,zero,22d18 <__sfp+0x44>
   22d0c:	00002106 	br	22d94 <__sfp+0xc0>
   22d10:	10801a04 	addi	r2,r2,104
   22d14:	30001f26 	beq	r6,zero,22d94 <__sfp+0xc0>
   22d18:	1140030f 	ldh	r5,12(r2)
   22d1c:	18ffffc4 	addi	r3,r3,-1
   22d20:	19bfffd8 	cmpnei	r6,r3,-1
   22d24:	283ffa1e 	bne	r5,zero,22d10 <__sfp+0x3c>
   22d28:	00fffff4 	movhi	r3,65535
   22d2c:	18c00044 	addi	r3,r3,1
   22d30:	10001915 	stw	zero,100(r2)
   22d34:	10000015 	stw	zero,0(r2)
   22d38:	10000115 	stw	zero,4(r2)
   22d3c:	10000215 	stw	zero,8(r2)
   22d40:	10c00315 	stw	r3,12(r2)
   22d44:	10000415 	stw	zero,16(r2)
   22d48:	10000515 	stw	zero,20(r2)
   22d4c:	10000615 	stw	zero,24(r2)
   22d50:	10001705 	stb	zero,92(r2)
   22d54:	10001745 	stb	zero,93(r2)
   22d58:	10001785 	stb	zero,94(r2)
   22d5c:	100017c5 	stb	zero,95(r2)
   22d60:	10001805 	stb	zero,96(r2)
   22d64:	10001845 	stb	zero,97(r2)
   22d68:	10001885 	stb	zero,98(r2)
   22d6c:	100018c5 	stb	zero,99(r2)
   22d70:	10000c15 	stw	zero,48(r2)
   22d74:	10000d15 	stw	zero,52(r2)
   22d78:	10001115 	stw	zero,68(r2)
   22d7c:	10001215 	stw	zero,72(r2)
   22d80:	dfc00217 	ldw	ra,8(sp)
   22d84:	dc400117 	ldw	r17,4(sp)
   22d88:	dc000017 	ldw	r16,0(sp)
   22d8c:	dec00304 	addi	sp,sp,12
   22d90:	f800283a 	ret
   22d94:	80800017 	ldw	r2,0(r16)
   22d98:	10000526 	beq	r2,zero,22db0 <__sfp+0xdc>
   22d9c:	1021883a 	mov	r16,r2
   22da0:	003fd606 	br	22cfc <__sfp+0x28>
   22da4:	8009883a 	mov	r4,r16
   22da8:	0022afc0 	call	22afc <__sinit.part.0>
   22dac:	003fd206 	br	22cf8 <__sfp+0x24>
   22db0:	01400104 	movi	r5,4
   22db4:	8809883a 	mov	r4,r17
   22db8:	0022c6c0 	call	22c6c <__sfmoreglue>
   22dbc:	80800015 	stw	r2,0(r16)
   22dc0:	103ff61e 	bne	r2,zero,22d9c <__sfp+0xc8>
   22dc4:	00c00304 	movi	r3,12
   22dc8:	88c00015 	stw	r3,0(r17)
   22dcc:	003fec06 	br	22d80 <__sfp+0xac>

00022dd0 <_cleanup>:
   22dd0:	008000f4 	movhi	r2,3
   22dd4:	111af717 	ldw	r4,27612(r2)
   22dd8:	014000f4 	movhi	r5,3
   22ddc:	29686204 	addi	r5,r5,-24184
   22de0:	00239201 	jmpi	23920 <_fwalk_reent>

00022de4 <__sinit>:
   22de4:	20800e17 	ldw	r2,56(r4)
   22de8:	10000126 	beq	r2,zero,22df0 <__sinit+0xc>
   22dec:	f800283a 	ret
   22df0:	0022afc1 	jmpi	22afc <__sinit.part.0>

00022df4 <__sfp_lock_acquire>:
   22df4:	f800283a 	ret

00022df8 <__sfp_lock_release>:
   22df8:	f800283a 	ret

00022dfc <__sinit_lock_acquire>:
   22dfc:	f800283a 	ret

00022e00 <__sinit_lock_release>:
   22e00:	f800283a 	ret

00022e04 <__fp_lock_all>:
   22e04:	008000f4 	movhi	r2,3
   22e08:	111af817 	ldw	r4,27616(r2)
   22e0c:	014000b4 	movhi	r5,2
   22e10:	294aba04 	addi	r5,r5,10984
   22e14:	00238881 	jmpi	23888 <_fwalk>

00022e18 <__fp_unlock_all>:
   22e18:	008000f4 	movhi	r2,3
   22e1c:	111af817 	ldw	r4,27616(r2)
   22e20:	014000b4 	movhi	r5,2
   22e24:	294b1904 	addi	r5,r5,11364
   22e28:	00238881 	jmpi	23888 <_fwalk>

00022e2c <_fopen_r>:
   22e2c:	defffa04 	addi	sp,sp,-24
   22e30:	3007883a 	mov	r3,r6
   22e34:	dcc00415 	stw	r19,16(sp)
   22e38:	d80d883a 	mov	r6,sp
   22e3c:	2827883a 	mov	r19,r5
   22e40:	180b883a 	mov	r5,r3
   22e44:	dc800315 	stw	r18,12(sp)
   22e48:	dfc00515 	stw	ra,20(sp)
   22e4c:	dc400215 	stw	r17,8(sp)
   22e50:	dc000115 	stw	r16,4(sp)
   22e54:	2025883a 	mov	r18,r4
   22e58:	002a2900 	call	2a290 <__sflags>
   22e5c:	10002726 	beq	r2,zero,22efc <_fopen_r+0xd0>
   22e60:	9009883a 	mov	r4,r18
   22e64:	1023883a 	mov	r17,r2
   22e68:	0022cd40 	call	22cd4 <__sfp>
   22e6c:	1021883a 	mov	r16,r2
   22e70:	10002226 	beq	r2,zero,22efc <_fopen_r+0xd0>
   22e74:	d9800017 	ldw	r6,0(sp)
   22e78:	01c06d84 	movi	r7,438
   22e7c:	980b883a 	mov	r5,r19
   22e80:	9009883a 	mov	r4,r18
   22e84:	00247940 	call	24794 <_open_r>
   22e88:	10001916 	blt	r2,zero,22ef0 <_fopen_r+0xc4>
   22e8c:	018000b4 	movhi	r6,2
   22e90:	014000b4 	movhi	r5,2
   22e94:	010000b4 	movhi	r4,2
   22e98:	00c000b4 	movhi	r3,2
   22e9c:	3192af04 	addi	r6,r6,19132
   22ea0:	2952c604 	addi	r5,r5,19224
   22ea4:	2112e604 	addi	r4,r4,19352
   22ea8:	18d2fd04 	addi	r3,r3,19444
   22eac:	8440030d 	sth	r17,12(r16)
   22eb0:	8080038d 	sth	r2,14(r16)
   22eb4:	84000715 	stw	r16,28(r16)
   22eb8:	81800815 	stw	r6,32(r16)
   22ebc:	81400915 	stw	r5,36(r16)
   22ec0:	81000a15 	stw	r4,40(r16)
   22ec4:	80c00b15 	stw	r3,44(r16)
   22ec8:	8c40400c 	andi	r17,r17,256
   22ecc:	88000d1e 	bne	r17,zero,22f04 <_fopen_r+0xd8>
   22ed0:	8005883a 	mov	r2,r16
   22ed4:	dfc00517 	ldw	ra,20(sp)
   22ed8:	dcc00417 	ldw	r19,16(sp)
   22edc:	dc800317 	ldw	r18,12(sp)
   22ee0:	dc400217 	ldw	r17,8(sp)
   22ee4:	dc000117 	ldw	r16,4(sp)
   22ee8:	dec00604 	addi	sp,sp,24
   22eec:	f800283a 	ret
   22ef0:	0022df40 	call	22df4 <__sfp_lock_acquire>
   22ef4:	8000030d 	sth	zero,12(r16)
   22ef8:	0022df80 	call	22df8 <__sfp_lock_release>
   22efc:	0021883a 	mov	r16,zero
   22f00:	003ff306 	br	22ed0 <_fopen_r+0xa4>
   22f04:	01c00084 	movi	r7,2
   22f08:	000d883a 	mov	r6,zero
   22f0c:	800b883a 	mov	r5,r16
   22f10:	9009883a 	mov	r4,r18
   22f14:	00233980 	call	23398 <_fseek_r>
   22f18:	003fed06 	br	22ed0 <_fopen_r+0xa4>

00022f1c <fopen>:
   22f1c:	00c000f4 	movhi	r3,3
   22f20:	2005883a 	mov	r2,r4
   22f24:	191af817 	ldw	r4,27616(r3)
   22f28:	280d883a 	mov	r6,r5
   22f2c:	100b883a 	mov	r5,r2
   22f30:	0022e2c1 	jmpi	22e2c <_fopen_r>

00022f34 <_fprintf_r>:
   22f34:	defffe04 	addi	sp,sp,-8
   22f38:	2809883a 	mov	r4,r5
   22f3c:	300b883a 	mov	r5,r6
   22f40:	dfc00015 	stw	ra,0(sp)
   22f44:	d9c00115 	stw	r7,4(sp)
   22f48:	d9800104 	addi	r6,sp,4
   22f4c:	00285480 	call	28548 <__vfprintf_internal>
   22f50:	dfc00017 	ldw	ra,0(sp)
   22f54:	dec00204 	addi	sp,sp,8
   22f58:	f800283a 	ret

00022f5c <fprintf>:
   22f5c:	defffd04 	addi	sp,sp,-12
   22f60:	dfc00015 	stw	ra,0(sp)
   22f64:	d9800115 	stw	r6,4(sp)
   22f68:	d9c00215 	stw	r7,8(sp)
   22f6c:	d9800104 	addi	r6,sp,4
   22f70:	00285480 	call	28548 <__vfprintf_internal>
   22f74:	dfc00017 	ldw	ra,0(sp)
   22f78:	dec00304 	addi	sp,sp,12
   22f7c:	f800283a 	ret

00022f80 <_malloc_trim_r>:
   22f80:	defffb04 	addi	sp,sp,-20
   22f84:	dcc00315 	stw	r19,12(sp)
   22f88:	04c000f4 	movhi	r19,3
   22f8c:	dc800215 	stw	r18,8(sp)
   22f90:	dc400115 	stw	r17,4(sp)
   22f94:	dc000015 	stw	r16,0(sp)
   22f98:	dfc00415 	stw	ra,16(sp)
   22f9c:	2821883a 	mov	r16,r5
   22fa0:	9cd50d04 	addi	r19,r19,21556
   22fa4:	2025883a 	mov	r18,r4
   22fa8:	0031fcc0 	call	31fcc <__malloc_lock>
   22fac:	98800217 	ldw	r2,8(r19)
   22fb0:	14400117 	ldw	r17,4(r2)
   22fb4:	00bfff04 	movi	r2,-4
   22fb8:	88a2703a 	and	r17,r17,r2
   22fbc:	8c21c83a 	sub	r16,r17,r16
   22fc0:	8403fbc4 	addi	r16,r16,4079
   22fc4:	8020d33a 	srli	r16,r16,12
   22fc8:	843fffc4 	addi	r16,r16,-1
   22fcc:	8020933a 	slli	r16,r16,12
   22fd0:	80840008 	cmpgei	r2,r16,4096
   22fd4:	10000626 	beq	r2,zero,22ff0 <_malloc_trim_r+0x70>
   22fd8:	000b883a 	mov	r5,zero
   22fdc:	9009883a 	mov	r4,r18
   22fe0:	0024a640 	call	24a64 <_sbrk_r>
   22fe4:	98c00217 	ldw	r3,8(r19)
   22fe8:	1c47883a 	add	r3,r3,r17
   22fec:	10c00a26 	beq	r2,r3,23018 <_malloc_trim_r+0x98>
   22ff0:	9009883a 	mov	r4,r18
   22ff4:	0031ff00 	call	31ff0 <__malloc_unlock>
   22ff8:	0005883a 	mov	r2,zero
   22ffc:	dfc00417 	ldw	ra,16(sp)
   23000:	dcc00317 	ldw	r19,12(sp)
   23004:	dc800217 	ldw	r18,8(sp)
   23008:	dc400117 	ldw	r17,4(sp)
   2300c:	dc000017 	ldw	r16,0(sp)
   23010:	dec00504 	addi	sp,sp,20
   23014:	f800283a 	ret
   23018:	040bc83a 	sub	r5,zero,r16
   2301c:	9009883a 	mov	r4,r18
   23020:	0024a640 	call	24a64 <_sbrk_r>
   23024:	10bfffd8 	cmpnei	r2,r2,-1
   23028:	10000d26 	beq	r2,zero,23060 <_malloc_trim_r+0xe0>
   2302c:	00800134 	movhi	r2,4
   23030:	10a21917 	ldw	r2,-30620(r2)
   23034:	98c00217 	ldw	r3,8(r19)
   23038:	8c23c83a 	sub	r17,r17,r16
   2303c:	8c400054 	ori	r17,r17,1
   23040:	1421c83a 	sub	r16,r2,r16
   23044:	1c400115 	stw	r17,4(r3)
   23048:	00800134 	movhi	r2,4
   2304c:	9009883a 	mov	r4,r18
   23050:	14221915 	stw	r16,-30620(r2)
   23054:	0031ff00 	call	31ff0 <__malloc_unlock>
   23058:	00800044 	movi	r2,1
   2305c:	003fe706 	br	22ffc <_malloc_trim_r+0x7c>
   23060:	000b883a 	mov	r5,zero
   23064:	9009883a 	mov	r4,r18
   23068:	0024a640 	call	24a64 <_sbrk_r>
   2306c:	99000217 	ldw	r4,8(r19)
   23070:	1107c83a 	sub	r3,r2,r4
   23074:	19400410 	cmplti	r5,r3,16
   23078:	283fdd1e 	bne	r5,zero,22ff0 <_malloc_trim_r+0x70>
   2307c:	014000f4 	movhi	r5,3
   23080:	295af917 	ldw	r5,27620(r5)
   23084:	18c00054 	ori	r3,r3,1
   23088:	20c00115 	stw	r3,4(r4)
   2308c:	1145c83a 	sub	r2,r2,r5
   23090:	01400134 	movhi	r5,4
   23094:	28a21915 	stw	r2,-30620(r5)
   23098:	003fd506 	br	22ff0 <_malloc_trim_r+0x70>

0002309c <_free_r>:
   2309c:	28004f26 	beq	r5,zero,231dc <_free_r+0x140>
   230a0:	defffd04 	addi	sp,sp,-12
   230a4:	dc400115 	stw	r17,4(sp)
   230a8:	dc000015 	stw	r16,0(sp)
   230ac:	2023883a 	mov	r17,r4
   230b0:	2821883a 	mov	r16,r5
   230b4:	dfc00215 	stw	ra,8(sp)
   230b8:	0031fcc0 	call	31fcc <__malloc_lock>
   230bc:	81ffff17 	ldw	r7,-4(r16)
   230c0:	00bfff84 	movi	r2,-2
   230c4:	80fffe04 	addi	r3,r16,-8
   230c8:	3884703a 	and	r2,r7,r2
   230cc:	010000f4 	movhi	r4,3
   230d0:	188d883a 	add	r6,r3,r2
   230d4:	21150d04 	addi	r4,r4,21556
   230d8:	31400117 	ldw	r5,4(r6)
   230dc:	22000217 	ldw	r8,8(r4)
   230e0:	027fff04 	movi	r9,-4
   230e4:	2a4a703a 	and	r5,r5,r9
   230e8:	41806426 	beq	r8,r6,2327c <_free_r+0x1e0>
   230ec:	31400115 	stw	r5,4(r6)
   230f0:	39c0004c 	andi	r7,r7,1
   230f4:	3151883a 	add	r8,r6,r5
   230f8:	3800281e 	bne	r7,zero,2319c <_free_r+0x100>
   230fc:	82bffe17 	ldw	r10,-8(r16)
   23100:	42000117 	ldw	r8,4(r8)
   23104:	01c000f4 	movhi	r7,3
   23108:	1a87c83a 	sub	r3,r3,r10
   2310c:	1a400217 	ldw	r9,8(r3)
   23110:	39d50f04 	addi	r7,r7,21564
   23114:	1285883a 	add	r2,r2,r10
   23118:	4200004c 	andi	r8,r8,1
   2311c:	49c04c26 	beq	r9,r7,23250 <_free_r+0x1b4>
   23120:	1a800317 	ldw	r10,12(r3)
   23124:	4a800315 	stw	r10,12(r9)
   23128:	52400215 	stw	r9,8(r10)
   2312c:	40007126 	beq	r8,zero,232f4 <_free_r+0x258>
   23130:	11400054 	ori	r5,r2,1
   23134:	19400115 	stw	r5,4(r3)
   23138:	30800015 	stw	r2,0(r6)
   2313c:	11408028 	cmpgeui	r5,r2,512
   23140:	28002c1e 	bne	r5,zero,231f4 <_free_r+0x158>
   23144:	100ad0fa 	srli	r5,r2,3
   23148:	100cd17a 	srli	r6,r2,5
   2314c:	00800044 	movi	r2,1
   23150:	29400044 	addi	r5,r5,1
   23154:	280a90fa 	slli	r5,r5,3
   23158:	21c00117 	ldw	r7,4(r4)
   2315c:	1184983a 	sll	r2,r2,r6
   23160:	214b883a 	add	r5,r4,r5
   23164:	29800017 	ldw	r6,0(r5)
   23168:	11c4b03a 	or	r2,r2,r7
   2316c:	29fffe04 	addi	r7,r5,-8
   23170:	19c00315 	stw	r7,12(r3)
   23174:	19800215 	stw	r6,8(r3)
   23178:	20800115 	stw	r2,4(r4)
   2317c:	28c00015 	stw	r3,0(r5)
   23180:	30c00315 	stw	r3,12(r6)
   23184:	8809883a 	mov	r4,r17
   23188:	dfc00217 	ldw	ra,8(sp)
   2318c:	dc400117 	ldw	r17,4(sp)
   23190:	dc000017 	ldw	r16,0(sp)
   23194:	dec00304 	addi	sp,sp,12
   23198:	0031ff01 	jmpi	31ff0 <__malloc_unlock>
   2319c:	41c00117 	ldw	r7,4(r8)
   231a0:	39c0004c 	andi	r7,r7,1
   231a4:	38000e1e 	bne	r7,zero,231e0 <_free_r+0x144>
   231a8:	01c000f4 	movhi	r7,3
   231ac:	1145883a 	add	r2,r2,r5
   231b0:	39d50f04 	addi	r7,r7,21564
   231b4:	31400217 	ldw	r5,8(r6)
   231b8:	12400054 	ori	r9,r2,1
   231bc:	1891883a 	add	r8,r3,r2
   231c0:	29c05226 	beq	r5,r7,2330c <_free_r+0x270>
   231c4:	31800317 	ldw	r6,12(r6)
   231c8:	29800315 	stw	r6,12(r5)
   231cc:	31400215 	stw	r5,8(r6)
   231d0:	1a400115 	stw	r9,4(r3)
   231d4:	40800015 	stw	r2,0(r8)
   231d8:	003fd806 	br	2313c <_free_r+0xa0>
   231dc:	f800283a 	ret
   231e0:	11400054 	ori	r5,r2,1
   231e4:	817fff15 	stw	r5,-4(r16)
   231e8:	30800015 	stw	r2,0(r6)
   231ec:	11408028 	cmpgeui	r5,r2,512
   231f0:	283fd426 	beq	r5,zero,23144 <_free_r+0xa8>
   231f4:	100ad27a 	srli	r5,r2,9
   231f8:	29800168 	cmpgeui	r6,r5,5
   231fc:	3000341e 	bne	r6,zero,232d0 <_free_r+0x234>
   23200:	100ad1ba 	srli	r5,r2,6
   23204:	29800e44 	addi	r6,r5,57
   23208:	300c90fa 	slli	r6,r6,3
   2320c:	29c00e04 	addi	r7,r5,56
   23210:	218d883a 	add	r6,r4,r6
   23214:	31400017 	ldw	r5,0(r6)
   23218:	31bffe04 	addi	r6,r6,-8
   2321c:	31404226 	beq	r6,r5,23328 <_free_r+0x28c>
   23220:	01ffff04 	movi	r7,-4
   23224:	29000117 	ldw	r4,4(r5)
   23228:	21c8703a 	and	r4,r4,r7
   2322c:	1100022e 	bgeu	r2,r4,23238 <_free_r+0x19c>
   23230:	29400217 	ldw	r5,8(r5)
   23234:	317ffb1e 	bne	r6,r5,23224 <_free_r+0x188>
   23238:	29800317 	ldw	r6,12(r5)
   2323c:	19800315 	stw	r6,12(r3)
   23240:	19400215 	stw	r5,8(r3)
   23244:	30c00215 	stw	r3,8(r6)
   23248:	28c00315 	stw	r3,12(r5)
   2324c:	003fcd06 	br	23184 <_free_r+0xe8>
   23250:	40004d1e 	bne	r8,zero,23388 <_free_r+0x2ec>
   23254:	31000317 	ldw	r4,12(r6)
   23258:	31800217 	ldw	r6,8(r6)
   2325c:	2885883a 	add	r2,r5,r2
   23260:	11400054 	ori	r5,r2,1
   23264:	31000315 	stw	r4,12(r6)
   23268:	21800215 	stw	r6,8(r4)
   2326c:	19400115 	stw	r5,4(r3)
   23270:	1887883a 	add	r3,r3,r2
   23274:	18800015 	stw	r2,0(r3)
   23278:	003fc206 	br	23184 <_free_r+0xe8>
   2327c:	39c0004c 	andi	r7,r7,1
   23280:	1145883a 	add	r2,r2,r5
   23284:	3800071e 	bne	r7,zero,232a4 <_free_r+0x208>
   23288:	81fffe17 	ldw	r7,-8(r16)
   2328c:	19c7c83a 	sub	r3,r3,r7
   23290:	19400317 	ldw	r5,12(r3)
   23294:	19800217 	ldw	r6,8(r3)
   23298:	11c5883a 	add	r2,r2,r7
   2329c:	31400315 	stw	r5,12(r6)
   232a0:	29800215 	stw	r6,8(r5)
   232a4:	014000f4 	movhi	r5,3
   232a8:	11800054 	ori	r6,r2,1
   232ac:	295afa17 	ldw	r5,27624(r5)
   232b0:	19800115 	stw	r6,4(r3)
   232b4:	20c00215 	stw	r3,8(r4)
   232b8:	117fb236 	bltu	r2,r5,23184 <_free_r+0xe8>
   232bc:	00800134 	movhi	r2,4
   232c0:	11620e17 	ldw	r5,-30664(r2)
   232c4:	8809883a 	mov	r4,r17
   232c8:	0022f800 	call	22f80 <_malloc_trim_r>
   232cc:	003fad06 	br	23184 <_free_r+0xe8>
   232d0:	29800568 	cmpgeui	r6,r5,21
   232d4:	30000926 	beq	r6,zero,232fc <_free_r+0x260>
   232d8:	29801568 	cmpgeui	r6,r5,85
   232dc:	3000191e 	bne	r6,zero,23344 <_free_r+0x2a8>
   232e0:	100ad33a 	srli	r5,r2,12
   232e4:	29801bc4 	addi	r6,r5,111
   232e8:	300c90fa 	slli	r6,r6,3
   232ec:	29c01b84 	addi	r7,r5,110
   232f0:	003fc706 	br	23210 <_free_r+0x174>
   232f4:	1145883a 	add	r2,r2,r5
   232f8:	003fae06 	br	231b4 <_free_r+0x118>
   232fc:	29801704 	addi	r6,r5,92
   23300:	300c90fa 	slli	r6,r6,3
   23304:	29c016c4 	addi	r7,r5,91
   23308:	003fc106 	br	23210 <_free_r+0x174>
   2330c:	20c00515 	stw	r3,20(r4)
   23310:	20c00415 	stw	r3,16(r4)
   23314:	19c00315 	stw	r7,12(r3)
   23318:	19c00215 	stw	r7,8(r3)
   2331c:	1a400115 	stw	r9,4(r3)
   23320:	40800015 	stw	r2,0(r8)
   23324:	003f9706 	br	23184 <_free_r+0xe8>
   23328:	380fd0ba 	srai	r7,r7,2
   2332c:	00800044 	movi	r2,1
   23330:	22000117 	ldw	r8,4(r4)
   23334:	11ce983a 	sll	r7,r2,r7
   23338:	3a0eb03a 	or	r7,r7,r8
   2333c:	21c00115 	stw	r7,4(r4)
   23340:	003fbe06 	br	2323c <_free_r+0x1a0>
   23344:	29805568 	cmpgeui	r6,r5,341
   23348:	3000051e 	bne	r6,zero,23360 <_free_r+0x2c4>
   2334c:	100ad3fa 	srli	r5,r2,15
   23350:	29801e04 	addi	r6,r5,120
   23354:	300c90fa 	slli	r6,r6,3
   23358:	29c01dc4 	addi	r7,r5,119
   2335c:	003fac06 	br	23210 <_free_r+0x174>
   23360:	29415568 	cmpgeui	r5,r5,1365
   23364:	2800051e 	bne	r5,zero,2337c <_free_r+0x2e0>
   23368:	100ad4ba 	srli	r5,r2,18
   2336c:	29801f44 	addi	r6,r5,125
   23370:	300c90fa 	slli	r6,r6,3
   23374:	29c01f04 	addi	r7,r5,124
   23378:	003fa506 	br	23210 <_free_r+0x174>
   2337c:	0180fe04 	movi	r6,1016
   23380:	01c01f84 	movi	r7,126
   23384:	003fa206 	br	23210 <_free_r+0x174>
   23388:	11000054 	ori	r4,r2,1
   2338c:	19000115 	stw	r4,4(r3)
   23390:	30800015 	stw	r2,0(r6)
   23394:	003f7b06 	br	23184 <_free_r+0xe8>

00023398 <_fseek_r>:
   23398:	00233b81 	jmpi	233b8 <_fseeko_r>

0002339c <fseek>:
   2339c:	00c000f4 	movhi	r3,3
   233a0:	2005883a 	mov	r2,r4
   233a4:	191af817 	ldw	r4,27616(r3)
   233a8:	300f883a 	mov	r7,r6
   233ac:	280d883a 	mov	r6,r5
   233b0:	100b883a 	mov	r5,r2
   233b4:	00233b81 	jmpi	233b8 <_fseeko_r>

000233b8 <_fseeko_r>:
   233b8:	deffe504 	addi	sp,sp,-108
   233bc:	dd401715 	stw	r21,92(sp)
   233c0:	dcc01515 	stw	r19,84(sp)
   233c4:	dc401315 	stw	r17,76(sp)
   233c8:	dc001215 	stw	r16,72(sp)
   233cc:	dfc01a15 	stw	ra,104(sp)
   233d0:	ddc01915 	stw	r23,100(sp)
   233d4:	dd801815 	stw	r22,96(sp)
   233d8:	dd001615 	stw	r20,88(sp)
   233dc:	dc801415 	stw	r18,80(sp)
   233e0:	2023883a 	mov	r17,r4
   233e4:	2821883a 	mov	r16,r5
   233e8:	3027883a 	mov	r19,r6
   233ec:	382b883a 	mov	r21,r7
   233f0:	20000226 	beq	r4,zero,233fc <_fseeko_r+0x44>
   233f4:	20800e17 	ldw	r2,56(r4)
   233f8:	10001a26 	beq	r2,zero,23464 <_fseeko_r+0xac>
   233fc:	8080030b 	ldhu	r2,12(r16)
   23400:	1080420c 	andi	r2,r2,264
   23404:	10804218 	cmpnei	r2,r2,264
   23408:	10001b26 	beq	r2,zero,23478 <_fseeko_r+0xc0>
   2340c:	85000a17 	ldw	r20,40(r16)
   23410:	a000fa26 	beq	r20,zero,237fc <_fseeko_r+0x444>
   23414:	a8800060 	cmpeqi	r2,r21,1
   23418:	10004a1e 	bne	r2,zero,23544 <_fseeko_r+0x18c>
   2341c:	04bfff44 	movi	r18,-3
   23420:	aca4703a 	and	r18,r21,r18
   23424:	90001826 	beq	r18,zero,23488 <_fseeko_r+0xd0>
   23428:	00800584 	movi	r2,22
   2342c:	88800015 	stw	r2,0(r17)
   23430:	04bfffc4 	movi	r18,-1
   23434:	9005883a 	mov	r2,r18
   23438:	dfc01a17 	ldw	ra,104(sp)
   2343c:	ddc01917 	ldw	r23,100(sp)
   23440:	dd801817 	ldw	r22,96(sp)
   23444:	dd401717 	ldw	r21,92(sp)
   23448:	dd001617 	ldw	r20,88(sp)
   2344c:	dcc01517 	ldw	r19,84(sp)
   23450:	dc801417 	ldw	r18,80(sp)
   23454:	dc401317 	ldw	r17,76(sp)
   23458:	dc001217 	ldw	r16,72(sp)
   2345c:	dec01b04 	addi	sp,sp,108
   23460:	f800283a 	ret
   23464:	0022de40 	call	22de4 <__sinit>
   23468:	8080030b 	ldhu	r2,12(r16)
   2346c:	1080420c 	andi	r2,r2,264
   23470:	10804218 	cmpnei	r2,r2,264
   23474:	103fe51e 	bne	r2,zero,2340c <_fseeko_r+0x54>
   23478:	800b883a 	mov	r5,r16
   2347c:	8809883a 	mov	r4,r17
   23480:	0022a600 	call	22a60 <_fflush_r>
   23484:	003fe106 	br	2340c <_fseeko_r+0x54>
   23488:	81000417 	ldw	r4,16(r16)
   2348c:	002f883a 	mov	r23,zero
   23490:	20004826 	beq	r4,zero,235b4 <_fseeko_r+0x1fc>
   23494:	8080030b 	ldhu	r2,12(r16)
   23498:	10c2068c 	andi	r3,r2,2074
   2349c:	1800071e 	bne	r3,zero,234bc <_fseeko_r+0x104>
   234a0:	10c1000c 	andi	r3,r2,1024
   234a4:	1800561e 	bne	r3,zero,23600 <_fseeko_r+0x248>
   234a8:	00c000b4 	movhi	r3,2
   234ac:	18d2e604 	addi	r3,r3,19352
   234b0:	a0c04426 	beq	r20,r3,235c4 <_fseeko_r+0x20c>
   234b4:	10820014 	ori	r2,r2,2048
   234b8:	8080030d 	sth	r2,12(r16)
   234bc:	800b883a 	mov	r5,r16
   234c0:	8809883a 	mov	r4,r17
   234c4:	0022a600 	call	22a60 <_fflush_r>
   234c8:	1025883a 	mov	r18,r2
   234cc:	103fd81e 	bne	r2,zero,23430 <_fseeko_r+0x78>
   234d0:	81400717 	ldw	r5,28(r16)
   234d4:	a80f883a 	mov	r7,r21
   234d8:	980d883a 	mov	r6,r19
   234dc:	8809883a 	mov	r4,r17
   234e0:	a03ee83a 	callr	r20
   234e4:	10bfffe0 	cmpeqi	r2,r2,-1
   234e8:	103fd11e 	bne	r2,zero,23430 <_fseeko_r+0x78>
   234ec:	81400c17 	ldw	r5,48(r16)
   234f0:	28000526 	beq	r5,zero,23508 <_fseeko_r+0x150>
   234f4:	80801004 	addi	r2,r16,64
   234f8:	28800226 	beq	r5,r2,23504 <_fseeko_r+0x14c>
   234fc:	8809883a 	mov	r4,r17
   23500:	002309c0 	call	2309c <_free_r>
   23504:	80000c15 	stw	zero,48(r16)
   23508:	8080030b 	ldhu	r2,12(r16)
   2350c:	80c00417 	ldw	r3,16(r16)
   23510:	80000115 	stw	zero,4(r16)
   23514:	10bdf7cc 	andi	r2,r2,63455
   23518:	80c00015 	stw	r3,0(r16)
   2351c:	8080030d 	sth	r2,12(r16)
   23520:	80001705 	stb	zero,92(r16)
   23524:	80001745 	stb	zero,93(r16)
   23528:	80001785 	stb	zero,94(r16)
   2352c:	800017c5 	stb	zero,95(r16)
   23530:	80001805 	stb	zero,96(r16)
   23534:	80001845 	stb	zero,97(r16)
   23538:	80001885 	stb	zero,98(r16)
   2353c:	800018c5 	stb	zero,99(r16)
   23540:	003fbc06 	br	23434 <_fseeko_r+0x7c>
   23544:	800b883a 	mov	r5,r16
   23548:	8809883a 	mov	r4,r17
   2354c:	0022a600 	call	22a60 <_fflush_r>
   23550:	8080030b 	ldhu	r2,12(r16)
   23554:	10c4000c 	andi	r3,r2,4096
   23558:	18006e1e 	bne	r3,zero,23714 <_fseeko_r+0x35c>
   2355c:	81400717 	ldw	r5,28(r16)
   23560:	01c00044 	movi	r7,1
   23564:	000d883a 	mov	r6,zero
   23568:	8809883a 	mov	r4,r17
   2356c:	a03ee83a 	callr	r20
   23570:	1025883a 	mov	r18,r2
   23574:	10bfffd8 	cmpnei	r2,r2,-1
   23578:	103fad26 	beq	r2,zero,23430 <_fseeko_r+0x78>
   2357c:	8080030b 	ldhu	r2,12(r16)
   23580:	81000417 	ldw	r4,16(r16)
   23584:	10c0010c 	andi	r3,r2,4
   23588:	18006626 	beq	r3,zero,23724 <_fseeko_r+0x36c>
   2358c:	80c00117 	ldw	r3,4(r16)
   23590:	80800c17 	ldw	r2,48(r16)
   23594:	90e5c83a 	sub	r18,r18,r3
   23598:	10000226 	beq	r2,zero,235a4 <_fseeko_r+0x1ec>
   2359c:	81800f17 	ldw	r6,60(r16)
   235a0:	91a5c83a 	sub	r18,r18,r6
   235a4:	9ca7883a 	add	r19,r19,r18
   235a8:	05c00044 	movi	r23,1
   235ac:	002b883a 	mov	r21,zero
   235b0:	203fb81e 	bne	r4,zero,23494 <_fseeko_r+0xdc>
   235b4:	800b883a 	mov	r5,r16
   235b8:	8809883a 	mov	r4,r17
   235bc:	0023c640 	call	23c64 <__smakebuf_r>
   235c0:	003fb406 	br	23494 <_fseeko_r+0xdc>
   235c4:	8140038f 	ldh	r5,14(r16)
   235c8:	283fba16 	blt	r5,zero,234b4 <_fseeko_r+0xfc>
   235cc:	d80d883a 	mov	r6,sp
   235d0:	8809883a 	mov	r4,r17
   235d4:	00238280 	call	23828 <_fstat_r>
   235d8:	1000761e 	bne	r2,zero,237b4 <_fseeko_r+0x3fc>
   235dc:	d8c00117 	ldw	r3,4(sp)
   235e0:	01200014 	movui	r4,32768
   235e4:	8080030b 	ldhu	r2,12(r16)
   235e8:	18fc000c 	andi	r3,r3,61440
   235ec:	193fb11e 	bne	r3,r4,234b4 <_fseeko_r+0xfc>
   235f0:	10810014 	ori	r2,r2,1024
   235f4:	00c10004 	movi	r3,1024
   235f8:	80c01315 	stw	r3,76(r16)
   235fc:	8080030d 	sth	r2,12(r16)
   23600:	a8004f1e 	bne	r21,zero,23740 <_fseeko_r+0x388>
   23604:	982d883a 	mov	r22,r19
   23608:	b800551e 	bne	r23,zero,23760 <_fseeko_r+0x3a8>
   2360c:	8080030b 	ldhu	r2,12(r16)
   23610:	1084000c 	andi	r2,r2,4096
   23614:	10005f26 	beq	r2,zero,23794 <_fseeko_r+0x3dc>
   23618:	80801417 	ldw	r2,80(r16)
   2361c:	80c00117 	ldw	r3,4(r16)
   23620:	81400c17 	ldw	r5,48(r16)
   23624:	1809883a 	mov	r4,r3
   23628:	10e5c83a 	sub	r18,r2,r3
   2362c:	28005226 	beq	r5,zero,23778 <_fseeko_r+0x3c0>
   23630:	81800f17 	ldw	r6,60(r16)
   23634:	91a5c83a 	sub	r18,r18,r6
   23638:	80800e17 	ldw	r2,56(r16)
   2363c:	81c00417 	ldw	r7,16(r16)
   23640:	90e5883a 	add	r18,r18,r3
   23644:	11c5c83a 	sub	r2,r2,r7
   23648:	90a5c83a 	sub	r18,r18,r2
   2364c:	1185883a 	add	r2,r2,r6
   23650:	b4800216 	blt	r22,r18,2365c <_fseeko_r+0x2a4>
   23654:	9087883a 	add	r3,r18,r2
   23658:	b0c05836 	bltu	r22,r3,237bc <_fseeko_r+0x404>
   2365c:	84801317 	ldw	r18,76(r16)
   23660:	81400717 	ldw	r5,28(r16)
   23664:	000f883a 	mov	r7,zero
   23668:	04a5c83a 	sub	r18,zero,r18
   2366c:	95a4703a 	and	r18,r18,r22
   23670:	900d883a 	mov	r6,r18
   23674:	8809883a 	mov	r4,r17
   23678:	a03ee83a 	callr	r20
   2367c:	10bfffe0 	cmpeqi	r2,r2,-1
   23680:	103f8e1e 	bne	r2,zero,234bc <_fseeko_r+0x104>
   23684:	80800417 	ldw	r2,16(r16)
   23688:	81400c17 	ldw	r5,48(r16)
   2368c:	80000115 	stw	zero,4(r16)
   23690:	80800015 	stw	r2,0(r16)
   23694:	28000526 	beq	r5,zero,236ac <_fseeko_r+0x2f4>
   23698:	80801004 	addi	r2,r16,64
   2369c:	28800226 	beq	r5,r2,236a8 <_fseeko_r+0x2f0>
   236a0:	8809883a 	mov	r4,r17
   236a4:	002309c0 	call	2309c <_free_r>
   236a8:	80000c15 	stw	zero,48(r16)
   236ac:	8080030b 	ldhu	r2,12(r16)
   236b0:	b4afc83a 	sub	r23,r22,r18
   236b4:	10bff7cc 	andi	r2,r2,65503
   236b8:	8080030d 	sth	r2,12(r16)
   236bc:	b4800b26 	beq	r22,r18,236ec <_fseeko_r+0x334>
   236c0:	800b883a 	mov	r5,r16
   236c4:	8809883a 	mov	r4,r17
   236c8:	00248140 	call	24814 <__srefill_r>
   236cc:	103f7b1e 	bne	r2,zero,234bc <_fseeko_r+0x104>
   236d0:	80800117 	ldw	r2,4(r16)
   236d4:	15ff7936 	bltu	r2,r23,234bc <_fseeko_r+0x104>
   236d8:	80c00017 	ldw	r3,0(r16)
   236dc:	15c5c83a 	sub	r2,r2,r23
   236e0:	80800115 	stw	r2,4(r16)
   236e4:	1def883a 	add	r23,r3,r23
   236e8:	85c00015 	stw	r23,0(r16)
   236ec:	80001705 	stb	zero,92(r16)
   236f0:	80001745 	stb	zero,93(r16)
   236f4:	80001785 	stb	zero,94(r16)
   236f8:	800017c5 	stb	zero,95(r16)
   236fc:	80001805 	stb	zero,96(r16)
   23700:	80001845 	stb	zero,97(r16)
   23704:	80001885 	stb	zero,98(r16)
   23708:	800018c5 	stb	zero,99(r16)
   2370c:	0025883a 	mov	r18,zero
   23710:	003f4806 	br	23434 <_fseeko_r+0x7c>
   23714:	10c0010c 	andi	r3,r2,4
   23718:	84801417 	ldw	r18,80(r16)
   2371c:	81000417 	ldw	r4,16(r16)
   23720:	183f9a1e 	bne	r3,zero,2358c <_fseeko_r+0x1d4>
   23724:	1080020c 	andi	r2,r2,8
   23728:	103f9e26 	beq	r2,zero,235a4 <_fseeko_r+0x1ec>
   2372c:	80800017 	ldw	r2,0(r16)
   23730:	103f9c26 	beq	r2,zero,235a4 <_fseeko_r+0x1ec>
   23734:	1105c83a 	sub	r2,r2,r4
   23738:	90a5883a 	add	r18,r18,r2
   2373c:	003f9906 	br	235a4 <_fseeko_r+0x1ec>
   23740:	8140038f 	ldh	r5,14(r16)
   23744:	d80d883a 	mov	r6,sp
   23748:	8809883a 	mov	r4,r17
   2374c:	00238280 	call	23828 <_fstat_r>
   23750:	103f5a1e 	bne	r2,zero,234bc <_fseeko_r+0x104>
   23754:	dd800417 	ldw	r22,16(sp)
   23758:	9dad883a 	add	r22,r19,r22
   2375c:	b83fab26 	beq	r23,zero,2360c <_fseeko_r+0x254>
   23760:	81400c17 	ldw	r5,48(r16)
   23764:	28000326 	beq	r5,zero,23774 <_fseeko_r+0x3bc>
   23768:	80c00117 	ldw	r3,4(r16)
   2376c:	81800f17 	ldw	r6,60(r16)
   23770:	003fb106 	br	23638 <_fseeko_r+0x280>
   23774:	81000117 	ldw	r4,4(r16)
   23778:	80800017 	ldw	r2,0(r16)
   2377c:	81c00417 	ldw	r7,16(r16)
   23780:	000b883a 	mov	r5,zero
   23784:	11c5c83a 	sub	r2,r2,r7
   23788:	90a5c83a 	sub	r18,r18,r2
   2378c:	2085883a 	add	r2,r4,r2
   23790:	003faf06 	br	23650 <_fseeko_r+0x298>
   23794:	81400717 	ldw	r5,28(r16)
   23798:	01c00044 	movi	r7,1
   2379c:	000d883a 	mov	r6,zero
   237a0:	8809883a 	mov	r4,r17
   237a4:	a03ee83a 	callr	r20
   237a8:	10ffffe0 	cmpeqi	r3,r2,-1
   237ac:	183f9b26 	beq	r3,zero,2361c <_fseeko_r+0x264>
   237b0:	003f4206 	br	234bc <_fseeko_r+0x104>
   237b4:	8080030b 	ldhu	r2,12(r16)
   237b8:	003f3e06 	br	234b4 <_fseeko_r+0xfc>
   237bc:	b4a5c83a 	sub	r18,r22,r18
   237c0:	3c8f883a 	add	r7,r7,r18
   237c4:	14a5c83a 	sub	r18,r2,r18
   237c8:	81c00015 	stw	r7,0(r16)
   237cc:	84800115 	stw	r18,4(r16)
   237d0:	28000526 	beq	r5,zero,237e8 <_fseeko_r+0x430>
   237d4:	80801004 	addi	r2,r16,64
   237d8:	28800226 	beq	r5,r2,237e4 <_fseeko_r+0x42c>
   237dc:	8809883a 	mov	r4,r17
   237e0:	002309c0 	call	2309c <_free_r>
   237e4:	80000c15 	stw	zero,48(r16)
   237e8:	80c0030b 	ldhu	r3,12(r16)
   237ec:	80001705 	stb	zero,92(r16)
   237f0:	18fff7cc 	andi	r3,r3,65503
   237f4:	80c0030d 	sth	r3,12(r16)
   237f8:	003fbd06 	br	236f0 <_fseeko_r+0x338>
   237fc:	00800744 	movi	r2,29
   23800:	88800015 	stw	r2,0(r17)
   23804:	04bfffc4 	movi	r18,-1
   23808:	003f0a06 	br	23434 <_fseeko_r+0x7c>

0002380c <fseeko>:
   2380c:	00c000f4 	movhi	r3,3
   23810:	2005883a 	mov	r2,r4
   23814:	191af817 	ldw	r4,27616(r3)
   23818:	300f883a 	mov	r7,r6
   2381c:	280d883a 	mov	r6,r5
   23820:	100b883a 	mov	r5,r2
   23824:	00233b81 	jmpi	233b8 <_fseeko_r>

00023828 <_fstat_r>:
   23828:	2807883a 	mov	r3,r5
   2382c:	defffe04 	addi	sp,sp,-8
   23830:	dc000015 	stw	r16,0(sp)
   23834:	00800134 	movhi	r2,4
   23838:	300b883a 	mov	r5,r6
   2383c:	2021883a 	mov	r16,r4
   23840:	1809883a 	mov	r4,r3
   23844:	dfc00115 	stw	ra,4(sp)
   23848:	10220b15 	stw	zero,-30676(r2)
   2384c:	00318bc0 	call	318bc <fstat>
   23850:	10ffffd8 	cmpnei	r3,r2,-1
   23854:	18000426 	beq	r3,zero,23868 <_fstat_r+0x40>
   23858:	dfc00117 	ldw	ra,4(sp)
   2385c:	dc000017 	ldw	r16,0(sp)
   23860:	dec00204 	addi	sp,sp,8
   23864:	f800283a 	ret
   23868:	00c00134 	movhi	r3,4
   2386c:	18e20b17 	ldw	r3,-30676(r3)
   23870:	183ff926 	beq	r3,zero,23858 <_fstat_r+0x30>
   23874:	80c00015 	stw	r3,0(r16)
   23878:	dfc00117 	ldw	ra,4(sp)
   2387c:	dc000017 	ldw	r16,0(sp)
   23880:	dec00204 	addi	sp,sp,8
   23884:	f800283a 	ret

00023888 <_fwalk>:
   23888:	defffa04 	addi	sp,sp,-24
   2388c:	dd000415 	stw	r20,16(sp)
   23890:	dcc00315 	stw	r19,12(sp)
   23894:	dc800215 	stw	r18,8(sp)
   23898:	dfc00515 	stw	ra,20(sp)
   2389c:	dc400115 	stw	r17,4(sp)
   238a0:	dc000015 	stw	r16,0(sp)
   238a4:	2827883a 	mov	r19,r5
   238a8:	2480b804 	addi	r18,r4,736
   238ac:	0029883a 	mov	r20,zero
   238b0:	94400117 	ldw	r17,4(r18)
   238b4:	94000217 	ldw	r16,8(r18)
   238b8:	8c7fffc4 	addi	r17,r17,-1
   238bc:	88000d16 	blt	r17,zero,238f4 <_fwalk+0x6c>
   238c0:	8080030b 	ldhu	r2,12(r16)
   238c4:	8c7fffc4 	addi	r17,r17,-1
   238c8:	108000b0 	cmpltui	r2,r2,2
   238cc:	1000061e 	bne	r2,zero,238e8 <_fwalk+0x60>
   238d0:	8080038f 	ldh	r2,14(r16)
   238d4:	8009883a 	mov	r4,r16
   238d8:	10bfffe0 	cmpeqi	r2,r2,-1
   238dc:	1000021e 	bne	r2,zero,238e8 <_fwalk+0x60>
   238e0:	983ee83a 	callr	r19
   238e4:	a0a8b03a 	or	r20,r20,r2
   238e8:	88bfffd8 	cmpnei	r2,r17,-1
   238ec:	84001a04 	addi	r16,r16,104
   238f0:	103ff31e 	bne	r2,zero,238c0 <_fwalk+0x38>
   238f4:	94800017 	ldw	r18,0(r18)
   238f8:	903fed1e 	bne	r18,zero,238b0 <_fwalk+0x28>
   238fc:	a005883a 	mov	r2,r20
   23900:	dfc00517 	ldw	ra,20(sp)
   23904:	dd000417 	ldw	r20,16(sp)
   23908:	dcc00317 	ldw	r19,12(sp)
   2390c:	dc800217 	ldw	r18,8(sp)
   23910:	dc400117 	ldw	r17,4(sp)
   23914:	dc000017 	ldw	r16,0(sp)
   23918:	dec00604 	addi	sp,sp,24
   2391c:	f800283a 	ret

00023920 <_fwalk_reent>:
   23920:	defff904 	addi	sp,sp,-28
   23924:	dd400515 	stw	r21,20(sp)
   23928:	dd000415 	stw	r20,16(sp)
   2392c:	dcc00315 	stw	r19,12(sp)
   23930:	dc800215 	stw	r18,8(sp)
   23934:	dfc00615 	stw	ra,24(sp)
   23938:	dc400115 	stw	r17,4(sp)
   2393c:	dc000015 	stw	r16,0(sp)
   23940:	202b883a 	mov	r21,r4
   23944:	2827883a 	mov	r19,r5
   23948:	2480b804 	addi	r18,r4,736
   2394c:	0029883a 	mov	r20,zero
   23950:	94400117 	ldw	r17,4(r18)
   23954:	94000217 	ldw	r16,8(r18)
   23958:	8c7fffc4 	addi	r17,r17,-1
   2395c:	88000e16 	blt	r17,zero,23998 <_fwalk_reent+0x78>
   23960:	8080030b 	ldhu	r2,12(r16)
   23964:	8c7fffc4 	addi	r17,r17,-1
   23968:	108000b0 	cmpltui	r2,r2,2
   2396c:	1000071e 	bne	r2,zero,2398c <_fwalk_reent+0x6c>
   23970:	8080038f 	ldh	r2,14(r16)
   23974:	800b883a 	mov	r5,r16
   23978:	a809883a 	mov	r4,r21
   2397c:	10bfffe0 	cmpeqi	r2,r2,-1
   23980:	1000021e 	bne	r2,zero,2398c <_fwalk_reent+0x6c>
   23984:	983ee83a 	callr	r19
   23988:	a0a8b03a 	or	r20,r20,r2
   2398c:	88bfffd8 	cmpnei	r2,r17,-1
   23990:	84001a04 	addi	r16,r16,104
   23994:	103ff21e 	bne	r2,zero,23960 <_fwalk_reent+0x40>
   23998:	94800017 	ldw	r18,0(r18)
   2399c:	903fec1e 	bne	r18,zero,23950 <_fwalk_reent+0x30>
   239a0:	a005883a 	mov	r2,r20
   239a4:	dfc00617 	ldw	ra,24(sp)
   239a8:	dd400517 	ldw	r21,20(sp)
   239ac:	dd000417 	ldw	r20,16(sp)
   239b0:	dcc00317 	ldw	r19,12(sp)
   239b4:	dc800217 	ldw	r18,8(sp)
   239b8:	dc400117 	ldw	r17,4(sp)
   239bc:	dc000017 	ldw	r16,0(sp)
   239c0:	dec00704 	addi	sp,sp,28
   239c4:	f800283a 	ret

000239c8 <_fwrite_r>:
   239c8:	defff604 	addi	sp,sp,-40
   239cc:	dcc00815 	stw	r19,32(sp)
   239d0:	39a7383a 	mul	r19,r7,r6
   239d4:	00800044 	movi	r2,1
   239d8:	dc800715 	stw	r18,28(sp)
   239dc:	dc400615 	stw	r17,24(sp)
   239e0:	dc000515 	stw	r16,20(sp)
   239e4:	d9400015 	stw	r5,0(sp)
   239e8:	dfc00915 	stw	ra,36(sp)
   239ec:	dcc00115 	stw	r19,4(sp)
   239f0:	dcc00415 	stw	r19,16(sp)
   239f4:	dec00215 	stw	sp,8(sp)
   239f8:	d8800315 	stw	r2,12(sp)
   239fc:	d9400a17 	ldw	r5,40(sp)
   23a00:	3025883a 	mov	r18,r6
   23a04:	3821883a 	mov	r16,r7
   23a08:	2023883a 	mov	r17,r4
   23a0c:	20000226 	beq	r4,zero,23a18 <_fwrite_r+0x50>
   23a10:	20800e17 	ldw	r2,56(r4)
   23a14:	10001826 	beq	r2,zero,23a78 <_fwrite_r+0xb0>
   23a18:	2880030b 	ldhu	r2,12(r5)
   23a1c:	10c8000c 	andi	r3,r2,8192
   23a20:	1800061e 	bne	r3,zero,23a3c <_fwrite_r+0x74>
   23a24:	28c01917 	ldw	r3,100(r5)
   23a28:	0137ffc4 	movi	r4,-8193
   23a2c:	10880014 	ori	r2,r2,8192
   23a30:	1906703a 	and	r3,r3,r4
   23a34:	2880030d 	sth	r2,12(r5)
   23a38:	28c01915 	stw	r3,100(r5)
   23a3c:	d9800204 	addi	r6,sp,8
   23a40:	8809883a 	mov	r4,r17
   23a44:	002a3480 	call	2a348 <__sfvwrite_r>
   23a48:	10000e26 	beq	r2,zero,23a84 <_fwrite_r+0xbc>
   23a4c:	d9000417 	ldw	r4,16(sp)
   23a50:	900b883a 	mov	r5,r18
   23a54:	9909c83a 	sub	r4,r19,r4
   23a58:	0020f900 	call	20f90 <__udivsi3>
   23a5c:	dfc00917 	ldw	ra,36(sp)
   23a60:	dcc00817 	ldw	r19,32(sp)
   23a64:	dc800717 	ldw	r18,28(sp)
   23a68:	dc400617 	ldw	r17,24(sp)
   23a6c:	dc000517 	ldw	r16,20(sp)
   23a70:	dec00a04 	addi	sp,sp,40
   23a74:	f800283a 	ret
   23a78:	0022de40 	call	22de4 <__sinit>
   23a7c:	d9400a17 	ldw	r5,40(sp)
   23a80:	003fe506 	br	23a18 <_fwrite_r+0x50>
   23a84:	8005883a 	mov	r2,r16
   23a88:	003ff406 	br	23a5c <_fwrite_r+0x94>

00023a8c <fwrite>:
   23a8c:	00c000f4 	movhi	r3,3
   23a90:	2005883a 	mov	r2,r4
   23a94:	191af817 	ldw	r4,27616(r3)
   23a98:	defffe04 	addi	sp,sp,-8
   23a9c:	d9c00015 	stw	r7,0(sp)
   23aa0:	300f883a 	mov	r7,r6
   23aa4:	280d883a 	mov	r6,r5
   23aa8:	100b883a 	mov	r5,r2
   23aac:	dfc00115 	stw	ra,4(sp)
   23ab0:	00239c80 	call	239c8 <_fwrite_r>
   23ab4:	dfc00117 	ldw	ra,4(sp)
   23ab8:	dec00204 	addi	sp,sp,8
   23abc:	f800283a 	ret

00023ac0 <_getc_r>:
   23ac0:	defffd04 	addi	sp,sp,-12
   23ac4:	dc000115 	stw	r16,4(sp)
   23ac8:	dfc00215 	stw	ra,8(sp)
   23acc:	2021883a 	mov	r16,r4
   23ad0:	20000226 	beq	r4,zero,23adc <_getc_r+0x1c>
   23ad4:	20800e17 	ldw	r2,56(r4)
   23ad8:	10000c26 	beq	r2,zero,23b0c <_getc_r+0x4c>
   23adc:	28800117 	ldw	r2,4(r5)
   23ae0:	10bfffc4 	addi	r2,r2,-1
   23ae4:	28800115 	stw	r2,4(r5)
   23ae8:	10000f16 	blt	r2,zero,23b28 <_getc_r+0x68>
   23aec:	28800017 	ldw	r2,0(r5)
   23af0:	10c00044 	addi	r3,r2,1
   23af4:	28c00015 	stw	r3,0(r5)
   23af8:	10800003 	ldbu	r2,0(r2)
   23afc:	dfc00217 	ldw	ra,8(sp)
   23b00:	dc000117 	ldw	r16,4(sp)
   23b04:	dec00304 	addi	sp,sp,12
   23b08:	f800283a 	ret
   23b0c:	d9400015 	stw	r5,0(sp)
   23b10:	0022de40 	call	22de4 <__sinit>
   23b14:	d9400017 	ldw	r5,0(sp)
   23b18:	28800117 	ldw	r2,4(r5)
   23b1c:	10bfffc4 	addi	r2,r2,-1
   23b20:	28800115 	stw	r2,4(r5)
   23b24:	103ff10e 	bge	r2,zero,23aec <_getc_r+0x2c>
   23b28:	8009883a 	mov	r4,r16
   23b2c:	dfc00217 	ldw	ra,8(sp)
   23b30:	dc000117 	ldw	r16,4(sp)
   23b34:	dec00304 	addi	sp,sp,12
   23b38:	00249e01 	jmpi	249e0 <__srget_r>

00023b3c <getc>:
   23b3c:	defffd04 	addi	sp,sp,-12
   23b40:	008000f4 	movhi	r2,3
   23b44:	dc400115 	stw	r17,4(sp)
   23b48:	145af817 	ldw	r17,27616(r2)
   23b4c:	dc000015 	stw	r16,0(sp)
   23b50:	dfc00215 	stw	ra,8(sp)
   23b54:	2021883a 	mov	r16,r4
   23b58:	88000226 	beq	r17,zero,23b64 <getc+0x28>
   23b5c:	88800e17 	ldw	r2,56(r17)
   23b60:	10000d26 	beq	r2,zero,23b98 <getc+0x5c>
   23b64:	80800117 	ldw	r2,4(r16)
   23b68:	10bfffc4 	addi	r2,r2,-1
   23b6c:	80800115 	stw	r2,4(r16)
   23b70:	10000f16 	blt	r2,zero,23bb0 <getc+0x74>
   23b74:	80800017 	ldw	r2,0(r16)
   23b78:	10c00044 	addi	r3,r2,1
   23b7c:	80c00015 	stw	r3,0(r16)
   23b80:	10800003 	ldbu	r2,0(r2)
   23b84:	dfc00217 	ldw	ra,8(sp)
   23b88:	dc400117 	ldw	r17,4(sp)
   23b8c:	dc000017 	ldw	r16,0(sp)
   23b90:	dec00304 	addi	sp,sp,12
   23b94:	f800283a 	ret
   23b98:	8809883a 	mov	r4,r17
   23b9c:	0022de40 	call	22de4 <__sinit>
   23ba0:	80800117 	ldw	r2,4(r16)
   23ba4:	10bfffc4 	addi	r2,r2,-1
   23ba8:	80800115 	stw	r2,4(r16)
   23bac:	103ff10e 	bge	r2,zero,23b74 <getc+0x38>
   23bb0:	800b883a 	mov	r5,r16
   23bb4:	8809883a 	mov	r4,r17
   23bb8:	dfc00217 	ldw	ra,8(sp)
   23bbc:	dc400117 	ldw	r17,4(sp)
   23bc0:	dc000017 	ldw	r16,0(sp)
   23bc4:	dec00304 	addi	sp,sp,12
   23bc8:	00249e01 	jmpi	249e0 <__srget_r>

00023bcc <__swhatbuf_r>:
   23bcc:	deffea04 	addi	sp,sp,-88
   23bd0:	dc001215 	stw	r16,72(sp)
   23bd4:	2821883a 	mov	r16,r5
   23bd8:	2940038f 	ldh	r5,14(r5)
   23bdc:	dc801415 	stw	r18,80(sp)
   23be0:	dc401315 	stw	r17,76(sp)
   23be4:	dfc01515 	stw	ra,84(sp)
   23be8:	3023883a 	mov	r17,r6
   23bec:	3825883a 	mov	r18,r7
   23bf0:	28001016 	blt	r5,zero,23c34 <__swhatbuf_r+0x68>
   23bf4:	d80d883a 	mov	r6,sp
   23bf8:	00238280 	call	23828 <_fstat_r>
   23bfc:	10000d16 	blt	r2,zero,23c34 <__swhatbuf_r+0x68>
   23c00:	d8c00117 	ldw	r3,4(sp)
   23c04:	00820004 	movi	r2,2048
   23c08:	18fc000c 	andi	r3,r3,61440
   23c0c:	18c80020 	cmpeqi	r3,r3,8192
   23c10:	90c00015 	stw	r3,0(r18)
   23c14:	00c10004 	movi	r3,1024
   23c18:	88c00015 	stw	r3,0(r17)
   23c1c:	dfc01517 	ldw	ra,84(sp)
   23c20:	dc801417 	ldw	r18,80(sp)
   23c24:	dc401317 	ldw	r17,76(sp)
   23c28:	dc001217 	ldw	r16,72(sp)
   23c2c:	dec01604 	addi	sp,sp,88
   23c30:	f800283a 	ret
   23c34:	8080030b 	ldhu	r2,12(r16)
   23c38:	90000015 	stw	zero,0(r18)
   23c3c:	1080200c 	andi	r2,r2,128
   23c40:	10000426 	beq	r2,zero,23c54 <__swhatbuf_r+0x88>
   23c44:	00801004 	movi	r2,64
   23c48:	88800015 	stw	r2,0(r17)
   23c4c:	0005883a 	mov	r2,zero
   23c50:	003ff206 	br	23c1c <__swhatbuf_r+0x50>
   23c54:	00810004 	movi	r2,1024
   23c58:	88800015 	stw	r2,0(r17)
   23c5c:	0005883a 	mov	r2,zero
   23c60:	003fee06 	br	23c1c <__swhatbuf_r+0x50>

00023c64 <__smakebuf_r>:
   23c64:	2880030b 	ldhu	r2,12(r5)
   23c68:	defffa04 	addi	sp,sp,-24
   23c6c:	dc000215 	stw	r16,8(sp)
   23c70:	dfc00515 	stw	ra,20(sp)
   23c74:	dc800415 	stw	r18,16(sp)
   23c78:	dc400315 	stw	r17,12(sp)
   23c7c:	1080008c 	andi	r2,r2,2
   23c80:	2821883a 	mov	r16,r5
   23c84:	10000b26 	beq	r2,zero,23cb4 <__smakebuf_r+0x50>
   23c88:	288010c4 	addi	r2,r5,67
   23c8c:	28800015 	stw	r2,0(r5)
   23c90:	28800415 	stw	r2,16(r5)
   23c94:	00800044 	movi	r2,1
   23c98:	28800515 	stw	r2,20(r5)
   23c9c:	dfc00517 	ldw	ra,20(sp)
   23ca0:	dc800417 	ldw	r18,16(sp)
   23ca4:	dc400317 	ldw	r17,12(sp)
   23ca8:	dc000217 	ldw	r16,8(sp)
   23cac:	dec00604 	addi	sp,sp,24
   23cb0:	f800283a 	ret
   23cb4:	d9c00104 	addi	r7,sp,4
   23cb8:	d80d883a 	mov	r6,sp
   23cbc:	2023883a 	mov	r17,r4
   23cc0:	0023bcc0 	call	23bcc <__swhatbuf_r>
   23cc4:	d9000117 	ldw	r4,4(sp)
   23cc8:	1025883a 	mov	r18,r2
   23ccc:	2000131e 	bne	r4,zero,23d1c <__smakebuf_r+0xb8>
   23cd0:	d9400017 	ldw	r5,0(sp)
   23cd4:	8809883a 	mov	r4,r17
   23cd8:	0023dc40 	call	23dc4 <_malloc_r>
   23cdc:	10001c26 	beq	r2,zero,23d50 <__smakebuf_r+0xec>
   23ce0:	010000b4 	movhi	r4,2
   23ce4:	210abc04 	addi	r4,r4,10992
   23ce8:	80c0030b 	ldhu	r3,12(r16)
   23cec:	89000f15 	stw	r4,60(r17)
   23cf0:	80800015 	stw	r2,0(r16)
   23cf4:	80800415 	stw	r2,16(r16)
   23cf8:	d8800017 	ldw	r2,0(sp)
   23cfc:	d9400117 	ldw	r5,4(sp)
   23d00:	18c02014 	ori	r3,r3,128
   23d04:	80c0030d 	sth	r3,12(r16)
   23d08:	80800515 	stw	r2,20(r16)
   23d0c:	28001d1e 	bne	r5,zero,23d84 <__smakebuf_r+0x120>
   23d10:	90c6b03a 	or	r3,r18,r3
   23d14:	80c0030d 	sth	r3,12(r16)
   23d18:	003fe006 	br	23c9c <__smakebuf_r+0x38>
   23d1c:	8140038f 	ldh	r5,14(r16)
   23d20:	8809883a 	mov	r4,r17
   23d24:	002b3d40 	call	2b3d4 <_isatty_r>
   23d28:	103fe926 	beq	r2,zero,23cd0 <__smakebuf_r+0x6c>
   23d2c:	8080030b 	ldhu	r2,12(r16)
   23d30:	80c010c4 	addi	r3,r16,67
   23d34:	80c00015 	stw	r3,0(r16)
   23d38:	10800054 	ori	r2,r2,1
   23d3c:	8080030d 	sth	r2,12(r16)
   23d40:	00800044 	movi	r2,1
   23d44:	80c00415 	stw	r3,16(r16)
   23d48:	80800515 	stw	r2,20(r16)
   23d4c:	003fe006 	br	23cd0 <__smakebuf_r+0x6c>
   23d50:	8080030b 	ldhu	r2,12(r16)
   23d54:	10c0800c 	andi	r3,r2,512
   23d58:	183fd01e 	bne	r3,zero,23c9c <__smakebuf_r+0x38>
   23d5c:	00ffff04 	movi	r3,-4
   23d60:	10c4703a 	and	r2,r2,r3
   23d64:	10800094 	ori	r2,r2,2
   23d68:	80c010c4 	addi	r3,r16,67
   23d6c:	8080030d 	sth	r2,12(r16)
   23d70:	00800044 	movi	r2,1
   23d74:	80c00015 	stw	r3,0(r16)
   23d78:	80c00415 	stw	r3,16(r16)
   23d7c:	80800515 	stw	r2,20(r16)
   23d80:	003fc606 	br	23c9c <__smakebuf_r+0x38>
   23d84:	8140038f 	ldh	r5,14(r16)
   23d88:	8809883a 	mov	r4,r17
   23d8c:	002b3d40 	call	2b3d4 <_isatty_r>
   23d90:	80c0030b 	ldhu	r3,12(r16)
   23d94:	103fde26 	beq	r2,zero,23d10 <__smakebuf_r+0xac>
   23d98:	18ffff0c 	andi	r3,r3,65532
   23d9c:	18c00054 	ori	r3,r3,1
   23da0:	003fdb06 	br	23d10 <__smakebuf_r+0xac>

00023da4 <malloc>:
   23da4:	008000f4 	movhi	r2,3
   23da8:	200b883a 	mov	r5,r4
   23dac:	111af817 	ldw	r4,27616(r2)
   23db0:	0023dc41 	jmpi	23dc4 <_malloc_r>

00023db4 <free>:
   23db4:	008000f4 	movhi	r2,3
   23db8:	200b883a 	mov	r5,r4
   23dbc:	111af817 	ldw	r4,27616(r2)
   23dc0:	002309c1 	jmpi	2309c <_free_r>

00023dc4 <_malloc_r>:
   23dc4:	defff604 	addi	sp,sp,-40
   23dc8:	dc400115 	stw	r17,4(sp)
   23dcc:	2c4002c4 	addi	r17,r5,11
   23dd0:	dc800215 	stw	r18,8(sp)
   23dd4:	dfc00915 	stw	ra,36(sp)
   23dd8:	df000815 	stw	fp,32(sp)
   23ddc:	ddc00715 	stw	r23,28(sp)
   23de0:	dd800615 	stw	r22,24(sp)
   23de4:	dd400515 	stw	r21,20(sp)
   23de8:	dd000415 	stw	r20,16(sp)
   23dec:	dcc00315 	stw	r19,12(sp)
   23df0:	dc000015 	stw	r16,0(sp)
   23df4:	888005e8 	cmpgeui	r2,r17,23
   23df8:	2025883a 	mov	r18,r4
   23dfc:	10001b1e 	bne	r2,zero,23e6c <_malloc_r+0xa8>
   23e00:	29400468 	cmpgeui	r5,r5,17
   23e04:	2800821e 	bne	r5,zero,24010 <_malloc_r+0x24c>
   23e08:	0031fcc0 	call	31fcc <__malloc_lock>
   23e0c:	04400404 	movi	r17,16
   23e10:	01c00084 	movi	r7,2
   23e14:	00800604 	movi	r2,24
   23e18:	04c000f4 	movhi	r19,3
   23e1c:	9cd50d04 	addi	r19,r19,21556
   23e20:	9885883a 	add	r2,r19,r2
   23e24:	14000117 	ldw	r16,4(r2)
   23e28:	10fffe04 	addi	r3,r2,-8
   23e2c:	80c08b26 	beq	r16,r3,2405c <_malloc_r+0x298>
   23e30:	80800117 	ldw	r2,4(r16)
   23e34:	81000317 	ldw	r4,12(r16)
   23e38:	00ffff04 	movi	r3,-4
   23e3c:	10c4703a 	and	r2,r2,r3
   23e40:	81400217 	ldw	r5,8(r16)
   23e44:	8085883a 	add	r2,r16,r2
   23e48:	10c00117 	ldw	r3,4(r2)
   23e4c:	29000315 	stw	r4,12(r5)
   23e50:	21400215 	stw	r5,8(r4)
   23e54:	18c00054 	ori	r3,r3,1
   23e58:	10c00115 	stw	r3,4(r2)
   23e5c:	9009883a 	mov	r4,r18
   23e60:	0031ff00 	call	31ff0 <__malloc_unlock>
   23e64:	80800204 	addi	r2,r16,8
   23e68:	00006c06 	br	2401c <_malloc_r+0x258>
   23e6c:	00bffe04 	movi	r2,-8
   23e70:	88a2703a 	and	r17,r17,r2
   23e74:	88006616 	blt	r17,zero,24010 <_malloc_r+0x24c>
   23e78:	89406536 	bltu	r17,r5,24010 <_malloc_r+0x24c>
   23e7c:	0031fcc0 	call	31fcc <__malloc_lock>
   23e80:	88807e28 	cmpgeui	r2,r17,504
   23e84:	10012226 	beq	r2,zero,24310 <_malloc_r+0x54c>
   23e88:	8804d27a 	srli	r2,r17,9
   23e8c:	10006f26 	beq	r2,zero,2404c <_malloc_r+0x288>
   23e90:	10c00168 	cmpgeui	r3,r2,5
   23e94:	1800fe1e 	bne	r3,zero,24290 <_malloc_r+0x4cc>
   23e98:	8804d1ba 	srli	r2,r17,6
   23e9c:	11c00e44 	addi	r7,r2,57
   23ea0:	380890fa 	slli	r4,r7,3
   23ea4:	12000e04 	addi	r8,r2,56
   23ea8:	04c000f4 	movhi	r19,3
   23eac:	9cd50d04 	addi	r19,r19,21556
   23eb0:	9909883a 	add	r4,r19,r4
   23eb4:	24000117 	ldw	r16,4(r4)
   23eb8:	213ffe04 	addi	r4,r4,-8
   23ebc:	24000b26 	beq	r4,r16,23eec <_malloc_r+0x128>
   23ec0:	01bfff04 	movi	r6,-4
   23ec4:	00000306 	br	23ed4 <_malloc_r+0x110>
   23ec8:	1800d60e 	bge	r3,zero,24224 <_malloc_r+0x460>
   23ecc:	84000317 	ldw	r16,12(r16)
   23ed0:	24000626 	beq	r4,r16,23eec <_malloc_r+0x128>
   23ed4:	80800117 	ldw	r2,4(r16)
   23ed8:	1184703a 	and	r2,r2,r6
   23edc:	1447c83a 	sub	r3,r2,r17
   23ee0:	19400408 	cmpgei	r5,r3,16
   23ee4:	283ff826 	beq	r5,zero,23ec8 <_malloc_r+0x104>
   23ee8:	400f883a 	mov	r7,r8
   23eec:	9c000417 	ldw	r16,16(r19)
   23ef0:	024000f4 	movhi	r9,3
   23ef4:	4a550f04 	addi	r9,r9,21564
   23ef8:	82405f26 	beq	r16,r9,24078 <_malloc_r+0x2b4>
   23efc:	80c00117 	ldw	r3,4(r16)
   23f00:	00bfff04 	movi	r2,-4
   23f04:	1884703a 	and	r2,r3,r2
   23f08:	1447c83a 	sub	r3,r2,r17
   23f0c:	19000410 	cmplti	r4,r3,16
   23f10:	20010a26 	beq	r4,zero,2433c <_malloc_r+0x578>
   23f14:	9a400515 	stw	r9,20(r19)
   23f18:	9a400415 	stw	r9,16(r19)
   23f1c:	1800ff0e 	bge	r3,zero,2431c <_malloc_r+0x558>
   23f20:	10c08028 	cmpgeui	r3,r2,512
   23f24:	1800c11e 	bne	r3,zero,2422c <_malloc_r+0x468>
   23f28:	1006d0fa 	srli	r3,r2,3
   23f2c:	1008d17a 	srli	r4,r2,5
   23f30:	00800044 	movi	r2,1
   23f34:	18c00044 	addi	r3,r3,1
   23f38:	180690fa 	slli	r3,r3,3
   23f3c:	99400117 	ldw	r5,4(r19)
   23f40:	1104983a 	sll	r2,r2,r4
   23f44:	98c7883a 	add	r3,r19,r3
   23f48:	19000017 	ldw	r4,0(r3)
   23f4c:	1144b03a 	or	r2,r2,r5
   23f50:	197ffe04 	addi	r5,r3,-8
   23f54:	81400315 	stw	r5,12(r16)
   23f58:	81000215 	stw	r4,8(r16)
   23f5c:	98800115 	stw	r2,4(r19)
   23f60:	1c000015 	stw	r16,0(r3)
   23f64:	24000315 	stw	r16,12(r4)
   23f68:	3807d0ba 	srai	r3,r7,2
   23f6c:	01000044 	movi	r4,1
   23f70:	20c8983a 	sll	r4,r4,r3
   23f74:	11004536 	bltu	r2,r4,2408c <_malloc_r+0x2c8>
   23f78:	2086703a 	and	r3,r4,r2
   23f7c:	18000a1e 	bne	r3,zero,23fa8 <_malloc_r+0x1e4>
   23f80:	00ffff04 	movi	r3,-4
   23f84:	2109883a 	add	r4,r4,r4
   23f88:	38ce703a 	and	r7,r7,r3
   23f8c:	2086703a 	and	r3,r4,r2
   23f90:	39c00104 	addi	r7,r7,4
   23f94:	1800041e 	bne	r3,zero,23fa8 <_malloc_r+0x1e4>
   23f98:	2109883a 	add	r4,r4,r4
   23f9c:	2086703a 	and	r3,r4,r2
   23fa0:	39c00104 	addi	r7,r7,4
   23fa4:	183ffc26 	beq	r3,zero,23f98 <_malloc_r+0x1d4>
   23fa8:	02bfff04 	movi	r10,-4
   23fac:	381690fa 	slli	r11,r7,3
   23fb0:	3819883a 	mov	r12,r7
   23fb4:	9ad7883a 	add	r11,r19,r11
   23fb8:	5811883a 	mov	r8,r11
   23fbc:	40800317 	ldw	r2,12(r8)
   23fc0:	4080bc26 	beq	r8,r2,242b4 <_malloc_r+0x4f0>
   23fc4:	10c00117 	ldw	r3,4(r2)
   23fc8:	1021883a 	mov	r16,r2
   23fcc:	10800317 	ldw	r2,12(r2)
   23fd0:	1a86703a 	and	r3,r3,r10
   23fd4:	1c4bc83a 	sub	r5,r3,r17
   23fd8:	29800410 	cmplti	r6,r5,16
   23fdc:	3000ba26 	beq	r6,zero,242c8 <_malloc_r+0x504>
   23fe0:	283ff716 	blt	r5,zero,23fc0 <_malloc_r+0x1fc>
   23fe4:	80c7883a 	add	r3,r16,r3
   23fe8:	19400117 	ldw	r5,4(r3)
   23fec:	81800217 	ldw	r6,8(r16)
   23ff0:	9009883a 	mov	r4,r18
   23ff4:	29400054 	ori	r5,r5,1
   23ff8:	19400115 	stw	r5,4(r3)
   23ffc:	30800315 	stw	r2,12(r6)
   24000:	11800215 	stw	r6,8(r2)
   24004:	0031ff00 	call	31ff0 <__malloc_unlock>
   24008:	80800204 	addi	r2,r16,8
   2400c:	00000306 	br	2401c <_malloc_r+0x258>
   24010:	00800304 	movi	r2,12
   24014:	90800015 	stw	r2,0(r18)
   24018:	0005883a 	mov	r2,zero
   2401c:	dfc00917 	ldw	ra,36(sp)
   24020:	df000817 	ldw	fp,32(sp)
   24024:	ddc00717 	ldw	r23,28(sp)
   24028:	dd800617 	ldw	r22,24(sp)
   2402c:	dd400517 	ldw	r21,20(sp)
   24030:	dd000417 	ldw	r20,16(sp)
   24034:	dcc00317 	ldw	r19,12(sp)
   24038:	dc800217 	ldw	r18,8(sp)
   2403c:	dc400117 	ldw	r17,4(sp)
   24040:	dc000017 	ldw	r16,0(sp)
   24044:	dec00a04 	addi	sp,sp,40
   24048:	f800283a 	ret
   2404c:	01008004 	movi	r4,512
   24050:	01c01004 	movi	r7,64
   24054:	02000fc4 	movi	r8,63
   24058:	003f9306 	br	23ea8 <_malloc_r+0xe4>
   2405c:	14000317 	ldw	r16,12(r2)
   24060:	39c00084 	addi	r7,r7,2
   24064:	143f721e 	bne	r2,r16,23e30 <_malloc_r+0x6c>
   24068:	9c000417 	ldw	r16,16(r19)
   2406c:	024000f4 	movhi	r9,3
   24070:	4a550f04 	addi	r9,r9,21564
   24074:	827fa11e 	bne	r16,r9,23efc <_malloc_r+0x138>
   24078:	3807d0ba 	srai	r3,r7,2
   2407c:	01000044 	movi	r4,1
   24080:	98800117 	ldw	r2,4(r19)
   24084:	20c8983a 	sll	r4,r4,r3
   24088:	113fbb2e 	bgeu	r2,r4,23f78 <_malloc_r+0x1b4>
   2408c:	9c000217 	ldw	r16,8(r19)
   24090:	00bfff04 	movi	r2,-4
   24094:	85400117 	ldw	r21,4(r16)
   24098:	a8ac703a 	and	r22,r21,r2
   2409c:	b4400336 	bltu	r22,r17,240ac <_malloc_r+0x2e8>
   240a0:	b445c83a 	sub	r2,r22,r17
   240a4:	10c00408 	cmpgei	r3,r2,16
   240a8:	1800541e 	bne	r3,zero,241fc <_malloc_r+0x438>
   240ac:	008000f4 	movhi	r2,3
   240b0:	109af917 	ldw	r2,27620(r2)
   240b4:	00c00134 	movhi	r3,4
   240b8:	1d620e17 	ldw	r21,-30664(r3)
   240bc:	10bfffd8 	cmpnei	r2,r2,-1
   240c0:	85b9883a 	add	fp,r16,r22
   240c4:	8d6b883a 	add	r21,r17,r21
   240c8:	1000d626 	beq	r2,zero,24424 <_malloc_r+0x660>
   240cc:	ad4403c4 	addi	r21,r21,4111
   240d0:	00bc0004 	movi	r2,-4096
   240d4:	a8aa703a 	and	r21,r21,r2
   240d8:	a80b883a 	mov	r5,r21
   240dc:	9009883a 	mov	r4,r18
   240e0:	0024a640 	call	24a64 <_sbrk_r>
   240e4:	102f883a 	mov	r23,r2
   240e8:	10bfffd8 	cmpnei	r2,r2,-1
   240ec:	1000a826 	beq	r2,zero,24390 <_malloc_r+0x5cc>
   240f0:	bf00a636 	bltu	r23,fp,2438c <_malloc_r+0x5c8>
   240f4:	00800134 	movhi	r2,4
   240f8:	15221917 	ldw	r20,-30620(r2)
   240fc:	ad29883a 	add	r20,r21,r20
   24100:	15221915 	stw	r20,-30620(r2)
   24104:	a007883a 	mov	r3,r20
   24108:	e5c0ec26 	beq	fp,r23,244bc <_malloc_r+0x6f8>
   2410c:	008000f4 	movhi	r2,3
   24110:	109af917 	ldw	r2,27620(r2)
   24114:	10bfffd8 	cmpnei	r2,r2,-1
   24118:	1000ef26 	beq	r2,zero,244d8 <_malloc_r+0x714>
   2411c:	bf39c83a 	sub	fp,r23,fp
   24120:	e0c7883a 	add	r3,fp,r3
   24124:	00800134 	movhi	r2,4
   24128:	10e21915 	stw	r3,-30620(r2)
   2412c:	bf0001cc 	andi	fp,r23,7
   24130:	e000c526 	beq	fp,zero,24448 <_malloc_r+0x684>
   24134:	bf2fc83a 	sub	r23,r23,fp
   24138:	bdc00204 	addi	r23,r23,8
   2413c:	05040204 	movi	r20,4104
   24140:	a729c83a 	sub	r20,r20,fp
   24144:	bd6b883a 	add	r21,r23,r21
   24148:	a569c83a 	sub	r20,r20,r21
   2414c:	a503ffcc 	andi	r20,r20,4095
   24150:	a00b883a 	mov	r5,r20
   24154:	9009883a 	mov	r4,r18
   24158:	0024a640 	call	24a64 <_sbrk_r>
   2415c:	10ffffe0 	cmpeqi	r3,r2,-1
   24160:	1800f31e 	bne	r3,zero,24530 <_malloc_r+0x76c>
   24164:	15c5c83a 	sub	r2,r2,r23
   24168:	152b883a 	add	r21,r2,r20
   2416c:	00800134 	movhi	r2,4
   24170:	11621917 	ldw	r5,-30620(r2)
   24174:	9dc00215 	stw	r23,8(r19)
   24178:	ad400054 	ori	r21,r21,1
   2417c:	a169883a 	add	r20,r20,r5
   24180:	15221915 	stw	r20,-30620(r2)
   24184:	bd400115 	stw	r21,4(r23)
   24188:	84c0d626 	beq	r16,r19,244e4 <_malloc_r+0x720>
   2418c:	b0800428 	cmpgeui	r2,r22,16
   24190:	1000d626 	beq	r2,zero,244ec <_malloc_r+0x728>
   24194:	80c00117 	ldw	r3,4(r16)
   24198:	013ffe04 	movi	r4,-8
   2419c:	b0bffd04 	addi	r2,r22,-12
   241a0:	1104703a 	and	r2,r2,r4
   241a4:	18c0004c 	andi	r3,r3,1
   241a8:	1886b03a 	or	r3,r3,r2
   241ac:	80c00115 	stw	r3,4(r16)
   241b0:	01000144 	movi	r4,5
   241b4:	8087883a 	add	r3,r16,r2
   241b8:	19000115 	stw	r4,4(r3)
   241bc:	19000215 	stw	r4,8(r3)
   241c0:	10800428 	cmpgeui	r2,r2,16
   241c4:	1000df1e 	bne	r2,zero,24544 <_malloc_r+0x780>
   241c8:	bd400117 	ldw	r21,4(r23)
   241cc:	b821883a 	mov	r16,r23
   241d0:	00800134 	movhi	r2,4
   241d4:	10a20d17 	ldw	r2,-30668(r2)
   241d8:	1500022e 	bgeu	r2,r20,241e4 <_malloc_r+0x420>
   241dc:	00800134 	movhi	r2,4
   241e0:	15220d15 	stw	r20,-30668(r2)
   241e4:	00800134 	movhi	r2,4
   241e8:	10a20c17 	ldw	r2,-30672(r2)
   241ec:	15006a2e 	bgeu	r2,r20,24398 <_malloc_r+0x5d4>
   241f0:	00800134 	movhi	r2,4
   241f4:	15220c15 	stw	r20,-30672(r2)
   241f8:	00006706 	br	24398 <_malloc_r+0x5d4>
   241fc:	88c00054 	ori	r3,r17,1
   24200:	80c00115 	stw	r3,4(r16)
   24204:	8463883a 	add	r17,r16,r17
   24208:	10800054 	ori	r2,r2,1
   2420c:	9c400215 	stw	r17,8(r19)
   24210:	88800115 	stw	r2,4(r17)
   24214:	9009883a 	mov	r4,r18
   24218:	0031ff00 	call	31ff0 <__malloc_unlock>
   2421c:	80800204 	addi	r2,r16,8
   24220:	003f7e06 	br	2401c <_malloc_r+0x258>
   24224:	81000317 	ldw	r4,12(r16)
   24228:	003f0506 	br	23e40 <_malloc_r+0x7c>
   2422c:	1006d27a 	srli	r3,r2,9
   24230:	19000168 	cmpgeui	r4,r3,5
   24234:	20005026 	beq	r4,zero,24378 <_malloc_r+0x5b4>
   24238:	19000568 	cmpgeui	r4,r3,21
   2423c:	20008c1e 	bne	r4,zero,24470 <_malloc_r+0x6ac>
   24240:	19401704 	addi	r5,r3,92
   24244:	280a90fa 	slli	r5,r5,3
   24248:	190016c4 	addi	r4,r3,91
   2424c:	994b883a 	add	r5,r19,r5
   24250:	28c00017 	ldw	r3,0(r5)
   24254:	297ffe04 	addi	r5,r5,-8
   24258:	28c07426 	beq	r5,r3,2442c <_malloc_r+0x668>
   2425c:	01bfff04 	movi	r6,-4
   24260:	19000117 	ldw	r4,4(r3)
   24264:	2188703a 	and	r4,r4,r6
   24268:	1100022e 	bgeu	r2,r4,24274 <_malloc_r+0x4b0>
   2426c:	18c00217 	ldw	r3,8(r3)
   24270:	28fffb1e 	bne	r5,r3,24260 <_malloc_r+0x49c>
   24274:	19400317 	ldw	r5,12(r3)
   24278:	98800117 	ldw	r2,4(r19)
   2427c:	81400315 	stw	r5,12(r16)
   24280:	80c00215 	stw	r3,8(r16)
   24284:	2c000215 	stw	r16,8(r5)
   24288:	1c000315 	stw	r16,12(r3)
   2428c:	003f3606 	br	23f68 <_malloc_r+0x1a4>
   24290:	10c00568 	cmpgeui	r3,r2,21
   24294:	18004a26 	beq	r3,zero,243c0 <_malloc_r+0x5fc>
   24298:	10c01568 	cmpgeui	r3,r2,85
   2429c:	18007b1e 	bne	r3,zero,2448c <_malloc_r+0x6c8>
   242a0:	8804d33a 	srli	r2,r17,12
   242a4:	11c01bc4 	addi	r7,r2,111
   242a8:	380890fa 	slli	r4,r7,3
   242ac:	12001b84 	addi	r8,r2,110
   242b0:	003efd06 	br	23ea8 <_malloc_r+0xe4>
   242b4:	63000044 	addi	r12,r12,1
   242b8:	608000cc 	andi	r2,r12,3
   242bc:	42000204 	addi	r8,r8,8
   242c0:	103f3e1e 	bne	r2,zero,23fbc <_malloc_r+0x1f8>
   242c4:	00004506 	br	243dc <_malloc_r+0x618>
   242c8:	81000217 	ldw	r4,8(r16)
   242cc:	89800054 	ori	r6,r17,1
   242d0:	81800115 	stw	r6,4(r16)
   242d4:	20800315 	stw	r2,12(r4)
   242d8:	11000215 	stw	r4,8(r2)
   242dc:	8463883a 	add	r17,r16,r17
   242e0:	9c400515 	stw	r17,20(r19)
   242e4:	9c400415 	stw	r17,16(r19)
   242e8:	28800054 	ori	r2,r5,1
   242ec:	88800115 	stw	r2,4(r17)
   242f0:	8a400315 	stw	r9,12(r17)
   242f4:	8a400215 	stw	r9,8(r17)
   242f8:	80c7883a 	add	r3,r16,r3
   242fc:	19400015 	stw	r5,0(r3)
   24300:	9009883a 	mov	r4,r18
   24304:	0031ff00 	call	31ff0 <__malloc_unlock>
   24308:	80800204 	addi	r2,r16,8
   2430c:	003f4306 	br	2401c <_malloc_r+0x258>
   24310:	880ed0fa 	srli	r7,r17,3
   24314:	88800204 	addi	r2,r17,8
   24318:	003ebf06 	br	23e18 <_malloc_r+0x54>
   2431c:	8085883a 	add	r2,r16,r2
   24320:	10c00117 	ldw	r3,4(r2)
   24324:	9009883a 	mov	r4,r18
   24328:	18c00054 	ori	r3,r3,1
   2432c:	10c00115 	stw	r3,4(r2)
   24330:	0031ff00 	call	31ff0 <__malloc_unlock>
   24334:	80800204 	addi	r2,r16,8
   24338:	003f3806 	br	2401c <_malloc_r+0x258>
   2433c:	89000054 	ori	r4,r17,1
   24340:	81000115 	stw	r4,4(r16)
   24344:	8463883a 	add	r17,r16,r17
   24348:	9c400515 	stw	r17,20(r19)
   2434c:	9c400415 	stw	r17,16(r19)
   24350:	19000054 	ori	r4,r3,1
   24354:	89000115 	stw	r4,4(r17)
   24358:	8085883a 	add	r2,r16,r2
   2435c:	8a400315 	stw	r9,12(r17)
   24360:	8a400215 	stw	r9,8(r17)
   24364:	10c00015 	stw	r3,0(r2)
   24368:	9009883a 	mov	r4,r18
   2436c:	0031ff00 	call	31ff0 <__malloc_unlock>
   24370:	80800204 	addi	r2,r16,8
   24374:	003f2906 	br	2401c <_malloc_r+0x258>
   24378:	1006d1ba 	srli	r3,r2,6
   2437c:	19400e44 	addi	r5,r3,57
   24380:	280a90fa 	slli	r5,r5,3
   24384:	19000e04 	addi	r4,r3,56
   24388:	003fb006 	br	2424c <_malloc_r+0x488>
   2438c:	84c04626 	beq	r16,r19,244a8 <_malloc_r+0x6e4>
   24390:	9c000217 	ldw	r16,8(r19)
   24394:	85400117 	ldw	r21,4(r16)
   24398:	00bfff04 	movi	r2,-4
   2439c:	a8aa703a 	and	r21,r21,r2
   243a0:	ac45c83a 	sub	r2,r21,r17
   243a4:	ac400236 	bltu	r21,r17,243b0 <_malloc_r+0x5ec>
   243a8:	10c00408 	cmpgei	r3,r2,16
   243ac:	183f931e 	bne	r3,zero,241fc <_malloc_r+0x438>
   243b0:	9009883a 	mov	r4,r18
   243b4:	0031ff00 	call	31ff0 <__malloc_unlock>
   243b8:	0005883a 	mov	r2,zero
   243bc:	003f1706 	br	2401c <_malloc_r+0x258>
   243c0:	11c01704 	addi	r7,r2,92
   243c4:	380890fa 	slli	r4,r7,3
   243c8:	120016c4 	addi	r8,r2,91
   243cc:	003eb606 	br	23ea8 <_malloc_r+0xe4>
   243d0:	58800217 	ldw	r2,8(r11)
   243d4:	39ffffc4 	addi	r7,r7,-1
   243d8:	12c0701e 	bne	r2,r11,2459c <_malloc_r+0x7d8>
   243dc:	388000cc 	andi	r2,r7,3
   243e0:	5afffe04 	addi	r11,r11,-8
   243e4:	103ffa1e 	bne	r2,zero,243d0 <_malloc_r+0x60c>
   243e8:	98c00117 	ldw	r3,4(r19)
   243ec:	0104303a 	nor	r2,zero,r4
   243f0:	10c4703a 	and	r2,r2,r3
   243f4:	98800115 	stw	r2,4(r19)
   243f8:	2109883a 	add	r4,r4,r4
   243fc:	113f2336 	bltu	r2,r4,2408c <_malloc_r+0x2c8>
   24400:	203f2226 	beq	r4,zero,2408c <_malloc_r+0x2c8>
   24404:	2086703a 	and	r3,r4,r2
   24408:	1800041e 	bne	r3,zero,2441c <_malloc_r+0x658>
   2440c:	2109883a 	add	r4,r4,r4
   24410:	2086703a 	and	r3,r4,r2
   24414:	63000104 	addi	r12,r12,4
   24418:	183ffc26 	beq	r3,zero,2440c <_malloc_r+0x648>
   2441c:	600f883a 	mov	r7,r12
   24420:	003ee206 	br	23fac <_malloc_r+0x1e8>
   24424:	ad400404 	addi	r21,r21,16
   24428:	003f2b06 	br	240d8 <_malloc_r+0x314>
   2442c:	2009d0ba 	srai	r4,r4,2
   24430:	00800044 	movi	r2,1
   24434:	99800117 	ldw	r6,4(r19)
   24438:	1104983a 	sll	r2,r2,r4
   2443c:	1184b03a 	or	r2,r2,r6
   24440:	98800115 	stw	r2,4(r19)
   24444:	003f8d06 	br	2427c <_malloc_r+0x4b8>
   24448:	bd69883a 	add	r20,r23,r21
   2444c:	0529c83a 	sub	r20,zero,r20
   24450:	a503ffcc 	andi	r20,r20,4095
   24454:	a00b883a 	mov	r5,r20
   24458:	9009883a 	mov	r4,r18
   2445c:	0024a640 	call	24a64 <_sbrk_r>
   24460:	10ffffe0 	cmpeqi	r3,r2,-1
   24464:	183f3f26 	beq	r3,zero,24164 <_malloc_r+0x3a0>
   24468:	0029883a 	mov	r20,zero
   2446c:	003f3f06 	br	2416c <_malloc_r+0x3a8>
   24470:	19001568 	cmpgeui	r4,r3,85
   24474:	2000201e 	bne	r4,zero,244f8 <_malloc_r+0x734>
   24478:	1006d33a 	srli	r3,r2,12
   2447c:	19401bc4 	addi	r5,r3,111
   24480:	280a90fa 	slli	r5,r5,3
   24484:	19001b84 	addi	r4,r3,110
   24488:	003f7006 	br	2424c <_malloc_r+0x488>
   2448c:	10c05568 	cmpgeui	r3,r2,341
   24490:	1800201e 	bne	r3,zero,24514 <_malloc_r+0x750>
   24494:	8804d3fa 	srli	r2,r17,15
   24498:	11c01e04 	addi	r7,r2,120
   2449c:	380890fa 	slli	r4,r7,3
   244a0:	12001dc4 	addi	r8,r2,119
   244a4:	003e8006 	br	23ea8 <_malloc_r+0xe4>
   244a8:	00800134 	movhi	r2,4
   244ac:	10e21917 	ldw	r3,-30620(r2)
   244b0:	a8c7883a 	add	r3,r21,r3
   244b4:	10e21915 	stw	r3,-30620(r2)
   244b8:	003f1406 	br	2410c <_malloc_r+0x348>
   244bc:	e083ffcc 	andi	r2,fp,4095
   244c0:	103f121e 	bne	r2,zero,2410c <_malloc_r+0x348>
   244c4:	9c000217 	ldw	r16,8(r19)
   244c8:	b56b883a 	add	r21,r22,r21
   244cc:	ad400054 	ori	r21,r21,1
   244d0:	85400115 	stw	r21,4(r16)
   244d4:	003f3e06 	br	241d0 <_malloc_r+0x40c>
   244d8:	008000f4 	movhi	r2,3
   244dc:	15daf915 	stw	r23,27620(r2)
   244e0:	003f1206 	br	2412c <_malloc_r+0x368>
   244e4:	b821883a 	mov	r16,r23
   244e8:	003f3906 	br	241d0 <_malloc_r+0x40c>
   244ec:	00800044 	movi	r2,1
   244f0:	b8800115 	stw	r2,4(r23)
   244f4:	003fae06 	br	243b0 <_malloc_r+0x5ec>
   244f8:	19005568 	cmpgeui	r4,r3,341
   244fc:	2000191e 	bne	r4,zero,24564 <_malloc_r+0x7a0>
   24500:	1006d3fa 	srli	r3,r2,15
   24504:	19401e04 	addi	r5,r3,120
   24508:	280a90fa 	slli	r5,r5,3
   2450c:	19001dc4 	addi	r4,r3,119
   24510:	003f4e06 	br	2424c <_malloc_r+0x488>
   24514:	10815568 	cmpgeui	r2,r2,1365
   24518:	1000191e 	bne	r2,zero,24580 <_malloc_r+0x7bc>
   2451c:	8804d4ba 	srli	r2,r17,18
   24520:	11c01f44 	addi	r7,r2,125
   24524:	380890fa 	slli	r4,r7,3
   24528:	12001f04 	addi	r8,r2,124
   2452c:	003e5e06 	br	23ea8 <_malloc_r+0xe4>
   24530:	e73ffe04 	addi	fp,fp,-8
   24534:	af2b883a 	add	r21,r21,fp
   24538:	adebc83a 	sub	r21,r21,r23
   2453c:	0029883a 	mov	r20,zero
   24540:	003f0a06 	br	2416c <_malloc_r+0x3a8>
   24544:	81400204 	addi	r5,r16,8
   24548:	9009883a 	mov	r4,r18
   2454c:	002309c0 	call	2309c <_free_r>
   24550:	9c000217 	ldw	r16,8(r19)
   24554:	00800134 	movhi	r2,4
   24558:	15221917 	ldw	r20,-30620(r2)
   2455c:	85400117 	ldw	r21,4(r16)
   24560:	003f1b06 	br	241d0 <_malloc_r+0x40c>
   24564:	18c15568 	cmpgeui	r3,r3,1365
   24568:	1800091e 	bne	r3,zero,24590 <_malloc_r+0x7cc>
   2456c:	1006d4ba 	srli	r3,r2,18
   24570:	19401f44 	addi	r5,r3,125
   24574:	280a90fa 	slli	r5,r5,3
   24578:	19001f04 	addi	r4,r3,124
   2457c:	003f3306 	br	2424c <_malloc_r+0x488>
   24580:	0100fe04 	movi	r4,1016
   24584:	01c01fc4 	movi	r7,127
   24588:	02001f84 	movi	r8,126
   2458c:	003e4606 	br	23ea8 <_malloc_r+0xe4>
   24590:	0140fe04 	movi	r5,1016
   24594:	01001f84 	movi	r4,126
   24598:	003f2c06 	br	2424c <_malloc_r+0x488>
   2459c:	98800117 	ldw	r2,4(r19)
   245a0:	003f9506 	br	243f8 <_malloc_r+0x634>

000245a4 <memcpy>:
   245a4:	30c00430 	cmpltui	r3,r6,16
   245a8:	2005883a 	mov	r2,r4
   245ac:	18002d1e 	bne	r3,zero,24664 <memcpy+0xc0>
   245b0:	2906b03a 	or	r3,r5,r4
   245b4:	18c000cc 	andi	r3,r3,3
   245b8:	1800351e 	bne	r3,zero,24690 <memcpy+0xec>
   245bc:	32fffc04 	addi	r11,r6,-16
   245c0:	5816d13a 	srli	r11,r11,4
   245c4:	280f883a 	mov	r7,r5
   245c8:	2007883a 	mov	r3,r4
   245cc:	5ac00044 	addi	r11,r11,1
   245d0:	5816913a 	slli	r11,r11,4
   245d4:	22d5883a 	add	r10,r4,r11
   245d8:	39000117 	ldw	r4,4(r7)
   245dc:	3a400017 	ldw	r9,0(r7)
   245e0:	3a000217 	ldw	r8,8(r7)
   245e4:	19000115 	stw	r4,4(r3)
   245e8:	39000317 	ldw	r4,12(r7)
   245ec:	1a400015 	stw	r9,0(r3)
   245f0:	1a000215 	stw	r8,8(r3)
   245f4:	19000315 	stw	r4,12(r3)
   245f8:	18c00404 	addi	r3,r3,16
   245fc:	39c00404 	addi	r7,r7,16
   24600:	50fff51e 	bne	r10,r3,245d8 <memcpy+0x34>
   24604:	3100030c 	andi	r4,r6,12
   24608:	2acb883a 	add	r5,r5,r11
   2460c:	320003cc 	andi	r8,r6,15
   24610:	20002226 	beq	r4,zero,2469c <memcpy+0xf8>
   24614:	280f883a 	mov	r7,r5
   24618:	1813883a 	mov	r9,r3
   2461c:	39c00104 	addi	r7,r7,4
   24620:	3abfff17 	ldw	r10,-4(r7)
   24624:	41c9c83a 	sub	r4,r8,r7
   24628:	2909883a 	add	r4,r5,r4
   2462c:	4a800015 	stw	r10,0(r9)
   24630:	21000128 	cmpgeui	r4,r4,4
   24634:	4a400104 	addi	r9,r9,4
   24638:	203ff81e 	bne	r4,zero,2461c <memcpy+0x78>
   2463c:	413fff04 	addi	r4,r8,-4
   24640:	2008d0ba 	srli	r4,r4,2
   24644:	318000cc 	andi	r6,r6,3
   24648:	31ffffc4 	addi	r7,r6,-1
   2464c:	21000044 	addi	r4,r4,1
   24650:	200890ba 	slli	r4,r4,2
   24654:	1907883a 	add	r3,r3,r4
   24658:	290b883a 	add	r5,r5,r4
   2465c:	3000041e 	bne	r6,zero,24670 <memcpy+0xcc>
   24660:	f800283a 	ret
   24664:	2007883a 	mov	r3,r4
   24668:	31ffffc4 	addi	r7,r6,-1
   2466c:	303ffc26 	beq	r6,zero,24660 <memcpy+0xbc>
   24670:	39c00044 	addi	r7,r7,1
   24674:	19cf883a 	add	r7,r3,r7
   24678:	29800003 	ldbu	r6,0(r5)
   2467c:	18c00044 	addi	r3,r3,1
   24680:	29400044 	addi	r5,r5,1
   24684:	19bfffc5 	stb	r6,-1(r3)
   24688:	38fffb1e 	bne	r7,r3,24678 <memcpy+0xd4>
   2468c:	f800283a 	ret
   24690:	31ffffc4 	addi	r7,r6,-1
   24694:	2007883a 	mov	r3,r4
   24698:	003ff506 	br	24670 <memcpy+0xcc>
   2469c:	400d883a 	mov	r6,r8
   246a0:	003ff106 	br	24668 <memcpy+0xc4>

000246a4 <memset>:
   246a4:	20c000cc 	andi	r3,r4,3
   246a8:	2005883a 	mov	r2,r4
   246ac:	18003626 	beq	r3,zero,24788 <memset+0xe4>
   246b0:	31ffffc4 	addi	r7,r6,-1
   246b4:	30003326 	beq	r6,zero,24784 <memset+0xe0>
   246b8:	2811883a 	mov	r8,r5
   246bc:	2007883a 	mov	r3,r4
   246c0:	00000306 	br	246d0 <memset+0x2c>
   246c4:	39ffffc4 	addi	r7,r7,-1
   246c8:	39bfffe0 	cmpeqi	r6,r7,-1
   246cc:	30002d1e 	bne	r6,zero,24784 <memset+0xe0>
   246d0:	18c00044 	addi	r3,r3,1
   246d4:	198000cc 	andi	r6,r3,3
   246d8:	1a3fffc5 	stb	r8,-1(r3)
   246dc:	303ff91e 	bne	r6,zero,246c4 <memset+0x20>
   246e0:	39000130 	cmpltui	r4,r7,4
   246e4:	2000221e 	bne	r4,zero,24770 <memset+0xcc>
   246e8:	29003fcc 	andi	r4,r5,255
   246ec:	200c923a 	slli	r6,r4,8
   246f0:	3a000430 	cmpltui	r8,r7,16
   246f4:	3108b03a 	or	r4,r6,r4
   246f8:	200c943a 	slli	r6,r4,16
   246fc:	310cb03a 	or	r6,r6,r4
   24700:	40000e1e 	bne	r8,zero,2473c <memset+0x98>
   24704:	393ffc04 	addi	r4,r7,-16
   24708:	2008d13a 	srli	r4,r4,4
   2470c:	21000044 	addi	r4,r4,1
   24710:	2008913a 	slli	r4,r4,4
   24714:	1909883a 	add	r4,r3,r4
   24718:	19800015 	stw	r6,0(r3)
   2471c:	19800115 	stw	r6,4(r3)
   24720:	19800215 	stw	r6,8(r3)
   24724:	19800315 	stw	r6,12(r3)
   24728:	18c00404 	addi	r3,r3,16
   2472c:	20fffa1e 	bne	r4,r3,24718 <memset+0x74>
   24730:	3900030c 	andi	r4,r7,12
   24734:	39c003cc 	andi	r7,r7,15
   24738:	20000d26 	beq	r4,zero,24770 <memset+0xcc>
   2473c:	1811883a 	mov	r8,r3
   24740:	42000104 	addi	r8,r8,4
   24744:	3a09c83a 	sub	r4,r7,r8
   24748:	1909883a 	add	r4,r3,r4
   2474c:	21000128 	cmpgeui	r4,r4,4
   24750:	41bfff15 	stw	r6,-4(r8)
   24754:	203ffa1e 	bne	r4,zero,24740 <memset+0x9c>
   24758:	393fff04 	addi	r4,r7,-4
   2475c:	2008d0ba 	srli	r4,r4,2
   24760:	39c000cc 	andi	r7,r7,3
   24764:	21000044 	addi	r4,r4,1
   24768:	200890ba 	slli	r4,r4,2
   2476c:	1907883a 	add	r3,r3,r4
   24770:	38000426 	beq	r7,zero,24784 <memset+0xe0>
   24774:	19cf883a 	add	r7,r3,r7
   24778:	18c00044 	addi	r3,r3,1
   2477c:	197fffc5 	stb	r5,-1(r3)
   24780:	38fffd1e 	bne	r7,r3,24778 <memset+0xd4>
   24784:	f800283a 	ret
   24788:	2007883a 	mov	r3,r4
   2478c:	300f883a 	mov	r7,r6
   24790:	003fd306 	br	246e0 <memset+0x3c>

00024794 <_open_r>:
   24794:	2807883a 	mov	r3,r5
   24798:	defffe04 	addi	sp,sp,-8
   2479c:	dc000015 	stw	r16,0(sp)
   247a0:	300b883a 	mov	r5,r6
   247a4:	00800134 	movhi	r2,4
   247a8:	380d883a 	mov	r6,r7
   247ac:	2021883a 	mov	r16,r4
   247b0:	1809883a 	mov	r4,r3
   247b4:	dfc00115 	stw	ra,4(sp)
   247b8:	10220b15 	stw	zero,-30676(r2)
   247bc:	00321080 	call	32108 <open>
   247c0:	10ffffd8 	cmpnei	r3,r2,-1
   247c4:	18000426 	beq	r3,zero,247d8 <_open_r+0x44>
   247c8:	dfc00117 	ldw	ra,4(sp)
   247cc:	dc000017 	ldw	r16,0(sp)
   247d0:	dec00204 	addi	sp,sp,8
   247d4:	f800283a 	ret
   247d8:	00c00134 	movhi	r3,4
   247dc:	18e20b17 	ldw	r3,-30676(r3)
   247e0:	183ff926 	beq	r3,zero,247c8 <_open_r+0x34>
   247e4:	80c00015 	stw	r3,0(r16)
   247e8:	dfc00117 	ldw	ra,4(sp)
   247ec:	dc000017 	ldw	r16,0(sp)
   247f0:	dec00204 	addi	sp,sp,8
   247f4:	f800283a 	ret

000247f8 <lflush>:
   247f8:	2080030b 	ldhu	r2,12(r4)
   247fc:	1080024c 	andi	r2,r2,9
   24800:	10800258 	cmpnei	r2,r2,9
   24804:	10000226 	beq	r2,zero,24810 <lflush+0x18>
   24808:	0005883a 	mov	r2,zero
   2480c:	f800283a 	ret
   24810:	0022ac01 	jmpi	22ac0 <fflush>

00024814 <__srefill_r>:
   24814:	defffc04 	addi	sp,sp,-16
   24818:	dc400115 	stw	r17,4(sp)
   2481c:	dc000015 	stw	r16,0(sp)
   24820:	dfc00315 	stw	ra,12(sp)
   24824:	dc800215 	stw	r18,8(sp)
   24828:	2023883a 	mov	r17,r4
   2482c:	2821883a 	mov	r16,r5
   24830:	20000226 	beq	r4,zero,2483c <__srefill_r+0x28>
   24834:	20800e17 	ldw	r2,56(r4)
   24838:	10003a26 	beq	r2,zero,24924 <__srefill_r+0x110>
   2483c:	80c0030b 	ldhu	r3,12(r16)
   24840:	1908000c 	andi	r4,r3,8192
   24844:	1805883a 	mov	r2,r3
   24848:	2000071e 	bne	r4,zero,24868 <__srefill_r+0x54>
   2484c:	81001917 	ldw	r4,100(r16)
   24850:	18880014 	ori	r2,r3,8192
   24854:	00f7ffc4 	movi	r3,-8193
   24858:	20c8703a 	and	r4,r4,r3
   2485c:	8080030d 	sth	r2,12(r16)
   24860:	1007883a 	mov	r3,r2
   24864:	81001915 	stw	r4,100(r16)
   24868:	80000115 	stw	zero,4(r16)
   2486c:	1100080c 	andi	r4,r2,32
   24870:	20004d1e 	bne	r4,zero,249a8 <__srefill_r+0x194>
   24874:	1100010c 	andi	r4,r2,4
   24878:	20001c1e 	bne	r4,zero,248ec <__srefill_r+0xd8>
   2487c:	1100040c 	andi	r4,r2,16
   24880:	20005126 	beq	r4,zero,249c8 <__srefill_r+0x1b4>
   24884:	1080020c 	andi	r2,r2,8
   24888:	1000371e 	bne	r2,zero,24968 <__srefill_r+0x154>
   2488c:	18c00114 	ori	r3,r3,4
   24890:	80c0030d 	sth	r3,12(r16)
   24894:	80800417 	ldw	r2,16(r16)
   24898:	10003c26 	beq	r2,zero,2498c <__srefill_r+0x178>
   2489c:	8480030b 	ldhu	r18,12(r16)
   248a0:	908000cc 	andi	r2,r18,3
   248a4:	1000211e 	bne	r2,zero,2492c <__srefill_r+0x118>
   248a8:	81800417 	ldw	r6,16(r16)
   248ac:	80800817 	ldw	r2,32(r16)
   248b0:	81c00517 	ldw	r7,20(r16)
   248b4:	81400717 	ldw	r5,28(r16)
   248b8:	81800015 	stw	r6,0(r16)
   248bc:	8809883a 	mov	r4,r17
   248c0:	103ee83a 	callr	r2
   248c4:	1007883a 	mov	r3,r2
   248c8:	80800115 	stw	r2,4(r16)
   248cc:	0005883a 	mov	r2,zero
   248d0:	00c0370e 	bge	zero,r3,249b0 <__srefill_r+0x19c>
   248d4:	dfc00317 	ldw	ra,12(sp)
   248d8:	dc800217 	ldw	r18,8(sp)
   248dc:	dc400117 	ldw	r17,4(sp)
   248e0:	dc000017 	ldw	r16,0(sp)
   248e4:	dec00404 	addi	sp,sp,16
   248e8:	f800283a 	ret
   248ec:	81400c17 	ldw	r5,48(r16)
   248f0:	283fe826 	beq	r5,zero,24894 <__srefill_r+0x80>
   248f4:	80801004 	addi	r2,r16,64
   248f8:	28800226 	beq	r5,r2,24904 <__srefill_r+0xf0>
   248fc:	8809883a 	mov	r4,r17
   24900:	002309c0 	call	2309c <_free_r>
   24904:	80800f17 	ldw	r2,60(r16)
   24908:	80000c15 	stw	zero,48(r16)
   2490c:	80800115 	stw	r2,4(r16)
   24910:	103fe026 	beq	r2,zero,24894 <__srefill_r+0x80>
   24914:	80c00e17 	ldw	r3,56(r16)
   24918:	0005883a 	mov	r2,zero
   2491c:	80c00015 	stw	r3,0(r16)
   24920:	003fec06 	br	248d4 <__srefill_r+0xc0>
   24924:	0022de40 	call	22de4 <__sinit>
   24928:	003fc406 	br	2483c <__srefill_r+0x28>
   2492c:	008000f4 	movhi	r2,3
   24930:	111af717 	ldw	r4,27612(r2)
   24934:	014000b4 	movhi	r5,2
   24938:	00800044 	movi	r2,1
   2493c:	8080030d 	sth	r2,12(r16)
   24940:	2951fe04 	addi	r5,r5,18424
   24944:	00238880 	call	23888 <_fwalk>
   24948:	9080024c 	andi	r2,r18,9
   2494c:	8480030d 	sth	r18,12(r16)
   24950:	10800258 	cmpnei	r2,r2,9
   24954:	103fd41e 	bne	r2,zero,248a8 <__srefill_r+0x94>
   24958:	800b883a 	mov	r5,r16
   2495c:	8809883a 	mov	r4,r17
   24960:	00228380 	call	22838 <__sflush_r>
   24964:	003fd006 	br	248a8 <__srefill_r+0x94>
   24968:	800b883a 	mov	r5,r16
   2496c:	8809883a 	mov	r4,r17
   24970:	0022a600 	call	22a60 <_fflush_r>
   24974:	10000c1e 	bne	r2,zero,249a8 <__srefill_r+0x194>
   24978:	80c0030b 	ldhu	r3,12(r16)
   2497c:	80000215 	stw	zero,8(r16)
   24980:	80000615 	stw	zero,24(r16)
   24984:	18fffdcc 	andi	r3,r3,65527
   24988:	003fc006 	br	2488c <__srefill_r+0x78>
   2498c:	800b883a 	mov	r5,r16
   24990:	8809883a 	mov	r4,r17
   24994:	0023c640 	call	23c64 <__smakebuf_r>
   24998:	003fc006 	br	2489c <__srefill_r+0x88>
   2499c:	10801014 	ori	r2,r2,64
   249a0:	80000115 	stw	zero,4(r16)
   249a4:	8080030d 	sth	r2,12(r16)
   249a8:	00bfffc4 	movi	r2,-1
   249ac:	003fc906 	br	248d4 <__srefill_r+0xc0>
   249b0:	8080030b 	ldhu	r2,12(r16)
   249b4:	183ff91e 	bne	r3,zero,2499c <__srefill_r+0x188>
   249b8:	10800814 	ori	r2,r2,32
   249bc:	8080030d 	sth	r2,12(r16)
   249c0:	00bfffc4 	movi	r2,-1
   249c4:	003fc306 	br	248d4 <__srefill_r+0xc0>
   249c8:	00800244 	movi	r2,9
   249cc:	88800015 	stw	r2,0(r17)
   249d0:	18c01014 	ori	r3,r3,64
   249d4:	80c0030d 	sth	r3,12(r16)
   249d8:	00bfffc4 	movi	r2,-1
   249dc:	003fbd06 	br	248d4 <__srefill_r+0xc0>

000249e0 <__srget_r>:
   249e0:	defffd04 	addi	sp,sp,-12
   249e4:	dc400115 	stw	r17,4(sp)
   249e8:	dc000015 	stw	r16,0(sp)
   249ec:	dfc00215 	stw	ra,8(sp)
   249f0:	2023883a 	mov	r17,r4
   249f4:	2821883a 	mov	r16,r5
   249f8:	20000226 	beq	r4,zero,24a04 <__srget_r+0x24>
   249fc:	20800e17 	ldw	r2,56(r4)
   24a00:	10001026 	beq	r2,zero,24a44 <__srget_r+0x64>
   24a04:	800b883a 	mov	r5,r16
   24a08:	8809883a 	mov	r4,r17
   24a0c:	00248140 	call	24814 <__srefill_r>
   24a10:	10000e1e 	bne	r2,zero,24a4c <__srget_r+0x6c>
   24a14:	80c00017 	ldw	r3,0(r16)
   24a18:	80800117 	ldw	r2,4(r16)
   24a1c:	19000044 	addi	r4,r3,1
   24a20:	10bfffc4 	addi	r2,r2,-1
   24a24:	80800115 	stw	r2,4(r16)
   24a28:	81000015 	stw	r4,0(r16)
   24a2c:	18800003 	ldbu	r2,0(r3)
   24a30:	dfc00217 	ldw	ra,8(sp)
   24a34:	dc400117 	ldw	r17,4(sp)
   24a38:	dc000017 	ldw	r16,0(sp)
   24a3c:	dec00304 	addi	sp,sp,12
   24a40:	f800283a 	ret
   24a44:	0022de40 	call	22de4 <__sinit>
   24a48:	003fee06 	br	24a04 <__srget_r+0x24>
   24a4c:	00bfffc4 	movi	r2,-1
   24a50:	003ff706 	br	24a30 <__srget_r+0x50>

00024a54 <__srget>:
   24a54:	008000f4 	movhi	r2,3
   24a58:	200b883a 	mov	r5,r4
   24a5c:	111af817 	ldw	r4,27616(r2)
   24a60:	00249e01 	jmpi	249e0 <__srget_r>

00024a64 <_sbrk_r>:
   24a64:	defffe04 	addi	sp,sp,-8
   24a68:	dc000015 	stw	r16,0(sp)
   24a6c:	00800134 	movhi	r2,4
   24a70:	2021883a 	mov	r16,r4
   24a74:	2809883a 	mov	r4,r5
   24a78:	dfc00115 	stw	ra,4(sp)
   24a7c:	10220b15 	stw	zero,-30676(r2)
   24a80:	00326480 	call	32648 <sbrk>
   24a84:	10ffffd8 	cmpnei	r3,r2,-1
   24a88:	18000426 	beq	r3,zero,24a9c <_sbrk_r+0x38>
   24a8c:	dfc00117 	ldw	ra,4(sp)
   24a90:	dc000017 	ldw	r16,0(sp)
   24a94:	dec00204 	addi	sp,sp,8
   24a98:	f800283a 	ret
   24a9c:	00c00134 	movhi	r3,4
   24aa0:	18e20b17 	ldw	r3,-30676(r3)
   24aa4:	183ff926 	beq	r3,zero,24a8c <_sbrk_r+0x28>
   24aa8:	80c00015 	stw	r3,0(r16)
   24aac:	dfc00117 	ldw	ra,4(sp)
   24ab0:	dc000017 	ldw	r16,0(sp)
   24ab4:	dec00204 	addi	sp,sp,8
   24ab8:	f800283a 	ret

00024abc <__sread>:
   24abc:	defffe04 	addi	sp,sp,-8
   24ac0:	dc000015 	stw	r16,0(sp)
   24ac4:	2821883a 	mov	r16,r5
   24ac8:	2940038f 	ldh	r5,14(r5)
   24acc:	dfc00115 	stw	ra,4(sp)
   24ad0:	002c83c0 	call	2c83c <_read_r>
   24ad4:	10000716 	blt	r2,zero,24af4 <__sread+0x38>
   24ad8:	80c01417 	ldw	r3,80(r16)
   24adc:	1887883a 	add	r3,r3,r2
   24ae0:	80c01415 	stw	r3,80(r16)
   24ae4:	dfc00117 	ldw	ra,4(sp)
   24ae8:	dc000017 	ldw	r16,0(sp)
   24aec:	dec00204 	addi	sp,sp,8
   24af0:	f800283a 	ret
   24af4:	80c0030b 	ldhu	r3,12(r16)
   24af8:	18fbffcc 	andi	r3,r3,61439
   24afc:	80c0030d 	sth	r3,12(r16)
   24b00:	dfc00117 	ldw	ra,4(sp)
   24b04:	dc000017 	ldw	r16,0(sp)
   24b08:	dec00204 	addi	sp,sp,8
   24b0c:	f800283a 	ret

00024b10 <__seofread>:
   24b10:	0005883a 	mov	r2,zero
   24b14:	f800283a 	ret

00024b18 <__swrite>:
   24b18:	2880030b 	ldhu	r2,12(r5)
   24b1c:	defffb04 	addi	sp,sp,-20
   24b20:	dcc00315 	stw	r19,12(sp)
   24b24:	dc800215 	stw	r18,8(sp)
   24b28:	dc400115 	stw	r17,4(sp)
   24b2c:	dc000015 	stw	r16,0(sp)
   24b30:	dfc00415 	stw	ra,16(sp)
   24b34:	10c0400c 	andi	r3,r2,256
   24b38:	2821883a 	mov	r16,r5
   24b3c:	2023883a 	mov	r17,r4
   24b40:	2940038f 	ldh	r5,14(r5)
   24b44:	3025883a 	mov	r18,r6
   24b48:	3827883a 	mov	r19,r7
   24b4c:	18000c1e 	bne	r3,zero,24b80 <__swrite+0x68>
   24b50:	10bbffcc 	andi	r2,r2,61439
   24b54:	980f883a 	mov	r7,r19
   24b58:	900d883a 	mov	r6,r18
   24b5c:	8809883a 	mov	r4,r17
   24b60:	8080030d 	sth	r2,12(r16)
   24b64:	dfc00417 	ldw	ra,16(sp)
   24b68:	dcc00317 	ldw	r19,12(sp)
   24b6c:	dc800217 	ldw	r18,8(sp)
   24b70:	dc400117 	ldw	r17,4(sp)
   24b74:	dc000017 	ldw	r16,0(sp)
   24b78:	dec00504 	addi	sp,sp,20
   24b7c:	00286241 	jmpi	28624 <_write_r>
   24b80:	01c00084 	movi	r7,2
   24b84:	000d883a 	mov	r6,zero
   24b88:	002b4ec0 	call	2b4ec <_lseek_r>
   24b8c:	8080030b 	ldhu	r2,12(r16)
   24b90:	8140038f 	ldh	r5,14(r16)
   24b94:	003fee06 	br	24b50 <__swrite+0x38>

00024b98 <__sseek>:
   24b98:	defffe04 	addi	sp,sp,-8
   24b9c:	dc000015 	stw	r16,0(sp)
   24ba0:	2821883a 	mov	r16,r5
   24ba4:	2940038f 	ldh	r5,14(r5)
   24ba8:	dfc00115 	stw	ra,4(sp)
   24bac:	002b4ec0 	call	2b4ec <_lseek_r>
   24bb0:	10ffffd8 	cmpnei	r3,r2,-1
   24bb4:	18000826 	beq	r3,zero,24bd8 <__sseek+0x40>
   24bb8:	80c0030b 	ldhu	r3,12(r16)
   24bbc:	80801415 	stw	r2,80(r16)
   24bc0:	18c40014 	ori	r3,r3,4096
   24bc4:	80c0030d 	sth	r3,12(r16)
   24bc8:	dfc00117 	ldw	ra,4(sp)
   24bcc:	dc000017 	ldw	r16,0(sp)
   24bd0:	dec00204 	addi	sp,sp,8
   24bd4:	f800283a 	ret
   24bd8:	80c0030b 	ldhu	r3,12(r16)
   24bdc:	18fbffcc 	andi	r3,r3,61439
   24be0:	80c0030d 	sth	r3,12(r16)
   24be4:	dfc00117 	ldw	ra,4(sp)
   24be8:	dc000017 	ldw	r16,0(sp)
   24bec:	dec00204 	addi	sp,sp,8
   24bf0:	f800283a 	ret

00024bf4 <__sclose>:
   24bf4:	2940038f 	ldh	r5,14(r5)
   24bf8:	00287e41 	jmpi	287e4 <_close_r>

00024bfc <sulp>:
   24bfc:	defffd04 	addi	sp,sp,-12
   24c00:	dc400115 	stw	r17,4(sp)
   24c04:	3023883a 	mov	r17,r6
   24c08:	dc000015 	stw	r16,0(sp)
   24c0c:	dfc00215 	stw	ra,8(sp)
   24c10:	2821883a 	mov	r16,r5
   24c14:	002c3940 	call	2c394 <__ulp>
   24c18:	88000c26 	beq	r17,zero,24c4c <sulp+0x50>
   24c1c:	8020d53a 	srli	r16,r16,20
   24c20:	01c01ac4 	movi	r7,107
   24c24:	8401ffcc 	andi	r16,r16,2047
   24c28:	3c21c83a 	sub	r16,r7,r16
   24c2c:	0400070e 	bge	zero,r16,24c4c <sulp+0x50>
   24c30:	8020953a 	slli	r16,r16,20
   24c34:	01cffc34 	movhi	r7,16368
   24c38:	1009883a 	mov	r4,r2
   24c3c:	180b883a 	mov	r5,r3
   24c40:	000d883a 	mov	r6,zero
   24c44:	81cf883a 	add	r7,r16,r7
   24c48:	00306880 	call	30688 <__muldf3>
   24c4c:	dfc00217 	ldw	ra,8(sp)
   24c50:	dc400117 	ldw	r17,4(sp)
   24c54:	dc000017 	ldw	r16,0(sp)
   24c58:	dec00304 	addi	sp,sp,12
   24c5c:	f800283a 	ret

00024c60 <_strtod_l>:
   24c60:	deffdf04 	addi	sp,sp,-132
   24c64:	008000f4 	movhi	r2,3
   24c68:	dd401c15 	stw	r21,112(sp)
   24c6c:	1552dc17 	ldw	r21,19312(r2)
   24c70:	dc001715 	stw	r16,92(sp)
   24c74:	2021883a 	mov	r16,r4
   24c78:	a809883a 	mov	r4,r21
   24c7c:	dd801d15 	stw	r22,116(sp)
   24c80:	dd001b15 	stw	r20,108(sp)
   24c84:	282d883a 	mov	r22,r5
   24c88:	dc801915 	stw	r18,100(sp)
   24c8c:	dc401815 	stw	r17,96(sp)
   24c90:	d9800315 	stw	r6,12(sp)
   24c94:	dfc02015 	stw	ra,128(sp)
   24c98:	df001f15 	stw	fp,124(sp)
   24c9c:	ddc01e15 	stw	r23,120(sp)
   24ca0:	dcc01a15 	stw	r19,104(sp)
   24ca4:	3829883a 	mov	r20,r7
   24ca8:	d8001315 	stw	zero,76(sp)
   24cac:	002cebc0 	call	2cebc <strlen>
   24cb0:	100d883a 	mov	r6,r2
   24cb4:	0025883a 	mov	r18,zero
   24cb8:	0023883a 	mov	r17,zero
   24cbc:	dd801215 	stw	r22,72(sp)
   24cc0:	b007883a 	mov	r3,r22
   24cc4:	1cc00003 	ldbu	r19,0(r3)
   24cc8:	010000b4 	movhi	r4,2
   24ccc:	1839883a 	mov	fp,r3
   24cd0:	98803fcc 	andi	r2,r19,255
   24cd4:	100a90ba 	slli	r5,r2,2
   24cd8:	10800ba8 	cmpgeui	r2,r2,46
   24cdc:	1000311e 	bne	r2,zero,24da4 <_strtod_l+0x144>
   24ce0:	2909883a 	add	r4,r5,r4
   24ce4:	20933b17 	ldw	r2,19692(r4)
   24ce8:	1000683a 	jmp	r2
   24cec:	00024e48 	cmpgei	zero,zero,2361
   24cf0:	00024da4 	muli	zero,zero,2358
   24cf4:	00024da4 	muli	zero,zero,2358
   24cf8:	00024da4 	muli	zero,zero,2358
   24cfc:	00024da4 	muli	zero,zero,2358
   24d00:	00024da4 	muli	zero,zero,2358
   24d04:	00024da4 	muli	zero,zero,2358
   24d08:	00024da4 	muli	zero,zero,2358
   24d0c:	00024da4 	muli	zero,zero,2358
   24d10:	00024e98 	cmpnei	zero,zero,2362
   24d14:	00024e98 	cmpnei	zero,zero,2362
   24d18:	00024e98 	cmpnei	zero,zero,2362
   24d1c:	00024e98 	cmpnei	zero,zero,2362
   24d20:	00024e98 	cmpnei	zero,zero,2362
   24d24:	00024da4 	muli	zero,zero,2358
   24d28:	00024da4 	muli	zero,zero,2358
   24d2c:	00024da4 	muli	zero,zero,2358
   24d30:	00024da4 	muli	zero,zero,2358
   24d34:	00024da4 	muli	zero,zero,2358
   24d38:	00024da4 	muli	zero,zero,2358
   24d3c:	00024da4 	muli	zero,zero,2358
   24d40:	00024da4 	muli	zero,zero,2358
   24d44:	00024da4 	muli	zero,zero,2358
   24d48:	00024da4 	muli	zero,zero,2358
   24d4c:	00024da4 	muli	zero,zero,2358
   24d50:	00024da4 	muli	zero,zero,2358
   24d54:	00024da4 	muli	zero,zero,2358
   24d58:	00024da4 	muli	zero,zero,2358
   24d5c:	00024da4 	muli	zero,zero,2358
   24d60:	00024da4 	muli	zero,zero,2358
   24d64:	00024da4 	muli	zero,zero,2358
   24d68:	00024da4 	muli	zero,zero,2358
   24d6c:	00024e98 	cmpnei	zero,zero,2362
   24d70:	00024da4 	muli	zero,zero,2358
   24d74:	00024da4 	muli	zero,zero,2358
   24d78:	00024da4 	muli	zero,zero,2358
   24d7c:	00024da4 	muli	zero,zero,2358
   24d80:	00024da4 	muli	zero,zero,2358
   24d84:	00024da4 	muli	zero,zero,2358
   24d88:	00024da4 	muli	zero,zero,2358
   24d8c:	00024da4 	muli	zero,zero,2358
   24d90:	00024da4 	muli	zero,zero,2358
   24d94:	00024da4 	muli	zero,zero,2358
   24d98:	00025a80 	call	25a8 <__alt_mem_onchip_memory-0x1da58>
   24d9c:	00024da4 	muli	zero,zero,2358
   24da0:	00025a5c 	xori	zero,zero,2409
   24da4:	9cc03fcc 	andi	r19,r19,255
   24da8:	9cc0201c 	xori	r19,r19,128
   24dac:	d8000415 	stw	zero,16(sp)
   24db0:	9cffe004 	addi	r19,r19,-128
   24db4:	98800c18 	cmpnei	r2,r19,48
   24db8:	10007a26 	beq	r2,zero,24fa4 <_strtod_l+0x344>
   24dbc:	0023883a 	mov	r17,zero
   24dc0:	98800c08 	cmpgei	r2,r19,48
   24dc4:	9825883a 	mov	r18,r19
   24dc8:	1003c626 	beq	r2,zero,25ce4 <_strtod_l+0x1084>
   24dcc:	e029883a 	mov	r20,fp
   24dd0:	0013883a 	mov	r9,zero
   24dd4:	0011883a 	mov	r8,zero
   24dd8:	002f883a 	mov	r23,zero
   24ddc:	00000806 	br	24e00 <_strtod_l+0x1a0>
   24de0:	1a3ff404 	addi	r8,r3,-48
   24de4:	a5000044 	addi	r20,r20,1
   24de8:	dd001215 	stw	r20,72(sp)
   24dec:	a4800007 	ldb	r18,0(r20)
   24df0:	bdc00044 	addi	r23,r23,1
   24df4:	90800c10 	cmplti	r2,r18,48
   24df8:	9027883a 	mov	r19,r18
   24dfc:	10007e1e 	bne	r2,zero,24ff8 <_strtod_l+0x398>
   24e00:	40c002a4 	muli	r3,r8,10
   24e04:	488002a4 	muli	r2,r9,10
   24e08:	99000e90 	cmplti	r4,r19,58
   24e0c:	b9400248 	cmpgei	r5,r23,9
   24e10:	1cc7883a 	add	r3,r3,r19
   24e14:	14c5883a 	add	r2,r2,r19
   24e18:	20002226 	beq	r4,zero,24ea4 <_strtod_l+0x244>
   24e1c:	283ff026 	beq	r5,zero,24de0 <_strtod_l+0x180>
   24e20:	127ff404 	addi	r9,r2,-48
   24e24:	003fef06 	br	24de4 <_strtod_l+0x184>
   24e28:	90c01960 	cmpeqi	r3,r18,101
   24e2c:	01400044 	movi	r5,1
   24e30:	1800ba1e 	bne	r3,zero,2511c <_strtod_l+0x4bc>
   24e34:	90c01160 	cmpeqi	r3,r18,69
   24e38:	18007d26 	beq	r3,zero,25030 <_strtod_l+0x3d0>
   24e3c:	b800b71e 	bne	r23,zero,2511c <_strtod_l+0x4bc>
   24e40:	8886b03a 	or	r3,r17,r2
   24e44:	1800b41e 	bne	r3,zero,25118 <_strtod_l+0x4b8>
   24e48:	d8800317 	ldw	r2,12(sp)
   24e4c:	10000226 	beq	r2,zero,24e58 <_strtod_l+0x1f8>
   24e50:	d8800317 	ldw	r2,12(sp)
   24e54:	15800015 	stw	r22,0(r2)
   24e58:	002d883a 	mov	r22,zero
   24e5c:	002b883a 	mov	r21,zero
   24e60:	b005883a 	mov	r2,r22
   24e64:	a807883a 	mov	r3,r21
   24e68:	dfc02017 	ldw	ra,128(sp)
   24e6c:	df001f17 	ldw	fp,124(sp)
   24e70:	ddc01e17 	ldw	r23,120(sp)
   24e74:	dd801d17 	ldw	r22,116(sp)
   24e78:	dd401c17 	ldw	r21,112(sp)
   24e7c:	dd001b17 	ldw	r20,108(sp)
   24e80:	dcc01a17 	ldw	r19,104(sp)
   24e84:	dc801917 	ldw	r18,100(sp)
   24e88:	dc401817 	ldw	r17,96(sp)
   24e8c:	dc001717 	ldw	r16,92(sp)
   24e90:	dec02104 	addi	sp,sp,132
   24e94:	f800283a 	ret
   24e98:	18c00044 	addi	r3,r3,1
   24e9c:	d8c01215 	stw	r3,72(sp)
   24ea0:	003f8806 	br	24cc4 <_strtod_l+0x64>
   24ea4:	a80b883a 	mov	r5,r21
   24ea8:	a009883a 	mov	r4,r20
   24eac:	da400615 	stw	r9,24(sp)
   24eb0:	da000515 	stw	r8,20(sp)
   24eb4:	d9800715 	stw	r6,28(sp)
   24eb8:	002cf540 	call	2cf54 <strncmp>
   24ebc:	da000517 	ldw	r8,20(sp)
   24ec0:	da400617 	ldw	r9,24(sp)
   24ec4:	1000451e 	bne	r2,zero,24fdc <_strtod_l+0x37c>
   24ec8:	d9800717 	ldw	r6,28(sp)
   24ecc:	a18d883a 	add	r6,r20,r6
   24ed0:	d9801215 	stw	r6,72(sp)
   24ed4:	34800007 	ldb	r18,0(r6)
   24ed8:	b803eb1e 	bne	r23,zero,25e88 <_strtod_l+0x1228>
   24edc:	90800c18 	cmpnei	r2,r18,48
   24ee0:	1003a11e 	bne	r2,zero,25d68 <_strtod_l+0x1108>
   24ee4:	d8c01217 	ldw	r3,72(sp)
   24ee8:	01400044 	movi	r5,1
   24eec:	28cbc83a 	sub	r5,r5,r3
   24ef0:	1945883a 	add	r2,r3,r5
   24ef4:	18c00044 	addi	r3,r3,1
   24ef8:	d8c01215 	stw	r3,72(sp)
   24efc:	1c800007 	ldb	r18,0(r3)
   24f00:	91000c20 	cmpeqi	r4,r18,48
   24f04:	203ffa1e 	bne	r4,zero,24ef0 <_strtod_l+0x290>
   24f08:	90fff3c4 	addi	r3,r18,-49
   24f0c:	18c00268 	cmpgeui	r3,r3,9
   24f10:	18027d1e 	bne	r3,zero,25908 <_strtod_l+0xca8>
   24f14:	df001217 	ldw	fp,72(sp)
   24f18:	94bff404 	addi	r18,r18,-48
   24f1c:	15000044 	addi	r20,r2,1
   24f20:	e015883a 	mov	r10,fp
   24f24:	002b883a 	mov	r21,zero
   24f28:	05c00044 	movi	r23,1
   24f2c:	420002a4 	muli	r8,r8,10
   24f30:	0005883a 	mov	r2,zero
   24f34:	9211883a 	add	r8,r18,r8
   24f38:	50c00044 	addi	r3,r10,1
   24f3c:	d8c01215 	stw	r3,72(sp)
   24f40:	54800047 	ldb	r18,1(r10)
   24f44:	91bff404 	addi	r6,r18,-48
   24f48:	30c002b0 	cmpltui	r3,r6,10
   24f4c:	183fb626 	beq	r3,zero,24e28 <_strtod_l+0x1c8>
   24f50:	da801217 	ldw	r10,72(sp)
   24f54:	10800044 	addi	r2,r2,1
   24f58:	3025883a 	mov	r18,r6
   24f5c:	303ff626 	beq	r6,zero,24f38 <_strtod_l+0x2d8>
   24f60:	10c00060 	cmpeqi	r3,r2,1
   24f64:	b9000044 	addi	r4,r23,1
   24f68:	a0a9883a 	add	r20,r20,r2
   24f6c:	18048b1e 	bne	r3,zero,2619c <_strtod_l+0x153c>
   24f70:	15c5883a 	add	r2,r2,r23
   24f74:	11ffffc4 	addi	r7,r2,-1
   24f78:	00000306 	br	24f88 <_strtod_l+0x328>
   24f7c:	420002a4 	muli	r8,r8,10
   24f80:	182f883a 	mov	r23,r3
   24f84:	19c34e26 	beq	r3,r7,25cc0 <_strtod_l+0x1060>
   24f88:	b8c00044 	addi	r3,r23,1
   24f8c:	b9000248 	cmpgei	r4,r23,9
   24f90:	19400448 	cmpgei	r5,r3,17
   24f94:	203ff926 	beq	r4,zero,24f7c <_strtod_l+0x31c>
   24f98:	283ff91e 	bne	r5,zero,24f80 <_strtod_l+0x320>
   24f9c:	4a4002a4 	muli	r9,r9,10
   24fa0:	003ff706 	br	24f80 <_strtod_l+0x320>
   24fa4:	e0800043 	ldbu	r2,1(fp)
   24fa8:	e5c00044 	addi	r23,fp,1
   24fac:	108037cc 	andi	r2,r2,223
   24fb0:	10801618 	cmpnei	r2,r2,88
   24fb4:	10032a26 	beq	r2,zero,25c60 <_strtod_l+0x1000>
   24fb8:	ddc01215 	stw	r23,72(sp)
   24fbc:	bcc00007 	ldb	r19,0(r23)
   24fc0:	b839883a 	mov	fp,r23
   24fc4:	bdc00044 	addi	r23,r23,1
   24fc8:	98800c20 	cmpeqi	r2,r19,48
   24fcc:	103ffa1e 	bne	r2,zero,24fb8 <_strtod_l+0x358>
   24fd0:	98009b26 	beq	r19,zero,25240 <_strtod_l+0x5e0>
   24fd4:	04400044 	movi	r17,1
   24fd8:	003f7906 	br	24dc0 <_strtod_l+0x160>
   24fdc:	9cc01960 	cmpeqi	r19,r19,101
   24fe0:	b82b883a 	mov	r21,r23
   24fe4:	0005883a 	mov	r2,zero
   24fe8:	0029883a 	mov	r20,zero
   24fec:	000b883a 	mov	r5,zero
   24ff0:	983f921e 	bne	r19,zero,24e3c <_strtod_l+0x1dc>
   24ff4:	003f8f06 	br	24e34 <_strtod_l+0x1d4>
   24ff8:	a80b883a 	mov	r5,r21
   24ffc:	a009883a 	mov	r4,r20
   25000:	da000715 	stw	r8,28(sp)
   25004:	da400615 	stw	r9,24(sp)
   25008:	d9800515 	stw	r6,20(sp)
   2500c:	002cf540 	call	2cf54 <strncmp>
   25010:	d9800517 	ldw	r6,20(sp)
   25014:	da400617 	ldw	r9,24(sp)
   25018:	da000717 	ldw	r8,28(sp)
   2501c:	10009226 	beq	r2,zero,25268 <_strtod_l+0x608>
   25020:	b82b883a 	mov	r21,r23
   25024:	000b883a 	mov	r5,zero
   25028:	0029883a 	mov	r20,zero
   2502c:	0005883a 	mov	r2,zero
   25030:	0027883a 	mov	r19,zero
   25034:	b8006b26 	beq	r23,zero,251e4 <_strtod_l+0x584>
   25038:	9d05c83a 	sub	r2,r19,r20
   2503c:	d8800915 	stw	r2,36(sp)
   25040:	a800011e 	bne	r21,zero,25048 <_strtod_l+0x3e8>
   25044:	b82b883a 	mov	r21,r23
   25048:	b8800450 	cmplti	r2,r23,17
   2504c:	b82d883a 	mov	r22,r23
   25050:	1000011e 	bne	r2,zero,25058 <_strtod_l+0x3f8>
   25054:	05800404 	movi	r22,16
   25058:	4009883a 	mov	r4,r8
   2505c:	da000515 	stw	r8,20(sp)
   25060:	da400615 	stw	r9,24(sp)
   25064:	00316800 	call	31680 <__floatunsidf>
   25068:	b9000290 	cmplti	r4,r23,10
   2506c:	da000517 	ldw	r8,20(sp)
   25070:	1025883a 	mov	r18,r2
   25074:	1823883a 	mov	r17,r3
   25078:	2000171e 	bne	r4,zero,250d8 <_strtod_l+0x478>
   2507c:	b0bffdc4 	addi	r2,r22,-9
   25080:	100690fa 	slli	r3,r2,3
   25084:	008000f4 	movhi	r2,3
   25088:	10930804 	addi	r2,r2,19488
   2508c:	10c5883a 	add	r2,r2,r3
   25090:	11800017 	ldw	r6,0(r2)
   25094:	11c00117 	ldw	r7,4(r2)
   25098:	880b883a 	mov	r5,r17
   2509c:	9009883a 	mov	r4,r18
   250a0:	00306880 	call	30688 <__muldf3>
   250a4:	da400617 	ldw	r9,24(sp)
   250a8:	1025883a 	mov	r18,r2
   250ac:	1823883a 	mov	r17,r3
   250b0:	4809883a 	mov	r4,r9
   250b4:	00316800 	call	31680 <__floatunsidf>
   250b8:	9009883a 	mov	r4,r18
   250bc:	880b883a 	mov	r5,r17
   250c0:	100d883a 	mov	r6,r2
   250c4:	180f883a 	mov	r7,r3
   250c8:	00219f00 	call	219f0 <__adddf3>
   250cc:	da000517 	ldw	r8,20(sp)
   250d0:	1025883a 	mov	r18,r2
   250d4:	1823883a 	mov	r17,r3
   250d8:	b8800408 	cmpgei	r2,r23,16
   250dc:	1000681e 	bne	r2,zero,25280 <_strtod_l+0x620>
   250e0:	9d05c83a 	sub	r2,r19,r20
   250e4:	1002f326 	beq	r2,zero,25cb4 <_strtod_l+0x1054>
   250e8:	9d05c83a 	sub	r2,r19,r20
   250ec:	0082700e 	bge	zero,r2,25ab0 <_strtod_l+0xe50>
   250f0:	108005c8 	cmpgei	r2,r2,23
   250f4:	10035726 	beq	r2,zero,25e54 <_strtod_l+0x11f4>
   250f8:	00800944 	movi	r2,37
   250fc:	15c5c83a 	sub	r2,r2,r23
   25100:	9d07c83a 	sub	r3,r19,r20
   25104:	10c3680e 	bge	r2,r3,25ea8 <_strtod_l+0x1248>
   25108:	bdadc83a 	sub	r22,r23,r22
   2510c:	9d05c83a 	sub	r2,r19,r20
   25110:	b0ad883a 	add	r22,r22,r2
   25114:	00005e06 	br	25290 <_strtod_l+0x630>
   25118:	002f883a 	mov	r23,zero
   2511c:	dd801217 	ldw	r22,72(sp)
   25120:	b0c00044 	addi	r3,r22,1
   25124:	d8c01215 	stw	r3,72(sp)
   25128:	b4800047 	ldb	r18,1(r22)
   2512c:	90c00ae0 	cmpeqi	r3,r18,43
   25130:	1801f31e 	bne	r3,zero,25900 <_strtod_l+0xca0>
   25134:	90c00b60 	cmpeqi	r3,r18,45
   25138:	1801bf1e 	bne	r3,zero,25838 <_strtod_l+0xbd8>
   2513c:	000d883a 	mov	r6,zero
   25140:	90fff404 	addi	r3,r18,-48
   25144:	18c002a8 	cmpgeui	r3,r3,10
   25148:	1801b81e 	bne	r3,zero,2582c <_strtod_l+0xbcc>
   2514c:	90c00c18 	cmpnei	r3,r18,48
   25150:	1800071e 	bne	r3,zero,25170 <_strtod_l+0x510>
   25154:	d8c01217 	ldw	r3,72(sp)
   25158:	18c00044 	addi	r3,r3,1
   2515c:	d8c01215 	stw	r3,72(sp)
   25160:	1c800007 	ldb	r18,0(r3)
   25164:	18c00044 	addi	r3,r3,1
   25168:	91000c20 	cmpeqi	r4,r18,48
   2516c:	203ffb1e 	bne	r4,zero,2515c <_strtod_l+0x4fc>
   25170:	90fff3c4 	addi	r3,r18,-49
   25174:	18c00268 	cmpgeui	r3,r3,9
   25178:	183fad1e 	bne	r3,zero,25030 <_strtod_l+0x3d0>
   2517c:	dac01217 	ldw	r11,72(sp)
   25180:	94fff404 	addi	r19,r18,-48
   25184:	59c00044 	addi	r7,r11,1
   25188:	d9c01215 	stw	r7,72(sp)
   2518c:	5c800047 	ldb	r18,1(r11)
   25190:	90c00c08 	cmpgei	r3,r18,48
   25194:	1800071e 	bne	r3,zero,251b4 <_strtod_l+0x554>
   25198:	0002dd06 	br	25d10 <_strtod_l+0x10b0>
   2519c:	39c00044 	addi	r7,r7,1
   251a0:	d9c01215 	stw	r7,72(sp)
   251a4:	54800047 	ldb	r18,1(r10)
   251a8:	1cfff404 	addi	r19,r3,-48
   251ac:	90c00c08 	cmpgei	r3,r18,48
   251b0:	18000526 	beq	r3,zero,251c8 <_strtod_l+0x568>
   251b4:	98c002a4 	muli	r3,r19,10
   251b8:	91000e90 	cmplti	r4,r18,58
   251bc:	3815883a 	mov	r10,r7
   251c0:	1c87883a 	add	r3,r3,r18
   251c4:	203ff51e 	bne	r4,zero,2519c <_strtod_l+0x53c>
   251c8:	3ac7c83a 	sub	r3,r7,r11
   251cc:	18c00248 	cmpgei	r3,r3,9
   251d0:	1802cf26 	beq	r3,zero,25d10 <_strtod_l+0x10b0>
   251d4:	04d387c4 	movi	r19,19999
   251d8:	303f9626 	beq	r6,zero,25034 <_strtod_l+0x3d4>
   251dc:	04e7c83a 	sub	r19,zero,r19
   251e0:	b83f951e 	bne	r23,zero,25038 <_strtod_l+0x3d8>
   251e4:	8884b03a 	or	r2,r17,r2
   251e8:	1000151e 	bne	r2,zero,25240 <_strtod_l+0x5e0>
   251ec:	283f161e 	bne	r5,zero,24e48 <_strtod_l+0x1e8>
   251f0:	90801a60 	cmpeqi	r2,r18,105
   251f4:	1002cb1e 	bne	r2,zero,25d24 <_strtod_l+0x10c4>
   251f8:	90801a88 	cmpgei	r2,r18,106
   251fc:	1002401e 	bne	r2,zero,25b00 <_strtod_l+0xea0>
   25200:	90801260 	cmpeqi	r2,r18,73
   25204:	1002c71e 	bne	r2,zero,25d24 <_strtod_l+0x10c4>
   25208:	948013a0 	cmpeqi	r18,r18,78
   2520c:	903f0e26 	beq	r18,zero,24e48 <_strtod_l+0x1e8>
   25210:	014000f4 	movhi	r5,3
   25214:	29524404 	addi	r5,r5,18704
   25218:	d9001204 	addi	r4,sp,72
   2521c:	002b11c0 	call	2b11c <__match>
   25220:	103f0926 	beq	r2,zero,24e48 <_strtod_l+0x1e8>
   25224:	d8801217 	ldw	r2,72(sp)
   25228:	10800007 	ldb	r2,0(r2)
   2522c:	10800a18 	cmpnei	r2,r2,40
   25230:	10039326 	beq	r2,zero,26080 <_strtod_l+0x1420>
   25234:	002d883a 	mov	r22,zero
   25238:	055ffe34 	movhi	r21,32760
   2523c:	00000206 	br	25248 <_strtod_l+0x5e8>
   25240:	002d883a 	mov	r22,zero
   25244:	002b883a 	mov	r21,zero
   25248:	d8c00317 	ldw	r3,12(sp)
   2524c:	18000226 	beq	r3,zero,25258 <_strtod_l+0x5f8>
   25250:	d8801217 	ldw	r2,72(sp)
   25254:	18800015 	stw	r2,0(r3)
   25258:	d8800417 	ldw	r2,16(sp)
   2525c:	103f0026 	beq	r2,zero,24e60 <_strtod_l+0x200>
   25260:	ad60003c 	xorhi	r21,r21,32768
   25264:	003efe06 	br	24e60 <_strtod_l+0x200>
   25268:	a18d883a 	add	r6,r20,r6
   2526c:	d9801215 	stw	r6,72(sp)
   25270:	34800007 	ldb	r18,0(r6)
   25274:	b82b883a 	mov	r21,r23
   25278:	0029883a 	mov	r20,zero
   2527c:	003f3106 	br	24f44 <_strtod_l+0x2e4>
   25280:	bdadc83a 	sub	r22,r23,r22
   25284:	9d05c83a 	sub	r2,r19,r20
   25288:	b0ad883a 	add	r22,r22,r2
   2528c:	05821f0e 	bge	zero,r22,25b0c <_strtod_l+0xeac>
   25290:	b08003cc 	andi	r2,r22,15
   25294:	10000d26 	beq	r2,zero,252cc <_strtod_l+0x66c>
   25298:	100690fa 	slli	r3,r2,3
   2529c:	008000f4 	movhi	r2,3
   252a0:	10930804 	addi	r2,r2,19488
   252a4:	10c5883a 	add	r2,r2,r3
   252a8:	11000017 	ldw	r4,0(r2)
   252ac:	11400117 	ldw	r5,4(r2)
   252b0:	900d883a 	mov	r6,r18
   252b4:	880f883a 	mov	r7,r17
   252b8:	da000515 	stw	r8,20(sp)
   252bc:	00306880 	call	30688 <__muldf3>
   252c0:	da000517 	ldw	r8,20(sp)
   252c4:	1025883a 	mov	r18,r2
   252c8:	1823883a 	mov	r17,r3
   252cc:	027ffc04 	movi	r9,-16
   252d0:	b252703a 	and	r9,r22,r9
   252d4:	48003f26 	beq	r9,zero,253d4 <_strtod_l+0x774>
   252d8:	48804d50 	cmplti	r2,r9,309
   252dc:	10025b26 	beq	r2,zero,25c4c <_strtod_l+0xfec>
   252e0:	4813d13a 	srai	r9,r9,4
   252e4:	48800090 	cmplti	r2,r9,2
   252e8:	1003601e 	bne	r2,zero,2606c <_strtod_l+0x140c>
   252ec:	008000f4 	movhi	r2,3
   252f0:	1092fe04 	addi	r2,r2,19448
   252f4:	002d883a 	mov	r22,zero
   252f8:	9009883a 	mov	r4,r18
   252fc:	880b883a 	mov	r5,r17
   25300:	dc000715 	stw	r16,28(sp)
   25304:	dc800815 	stw	r18,32(sp)
   25308:	d8800515 	stw	r2,20(sp)
   2530c:	b025883a 	mov	r18,r22
   25310:	0007883a 	mov	r3,zero
   25314:	882d883a 	mov	r22,r17
   25318:	da000615 	stw	r8,24(sp)
   2531c:	4821883a 	mov	r16,r9
   25320:	1023883a 	mov	r17,r2
   25324:	8080004c 	andi	r2,r16,1
   25328:	8021d07a 	srai	r16,r16,1
   2532c:	10000626 	beq	r2,zero,25348 <_strtod_l+0x6e8>
   25330:	89800017 	ldw	r6,0(r17)
   25334:	89c00117 	ldw	r7,4(r17)
   25338:	00306880 	call	30688 <__muldf3>
   2533c:	180b883a 	mov	r5,r3
   25340:	1009883a 	mov	r4,r2
   25344:	00c00044 	movi	r3,1
   25348:	81800058 	cmpnei	r6,r16,1
   2534c:	94800044 	addi	r18,r18,1
   25350:	8c400204 	addi	r17,r17,8
   25354:	303ff31e 	bne	r6,zero,25324 <_strtod_l+0x6c4>
   25358:	18c03fcc 	andi	r3,r3,255
   2535c:	b023883a 	mov	r17,r22
   25360:	da000617 	ldw	r8,24(sp)
   25364:	902d883a 	mov	r22,r18
   25368:	dc000717 	ldw	r16,28(sp)
   2536c:	dc800817 	ldw	r18,32(sp)
   25370:	18000226 	beq	r3,zero,2537c <_strtod_l+0x71c>
   25374:	2025883a 	mov	r18,r4
   25378:	2823883a 	mov	r17,r5
   2537c:	d8800517 	ldw	r2,20(sp)
   25380:	b01690fa 	slli	r11,r22,3
   25384:	01ff2c34 	movhi	r7,64688
   25388:	900d883a 	mov	r6,r18
   2538c:	12d7883a 	add	r11,r2,r11
   25390:	59000017 	ldw	r4,0(r11)
   25394:	59400117 	ldw	r5,4(r11)
   25398:	89cf883a 	add	r7,r17,r7
   2539c:	da000615 	stw	r8,24(sp)
   253a0:	00306880 	call	30688 <__muldf3>
   253a4:	191ffc2c 	andhi	r4,r3,32752
   253a8:	015f2834 	movhi	r5,31904
   253ac:	1025883a 	mov	r18,r2
   253b0:	29022636 	bltu	r5,r4,25c4c <_strtod_l+0xfec>
   253b4:	009f2434 	movhi	r2,31888
   253b8:	da000617 	ldw	r8,24(sp)
   253bc:	1102fd2e 	bgeu	r2,r4,25fb4 <_strtod_l+0x1354>
   253c0:	045ffc34 	movhi	r17,32752
   253c4:	8c7fffc4 	addi	r17,r17,-1
   253c8:	04bfffc4 	movi	r18,-1
   253cc:	d8001015 	stw	zero,64(sp)
   253d0:	00000106 	br	253d8 <_strtod_l+0x778>
   253d4:	d8001015 	stw	zero,64(sp)
   253d8:	da000015 	stw	r8,0(sp)
   253dc:	b80f883a 	mov	r7,r23
   253e0:	a80d883a 	mov	r6,r21
   253e4:	e00b883a 	mov	r5,fp
   253e8:	8009883a 	mov	r4,r16
   253ec:	002b9a00 	call	2b9a0 <__s2b>
   253f0:	d8800715 	stw	r2,28(sp)
   253f4:	10021526 	beq	r2,zero,25c4c <_strtod_l+0xfec>
   253f8:	d8c00917 	ldw	r3,36(sp)
   253fc:	a4e7c83a 	sub	r19,r20,r19
   25400:	1805d7fa 	srai	r2,r3,31
   25404:	d8c00815 	stw	r3,32(sp)
   25408:	9884703a 	and	r2,r19,r2
   2540c:	d8800515 	stw	r2,20(sp)
   25410:	18019d16 	blt	r3,zero,25a88 <_strtod_l+0xe28>
   25414:	d8c00717 	ldw	r3,28(sp)
   25418:	00800434 	movhi	r2,16
   2541c:	dd401017 	ldw	r21,64(sp)
   25420:	18c00304 	addi	r3,r3,12
   25424:	10bfffc4 	addi	r2,r2,-1
   25428:	002f883a 	mov	r23,zero
   2542c:	0027883a 	mov	r19,zero
   25430:	d8c00d15 	stw	r3,52(sp)
   25434:	d8801115 	stw	r2,68(sp)
   25438:	dd800717 	ldw	r22,28(sp)
   2543c:	8009883a 	mov	r4,r16
   25440:	b1400117 	ldw	r5,4(r22)
   25444:	002b7a00 	call	2b7a0 <_Balloc>
   25448:	1029883a 	mov	r20,r2
   2544c:	1000ce26 	beq	r2,zero,25788 <_strtod_l+0xb28>
   25450:	b1800417 	ldw	r6,16(r22)
   25454:	d9400d17 	ldw	r5,52(sp)
   25458:	11000304 	addi	r4,r2,12
   2545c:	31800084 	addi	r6,r6,2
   25460:	300c90ba 	slli	r6,r6,2
   25464:	dc800b15 	stw	r18,44(sp)
   25468:	dc400a15 	stw	r17,40(sp)
   2546c:	00245a40 	call	245a4 <memcpy>
   25470:	d8801504 	addi	r2,sp,84
   25474:	d9c01404 	addi	r7,sp,80
   25478:	d8800015 	stw	r2,0(sp)
   2547c:	900b883a 	mov	r5,r18
   25480:	880d883a 	mov	r6,r17
   25484:	8009883a 	mov	r4,r16
   25488:	002c4f40 	call	2c4f4 <__d2b>
   2548c:	d8801315 	stw	r2,76(sp)
   25490:	1000b526 	beq	r2,zero,25768 <_strtod_l+0xb08>
   25494:	01400044 	movi	r5,1
   25498:	8009883a 	mov	r4,r16
   2549c:	002bbec0 	call	2bbec <__i2b>
   254a0:	1027883a 	mov	r19,r2
   254a4:	1000b826 	beq	r2,zero,25788 <_strtod_l+0xb28>
   254a8:	d8801417 	ldw	r2,80(sp)
   254ac:	1000d316 	blt	r2,zero,257fc <_strtod_l+0xb9c>
   254b0:	d8c00517 	ldw	r3,20(sp)
   254b4:	d9c00817 	ldw	r7,32(sp)
   254b8:	10f9883a 	add	fp,r2,r3
   254bc:	d9001517 	ldw	r4,84(sp)
   254c0:	1545c83a 	sub	r2,r2,r21
   254c4:	00c00d84 	movi	r3,54
   254c8:	1105883a 	add	r2,r2,r4
   254cc:	10bfffc4 	addi	r2,r2,-1
   254d0:	117f0088 	cmpgei	r5,r2,-1022
   254d4:	1907c83a 	sub	r3,r3,r4
   254d8:	2800b81e 	bne	r5,zero,257bc <_strtod_l+0xb5c>
   254dc:	05bf0084 	movi	r22,-1022
   254e0:	b089c83a 	sub	r4,r22,r2
   254e4:	21400808 	cmpgei	r5,r4,32
   254e8:	1907c83a 	sub	r3,r3,r4
   254ec:	2800c71e 	bne	r5,zero,2580c <_strtod_l+0xbac>
   254f0:	05800044 	movi	r22,1
   254f4:	b104983a 	sll	r2,r22,r4
   254f8:	d8000e15 	stw	zero,56(sp)
   254fc:	d8800c15 	stw	r2,48(sp)
   25500:	38cf883a 	add	r7,r7,r3
   25504:	e0c7883a 	add	r3,fp,r3
   25508:	a9ed883a 	add	r22,r21,r7
   2550c:	e005883a 	mov	r2,fp
   25510:	1f00010e 	bge	r3,fp,25518 <_strtod_l+0x8b8>
   25514:	1805883a 	mov	r2,r3
   25518:	b080010e 	bge	r22,r2,25520 <_strtod_l+0x8c0>
   2551c:	b005883a 	mov	r2,r22
   25520:	0080030e 	bge	zero,r2,25530 <_strtod_l+0x8d0>
   25524:	1887c83a 	sub	r3,r3,r2
   25528:	b0adc83a 	sub	r22,r22,r2
   2552c:	e0b9c83a 	sub	fp,fp,r2
   25530:	d9800517 	ldw	r6,20(sp)
   25534:	01806f16 	blt	zero,r6,256f4 <_strtod_l+0xa94>
   25538:	00c08516 	blt	zero,r3,25750 <_strtod_l+0xaf0>
   2553c:	d8800917 	ldw	r2,36(sp)
   25540:	00808b16 	blt	zero,r2,25770 <_strtod_l+0xb10>
   25544:	05809616 	blt	zero,r22,257a0 <_strtod_l+0xb40>
   25548:	0700060e 	bge	zero,fp,25564 <_strtod_l+0x904>
   2554c:	980b883a 	mov	r5,r19
   25550:	e00d883a 	mov	r6,fp
   25554:	8009883a 	mov	r4,r16
   25558:	002bf880 	call	2bf88 <__lshift>
   2555c:	1027883a 	mov	r19,r2
   25560:	10008926 	beq	r2,zero,25788 <_strtod_l+0xb28>
   25564:	d9401317 	ldw	r5,76(sp)
   25568:	a00d883a 	mov	r6,r20
   2556c:	8009883a 	mov	r4,r16
   25570:	002c1680 	call	2c168 <__mdiff>
   25574:	102f883a 	mov	r23,r2
   25578:	10008326 	beq	r2,zero,25788 <_strtod_l+0xb28>
   2557c:	10800317 	ldw	r2,12(r2)
   25580:	980b883a 	mov	r5,r19
   25584:	b8000315 	stw	zero,12(r23)
   25588:	b809883a 	mov	r4,r23
   2558c:	d8800615 	stw	r2,24(sp)
   25590:	002c1100 	call	2c110 <__mcmp>
   25594:	10028b16 	blt	r2,zero,25fc4 <_strtod_l+0x1364>
   25598:	10025c26 	beq	r2,zero,25f0c <_strtod_l+0x12ac>
   2559c:	980b883a 	mov	r5,r19
   255a0:	b809883a 	mov	r4,r23
   255a4:	002c6580 	call	2c658 <__ratio>
   255a8:	000d883a 	mov	r6,zero
   255ac:	01d00034 	movhi	r7,16384
   255b0:	1009883a 	mov	r4,r2
   255b4:	180b883a 	mov	r5,r3
   255b8:	1039883a 	mov	fp,r2
   255bc:	182d883a 	mov	r22,r3
   255c0:	00305980 	call	30598 <__ledf2>
   255c4:	00808116 	blt	zero,r2,257cc <_strtod_l+0xb6c>
   255c8:	d8800617 	ldw	r2,24(sp)
   255cc:	10009f26 	beq	r2,zero,2584c <_strtod_l+0xbec>
   255d0:	0011883a 	mov	r8,zero
   255d4:	024ffc34 	movhi	r9,16368
   255d8:	d8000c15 	stw	zero,48(sp)
   255dc:	058ffc34 	movhi	r22,16368
   255e0:	8f1ffc2c 	andhi	fp,r17,32752
   255e4:	009ff834 	movhi	r2,32736
   255e8:	e080a326 	beq	fp,r2,25878 <_strtod_l+0xc18>
   255ec:	a8001d26 	beq	r21,zero,25664 <_strtod_l+0xa04>
   255f0:	0081a834 	movhi	r2,1696
   255f4:	17001b36 	bltu	r2,fp,25664 <_strtod_l+0xa04>
   255f8:	d9000c17 	ldw	r4,48(sp)
   255fc:	01d07834 	movhi	r7,16864
   25600:	01bff034 	movhi	r6,65472
   25604:	39ffffc4 	addi	r7,r7,-1
   25608:	b00b883a 	mov	r5,r22
   2560c:	da400b15 	stw	r9,44(sp)
   25610:	da000a15 	stw	r8,40(sp)
   25614:	00305980 	call	30598 <__ledf2>
   25618:	da000a17 	ldw	r8,40(sp)
   2561c:	da400b17 	ldw	r9,44(sp)
   25620:	00800d16 	blt	zero,r2,25658 <_strtod_l+0x9f8>
   25624:	d9000c17 	ldw	r4,48(sp)
   25628:	b00b883a 	mov	r5,r22
   2562c:	002ed980 	call	2ed98 <__fixunsdfsi>
   25630:	1009883a 	mov	r4,r2
   25634:	1000011e 	bne	r2,zero,2563c <_strtod_l+0x9dc>
   25638:	01000044 	movi	r4,1
   2563c:	00316800 	call	31680 <__floatunsidf>
   25640:	1011883a 	mov	r8,r2
   25644:	d8800c15 	stw	r2,48(sp)
   25648:	d8800617 	ldw	r2,24(sp)
   2564c:	182d883a 	mov	r22,r3
   25650:	1001b21e 	bne	r2,zero,25d1c <_strtod_l+0x10bc>
   25654:	1a60003c 	xorhi	r9,r3,32768
   25658:	0081ac34 	movhi	r2,1712
   2565c:	4893883a 	add	r9,r9,r2
   25660:	4f13c83a 	sub	r9,r9,fp
   25664:	9009883a 	mov	r4,r18
   25668:	880b883a 	mov	r5,r17
   2566c:	da400b15 	stw	r9,44(sp)
   25670:	da000a15 	stw	r8,40(sp)
   25674:	002c3940 	call	2c394 <__ulp>
   25678:	da000a17 	ldw	r8,40(sp)
   2567c:	da400b17 	ldw	r9,44(sp)
   25680:	100d883a 	mov	r6,r2
   25684:	4009883a 	mov	r4,r8
   25688:	480b883a 	mov	r5,r9
   2568c:	180f883a 	mov	r7,r3
   25690:	00306880 	call	30688 <__muldf3>
   25694:	900d883a 	mov	r6,r18
   25698:	880f883a 	mov	r7,r17
   2569c:	1009883a 	mov	r4,r2
   256a0:	180b883a 	mov	r5,r3
   256a4:	00219f00 	call	219f0 <__adddf3>
   256a8:	1823883a 	mov	r17,r3
   256ac:	1025883a 	mov	r18,r2
   256b0:	1811883a 	mov	r8,r3
   256b4:	a800021e 	bne	r21,zero,256c0 <_strtod_l+0xa60>
   256b8:	409ffc2c 	andhi	r2,r8,32752
   256bc:	e0809826 	beq	fp,r2,25920 <_strtod_l+0xcc0>
   256c0:	d9401317 	ldw	r5,76(sp)
   256c4:	8009883a 	mov	r4,r16
   256c8:	002b8440 	call	2b844 <_Bfree>
   256cc:	a00b883a 	mov	r5,r20
   256d0:	8009883a 	mov	r4,r16
   256d4:	002b8440 	call	2b844 <_Bfree>
   256d8:	980b883a 	mov	r5,r19
   256dc:	8009883a 	mov	r4,r16
   256e0:	002b8440 	call	2b844 <_Bfree>
   256e4:	b80b883a 	mov	r5,r23
   256e8:	8009883a 	mov	r4,r16
   256ec:	002b8440 	call	2b844 <_Bfree>
   256f0:	003f5106 	br	25438 <_strtod_l+0x7d8>
   256f4:	980b883a 	mov	r5,r19
   256f8:	8009883a 	mov	r4,r16
   256fc:	d8c00615 	stw	r3,24(sp)
   25700:	002be700 	call	2be70 <__pow5mult>
   25704:	d8c00617 	ldw	r3,24(sp)
   25708:	1027883a 	mov	r19,r2
   2570c:	10001e26 	beq	r2,zero,25788 <_strtod_l+0xb28>
   25710:	d9801317 	ldw	r6,76(sp)
   25714:	100b883a 	mov	r5,r2
   25718:	8009883a 	mov	r4,r16
   2571c:	d8c00615 	stw	r3,24(sp)
   25720:	002bc400 	call	2bc40 <__multiply>
   25724:	d8c00617 	ldw	r3,24(sp)
   25728:	10001726 	beq	r2,zero,25788 <_strtod_l+0xb28>
   2572c:	d9401317 	ldw	r5,76(sp)
   25730:	8009883a 	mov	r4,r16
   25734:	d8800f15 	stw	r2,60(sp)
   25738:	d8c00615 	stw	r3,24(sp)
   2573c:	002b8440 	call	2b844 <_Bfree>
   25740:	d8800f17 	ldw	r2,60(sp)
   25744:	d8c00617 	ldw	r3,24(sp)
   25748:	d8801315 	stw	r2,76(sp)
   2574c:	00ff7b0e 	bge	zero,r3,2553c <_strtod_l+0x8dc>
   25750:	d9401317 	ldw	r5,76(sp)
   25754:	180d883a 	mov	r6,r3
   25758:	8009883a 	mov	r4,r16
   2575c:	002bf880 	call	2bf88 <__lshift>
   25760:	d8801315 	stw	r2,76(sp)
   25764:	103f751e 	bne	r2,zero,2553c <_strtod_l+0x8dc>
   25768:	1013883a 	mov	r9,r2
   2576c:	00000706 	br	2578c <_strtod_l+0xb2c>
   25770:	d9800817 	ldw	r6,32(sp)
   25774:	a00b883a 	mov	r5,r20
   25778:	8009883a 	mov	r4,r16
   2577c:	002be700 	call	2be70 <__pow5mult>
   25780:	1029883a 	mov	r20,r2
   25784:	103f6f1e 	bne	r2,zero,25544 <_strtod_l+0x8e4>
   25788:	da401317 	ldw	r9,76(sp)
   2578c:	00800884 	movi	r2,34
   25790:	80800015 	stw	r2,0(r16)
   25794:	002d883a 	mov	r22,zero
   25798:	055ffc34 	movhi	r21,32752
   2579c:	00008806 	br	259c0 <_strtod_l+0xd60>
   257a0:	a00b883a 	mov	r5,r20
   257a4:	b00d883a 	mov	r6,r22
   257a8:	8009883a 	mov	r4,r16
   257ac:	002bf880 	call	2bf88 <__lshift>
   257b0:	1029883a 	mov	r20,r2
   257b4:	103f641e 	bne	r2,zero,25548 <_strtod_l+0x8e8>
   257b8:	003ff306 	br	25788 <_strtod_l+0xb28>
   257bc:	00800044 	movi	r2,1
   257c0:	d8000e15 	stw	zero,56(sp)
   257c4:	d8800c15 	stw	r2,48(sp)
   257c8:	003f4d06 	br	25500 <_strtod_l+0x8a0>
   257cc:	b00b883a 	mov	r5,r22
   257d0:	000d883a 	mov	r6,zero
   257d4:	01cff834 	movhi	r7,16352
   257d8:	e009883a 	mov	r4,fp
   257dc:	00306880 	call	30688 <__muldf3>
   257e0:	1011883a 	mov	r8,r2
   257e4:	d8800c15 	stw	r2,48(sp)
   257e8:	d8800617 	ldw	r2,24(sp)
   257ec:	182d883a 	mov	r22,r3
   257f0:	10001f1e 	bne	r2,zero,25870 <_strtod_l+0xc10>
   257f4:	1a60003c 	xorhi	r9,r3,32768
   257f8:	003f7906 	br	255e0 <_strtod_l+0x980>
   257fc:	d8c00817 	ldw	r3,32(sp)
   25800:	df000517 	ldw	fp,20(sp)
   25804:	188fc83a 	sub	r7,r3,r2
   25808:	003f2c06 	br	254bc <_strtod_l+0x85c>
   2580c:	013ef884 	movi	r4,-1054
   25810:	2085c83a 	sub	r2,r4,r2
   25814:	01000044 	movi	r4,1
   25818:	2084983a 	sll	r2,r4,r2
   2581c:	d8800e15 	stw	r2,56(sp)
   25820:	00800044 	movi	r2,1
   25824:	d8800c15 	stw	r2,48(sp)
   25828:	003f3506 	br	25500 <_strtod_l+0x8a0>
   2582c:	dd801215 	stw	r22,72(sp)
   25830:	0027883a 	mov	r19,zero
   25834:	003dff06 	br	25034 <_strtod_l+0x3d4>
   25838:	01800044 	movi	r6,1
   2583c:	b0c00084 	addi	r3,r22,2
   25840:	d8c01215 	stw	r3,72(sp)
   25844:	b4800087 	ldb	r18,2(r22)
   25848:	003e3d06 	br	25140 <_strtod_l+0x4e0>
   2584c:	90006c26 	beq	r18,zero,25a00 <_strtod_l+0xda0>
   25850:	90800058 	cmpnei	r2,r18,1
   25854:	1000011e 	bne	r2,zero,2585c <_strtod_l+0xbfc>
   25858:	88022226 	beq	r17,zero,260e4 <_strtod_l+0x1484>
   2585c:	0011883a 	mov	r8,zero
   25860:	026ffc34 	movhi	r9,49136
   25864:	d8000c15 	stw	zero,48(sp)
   25868:	058ffc34 	movhi	r22,16368
   2586c:	003f5c06 	br	255e0 <_strtod_l+0x980>
   25870:	1813883a 	mov	r9,r3
   25874:	003f5a06 	br	255e0 <_strtod_l+0x980>
   25878:	00bf2c34 	movhi	r2,64688
   2587c:	88a3883a 	add	r17,r17,r2
   25880:	9009883a 	mov	r4,r18
   25884:	880b883a 	mov	r5,r17
   25888:	da400f15 	stw	r9,60(sp)
   2588c:	da000e15 	stw	r8,56(sp)
   25890:	002c3940 	call	2c394 <__ulp>
   25894:	da000e17 	ldw	r8,56(sp)
   25898:	da400f17 	ldw	r9,60(sp)
   2589c:	100d883a 	mov	r6,r2
   258a0:	4009883a 	mov	r4,r8
   258a4:	480b883a 	mov	r5,r9
   258a8:	180f883a 	mov	r7,r3
   258ac:	00306880 	call	30688 <__muldf3>
   258b0:	900d883a 	mov	r6,r18
   258b4:	1009883a 	mov	r4,r2
   258b8:	180b883a 	mov	r5,r3
   258bc:	880f883a 	mov	r7,r17
   258c0:	00219f00 	call	219f0 <__adddf3>
   258c4:	195ffc2c 	andhi	r5,r3,32752
   258c8:	011f2834 	movhi	r4,31904
   258cc:	1025883a 	mov	r18,r2
   258d0:	29005e36 	bltu	r5,r4,25a4c <_strtod_l+0xdec>
   258d4:	d8c00a17 	ldw	r3,40(sp)
   258d8:	009ffc34 	movhi	r2,32752
   258dc:	10bfffc4 	addi	r2,r2,-1
   258e0:	1880031e 	bne	r3,r2,258f0 <_strtod_l+0xc90>
   258e4:	d8800b17 	ldw	r2,44(sp)
   258e8:	10bfffd8 	cmpnei	r2,r2,-1
   258ec:	103fa626 	beq	r2,zero,25788 <_strtod_l+0xb28>
   258f0:	045ffc34 	movhi	r17,32752
   258f4:	8c7fffc4 	addi	r17,r17,-1
   258f8:	04bfffc4 	movi	r18,-1
   258fc:	003f7006 	br	256c0 <_strtod_l+0xa60>
   25900:	000d883a 	mov	r6,zero
   25904:	003fcd06 	br	2583c <_strtod_l+0xbdc>
   25908:	90c01960 	cmpeqi	r3,r18,101
   2590c:	1800781e 	bne	r3,zero,25af0 <_strtod_l+0xe90>
   25910:	90c01160 	cmpeqi	r3,r18,69
   25914:	1800761e 	bne	r3,zero,25af0 <_strtod_l+0xe90>
   25918:	01400044 	movi	r5,1
   2591c:	003e3106 	br	251e4 <_strtod_l+0x584>
   25920:	df000c17 	ldw	fp,48(sp)
   25924:	b00b883a 	mov	r5,r22
   25928:	da000a15 	stw	r8,40(sp)
   2592c:	e009883a 	mov	r4,fp
   25930:	002ee0c0 	call	2ee0c <__fixdfdi>
   25934:	1009883a 	mov	r4,r2
   25938:	180b883a 	mov	r5,r3
   2593c:	002ef100 	call	2ef10 <__floatdidf>
   25940:	e009883a 	mov	r4,fp
   25944:	b00b883a 	mov	r5,r22
   25948:	100d883a 	mov	r6,r2
   2594c:	180f883a 	mov	r7,r3
   25950:	0030cf80 	call	30cf8 <__subdf3>
   25954:	d9000617 	ldw	r4,24(sp)
   25958:	d9401117 	ldw	r5,68(sp)
   2595c:	da000a17 	ldw	r8,40(sp)
   25960:	2488b03a 	or	r4,r4,r18
   25964:	1039883a 	mov	fp,r2
   25968:	4150703a 	and	r8,r8,r5
   2596c:	2210b03a 	or	r8,r4,r8
   25970:	182d883a 	mov	r22,r3
   25974:	01a52834 	movhi	r6,38048
   25978:	40004526 	beq	r8,zero,25a90 <_strtod_l+0xe30>
   2597c:	01cff834 	movhi	r7,16352
   25980:	318d6544 	addi	r6,r6,13717
   25984:	39ffffc4 	addi	r7,r7,-1
   25988:	1009883a 	mov	r4,r2
   2598c:	180b883a 	mov	r5,r3
   25990:	00305980 	call	30598 <__ledf2>
   25994:	10000716 	blt	r2,zero,259b4 <_strtod_l+0xd54>
   25998:	018d6c34 	movhi	r6,13744
   2599c:	31b94d44 	addi	r6,r6,-6859
   259a0:	01cff834 	movhi	r7,16352
   259a4:	e009883a 	mov	r4,fp
   259a8:	b00b883a 	mov	r5,r22
   259ac:	00304a80 	call	304a8 <__gedf2>
   259b0:	00bf430e 	bge	zero,r2,256c0 <_strtod_l+0xa60>
   259b4:	da401317 	ldw	r9,76(sp)
   259b8:	902d883a 	mov	r22,r18
   259bc:	882b883a 	mov	r21,r17
   259c0:	480b883a 	mov	r5,r9
   259c4:	8009883a 	mov	r4,r16
   259c8:	002b8440 	call	2b844 <_Bfree>
   259cc:	a00b883a 	mov	r5,r20
   259d0:	8009883a 	mov	r4,r16
   259d4:	002b8440 	call	2b844 <_Bfree>
   259d8:	980b883a 	mov	r5,r19
   259dc:	8009883a 	mov	r4,r16
   259e0:	002b8440 	call	2b844 <_Bfree>
   259e4:	d9400717 	ldw	r5,28(sp)
   259e8:	8009883a 	mov	r4,r16
   259ec:	002b8440 	call	2b844 <_Bfree>
   259f0:	b80b883a 	mov	r5,r23
   259f4:	8009883a 	mov	r4,r16
   259f8:	002b8440 	call	2b844 <_Bfree>
   259fc:	003e1206 	br	25248 <_strtod_l+0x5e8>
   25a00:	d8801117 	ldw	r2,68(sp)
   25a04:	8884703a 	and	r2,r17,r2
   25a08:	103f941e 	bne	r2,zero,2585c <_strtod_l+0xbfc>
   25a0c:	000d883a 	mov	r6,zero
   25a10:	01cffc34 	movhi	r7,16368
   25a14:	e009883a 	mov	r4,fp
   25a18:	b00b883a 	mov	r5,r22
   25a1c:	00305980 	call	30598 <__ledf2>
   25a20:	10011c16 	blt	r2,zero,25e94 <_strtod_l+0x1234>
   25a24:	b00b883a 	mov	r5,r22
   25a28:	000d883a 	mov	r6,zero
   25a2c:	01cff834 	movhi	r7,16352
   25a30:	e009883a 	mov	r4,fp
   25a34:	00306880 	call	30688 <__muldf3>
   25a38:	d8800c15 	stw	r2,48(sp)
   25a3c:	182d883a 	mov	r22,r3
   25a40:	1011883a 	mov	r8,r2
   25a44:	1a60003c 	xorhi	r9,r3,32768
   25a48:	003ee506 	br	255e0 <_strtod_l+0x980>
   25a4c:	0440d434 	movhi	r17,848
   25a50:	1c63883a 	add	r17,r3,r17
   25a54:	8811883a 	mov	r8,r17
   25a58:	003f1606 	br	256b4 <_strtod_l+0xa54>
   25a5c:	00800044 	movi	r2,1
   25a60:	d8800415 	stw	r2,16(sp)
   25a64:	1f000044 	addi	fp,r3,1
   25a68:	df001215 	stw	fp,72(sp)
   25a6c:	1cc00047 	ldb	r19,1(r3)
   25a70:	983cd01e 	bne	r19,zero,24db4 <_strtod_l+0x154>
   25a74:	d8800317 	ldw	r2,12(sp)
   25a78:	103cf51e 	bne	r2,zero,24e50 <_strtod_l+0x1f0>
   25a7c:	003cf606 	br	24e58 <_strtod_l+0x1f8>
   25a80:	d8000415 	stw	zero,16(sp)
   25a84:	003ff706 	br	25a64 <_strtod_l+0xe04>
   25a88:	d8000815 	stw	zero,32(sp)
   25a8c:	003e6106 	br	25414 <_strtod_l+0x7b4>
   25a90:	01cff434 	movhi	r7,16336
   25a94:	318d6544 	addi	r6,r6,13717
   25a98:	39ffffc4 	addi	r7,r7,-1
   25a9c:	1009883a 	mov	r4,r2
   25aa0:	180b883a 	mov	r5,r3
   25aa4:	00305980 	call	30598 <__ledf2>
   25aa8:	103f050e 	bge	r2,zero,256c0 <_strtod_l+0xa60>
   25aac:	003fc106 	br	259b4 <_strtod_l+0xd54>
   25ab0:	9d05c83a 	sub	r2,r19,r20
   25ab4:	10bffa90 	cmplti	r2,r2,-22
   25ab8:	103df11e 	bne	r2,zero,25280 <_strtod_l+0x620>
   25abc:	a4c5c83a 	sub	r2,r20,r19
   25ac0:	100690fa 	slli	r3,r2,3
   25ac4:	008000f4 	movhi	r2,3
   25ac8:	10930804 	addi	r2,r2,19488
   25acc:	10c5883a 	add	r2,r2,r3
   25ad0:	11800017 	ldw	r6,0(r2)
   25ad4:	11c00117 	ldw	r7,4(r2)
   25ad8:	9009883a 	mov	r4,r18
   25adc:	880b883a 	mov	r5,r17
   25ae0:	002fbc80 	call	2fbc8 <__divdf3>
   25ae4:	102d883a 	mov	r22,r2
   25ae8:	182b883a 	mov	r21,r3
   25aec:	003dd606 	br	25248 <_strtod_l+0x5e8>
   25af0:	002b883a 	mov	r21,zero
   25af4:	0029883a 	mov	r20,zero
   25af8:	01400044 	movi	r5,1
   25afc:	003cd006 	br	24e40 <_strtod_l+0x1e0>
   25b00:	94801ba0 	cmpeqi	r18,r18,110
   25b04:	903dc21e 	bne	r18,zero,25210 <_strtod_l+0x5b0>
   25b08:	003ccf06 	br	24e48 <_strtod_l+0x1e8>
   25b0c:	b03e3126 	beq	r22,zero,253d4 <_strtod_l+0x774>
   25b10:	05adc83a 	sub	r22,zero,r22
   25b14:	b08003cc 	andi	r2,r22,15
   25b18:	10000d26 	beq	r2,zero,25b50 <_strtod_l+0xef0>
   25b1c:	100490fa 	slli	r2,r2,3
   25b20:	00c000f4 	movhi	r3,3
   25b24:	18d30804 	addi	r3,r3,19488
   25b28:	1885883a 	add	r2,r3,r2
   25b2c:	11800017 	ldw	r6,0(r2)
   25b30:	11c00117 	ldw	r7,4(r2)
   25b34:	9009883a 	mov	r4,r18
   25b38:	880b883a 	mov	r5,r17
   25b3c:	da000515 	stw	r8,20(sp)
   25b40:	002fbc80 	call	2fbc8 <__divdf3>
   25b44:	da000517 	ldw	r8,20(sp)
   25b48:	1025883a 	mov	r18,r2
   25b4c:	1823883a 	mov	r17,r3
   25b50:	b02dd13a 	srai	r22,r22,4
   25b54:	b03e1f26 	beq	r22,zero,253d4 <_strtod_l+0x774>
   25b58:	b0800808 	cmpgei	r2,r22,32
   25b5c:	1000361e 	bne	r2,zero,25c38 <_strtod_l+0xfd8>
   25b60:	b080040c 	andi	r2,r22,16
   25b64:	d8801015 	stw	r2,64(sp)
   25b68:	10000226 	beq	r2,zero,25b74 <_strtod_l+0xf14>
   25b6c:	00801a84 	movi	r2,106
   25b70:	d8801015 	stw	r2,64(sp)
   25b74:	024000f4 	movhi	r9,3
   25b78:	4a524f04 	addi	r9,r9,18748
   25b7c:	880b883a 	mov	r5,r17
   25b80:	dc000615 	stw	r16,24(sp)
   25b84:	9009883a 	mov	r4,r18
   25b88:	b021883a 	mov	r16,r22
   25b8c:	0007883a 	mov	r3,zero
   25b90:	882d883a 	mov	r22,r17
   25b94:	da000515 	stw	r8,20(sp)
   25b98:	4823883a 	mov	r17,r9
   25b9c:	8080004c 	andi	r2,r16,1
   25ba0:	8021d07a 	srai	r16,r16,1
   25ba4:	10000626 	beq	r2,zero,25bc0 <_strtod_l+0xf60>
   25ba8:	89800017 	ldw	r6,0(r17)
   25bac:	89c00117 	ldw	r7,4(r17)
   25bb0:	00306880 	call	30688 <__muldf3>
   25bb4:	180b883a 	mov	r5,r3
   25bb8:	1009883a 	mov	r4,r2
   25bbc:	00c00044 	movi	r3,1
   25bc0:	8c400204 	addi	r17,r17,8
   25bc4:	803ff51e 	bne	r16,zero,25b9c <_strtod_l+0xf3c>
   25bc8:	18c03fcc 	andi	r3,r3,255
   25bcc:	da000517 	ldw	r8,20(sp)
   25bd0:	dc000617 	ldw	r16,24(sp)
   25bd4:	b023883a 	mov	r17,r22
   25bd8:	18000226 	beq	r3,zero,25be4 <_strtod_l+0xf84>
   25bdc:	2025883a 	mov	r18,r4
   25be0:	2823883a 	mov	r17,r5
   25be4:	d8801017 	ldw	r2,64(sp)
   25be8:	10000b26 	beq	r2,zero,25c18 <_strtod_l+0xfb8>
   25bec:	8804d53a 	srli	r2,r17,20
   25bf0:	10c1ffcc 	andi	r3,r2,2047
   25bf4:	00801ac4 	movi	r2,107
   25bf8:	10c5c83a 	sub	r2,r2,r3
   25bfc:	0080060e 	bge	zero,r2,25c18 <_strtod_l+0xfb8>
   25c00:	10c00810 	cmplti	r3,r2,32
   25c04:	18013d1e 	bne	r3,zero,260fc <_strtod_l+0x149c>
   25c08:	10c00d50 	cmplti	r3,r2,53
   25c0c:	0025883a 	mov	r18,zero
   25c10:	18015a1e 	bne	r3,zero,2617c <_strtod_l+0x151c>
   25c14:	0440dc34 	movhi	r17,880
   25c18:	000d883a 	mov	r6,zero
   25c1c:	000f883a 	mov	r7,zero
   25c20:	9009883a 	mov	r4,r18
   25c24:	880b883a 	mov	r5,r17
   25c28:	da000515 	stw	r8,20(sp)
   25c2c:	00304280 	call	30428 <__eqdf2>
   25c30:	da000517 	ldw	r8,20(sp)
   25c34:	103de81e 	bne	r2,zero,253d8 <_strtod_l+0x778>
   25c38:	00800884 	movi	r2,34
   25c3c:	80800015 	stw	r2,0(r16)
   25c40:	002d883a 	mov	r22,zero
   25c44:	002b883a 	mov	r21,zero
   25c48:	003d7f06 	br	25248 <_strtod_l+0x5e8>
   25c4c:	00800884 	movi	r2,34
   25c50:	80800015 	stw	r2,0(r16)
   25c54:	002d883a 	mov	r22,zero
   25c58:	055ffc34 	movhi	r21,32752
   25c5c:	003d7a06 	br	25248 <_strtod_l+0x5e8>
   25c60:	d8800417 	ldw	r2,16(sp)
   25c64:	018000f4 	movhi	r6,3
   25c68:	dd000215 	stw	r20,8(sp)
   25c6c:	d8800115 	stw	r2,4(sp)
   25c70:	d8801304 	addi	r2,sp,76
   25c74:	d8800015 	stw	r2,0(sp)
   25c78:	d9c01404 	addi	r7,sp,80
   25c7c:	31924a04 	addi	r6,r6,18728
   25c80:	d9401204 	addi	r5,sp,72
   25c84:	8009883a 	mov	r4,r16
   25c88:	002a8e00 	call	2a8e0 <__gethex>
   25c8c:	14c001cc 	andi	r19,r2,7
   25c90:	983d6b26 	beq	r19,zero,25240 <_strtod_l+0x5e0>
   25c94:	98c00198 	cmpnei	r3,r19,6
   25c98:	1800351e 	bne	r3,zero,25d70 <_strtod_l+0x1110>
   25c9c:	d8800317 	ldw	r2,12(sp)
   25ca0:	103c6d26 	beq	r2,zero,24e58 <_strtod_l+0x1f8>
   25ca4:	15c00015 	stw	r23,0(r2)
   25ca8:	002d883a 	mov	r22,zero
   25cac:	002b883a 	mov	r21,zero
   25cb0:	003c6b06 	br	24e60 <_strtod_l+0x200>
   25cb4:	902d883a 	mov	r22,r18
   25cb8:	882b883a 	mov	r21,r17
   25cbc:	003d6206 	br	25248 <_strtod_l+0x5e8>
   25cc0:	102f883a 	mov	r23,r2
   25cc4:	18c00248 	cmpgei	r3,r3,9
   25cc8:	183c9826 	beq	r3,zero,24f2c <_strtod_l+0x2cc>
   25ccc:	b8800448 	cmpgei	r2,r23,17
   25cd0:	10008c1e 	bne	r2,zero,25f04 <_strtod_l+0x12a4>
   25cd4:	4a4002a4 	muli	r9,r9,10
   25cd8:	0005883a 	mov	r2,zero
   25cdc:	3253883a 	add	r9,r6,r9
   25ce0:	003c9506 	br	24f38 <_strtod_l+0x2d8>
   25ce4:	a80b883a 	mov	r5,r21
   25ce8:	e009883a 	mov	r4,fp
   25cec:	d9800515 	stw	r6,20(sp)
   25cf0:	002cf540 	call	2cf54 <strncmp>
   25cf4:	d9800517 	ldw	r6,20(sp)
   25cf8:	10005026 	beq	r2,zero,25e3c <_strtod_l+0x11dc>
   25cfc:	002b883a 	mov	r21,zero
   25d00:	0013883a 	mov	r9,zero
   25d04:	0011883a 	mov	r8,zero
   25d08:	002f883a 	mov	r23,zero
   25d0c:	003cc506 	br	25024 <_strtod_l+0x3c4>
   25d10:	98d38810 	cmplti	r3,r19,20000
   25d14:	183d301e 	bne	r3,zero,251d8 <_strtod_l+0x578>
   25d18:	003d2e06 	br	251d4 <_strtod_l+0x574>
   25d1c:	1813883a 	mov	r9,r3
   25d20:	003e4d06 	br	25658 <_strtod_l+0x9f8>
   25d24:	014000f4 	movhi	r5,3
   25d28:	29524104 	addi	r5,r5,18692
   25d2c:	d9001204 	addi	r4,sp,72
   25d30:	002b11c0 	call	2b11c <__match>
   25d34:	103c4426 	beq	r2,zero,24e48 <_strtod_l+0x1e8>
   25d38:	d8801217 	ldw	r2,72(sp)
   25d3c:	014000f4 	movhi	r5,3
   25d40:	29524204 	addi	r5,r5,18696
   25d44:	10bfffc4 	addi	r2,r2,-1
   25d48:	d9001204 	addi	r4,sp,72
   25d4c:	d8801215 	stw	r2,72(sp)
   25d50:	002b11c0 	call	2b11c <__match>
   25d54:	103fbf1e 	bne	r2,zero,25c54 <_strtod_l+0xff4>
   25d58:	d8801217 	ldw	r2,72(sp)
   25d5c:	10800044 	addi	r2,r2,1
   25d60:	d8801215 	stw	r2,72(sp)
   25d64:	003fbb06 	br	25c54 <_strtod_l+0xff4>
   25d68:	0005883a 	mov	r2,zero
   25d6c:	003c6606 	br	24f08 <_strtod_l+0x2a8>
   25d70:	d9801317 	ldw	r6,76(sp)
   25d74:	30000826 	beq	r6,zero,25d98 <_strtod_l+0x1138>
   25d78:	01400d44 	movi	r5,53
   25d7c:	d9001504 	addi	r4,sp,84
   25d80:	d8800515 	stw	r2,20(sp)
   25d84:	002c7700 	call	2c770 <__copybits>
   25d88:	d9401317 	ldw	r5,76(sp)
   25d8c:	8009883a 	mov	r4,r16
   25d90:	002b8440 	call	2b844 <_Bfree>
   25d94:	d8800517 	ldw	r2,20(sp)
   25d98:	98c001e8 	cmpgeui	r3,r19,7
   25d9c:	1800151e 	bne	r3,zero,25df4 <_strtod_l+0x1194>
   25da0:	982690ba 	slli	r19,r19,2
   25da4:	00c000b4 	movhi	r3,2
   25da8:	98c7883a 	add	r3,r19,r3
   25dac:	18d76d17 	ldw	r3,23988(r3)
   25db0:	1800683a 	jmp	r3
   25db4:	00025df4 	movhi	zero,2423
   25db8:	00025dd0 	cmplti	zero,zero,2423
   25dbc:	00025e30 	cmpltui	zero,zero,2424
   25dc0:	00025e24 	muli	zero,zero,2424
   25dc4:	00025e14 	movui	zero,2424
   25dc8:	00025dd0 	cmplti	zero,zero,2423
   25dcc:	00025e08 	cmpgei	zero,zero,2424
   25dd0:	d8c01417 	ldw	r3,80(sp)
   25dd4:	dc401617 	ldw	r17,88(sp)
   25dd8:	013ffc34 	movhi	r4,65520
   25ddc:	18c10cc4 	addi	r3,r3,1075
   25de0:	1806953a 	slli	r3,r3,20
   25de4:	213fffc4 	addi	r4,r4,-1
   25de8:	dc801517 	ldw	r18,84(sp)
   25dec:	8922703a 	and	r17,r17,r4
   25df0:	88e2b03a 	or	r17,r17,r3
   25df4:	1080020c 	andi	r2,r2,8
   25df8:	902d883a 	mov	r22,r18
   25dfc:	103fae26 	beq	r2,zero,25cb8 <_strtod_l+0x1058>
   25e00:	8d600034 	orhi	r21,r17,32768
   25e04:	003d1006 	br	25248 <_strtod_l+0x5e8>
   25e08:	0023883a 	mov	r17,zero
   25e0c:	0025883a 	mov	r18,zero
   25e10:	003ff806 	br	25df4 <_strtod_l+0x1194>
   25e14:	04600034 	movhi	r17,32768
   25e18:	8c7fffc4 	addi	r17,r17,-1
   25e1c:	04bfffc4 	movi	r18,-1
   25e20:	003ff406 	br	25df4 <_strtod_l+0x1194>
   25e24:	045ffc34 	movhi	r17,32752
   25e28:	0025883a 	mov	r18,zero
   25e2c:	003ff106 	br	25df4 <_strtod_l+0x1194>
   25e30:	dc801517 	ldw	r18,84(sp)
   25e34:	dc401617 	ldw	r17,88(sp)
   25e38:	003fee06 	br	25df4 <_strtod_l+0x1194>
   25e3c:	e18d883a 	add	r6,fp,r6
   25e40:	d9801215 	stw	r6,72(sp)
   25e44:	34800007 	ldb	r18,0(r6)
   25e48:	0011883a 	mov	r8,zero
   25e4c:	0013883a 	mov	r9,zero
   25e50:	003c2206 	br	24edc <_strtod_l+0x27c>
   25e54:	d8800917 	ldw	r2,36(sp)
   25e58:	900d883a 	mov	r6,r18
   25e5c:	880f883a 	mov	r7,r17
   25e60:	100690fa 	slli	r3,r2,3
   25e64:	008000f4 	movhi	r2,3
   25e68:	10930804 	addi	r2,r2,19488
   25e6c:	10c5883a 	add	r2,r2,r3
   25e70:	11000017 	ldw	r4,0(r2)
   25e74:	11400117 	ldw	r5,4(r2)
   25e78:	00306880 	call	30688 <__muldf3>
   25e7c:	102d883a 	mov	r22,r2
   25e80:	182b883a 	mov	r21,r3
   25e84:	003cf006 	br	25248 <_strtod_l+0x5e8>
   25e88:	b82b883a 	mov	r21,r23
   25e8c:	0029883a 	mov	r20,zero
   25e90:	003c2c06 	br	24f44 <_strtod_l+0x2e4>
   25e94:	0011883a 	mov	r8,zero
   25e98:	026ff834 	movhi	r9,49120
   25e9c:	d8000c15 	stw	zero,48(sp)
   25ea0:	058ff834 	movhi	r22,16352
   25ea4:	003dce06 	br	255e0 <_strtod_l+0x980>
   25ea8:	008003c4 	movi	r2,15
   25eac:	15efc83a 	sub	r23,r2,r23
   25eb0:	b80490fa 	slli	r2,r23,3
   25eb4:	040000f4 	movhi	r16,3
   25eb8:	84130804 	addi	r16,r16,19488
   25ebc:	8085883a 	add	r2,r16,r2
   25ec0:	11000017 	ldw	r4,0(r2)
   25ec4:	11400117 	ldw	r5,4(r2)
   25ec8:	900d883a 	mov	r6,r18
   25ecc:	880f883a 	mov	r7,r17
   25ed0:	00306880 	call	30688 <__muldf3>
   25ed4:	d9000917 	ldw	r4,36(sp)
   25ed8:	180b883a 	mov	r5,r3
   25edc:	25efc83a 	sub	r23,r4,r23
   25ee0:	b80c90fa 	slli	r6,r23,3
   25ee4:	1009883a 	mov	r4,r2
   25ee8:	81a1883a 	add	r16,r16,r6
   25eec:	81800017 	ldw	r6,0(r16)
   25ef0:	81c00117 	ldw	r7,4(r16)
   25ef4:	00306880 	call	30688 <__muldf3>
   25ef8:	102d883a 	mov	r22,r2
   25efc:	182b883a 	mov	r21,r3
   25f00:	003cd106 	br	25248 <_strtod_l+0x5e8>
   25f04:	0005883a 	mov	r2,zero
   25f08:	003c0b06 	br	24f38 <_strtod_l+0x2d8>
   25f0c:	d9000617 	ldw	r4,24(sp)
   25f10:	00c00434 	movhi	r3,16
   25f14:	18ffffc4 	addi	r3,r3,-1
   25f18:	dd800b17 	ldw	r22,44(sp)
   25f1c:	dd400a17 	ldw	r21,40(sp)
   25f20:	88c4703a 	and	r2,r17,r3
   25f24:	20004926 	beq	r4,zero,2604c <_strtod_l+0x13ec>
   25f28:	10c07826 	beq	r2,r3,2610c <_strtod_l+0x14ac>
   25f2c:	d8800e17 	ldw	r2,56(sp)
   25f30:	10004a26 	beq	r2,zero,2605c <_strtod_l+0x13fc>
   25f34:	1444703a 	and	r2,r2,r17
   25f38:	10000d26 	beq	r2,zero,25f70 <_strtod_l+0x1310>
   25f3c:	d8800617 	ldw	r2,24(sp)
   25f40:	d9801017 	ldw	r6,64(sp)
   25f44:	9009883a 	mov	r4,r18
   25f48:	880b883a 	mov	r5,r17
   25f4c:	10005726 	beq	r2,zero,260ac <_strtod_l+0x144c>
   25f50:	0024bfc0 	call	24bfc <sulp>
   25f54:	100d883a 	mov	r6,r2
   25f58:	180f883a 	mov	r7,r3
   25f5c:	9009883a 	mov	r4,r18
   25f60:	880b883a 	mov	r5,r17
   25f64:	00219f00 	call	219f0 <__adddf3>
   25f68:	102d883a 	mov	r22,r2
   25f6c:	182b883a 	mov	r21,r3
   25f70:	d8801017 	ldw	r2,64(sp)
   25f74:	da401317 	ldw	r9,76(sp)
   25f78:	103e9126 	beq	r2,zero,259c0 <_strtod_l+0xd60>
   25f7c:	b009883a 	mov	r4,r22
   25f80:	a80b883a 	mov	r5,r21
   25f84:	000d883a 	mov	r6,zero
   25f88:	01ce5434 	movhi	r7,14672
   25f8c:	da400515 	stw	r9,20(sp)
   25f90:	00306880 	call	30688 <__muldf3>
   25f94:	102d883a 	mov	r22,r2
   25f98:	1884b03a 	or	r2,r3,r2
   25f9c:	da400517 	ldw	r9,20(sp)
   25fa0:	182b883a 	mov	r21,r3
   25fa4:	103e861e 	bne	r2,zero,259c0 <_strtod_l+0xd60>
   25fa8:	00800884 	movi	r2,34
   25fac:	80800015 	stw	r2,0(r16)
   25fb0:	003e8306 	br	259c0 <_strtod_l+0xd60>
   25fb4:	0440d434 	movhi	r17,848
   25fb8:	1c63883a 	add	r17,r3,r17
   25fbc:	d8001015 	stw	zero,64(sp)
   25fc0:	003d0506 	br	253d8 <_strtod_l+0x778>
   25fc4:	d8800617 	ldw	r2,24(sp)
   25fc8:	dd800b17 	ldw	r22,44(sp)
   25fcc:	dd400a17 	ldw	r21,40(sp)
   25fd0:	14a4b03a 	or	r18,r2,r18
   25fd4:	903fe61e 	bne	r18,zero,25f70 <_strtod_l+0x1310>
   25fd8:	00800434 	movhi	r2,16
   25fdc:	10bfffc4 	addi	r2,r2,-1
   25fe0:	8884703a 	and	r2,r17,r2
   25fe4:	103fe21e 	bne	r2,zero,25f70 <_strtod_l+0x1310>
   25fe8:	8c5ffc2c 	andhi	r17,r17,32752
   25fec:	0081ac34 	movhi	r2,1712
   25ff0:	147fdf2e 	bgeu	r2,r17,25f70 <_strtod_l+0x1310>
   25ff4:	b8800517 	ldw	r2,20(r23)
   25ff8:	1000031e 	bne	r2,zero,26008 <_strtod_l+0x13a8>
   25ffc:	b8800417 	ldw	r2,16(r23)
   26000:	10800090 	cmplti	r2,r2,2
   26004:	103fda1e 	bne	r2,zero,25f70 <_strtod_l+0x1310>
   26008:	b80b883a 	mov	r5,r23
   2600c:	8009883a 	mov	r4,r16
   26010:	01800044 	movi	r6,1
   26014:	002bf880 	call	2bf88 <__lshift>
   26018:	980b883a 	mov	r5,r19
   2601c:	1009883a 	mov	r4,r2
   26020:	102f883a 	mov	r23,r2
   26024:	002c1100 	call	2c110 <__mcmp>
   26028:	00bfd10e 	bge	zero,r2,25f70 <_strtod_l+0x1310>
   2602c:	d8801017 	ldw	r2,64(sp)
   26030:	10004b26 	beq	r2,zero,26160 <_strtod_l+0x1500>
   26034:	0081ac34 	movhi	r2,1712
   26038:	14404916 	blt	r2,r17,26160 <_strtod_l+0x1500>
   2603c:	0080dc34 	movhi	r2,880
   26040:	1440280e 	bge	r2,r17,260e4 <_strtod_l+0x1484>
   26044:	da401317 	ldw	r9,76(sp)
   26048:	003fcc06 	br	25f7c <_strtod_l+0x131c>
   2604c:	1484b03a 	or	r2,r2,r18
   26050:	103fb61e 	bne	r2,zero,25f2c <_strtod_l+0x12cc>
   26054:	8c5ffc2c 	andhi	r17,r17,32752
   26058:	003ff406 	br	2602c <_strtod_l+0x13cc>
   2605c:	d8800c17 	ldw	r2,48(sp)
   26060:	14b8703a 	and	fp,r2,r18
   26064:	e03fc226 	beq	fp,zero,25f70 <_strtod_l+0x1310>
   26068:	003fb406 	br	25f3c <_strtod_l+0x12dc>
   2606c:	008000f4 	movhi	r2,3
   26070:	1092fe04 	addi	r2,r2,19448
   26074:	002d883a 	mov	r22,zero
   26078:	d8800515 	stw	r2,20(sp)
   2607c:	003cbf06 	br	2537c <_strtod_l+0x71c>
   26080:	014000f4 	movhi	r5,3
   26084:	d9801504 	addi	r6,sp,84
   26088:	29524504 	addi	r5,r5,18708
   2608c:	d9001204 	addi	r4,sp,72
   26090:	002b16c0 	call	2b16c <__hexnan>
   26094:	10800158 	cmpnei	r2,r2,5
   26098:	103c661e 	bne	r2,zero,25234 <_strtod_l+0x5d4>
   2609c:	dd401617 	ldw	r21,88(sp)
   260a0:	dd801517 	ldw	r22,84(sp)
   260a4:	ad5ffc34 	orhi	r21,r21,32752
   260a8:	003c6706 	br	25248 <_strtod_l+0x5e8>
   260ac:	0024bfc0 	call	24bfc <sulp>
   260b0:	100d883a 	mov	r6,r2
   260b4:	180f883a 	mov	r7,r3
   260b8:	9009883a 	mov	r4,r18
   260bc:	880b883a 	mov	r5,r17
   260c0:	0030cf80 	call	30cf8 <__subdf3>
   260c4:	000d883a 	mov	r6,zero
   260c8:	000f883a 	mov	r7,zero
   260cc:	1009883a 	mov	r4,r2
   260d0:	180b883a 	mov	r5,r3
   260d4:	102d883a 	mov	r22,r2
   260d8:	182b883a 	mov	r21,r3
   260dc:	00304280 	call	30428 <__eqdf2>
   260e0:	103fa31e 	bne	r2,zero,25f70 <_strtod_l+0x1310>
   260e4:	00800884 	movi	r2,34
   260e8:	da401317 	ldw	r9,76(sp)
   260ec:	80800015 	stw	r2,0(r16)
   260f0:	002d883a 	mov	r22,zero
   260f4:	002b883a 	mov	r21,zero
   260f8:	003e3106 	br	259c0 <_strtod_l+0xd60>
   260fc:	00ffffc4 	movi	r3,-1
   26100:	1884983a 	sll	r2,r3,r2
   26104:	14a4703a 	and	r18,r2,r18
   26108:	003ec306 	br	25c18 <_strtod_l+0xfb8>
   2610c:	d8801017 	ldw	r2,64(sp)
   26110:	10001126 	beq	r2,zero,26158 <_strtod_l+0x14f8>
   26114:	889ffc2c 	andhi	r2,r17,32752
   26118:	00c1a834 	movhi	r3,1696
   2611c:	18800e36 	bltu	r3,r2,26158 <_strtod_l+0x14f8>
   26120:	1004d53a 	srli	r2,r2,20
   26124:	00c01ac4 	movi	r3,107
   26128:	1887c83a 	sub	r3,r3,r2
   2612c:	00bfffc4 	movi	r2,-1
   26130:	10c4983a 	sll	r2,r2,r3
   26134:	90bf7d1e 	bne	r18,r2,25f2c <_strtod_l+0x12cc>
   26138:	009ffc34 	movhi	r2,32752
   2613c:	10bfffc4 	addi	r2,r2,-1
   26140:	88801326 	beq	r17,r2,26190 <_strtod_l+0x1530>
   26144:	8c5ffc2c 	andhi	r17,r17,32752
   26148:	00800434 	movhi	r2,16
   2614c:	002d883a 	mov	r22,zero
   26150:	88ab883a 	add	r21,r17,r2
   26154:	003f8606 	br	25f70 <_strtod_l+0x1310>
   26158:	00bfffc4 	movi	r2,-1
   2615c:	003ff506 	br	26134 <_strtod_l+0x14d4>
   26160:	05400434 	movhi	r21,16
   26164:	00bffc34 	movhi	r2,65520
   26168:	88a3883a 	add	r17,r17,r2
   2616c:	ad7fffc4 	addi	r21,r21,-1
   26170:	05bfffc4 	movi	r22,-1
   26174:	8d6ab03a 	or	r21,r17,r21
   26178:	003f7d06 	br	25f70 <_strtod_l+0x1310>
   2617c:	10bff804 	addi	r2,r2,-32
   26180:	00ffffc4 	movi	r3,-1
   26184:	1884983a 	sll	r2,r3,r2
   26188:	1462703a 	and	r17,r2,r17
   2618c:	003ea206 	br	25c18 <_strtod_l+0xfb8>
   26190:	94bfffd8 	cmpnei	r18,r18,-1
   26194:	903feb1e 	bne	r18,zero,26144 <_strtod_l+0x14e4>
   26198:	003d7b06 	br	25788 <_strtod_l+0xb28>
   2619c:	b807883a 	mov	r3,r23
   261a0:	202f883a 	mov	r23,r4
   261a4:	003ec706 	br	25cc4 <_strtod_l+0x1064>

000261a8 <_strtod_r>:
   261a8:	01c000f4 	movhi	r7,3
   261ac:	39d60f04 	addi	r7,r7,22588
   261b0:	0024c601 	jmpi	24c60 <_strtod_l>

000261b4 <strtod_l>:
   261b4:	00c000f4 	movhi	r3,3
   261b8:	2005883a 	mov	r2,r4
   261bc:	191af817 	ldw	r4,27616(r3)
   261c0:	300f883a 	mov	r7,r6
   261c4:	280d883a 	mov	r6,r5
   261c8:	100b883a 	mov	r5,r2
   261cc:	0024c601 	jmpi	24c60 <_strtod_l>

000261d0 <strtod>:
   261d0:	00c000f4 	movhi	r3,3
   261d4:	2005883a 	mov	r2,r4
   261d8:	191af817 	ldw	r4,27616(r3)
   261dc:	01c000f4 	movhi	r7,3
   261e0:	280d883a 	mov	r6,r5
   261e4:	39d60f04 	addi	r7,r7,22588
   261e8:	100b883a 	mov	r5,r2
   261ec:	0024c601 	jmpi	24c60 <_strtod_l>

000261f0 <strtof_l>:
   261f0:	00c000f4 	movhi	r3,3
   261f4:	2005883a 	mov	r2,r4
   261f8:	191af817 	ldw	r4,27616(r3)
   261fc:	defffa04 	addi	sp,sp,-24
   26200:	300f883a 	mov	r7,r6
   26204:	280d883a 	mov	r6,r5
   26208:	100b883a 	mov	r5,r2
   2620c:	dc400115 	stw	r17,4(sp)
   26210:	dc000015 	stw	r16,0(sp)
   26214:	dfc00515 	stw	ra,20(sp)
   26218:	dd000415 	stw	r20,16(sp)
   2621c:	dcc00315 	stw	r19,12(sp)
   26220:	dc800215 	stw	r18,8(sp)
   26224:	0024c600 	call	24c60 <_strtod_l>
   26228:	100d883a 	mov	r6,r2
   2622c:	180f883a 	mov	r7,r3
   26230:	1009883a 	mov	r4,r2
   26234:	180b883a 	mov	r5,r3
   26238:	1023883a 	mov	r17,r2
   2623c:	1821883a 	mov	r16,r3
   26240:	003162c0 	call	3162c <__unorddf2>
   26244:	10002d1e 	bne	r2,zero,262fc <strtof_l+0x10c>
   26248:	8809883a 	mov	r4,r17
   2624c:	800b883a 	mov	r5,r16
   26250:	04a00034 	movhi	r18,32768
   26254:	00225a00 	call	225a0 <__truncdfsf2>
   26258:	94bfffc4 	addi	r18,r18,-1
   2625c:	90a8703a 	and	r20,r18,r2
   26260:	015fe034 	movhi	r5,32640
   26264:	297fffc4 	addi	r5,r5,-1
   26268:	a009883a 	mov	r4,r20
   2626c:	1027883a 	mov	r19,r2
   26270:	002fb7c0 	call	2fb7c <__unordsf2>
   26274:	1000181e 	bne	r2,zero,262d8 <strtof_l+0xe8>
   26278:	015fe034 	movhi	r5,32640
   2627c:	297fffc4 	addi	r5,r5,-1
   26280:	a009883a 	mov	r4,r20
   26284:	002fabc0 	call	2fabc <__lesf2>
   26288:	0080130e 	bge	zero,r2,262d8 <strtof_l+0xe8>
   2628c:	84a0703a 	and	r16,r16,r18
   26290:	01dffc34 	movhi	r7,32752
   26294:	01bfffc4 	movi	r6,-1
   26298:	39ffffc4 	addi	r7,r7,-1
   2629c:	8809883a 	mov	r4,r17
   262a0:	800b883a 	mov	r5,r16
   262a4:	003162c0 	call	3162c <__unorddf2>
   262a8:	1000071e 	bne	r2,zero,262c8 <strtof_l+0xd8>
   262ac:	01dffc34 	movhi	r7,32752
   262b0:	01bfffc4 	movi	r6,-1
   262b4:	39ffffc4 	addi	r7,r7,-1
   262b8:	8809883a 	mov	r4,r17
   262bc:	800b883a 	mov	r5,r16
   262c0:	00305980 	call	30598 <__ledf2>
   262c4:	00800416 	blt	zero,r2,262d8 <strtof_l+0xe8>
   262c8:	008000f4 	movhi	r2,3
   262cc:	109af817 	ldw	r2,27616(r2)
   262d0:	00c00884 	movi	r3,34
   262d4:	10c00015 	stw	r3,0(r2)
   262d8:	9805883a 	mov	r2,r19
   262dc:	dfc00517 	ldw	ra,20(sp)
   262e0:	dd000417 	ldw	r20,16(sp)
   262e4:	dcc00317 	ldw	r19,12(sp)
   262e8:	dc800217 	ldw	r18,8(sp)
   262ec:	dc400117 	ldw	r17,4(sp)
   262f0:	dc000017 	ldw	r16,0(sp)
   262f4:	dec00604 	addi	sp,sp,24
   262f8:	f800283a 	ret
   262fc:	8000020e 	bge	r16,zero,26308 <strtof_l+0x118>
   26300:	04fff034 	movhi	r19,65472
   26304:	003ff406 	br	262d8 <strtof_l+0xe8>
   26308:	04dff034 	movhi	r19,32704
   2630c:	003ff206 	br	262d8 <strtof_l+0xe8>

00026310 <strtof>:
   26310:	00c000f4 	movhi	r3,3
   26314:	2005883a 	mov	r2,r4
   26318:	191af817 	ldw	r4,27616(r3)
   2631c:	01c000f4 	movhi	r7,3
   26320:	defff904 	addi	sp,sp,-28
   26324:	280d883a 	mov	r6,r5
   26328:	39d60f04 	addi	r7,r7,22588
   2632c:	100b883a 	mov	r5,r2
   26330:	dc400115 	stw	r17,4(sp)
   26334:	dc000015 	stw	r16,0(sp)
   26338:	dfc00615 	stw	ra,24(sp)
   2633c:	dd400515 	stw	r21,20(sp)
   26340:	dd000415 	stw	r20,16(sp)
   26344:	dcc00315 	stw	r19,12(sp)
   26348:	dc800215 	stw	r18,8(sp)
   2634c:	0024c600 	call	24c60 <_strtod_l>
   26350:	100d883a 	mov	r6,r2
   26354:	180f883a 	mov	r7,r3
   26358:	1009883a 	mov	r4,r2
   2635c:	180b883a 	mov	r5,r3
   26360:	1021883a 	mov	r16,r2
   26364:	1823883a 	mov	r17,r3
   26368:	003162c0 	call	3162c <__unorddf2>
   2636c:	10003a1e 	bne	r2,zero,26458 <strtof+0x148>
   26370:	8009883a 	mov	r4,r16
   26374:	880b883a 	mov	r5,r17
   26378:	04a00034 	movhi	r18,32768
   2637c:	00225a00 	call	225a0 <__truncdfsf2>
   26380:	94bfffc4 	addi	r18,r18,-1
   26384:	90a8703a 	and	r20,r18,r2
   26388:	015fe034 	movhi	r5,32640
   2638c:	297fffc4 	addi	r5,r5,-1
   26390:	a009883a 	mov	r4,r20
   26394:	1027883a 	mov	r19,r2
   26398:	002fb7c0 	call	2fb7c <__unordsf2>
   2639c:	982b883a 	mov	r21,r19
   263a0:	1000221e 	bne	r2,zero,2642c <strtof+0x11c>
   263a4:	015fe034 	movhi	r5,32640
   263a8:	297fffc4 	addi	r5,r5,-1
   263ac:	a009883a 	mov	r4,r20
   263b0:	002fabc0 	call	2fabc <__lesf2>
   263b4:	00801d0e 	bge	zero,r2,2642c <strtof+0x11c>
   263b8:	8ca4703a 	and	r18,r17,r18
   263bc:	01dffc34 	movhi	r7,32752
   263c0:	01bfffc4 	movi	r6,-1
   263c4:	39ffffc4 	addi	r7,r7,-1
   263c8:	8009883a 	mov	r4,r16
   263cc:	900b883a 	mov	r5,r18
   263d0:	003162c0 	call	3162c <__unorddf2>
   263d4:	1000071e 	bne	r2,zero,263f4 <strtof+0xe4>
   263d8:	01dffc34 	movhi	r7,32752
   263dc:	01bfffc4 	movi	r6,-1
   263e0:	39ffffc4 	addi	r7,r7,-1
   263e4:	8009883a 	mov	r4,r16
   263e8:	900b883a 	mov	r5,r18
   263ec:	00305980 	call	30598 <__ledf2>
   263f0:	00800e16 	blt	zero,r2,2642c <strtof+0x11c>
   263f4:	008000f4 	movhi	r2,3
   263f8:	109af817 	ldw	r2,27616(r2)
   263fc:	00c00884 	movi	r3,34
   26400:	10c00015 	stw	r3,0(r2)
   26404:	a805883a 	mov	r2,r21
   26408:	dfc00617 	ldw	ra,24(sp)
   2640c:	dd400517 	ldw	r21,20(sp)
   26410:	dd000417 	ldw	r20,16(sp)
   26414:	dcc00317 	ldw	r19,12(sp)
   26418:	dc800217 	ldw	r18,8(sp)
   2641c:	dc400117 	ldw	r17,4(sp)
   26420:	dc000017 	ldw	r16,0(sp)
   26424:	dec00704 	addi	sp,sp,28
   26428:	f800283a 	ret
   2642c:	000b883a 	mov	r5,zero
   26430:	9809883a 	mov	r4,r19
   26434:	002fa440 	call	2fa44 <__eqsf2>
   26438:	103ff21e 	bne	r2,zero,26404 <strtof+0xf4>
   2643c:	000d883a 	mov	r6,zero
   26440:	000f883a 	mov	r7,zero
   26444:	8009883a 	mov	r4,r16
   26448:	880b883a 	mov	r5,r17
   2644c:	00304280 	call	30428 <__eqdf2>
   26450:	103fec26 	beq	r2,zero,26404 <strtof+0xf4>
   26454:	003fe706 	br	263f4 <strtof+0xe4>
   26458:	8800020e 	bge	r17,zero,26464 <strtof+0x154>
   2645c:	057ff034 	movhi	r21,65472
   26460:	003fe806 	br	26404 <strtof+0xf4>
   26464:	055ff034 	movhi	r21,32704
   26468:	003fe606 	br	26404 <strtof+0xf4>

0002646c <___vfprintf_internal_r>:
   2646c:	deffbf04 	addi	sp,sp,-260
   26470:	dfc04015 	stw	ra,256(sp)
   26474:	dd803d15 	stw	r22,244(sp)
   26478:	dcc03a15 	stw	r19,232(sp)
   2647c:	dc803915 	stw	r18,228(sp)
   26480:	2027883a 	mov	r19,r4
   26484:	2825883a 	mov	r18,r5
   26488:	302d883a 	mov	r22,r6
   2648c:	d9c00615 	stw	r7,24(sp)
   26490:	df003f15 	stw	fp,252(sp)
   26494:	ddc03e15 	stw	r23,248(sp)
   26498:	dd403c15 	stw	r21,240(sp)
   2649c:	dd003b15 	stw	r20,236(sp)
   264a0:	dc403815 	stw	r17,224(sp)
   264a4:	dc003715 	stw	r16,220(sp)
   264a8:	002b4d40 	call	2b4d4 <_localeconv_r>
   264ac:	10800017 	ldw	r2,0(r2)
   264b0:	1009883a 	mov	r4,r2
   264b4:	d8800d15 	stw	r2,52(sp)
   264b8:	002cebc0 	call	2cebc <strlen>
   264bc:	d8800b15 	stw	r2,44(sp)
   264c0:	98000226 	beq	r19,zero,264cc <___vfprintf_internal_r+0x60>
   264c4:	98800e17 	ldw	r2,56(r19)
   264c8:	1001d526 	beq	r2,zero,26c20 <___vfprintf_internal_r+0x7b4>
   264cc:	9080030b 	ldhu	r2,12(r18)
   264d0:	10c8000c 	andi	r3,r2,8192
   264d4:	1800061e 	bne	r3,zero,264f0 <___vfprintf_internal_r+0x84>
   264d8:	90c01917 	ldw	r3,100(r18)
   264dc:	0137ffc4 	movi	r4,-8193
   264e0:	10880014 	ori	r2,r2,8192
   264e4:	1906703a 	and	r3,r3,r4
   264e8:	9080030d 	sth	r2,12(r18)
   264ec:	90c01915 	stw	r3,100(r18)
   264f0:	10c0020c 	andi	r3,r2,8
   264f4:	1800fa26 	beq	r3,zero,268e0 <___vfprintf_internal_r+0x474>
   264f8:	90c00417 	ldw	r3,16(r18)
   264fc:	1800f826 	beq	r3,zero,268e0 <___vfprintf_internal_r+0x474>
   26500:	1080068c 	andi	r2,r2,26
   26504:	10800298 	cmpnei	r2,r2,10
   26508:	1000fd26 	beq	r2,zero,26900 <___vfprintf_internal_r+0x494>
   2650c:	d8802704 	addi	r2,sp,156
   26510:	b02f883a 	mov	r23,r22
   26514:	d8801a15 	stw	r2,104(sp)
   26518:	d8001c15 	stw	zero,112(sp)
   2651c:	d8001b15 	stw	zero,108(sp)
   26520:	d8000815 	stw	zero,32(sp)
   26524:	d8000915 	stw	zero,36(sp)
   26528:	d8000a15 	stw	zero,40(sp)
   2652c:	d8000c15 	stw	zero,48(sp)
   26530:	d8001015 	stw	zero,64(sp)
   26534:	d8000515 	stw	zero,20(sp)
   26538:	102d883a 	mov	r22,r2
   2653c:	b8800007 	ldb	r2,0(r23)
   26540:	1000d526 	beq	r2,zero,26898 <___vfprintf_internal_r+0x42c>
   26544:	b821883a 	mov	r16,r23
   26548:	00000306 	br	26558 <___vfprintf_internal_r+0xec>
   2654c:	80800047 	ldb	r2,1(r16)
   26550:	84000044 	addi	r16,r16,1
   26554:	10011726 	beq	r2,zero,269b4 <___vfprintf_internal_r+0x548>
   26558:	10800958 	cmpnei	r2,r2,37
   2655c:	103ffb1e 	bne	r2,zero,2654c <___vfprintf_internal_r+0xe0>
   26560:	85e3c83a 	sub	r17,r16,r23
   26564:	85c1151e 	bne	r16,r23,269bc <___vfprintf_internal_r+0x550>
   26568:	80800003 	ldbu	r2,0(r16)
   2656c:	10803fcc 	andi	r2,r2,255
   26570:	1080201c 	xori	r2,r2,128
   26574:	10bfe004 	addi	r2,r2,-128
   26578:	1000c726 	beq	r2,zero,26898 <___vfprintf_internal_r+0x42c>
   2657c:	82c00047 	ldb	r11,1(r16)
   26580:	85c00044 	addi	r23,r16,1
   26584:	d8001345 	stb	zero,77(sp)
   26588:	0009883a 	mov	r4,zero
   2658c:	000b883a 	mov	r5,zero
   26590:	023fffc4 	movi	r8,-1
   26594:	0021883a 	mov	r16,zero
   26598:	0019883a 	mov	r12,zero
   2659c:	bdc00044 	addi	r23,r23,1
   265a0:	5839883a 	mov	fp,r11
   265a4:	e0bff804 	addi	r2,fp,-32
   265a8:	10c01668 	cmpgeui	r3,r2,89
   265ac:	18006a1e 	bne	r3,zero,26758 <___vfprintf_internal_r+0x2ec>
   265b0:	100490ba 	slli	r2,r2,2
   265b4:	00c000b4 	movhi	r3,2
   265b8:	10c7883a 	add	r3,r2,r3
   265bc:	18997117 	ldw	r2,26052(r3)
   265c0:	1000683a 	jmp	r2
   265c4:	00026fa0 	cmpeqi	zero,zero,2494
   265c8:	00026758 	cmpnei	zero,zero,2461
   265cc:	00026758 	cmpnei	zero,zero,2461
   265d0:	00026f94 	movui	zero,2494
   265d4:	00026758 	cmpnei	zero,zero,2461
   265d8:	00026758 	cmpnei	zero,zero,2461
   265dc:	00026758 	cmpnei	zero,zero,2461
   265e0:	00026758 	cmpnei	zero,zero,2461
   265e4:	00026758 	cmpnei	zero,zero,2461
   265e8:	00026758 	cmpnei	zero,zero,2461
   265ec:	00026f6c 	andhi	zero,zero,2493
   265f0:	00026f5c 	xori	zero,zero,2493
   265f4:	00026758 	cmpnei	zero,zero,2461
   265f8:	00026f44 	movi	zero,2493
   265fc:	00026f00 	call	26f0 <__alt_mem_onchip_memory-0x1d910>
   26600:	00026758 	cmpnei	zero,zero,2461
   26604:	00026ef4 	movhi	zero,2491
   26608:	00026728 	cmpgeui	zero,zero,2460
   2660c:	00026728 	cmpgeui	zero,zero,2460
   26610:	00026728 	cmpgeui	zero,zero,2460
   26614:	00026728 	cmpgeui	zero,zero,2460
   26618:	00026728 	cmpgeui	zero,zero,2460
   2661c:	00026728 	cmpgeui	zero,zero,2460
   26620:	00026728 	cmpgeui	zero,zero,2460
   26624:	00026728 	cmpgeui	zero,zero,2460
   26628:	00026728 	cmpgeui	zero,zero,2460
   2662c:	00026758 	cmpnei	zero,zero,2461
   26630:	00026758 	cmpnei	zero,zero,2461
   26634:	00026758 	cmpnei	zero,zero,2461
   26638:	00026758 	cmpnei	zero,zero,2461
   2663c:	00026758 	cmpnei	zero,zero,2461
   26640:	00026758 	cmpnei	zero,zero,2461
   26644:	00026758 	cmpnei	zero,zero,2461
   26648:	00026758 	cmpnei	zero,zero,2461
   2664c:	00026758 	cmpnei	zero,zero,2461
   26650:	00026758 	cmpnei	zero,zero,2461
   26654:	00026de8 	cmpgeui	zero,zero,2487
   26658:	00026a18 	cmpnei	zero,zero,2472
   2665c:	00026758 	cmpnei	zero,zero,2461
   26660:	00026a18 	cmpnei	zero,zero,2472
   26664:	00026758 	cmpnei	zero,zero,2461
   26668:	00026758 	cmpnei	zero,zero,2461
   2666c:	00026758 	cmpnei	zero,zero,2461
   26670:	00026758 	cmpnei	zero,zero,2461
   26674:	00026fcc 	andi	zero,zero,2495
   26678:	00026758 	cmpnei	zero,zero,2461
   2667c:	00026758 	cmpnei	zero,zero,2461
   26680:	0002694c 	andi	zero,zero,2469
   26684:	00026758 	cmpnei	zero,zero,2461
   26688:	00026758 	cmpnei	zero,zero,2461
   2668c:	00026758 	cmpnei	zero,zero,2461
   26690:	00026758 	cmpnei	zero,zero,2461
   26694:	00026758 	cmpnei	zero,zero,2461
   26698:	00026924 	muli	zero,zero,2468
   2669c:	00026758 	cmpnei	zero,zero,2461
   266a0:	00026758 	cmpnei	zero,zero,2461
   266a4:	00027000 	call	2700 <__alt_mem_onchip_memory-0x1d900>
   266a8:	00026758 	cmpnei	zero,zero,2461
   266ac:	00026758 	cmpnei	zero,zero,2461
   266b0:	00026758 	cmpnei	zero,zero,2461
   266b4:	00026758 	cmpnei	zero,zero,2461
   266b8:	00026758 	cmpnei	zero,zero,2461
   266bc:	00026758 	cmpnei	zero,zero,2461
   266c0:	00026758 	cmpnei	zero,zero,2461
   266c4:	00026758 	cmpnei	zero,zero,2461
   266c8:	00026758 	cmpnei	zero,zero,2461
   266cc:	00026758 	cmpnei	zero,zero,2461
   266d0:	00026fd8 	cmpnei	zero,zero,2495
   266d4:	00026c2c 	andhi	zero,zero,2480
   266d8:	00026a18 	cmpnei	zero,zero,2472
   266dc:	00026a18 	cmpnei	zero,zero,2472
   266e0:	00026a18 	cmpnei	zero,zero,2472
   266e4:	00026ca0 	cmpeqi	zero,zero,2482
   266e8:	00026c2c 	andhi	zero,zero,2480
   266ec:	00026758 	cmpnei	zero,zero,2461
   266f0:	00026758 	cmpnei	zero,zero,2461
   266f4:	00026dd4 	movui	zero,2487
   266f8:	00026758 	cmpnei	zero,zero,2461
   266fc:	00026d98 	cmpnei	zero,zero,2486
   26700:	00026950 	cmplti	zero,zero,2469
   26704:	00026d58 	cmpnei	zero,zero,2485
   26708:	00026d4c 	andi	zero,zero,2485
   2670c:	00026758 	cmpnei	zero,zero,2461
   26710:	00026cf4 	movhi	zero,2483
   26714:	00026758 	cmpnei	zero,zero,2461
   26718:	00026928 	cmpgeui	zero,zero,2468
   2671c:	00026758 	cmpnei	zero,zero,2461
   26720:	00026758 	cmpnei	zero,zero,2461
   26724:	00026cac 	andhi	zero,zero,2482
   26728:	0021883a 	mov	r16,zero
   2672c:	e0bff404 	addi	r2,fp,-48
   26730:	bf000007 	ldb	fp,0(r23)
   26734:	840002a4 	muli	r16,r16,10
   26738:	bdc00044 	addi	r23,r23,1
   2673c:	1421883a 	add	r16,r2,r16
   26740:	e0bff404 	addi	r2,fp,-48
   26744:	10c002b0 	cmpltui	r3,r2,10
   26748:	183ff91e 	bne	r3,zero,26730 <___vfprintf_internal_r+0x2c4>
   2674c:	e0bff804 	addi	r2,fp,-32
   26750:	10c01668 	cmpgeui	r3,r2,89
   26754:	183f9626 	beq	r3,zero,265b0 <___vfprintf_internal_r+0x144>
   26758:	21003fcc 	andi	r4,r4,255
   2675c:	20068d1e 	bne	r4,zero,28194 <___vfprintf_internal_r+0x1d28>
   26760:	e0004d26 	beq	fp,zero,26898 <___vfprintf_internal_r+0x42c>
   26764:	df001d05 	stb	fp,116(sp)
   26768:	d8001345 	stb	zero,77(sp)
   2676c:	05000044 	movi	r20,1
   26770:	05400044 	movi	r21,1
   26774:	dc401d04 	addi	r17,sp,116
   26778:	db000415 	stw	r12,16(sp)
   2677c:	0011883a 	mov	r8,zero
   26780:	d8000715 	stw	zero,28(sp)
   26784:	d8800417 	ldw	r2,16(sp)
   26788:	1380008c 	andi	r14,r2,2
   2678c:	70000126 	beq	r14,zero,26794 <___vfprintf_internal_r+0x328>
   26790:	a5000084 	addi	r20,r20,2
   26794:	d8800417 	ldw	r2,16(sp)
   26798:	d8c01c17 	ldw	r3,112(sp)
   2679c:	1340210c 	andi	r13,r2,132
   267a0:	6800021e 	bne	r13,zero,267ac <___vfprintf_internal_r+0x340>
   267a4:	850fc83a 	sub	r7,r16,r20
   267a8:	01c35e16 	blt	zero,r7,27524 <___vfprintf_internal_r+0x10b8>
   267ac:	d8801347 	ldb	r2,77(sp)
   267b0:	10000c26 	beq	r2,zero,267e4 <___vfprintf_internal_r+0x378>
   267b4:	d8801b17 	ldw	r2,108(sp)
   267b8:	d9001344 	addi	r4,sp,77
   267bc:	18c00044 	addi	r3,r3,1
   267c0:	10800044 	addi	r2,r2,1
   267c4:	b1000015 	stw	r4,0(r22)
   267c8:	01000044 	movi	r4,1
   267cc:	d8801b15 	stw	r2,108(sp)
   267d0:	b1000115 	stw	r4,4(r22)
   267d4:	d8c01c15 	stw	r3,112(sp)
   267d8:	10800208 	cmpgei	r2,r2,8
   267dc:	10039e1e 	bne	r2,zero,27658 <___vfprintf_internal_r+0x11ec>
   267e0:	b5800204 	addi	r22,r22,8
   267e4:	70000c26 	beq	r14,zero,26818 <___vfprintf_internal_r+0x3ac>
   267e8:	d8801b17 	ldw	r2,108(sp)
   267ec:	d9001384 	addi	r4,sp,78
   267f0:	18c00084 	addi	r3,r3,2
   267f4:	10800044 	addi	r2,r2,1
   267f8:	b1000015 	stw	r4,0(r22)
   267fc:	01000084 	movi	r4,2
   26800:	d8801b15 	stw	r2,108(sp)
   26804:	b1000115 	stw	r4,4(r22)
   26808:	d8c01c15 	stw	r3,112(sp)
   2680c:	10800208 	cmpgei	r2,r2,8
   26810:	1003851e 	bne	r2,zero,27628 <___vfprintf_internal_r+0x11bc>
   26814:	b5800204 	addi	r22,r22,8
   26818:	6b402018 	cmpnei	r13,r13,128
   2681c:	68025026 	beq	r13,zero,27160 <___vfprintf_internal_r+0xcf4>
   26820:	4551c83a 	sub	r8,r8,r21
   26824:	02028816 	blt	zero,r8,27248 <___vfprintf_internal_r+0xddc>
   26828:	d8800417 	ldw	r2,16(sp)
   2682c:	1080400c 	andi	r2,r2,256
   26830:	1002051e 	bne	r2,zero,27048 <___vfprintf_internal_r+0xbdc>
   26834:	d8801b17 	ldw	r2,108(sp)
   26838:	1d47883a 	add	r3,r3,r21
   2683c:	b4400015 	stw	r17,0(r22)
   26840:	10800044 	addi	r2,r2,1
   26844:	b5400115 	stw	r21,4(r22)
   26848:	d8801b15 	stw	r2,108(sp)
   2684c:	d8c01c15 	stw	r3,112(sp)
   26850:	10800208 	cmpgei	r2,r2,8
   26854:	1002ec1e 	bne	r2,zero,27408 <___vfprintf_internal_r+0xf9c>
   26858:	b5800204 	addi	r22,r22,8
   2685c:	d8800417 	ldw	r2,16(sp)
   26860:	1440010c 	andi	r17,r2,4
   26864:	88000226 	beq	r17,zero,26870 <___vfprintf_internal_r+0x404>
   26868:	8523c83a 	sub	r17,r16,r20
   2686c:	0440bd16 	blt	zero,r17,26b64 <___vfprintf_internal_r+0x6f8>
   26870:	8500010e 	bge	r16,r20,26878 <___vfprintf_internal_r+0x40c>
   26874:	a021883a 	mov	r16,r20
   26878:	d8800517 	ldw	r2,20(sp)
   2687c:	1405883a 	add	r2,r2,r16
   26880:	d8800515 	stw	r2,20(sp)
   26884:	1802b71e 	bne	r3,zero,27364 <___vfprintf_internal_r+0xef8>
   26888:	b8800007 	ldb	r2,0(r23)
   2688c:	d8001b15 	stw	zero,108(sp)
   26890:	dd802704 	addi	r22,sp,156
   26894:	103f2b1e 	bne	r2,zero,26544 <___vfprintf_internal_r+0xd8>
   26898:	d8801c17 	ldw	r2,112(sp)
   2689c:	1006381e 	bne	r2,zero,28180 <___vfprintf_internal_r+0x1d14>
   268a0:	9080030b 	ldhu	r2,12(r18)
   268a4:	1080100c 	andi	r2,r2,64
   268a8:	1006c71e 	bne	r2,zero,283c8 <___vfprintf_internal_r+0x1f5c>
   268ac:	d8800517 	ldw	r2,20(sp)
   268b0:	dfc04017 	ldw	ra,256(sp)
   268b4:	df003f17 	ldw	fp,252(sp)
   268b8:	ddc03e17 	ldw	r23,248(sp)
   268bc:	dd803d17 	ldw	r22,244(sp)
   268c0:	dd403c17 	ldw	r21,240(sp)
   268c4:	dd003b17 	ldw	r20,236(sp)
   268c8:	dcc03a17 	ldw	r19,232(sp)
   268cc:	dc803917 	ldw	r18,228(sp)
   268d0:	dc403817 	ldw	r17,224(sp)
   268d4:	dc003717 	ldw	r16,220(sp)
   268d8:	dec04104 	addi	sp,sp,260
   268dc:	f800283a 	ret
   268e0:	900b883a 	mov	r5,r18
   268e4:	9809883a 	mov	r4,r19
   268e8:	00286880 	call	28688 <__swsetup_r>
   268ec:	1006b61e 	bne	r2,zero,283c8 <___vfprintf_internal_r+0x1f5c>
   268f0:	9080030b 	ldhu	r2,12(r18)
   268f4:	1080068c 	andi	r2,r2,26
   268f8:	10800298 	cmpnei	r2,r2,10
   268fc:	103f031e 	bne	r2,zero,2650c <___vfprintf_internal_r+0xa0>
   26900:	9080038f 	ldh	r2,14(r18)
   26904:	103f0116 	blt	r2,zero,2650c <___vfprintf_internal_r+0xa0>
   26908:	d9c00617 	ldw	r7,24(sp)
   2690c:	b00d883a 	mov	r6,r22
   26910:	900b883a 	mov	r5,r18
   26914:	9809883a 	mov	r4,r19
   26918:	00285640 	call	28564 <__sbprintf>
   2691c:	d8800515 	stw	r2,20(sp)
   26920:	003fe206 	br	268ac <___vfprintf_internal_r+0x440>
   26924:	63000414 	ori	r12,r12,16
   26928:	6080080c 	andi	r2,r12,32
   2692c:	10008126 	beq	r2,zero,26b34 <___vfprintf_internal_r+0x6c8>
   26930:	d8c00617 	ldw	r3,24(sp)
   26934:	00800044 	movi	r2,1
   26938:	1d000017 	ldw	r20,0(r3)
   2693c:	1d400117 	ldw	r21,4(r3)
   26940:	18c00204 	addi	r3,r3,8
   26944:	d8c00615 	stw	r3,24(sp)
   26948:	00000906 	br	26970 <___vfprintf_internal_r+0x504>
   2694c:	63000414 	ori	r12,r12,16
   26950:	6080080c 	andi	r2,r12,32
   26954:	10006b26 	beq	r2,zero,26b04 <___vfprintf_internal_r+0x698>
   26958:	d8c00617 	ldw	r3,24(sp)
   2695c:	0005883a 	mov	r2,zero
   26960:	1d000017 	ldw	r20,0(r3)
   26964:	1d400117 	ldw	r21,4(r3)
   26968:	18c00204 	addi	r3,r3,8
   2696c:	d8c00615 	stw	r3,24(sp)
   26970:	d8001345 	stb	zero,77(sp)
   26974:	40ffffe0 	cmpeqi	r3,r8,-1
   26978:	001b883a 	mov	r13,zero
   2697c:	1801351e 	bne	r3,zero,26e54 <___vfprintf_internal_r+0x9e8>
   26980:	047fdfc4 	movi	r17,-129
   26984:	6448703a 	and	r4,r12,r17
   26988:	a546b03a 	or	r3,r20,r21
   2698c:	d9000415 	stw	r4,16(sp)
   26990:	1802e21e 	bne	r3,zero,2751c <___vfprintf_internal_r+0x10b0>
   26994:	40025d1e 	bne	r8,zero,2730c <___vfprintf_internal_r+0xea0>
   26998:	1003a41e 	bne	r2,zero,2782c <___vfprintf_internal_r+0x13c0>
   2699c:	6540004c 	andi	r21,r12,1
   269a0:	a803d226 	beq	r21,zero,278ec <___vfprintf_internal_r+0x1480>
   269a4:	00800c04 	movi	r2,48
   269a8:	d88026c5 	stb	r2,155(sp)
   269ac:	dc4026c4 	addi	r17,sp,155
   269b0:	00014606 	br	26ecc <___vfprintf_internal_r+0xa60>
   269b4:	85e3c83a 	sub	r17,r16,r23
   269b8:	85ffb726 	beq	r16,r23,26898 <___vfprintf_internal_r+0x42c>
   269bc:	d8c01c17 	ldw	r3,112(sp)
   269c0:	d8801b17 	ldw	r2,108(sp)
   269c4:	b5c00015 	stw	r23,0(r22)
   269c8:	1c47883a 	add	r3,r3,r17
   269cc:	10800044 	addi	r2,r2,1
   269d0:	d8801b15 	stw	r2,108(sp)
   269d4:	b4400115 	stw	r17,4(r22)
   269d8:	d8c01c15 	stw	r3,112(sp)
   269dc:	10800208 	cmpgei	r2,r2,8
   269e0:	1000061e 	bne	r2,zero,269fc <___vfprintf_internal_r+0x590>
   269e4:	b5800204 	addi	r22,r22,8
   269e8:	d8c00517 	ldw	r3,20(sp)
   269ec:	80800003 	ldbu	r2,0(r16)
   269f0:	1c47883a 	add	r3,r3,r17
   269f4:	d8c00515 	stw	r3,20(sp)
   269f8:	003edc06 	br	2656c <___vfprintf_internal_r+0x100>
   269fc:	d9801a04 	addi	r6,sp,104
   26a00:	900b883a 	mov	r5,r18
   26a04:	9809883a 	mov	r4,r19
   26a08:	002d10c0 	call	2d10c <__sprint_r>
   26a0c:	103fa41e 	bne	r2,zero,268a0 <___vfprintf_internal_r+0x434>
   26a10:	dd802704 	addi	r22,sp,156
   26a14:	003ff406 	br	269e8 <___vfprintf_internal_r+0x57c>
   26a18:	21003fcc 	andi	r4,r4,255
   26a1c:	2006681e 	bne	r4,zero,283c0 <___vfprintf_internal_r+0x1f54>
   26a20:	d8c00617 	ldw	r3,24(sp)
   26a24:	6080020c 	andi	r2,r12,8
   26a28:	19000204 	addi	r4,r3,8
   26a2c:	d9000e15 	stw	r4,56(sp)
   26a30:	1003ce1e 	bne	r2,zero,2796c <___vfprintf_internal_r+0x1500>
   26a34:	d8800617 	ldw	r2,24(sp)
   26a38:	10c00017 	ldw	r3,0(r2)
   26a3c:	10800117 	ldw	r2,4(r2)
   26a40:	d8c00915 	stw	r3,36(sp)
   26a44:	d8800a15 	stw	r2,40(sp)
   26a48:	dd400a17 	ldw	r21,40(sp)
   26a4c:	dd000917 	ldw	r20,36(sp)
   26a50:	00a00034 	movhi	r2,32768
   26a54:	10bfffc4 	addi	r2,r2,-1
   26a58:	a8a2703a 	and	r17,r21,r2
   26a5c:	01dffc34 	movhi	r7,32752
   26a60:	01bfffc4 	movi	r6,-1
   26a64:	39ffffc4 	addi	r7,r7,-1
   26a68:	a009883a 	mov	r4,r20
   26a6c:	880b883a 	mov	r5,r17
   26a70:	da000615 	stw	r8,24(sp)
   26a74:	db000415 	stw	r12,16(sp)
   26a78:	003162c0 	call	3162c <__unorddf2>
   26a7c:	db000417 	ldw	r12,16(sp)
   26a80:	da000617 	ldw	r8,24(sp)
   26a84:	10046e1e 	bne	r2,zero,27c40 <___vfprintf_internal_r+0x17d4>
   26a88:	01dffc34 	movhi	r7,32752
   26a8c:	01bfffc4 	movi	r6,-1
   26a90:	39ffffc4 	addi	r7,r7,-1
   26a94:	a009883a 	mov	r4,r20
   26a98:	880b883a 	mov	r5,r17
   26a9c:	00305980 	call	30598 <__ledf2>
   26aa0:	db000417 	ldw	r12,16(sp)
   26aa4:	da000617 	ldw	r8,24(sp)
   26aa8:	0084650e 	bge	zero,r2,27c40 <___vfprintf_internal_r+0x17d4>
   26aac:	000d883a 	mov	r6,zero
   26ab0:	000f883a 	mov	r7,zero
   26ab4:	a009883a 	mov	r4,r20
   26ab8:	a80b883a 	mov	r5,r21
   26abc:	00305980 	call	30598 <__ledf2>
   26ac0:	db000417 	ldw	r12,16(sp)
   26ac4:	10059b16 	blt	r2,zero,28134 <___vfprintf_internal_r+0x1cc8>
   26ac8:	db401343 	ldbu	r13,77(sp)
   26acc:	e0801210 	cmplti	r2,fp,72
   26ad0:	1005721e 	bne	r2,zero,2809c <___vfprintf_internal_r+0x1c30>
   26ad4:	044000f4 	movhi	r17,3
   26ad8:	8c525a04 	addi	r17,r17,18792
   26adc:	00bfdfc4 	movi	r2,-129
   26ae0:	6084703a 	and	r2,r12,r2
   26ae4:	d8800415 	stw	r2,16(sp)
   26ae8:	d8800e17 	ldw	r2,56(sp)
   26aec:	050000c4 	movi	r20,3
   26af0:	054000c4 	movi	r21,3
   26af4:	d8800615 	stw	r2,24(sp)
   26af8:	0011883a 	mov	r8,zero
   26afc:	d8000715 	stw	zero,28(sp)
   26b00:	0000f606 	br	26edc <___vfprintf_internal_r+0xa70>
   26b04:	d9000617 	ldw	r4,24(sp)
   26b08:	6080040c 	andi	r2,r12,16
   26b0c:	20c00104 	addi	r3,r4,4
   26b10:	1003871e 	bne	r2,zero,27930 <___vfprintf_internal_r+0x14c4>
   26b14:	6080100c 	andi	r2,r12,64
   26b18:	10056926 	beq	r2,zero,280c0 <___vfprintf_internal_r+0x1c54>
   26b1c:	d8800617 	ldw	r2,24(sp)
   26b20:	002b883a 	mov	r21,zero
   26b24:	d8c00615 	stw	r3,24(sp)
   26b28:	1500000b 	ldhu	r20,0(r2)
   26b2c:	0005883a 	mov	r2,zero
   26b30:	003f8f06 	br	26970 <___vfprintf_internal_r+0x504>
   26b34:	d9000617 	ldw	r4,24(sp)
   26b38:	6080040c 	andi	r2,r12,16
   26b3c:	20c00104 	addi	r3,r4,4
   26b40:	1003801e 	bne	r2,zero,27944 <___vfprintf_internal_r+0x14d8>
   26b44:	6080100c 	andi	r2,r12,64
   26b48:	10056326 	beq	r2,zero,280d8 <___vfprintf_internal_r+0x1c6c>
   26b4c:	d8800617 	ldw	r2,24(sp)
   26b50:	002b883a 	mov	r21,zero
   26b54:	d8c00615 	stw	r3,24(sp)
   26b58:	1500000b 	ldhu	r20,0(r2)
   26b5c:	00800044 	movi	r2,1
   26b60:	003f8306 	br	26970 <___vfprintf_internal_r+0x504>
   26b64:	030000f4 	movhi	r12,3
   26b68:	89000450 	cmplti	r4,r17,17
   26b6c:	d8801b17 	ldw	r2,108(sp)
   26b70:	63126e04 	addi	r12,r12,18872
   26b74:	20001b1e 	bne	r4,zero,26be4 <___vfprintf_internal_r+0x778>
   26b78:	05400404 	movi	r21,16
   26b7c:	6039883a 	mov	fp,r12
   26b80:	00000406 	br	26b94 <___vfprintf_internal_r+0x728>
   26b84:	8c7ffc04 	addi	r17,r17,-16
   26b88:	89000448 	cmpgei	r4,r17,17
   26b8c:	b5800204 	addi	r22,r22,8
   26b90:	20001326 	beq	r4,zero,26be0 <___vfprintf_internal_r+0x774>
   26b94:	10800044 	addi	r2,r2,1
   26b98:	18c00404 	addi	r3,r3,16
   26b9c:	b7000015 	stw	fp,0(r22)
   26ba0:	b5400115 	stw	r21,4(r22)
   26ba4:	d8c01c15 	stw	r3,112(sp)
   26ba8:	d8801b15 	stw	r2,108(sp)
   26bac:	11000208 	cmpgei	r4,r2,8
   26bb0:	203ff426 	beq	r4,zero,26b84 <___vfprintf_internal_r+0x718>
   26bb4:	d9801a04 	addi	r6,sp,104
   26bb8:	900b883a 	mov	r5,r18
   26bbc:	9809883a 	mov	r4,r19
   26bc0:	002d10c0 	call	2d10c <__sprint_r>
   26bc4:	103f361e 	bne	r2,zero,268a0 <___vfprintf_internal_r+0x434>
   26bc8:	8c7ffc04 	addi	r17,r17,-16
   26bcc:	89000448 	cmpgei	r4,r17,17
   26bd0:	d8c01c17 	ldw	r3,112(sp)
   26bd4:	d8801b17 	ldw	r2,108(sp)
   26bd8:	dd802704 	addi	r22,sp,156
   26bdc:	203fed1e 	bne	r4,zero,26b94 <___vfprintf_internal_r+0x728>
   26be0:	e019883a 	mov	r12,fp
   26be4:	10800044 	addi	r2,r2,1
   26be8:	1c47883a 	add	r3,r3,r17
   26bec:	d8801b15 	stw	r2,108(sp)
   26bf0:	b3000015 	stw	r12,0(r22)
   26bf4:	b4400115 	stw	r17,4(r22)
   26bf8:	d8c01c15 	stw	r3,112(sp)
   26bfc:	10800210 	cmplti	r2,r2,8
   26c00:	103f1b1e 	bne	r2,zero,26870 <___vfprintf_internal_r+0x404>
   26c04:	d9801a04 	addi	r6,sp,104
   26c08:	900b883a 	mov	r5,r18
   26c0c:	9809883a 	mov	r4,r19
   26c10:	002d10c0 	call	2d10c <__sprint_r>
   26c14:	103f221e 	bne	r2,zero,268a0 <___vfprintf_internal_r+0x434>
   26c18:	d8c01c17 	ldw	r3,112(sp)
   26c1c:	003f1406 	br	26870 <___vfprintf_internal_r+0x404>
   26c20:	9809883a 	mov	r4,r19
   26c24:	0022de40 	call	22de4 <__sinit>
   26c28:	003e2806 	br	264cc <___vfprintf_internal_r+0x60>
   26c2c:	21003fcc 	andi	r4,r4,255
   26c30:	2005d91e 	bne	r4,zero,28398 <___vfprintf_internal_r+0x1f2c>
   26c34:	6080080c 	andi	r2,r12,32
   26c38:	10007026 	beq	r2,zero,26dfc <___vfprintf_internal_r+0x990>
   26c3c:	d8c00617 	ldw	r3,24(sp)
   26c40:	18800117 	ldw	r2,4(r3)
   26c44:	1d000017 	ldw	r20,0(r3)
   26c48:	18c00204 	addi	r3,r3,8
   26c4c:	d8c00615 	stw	r3,24(sp)
   26c50:	102b883a 	mov	r21,r2
   26c54:	10007516 	blt	r2,zero,26e2c <___vfprintf_internal_r+0x9c0>
   26c58:	40bfffd8 	cmpnei	r2,r8,-1
   26c5c:	10034826 	beq	r2,zero,27980 <___vfprintf_internal_r+0x1514>
   26c60:	047fdfc4 	movi	r17,-129
   26c64:	6446703a 	and	r3,r12,r17
   26c68:	a544b03a 	or	r2,r20,r21
   26c6c:	d8c00415 	stw	r3,16(sp)
   26c70:	db401343 	ldbu	r13,77(sp)
   26c74:	1002ec26 	beq	r2,zero,27828 <___vfprintf_internal_r+0x13bc>
   26c78:	db000417 	ldw	r12,16(sp)
   26c7c:	a803421e 	bne	r21,zero,27988 <___vfprintf_internal_r+0x151c>
   26c80:	a08002a8 	cmpgeui	r2,r20,10
   26c84:	1003401e 	bne	r2,zero,27988 <___vfprintf_internal_r+0x151c>
   26c88:	a5000c04 	addi	r20,r20,48
   26c8c:	dd0026c5 	stb	r20,155(sp)
   26c90:	db000415 	stw	r12,16(sp)
   26c94:	05400044 	movi	r21,1
   26c98:	dc4026c4 	addi	r17,sp,155
   26c9c:	00008b06 	br	26ecc <___vfprintf_internal_r+0xa60>
   26ca0:	bac00007 	ldb	r11,0(r23)
   26ca4:	63001014 	ori	r12,r12,64
   26ca8:	003e3c06 	br	2659c <___vfprintf_internal_r+0x130>
   26cac:	21003fcc 	andi	r4,r4,255
   26cb0:	2005bf1e 	bne	r4,zero,283b0 <___vfprintf_internal_r+0x1f44>
   26cb4:	008000f4 	movhi	r2,3
   26cb8:	10926204 	addi	r2,r2,18824
   26cbc:	d8800c15 	stw	r2,48(sp)
   26cc0:	6080080c 	andi	r2,r12,32
   26cc4:	1000d526 	beq	r2,zero,2701c <___vfprintf_internal_r+0xbb0>
   26cc8:	d8800617 	ldw	r2,24(sp)
   26ccc:	15000017 	ldw	r20,0(r2)
   26cd0:	15400117 	ldw	r21,4(r2)
   26cd4:	10800204 	addi	r2,r2,8
   26cd8:	d8800615 	stw	r2,24(sp)
   26cdc:	6080004c 	andi	r2,r12,1
   26ce0:	10000226 	beq	r2,zero,26cec <___vfprintf_internal_r+0x880>
   26ce4:	a544b03a 	or	r2,r20,r21
   26ce8:	1003071e 	bne	r2,zero,27908 <___vfprintf_internal_r+0x149c>
   26cec:	00800084 	movi	r2,2
   26cf0:	003f1f06 	br	26970 <___vfprintf_internal_r+0x504>
   26cf4:	d8800617 	ldw	r2,24(sp)
   26cf8:	d8001345 	stb	zero,77(sp)
   26cfc:	14400017 	ldw	r17,0(r2)
   26d00:	10c00104 	addi	r3,r2,4
   26d04:	88037526 	beq	r17,zero,27adc <___vfprintf_internal_r+0x1670>
   26d08:	40bfffe0 	cmpeqi	r2,r8,-1
   26d0c:	1004641e 	bne	r2,zero,27ea0 <___vfprintf_internal_r+0x1a34>
   26d10:	400d883a 	mov	r6,r8
   26d14:	000b883a 	mov	r5,zero
   26d18:	8809883a 	mov	r4,r17
   26d1c:	d8c00715 	stw	r3,28(sp)
   26d20:	db000615 	stw	r12,24(sp)
   26d24:	da000415 	stw	r8,16(sp)
   26d28:	002b5a00 	call	2b5a0 <memchr>
   26d2c:	da000417 	ldw	r8,16(sp)
   26d30:	db000617 	ldw	r12,24(sp)
   26d34:	d8c00717 	ldw	r3,28(sp)
   26d38:	10058726 	beq	r2,zero,28358 <___vfprintf_internal_r+0x1eec>
   26d3c:	146bc83a 	sub	r21,r2,r17
   26d40:	a829883a 	mov	r20,r21
   26d44:	d8c00615 	stw	r3,24(sp)
   26d48:	003e8b06 	br	26778 <___vfprintf_internal_r+0x30c>
   26d4c:	bac00007 	ldb	r11,0(r23)
   26d50:	63000814 	ori	r12,r12,32
   26d54:	003e1106 	br	2659c <___vfprintf_internal_r+0x130>
   26d58:	d8c00617 	ldw	r3,24(sp)
   26d5c:	00800c04 	movi	r2,48
   26d60:	d8801385 	stb	r2,78(sp)
   26d64:	00801e04 	movi	r2,120
   26d68:	010000f4 	movhi	r4,3
   26d6c:	d88013c5 	stb	r2,79(sp)
   26d70:	18800104 	addi	r2,r3,4
   26d74:	d8800615 	stw	r2,24(sp)
   26d78:	20926204 	addi	r2,r4,18824
   26d7c:	d8800c15 	stw	r2,48(sp)
   26d80:	1d000017 	ldw	r20,0(r3)
   26d84:	002b883a 	mov	r21,zero
   26d88:	63000094 	ori	r12,r12,2
   26d8c:	00800084 	movi	r2,2
   26d90:	07001e04 	movi	fp,120
   26d94:	003ef606 	br	26970 <___vfprintf_internal_r+0x504>
   26d98:	21003fcc 	andi	r4,r4,255
   26d9c:	2005861e 	bne	r4,zero,283b8 <___vfprintf_internal_r+0x1f4c>
   26da0:	d9000617 	ldw	r4,24(sp)
   26da4:	6080080c 	andi	r2,r12,32
   26da8:	20c00017 	ldw	r3,0(r4)
   26dac:	21000104 	addi	r4,r4,4
   26db0:	d9000615 	stw	r4,24(sp)
   26db4:	1002cf1e 	bne	r2,zero,278f4 <___vfprintf_internal_r+0x1488>
   26db8:	6080040c 	andi	r2,r12,16
   26dbc:	10036d1e 	bne	r2,zero,27b74 <___vfprintf_internal_r+0x1708>
   26dc0:	6300100c 	andi	r12,r12,64
   26dc4:	60036b26 	beq	r12,zero,27b74 <___vfprintf_internal_r+0x1708>
   26dc8:	d8800517 	ldw	r2,20(sp)
   26dcc:	1880000d 	sth	r2,0(r3)
   26dd0:	003dda06 	br	2653c <___vfprintf_internal_r+0xd0>
   26dd4:	bac00007 	ldb	r11,0(r23)
   26dd8:	58801b18 	cmpnei	r2,r11,108
   26ddc:	10032e26 	beq	r2,zero,27a98 <___vfprintf_internal_r+0x162c>
   26de0:	63000414 	ori	r12,r12,16
   26de4:	003ded06 	br	2659c <___vfprintf_internal_r+0x130>
   26de8:	21003fcc 	andi	r4,r4,255
   26dec:	20056e1e 	bne	r4,zero,283a8 <___vfprintf_internal_r+0x1f3c>
   26df0:	63000414 	ori	r12,r12,16
   26df4:	6080080c 	andi	r2,r12,32
   26df8:	103f901e 	bne	r2,zero,26c3c <___vfprintf_internal_r+0x7d0>
   26dfc:	d9000617 	ldw	r4,24(sp)
   26e00:	6080040c 	andi	r2,r12,16
   26e04:	20c00104 	addi	r3,r4,4
   26e08:	1002d31e 	bne	r2,zero,27958 <___vfprintf_internal_r+0x14ec>
   26e0c:	6080100c 	andi	r2,r12,64
   26e10:	1004a526 	beq	r2,zero,280a8 <___vfprintf_internal_r+0x1c3c>
   26e14:	d8800617 	ldw	r2,24(sp)
   26e18:	d8c00615 	stw	r3,24(sp)
   26e1c:	1500000f 	ldh	r20,0(r2)
   26e20:	a02bd7fa 	srai	r21,r20,31
   26e24:	a805883a 	mov	r2,r21
   26e28:	103f8b0e 	bge	r2,zero,26c58 <___vfprintf_internal_r+0x7ec>
   26e2c:	a004c03a 	cmpne	r2,r20,zero
   26e30:	056bc83a 	sub	r21,zero,r21
   26e34:	a8abc83a 	sub	r21,r21,r2
   26e38:	00800b44 	movi	r2,45
   26e3c:	d8801345 	stb	r2,77(sp)
   26e40:	40ffffe0 	cmpeqi	r3,r8,-1
   26e44:	0529c83a 	sub	r20,zero,r20
   26e48:	03400b44 	movi	r13,45
   26e4c:	00800044 	movi	r2,1
   26e50:	183ecb26 	beq	r3,zero,26980 <___vfprintf_internal_r+0x514>
   26e54:	10c00060 	cmpeqi	r3,r2,1
   26e58:	183f881e 	bne	r3,zero,26c7c <___vfprintf_internal_r+0x810>
   26e5c:	108000a0 	cmpeqi	r2,r2,2
   26e60:	10012f1e 	bne	r2,zero,27320 <___vfprintf_internal_r+0xeb4>
   26e64:	dc402704 	addi	r17,sp,156
   26e68:	a004d0fa 	srli	r2,r20,3
   26e6c:	a806977a 	slli	r3,r21,29
   26e70:	a82ad0fa 	srli	r21,r21,3
   26e74:	a50001cc 	andi	r20,r20,7
   26e78:	a1000c04 	addi	r4,r20,48
   26e7c:	18a8b03a 	or	r20,r3,r2
   26e80:	893fffc5 	stb	r4,-1(r17)
   26e84:	a544b03a 	or	r2,r20,r21
   26e88:	880b883a 	mov	r5,r17
   26e8c:	8c7fffc4 	addi	r17,r17,-1
   26e90:	103ff51e 	bne	r2,zero,26e68 <___vfprintf_internal_r+0x9fc>
   26e94:	6080004c 	andi	r2,r12,1
   26e98:	10012e26 	beq	r2,zero,27354 <___vfprintf_internal_r+0xee8>
   26e9c:	21003fcc 	andi	r4,r4,255
   26ea0:	2100201c 	xori	r4,r4,128
   26ea4:	213fe004 	addi	r4,r4,-128
   26ea8:	20800c18 	cmpnei	r2,r4,48
   26eac:	10012926 	beq	r2,zero,27354 <___vfprintf_internal_r+0xee8>
   26eb0:	00800c04 	movi	r2,48
   26eb4:	297fff84 	addi	r5,r5,-2
   26eb8:	88bfffc5 	stb	r2,-1(r17)
   26ebc:	d8802704 	addi	r2,sp,156
   26ec0:	116bc83a 	sub	r21,r2,r5
   26ec4:	db000415 	stw	r12,16(sp)
   26ec8:	2823883a 	mov	r17,r5
   26ecc:	4029883a 	mov	r20,r8
   26ed0:	4540010e 	bge	r8,r21,26ed8 <___vfprintf_internal_r+0xa6c>
   26ed4:	a829883a 	mov	r20,r21
   26ed8:	d8000715 	stw	zero,28(sp)
   26edc:	6b403fcc 	andi	r13,r13,255
   26ee0:	6b40201c 	xori	r13,r13,128
   26ee4:	6b7fe004 	addi	r13,r13,-128
   26ee8:	683e2626 	beq	r13,zero,26784 <___vfprintf_internal_r+0x318>
   26eec:	a5000044 	addi	r20,r20,1
   26ef0:	003e2406 	br	26784 <___vfprintf_internal_r+0x318>
   26ef4:	bac00007 	ldb	r11,0(r23)
   26ef8:	63002014 	ori	r12,r12,128
   26efc:	003da706 	br	2659c <___vfprintf_internal_r+0x130>
   26f00:	bf000007 	ldb	fp,0(r23)
   26f04:	b8c00044 	addi	r3,r23,1
   26f08:	e0800aa0 	cmpeqi	r2,fp,42
   26f0c:	1005821e 	bne	r2,zero,28518 <___vfprintf_internal_r+0x20ac>
   26f10:	e0bff404 	addi	r2,fp,-48
   26f14:	118002b0 	cmpltui	r6,r2,10
   26f18:	182f883a 	mov	r23,r3
   26f1c:	0011883a 	mov	r8,zero
   26f20:	303da026 	beq	r6,zero,265a4 <___vfprintf_internal_r+0x138>
   26f24:	bf000007 	ldb	fp,0(r23)
   26f28:	420002a4 	muli	r8,r8,10
   26f2c:	bdc00044 	addi	r23,r23,1
   26f30:	4091883a 	add	r8,r8,r2
   26f34:	e0bff404 	addi	r2,fp,-48
   26f38:	10c002b0 	cmpltui	r3,r2,10
   26f3c:	183ff91e 	bne	r3,zero,26f24 <___vfprintf_internal_r+0xab8>
   26f40:	003d9806 	br	265a4 <___vfprintf_internal_r+0x138>
   26f44:	bf000003 	ldbu	fp,0(r23)
   26f48:	e2c03fcc 	andi	r11,fp,255
   26f4c:	5ac0201c 	xori	r11,r11,128
   26f50:	63000114 	ori	r12,r12,4
   26f54:	5affe004 	addi	r11,r11,-128
   26f58:	003d9006 	br	2659c <___vfprintf_internal_r+0x130>
   26f5c:	bac00007 	ldb	r11,0(r23)
   26f60:	01000044 	movi	r4,1
   26f64:	01400ac4 	movi	r5,43
   26f68:	003d8c06 	br	2659c <___vfprintf_internal_r+0x130>
   26f6c:	d8800617 	ldw	r2,24(sp)
   26f70:	bf000003 	ldbu	fp,0(r23)
   26f74:	14000017 	ldw	r16,0(r2)
   26f78:	10800104 	addi	r2,r2,4
   26f7c:	8002aa16 	blt	r16,zero,27a28 <___vfprintf_internal_r+0x15bc>
   26f80:	d8800615 	stw	r2,24(sp)
   26f84:	e2c03fcc 	andi	r11,fp,255
   26f88:	5ac0201c 	xori	r11,r11,128
   26f8c:	5affe004 	addi	r11,r11,-128
   26f90:	003d8206 	br	2659c <___vfprintf_internal_r+0x130>
   26f94:	bac00007 	ldb	r11,0(r23)
   26f98:	63000054 	ori	r12,r12,1
   26f9c:	003d7f06 	br	2659c <___vfprintf_internal_r+0x130>
   26fa0:	28803fcc 	andi	r2,r5,255
   26fa4:	1080201c 	xori	r2,r2,128
   26fa8:	10bfe004 	addi	r2,r2,-128
   26fac:	bf000003 	ldbu	fp,0(r23)
   26fb0:	103ff41e 	bne	r2,zero,26f84 <___vfprintf_internal_r+0xb18>
   26fb4:	e2c03fcc 	andi	r11,fp,255
   26fb8:	5ac0201c 	xori	r11,r11,128
   26fbc:	01000044 	movi	r4,1
   26fc0:	01400804 	movi	r5,32
   26fc4:	5affe004 	addi	r11,r11,-128
   26fc8:	003d7406 	br	2659c <___vfprintf_internal_r+0x130>
   26fcc:	bac00007 	ldb	r11,0(r23)
   26fd0:	63000214 	ori	r12,r12,8
   26fd4:	003d7106 	br	2659c <___vfprintf_internal_r+0x130>
   26fd8:	d8c00617 	ldw	r3,24(sp)
   26fdc:	d8001345 	stb	zero,77(sp)
   26fe0:	05000044 	movi	r20,1
   26fe4:	18800017 	ldw	r2,0(r3)
   26fe8:	18c00104 	addi	r3,r3,4
   26fec:	d8c00615 	stw	r3,24(sp)
   26ff0:	d8801d05 	stb	r2,116(sp)
   26ff4:	05400044 	movi	r21,1
   26ff8:	dc401d04 	addi	r17,sp,116
   26ffc:	003dde06 	br	26778 <___vfprintf_internal_r+0x30c>
   27000:	21003fcc 	andi	r4,r4,255
   27004:	2004e61e 	bne	r4,zero,283a0 <___vfprintf_internal_r+0x1f34>
   27008:	008000f4 	movhi	r2,3
   2700c:	10925d04 	addi	r2,r2,18804
   27010:	d8800c15 	stw	r2,48(sp)
   27014:	6080080c 	andi	r2,r12,32
   27018:	103f2b1e 	bne	r2,zero,26cc8 <___vfprintf_internal_r+0x85c>
   2701c:	d9000617 	ldw	r4,24(sp)
   27020:	6080040c 	andi	r2,r12,16
   27024:	20c00104 	addi	r3,r4,4
   27028:	10023d1e 	bne	r2,zero,27920 <___vfprintf_internal_r+0x14b4>
   2702c:	6080100c 	andi	r2,r12,64
   27030:	10042f26 	beq	r2,zero,280f0 <___vfprintf_internal_r+0x1c84>
   27034:	d8800617 	ldw	r2,24(sp)
   27038:	002b883a 	mov	r21,zero
   2703c:	d8c00615 	stw	r3,24(sp)
   27040:	1500000b 	ldhu	r20,0(r2)
   27044:	003f2506 	br	26cdc <___vfprintf_internal_r+0x870>
   27048:	e2c01990 	cmplti	r11,fp,102
   2704c:	5800f61e 	bne	r11,zero,27428 <___vfprintf_internal_r+0xfbc>
   27050:	d9000917 	ldw	r4,36(sp)
   27054:	d9400a17 	ldw	r5,40(sp)
   27058:	000d883a 	mov	r6,zero
   2705c:	000f883a 	mov	r7,zero
   27060:	d8c00e15 	stw	r3,56(sp)
   27064:	00304280 	call	30428 <__eqdf2>
   27068:	d8c00e17 	ldw	r3,56(sp)
   2706c:	1001881e 	bne	r2,zero,27690 <___vfprintf_internal_r+0x1224>
   27070:	d8801b17 	ldw	r2,108(sp)
   27074:	010000f4 	movhi	r4,3
   27078:	21126904 	addi	r4,r4,18852
   2707c:	10800044 	addi	r2,r2,1
   27080:	18c00044 	addi	r3,r3,1
   27084:	b1000015 	stw	r4,0(r22)
   27088:	01000044 	movi	r4,1
   2708c:	d8801b15 	stw	r2,108(sp)
   27090:	b1000115 	stw	r4,4(r22)
   27094:	d8c01c15 	stw	r3,112(sp)
   27098:	10800208 	cmpgei	r2,r2,8
   2709c:	10036e1e 	bne	r2,zero,27e58 <___vfprintf_internal_r+0x19ec>
   270a0:	b5800204 	addi	r22,r22,8
   270a4:	d8801417 	ldw	r2,80(sp)
   270a8:	d9000817 	ldw	r4,32(sp)
   270ac:	11020b0e 	bge	r2,r4,278dc <___vfprintf_internal_r+0x1470>
   270b0:	d8800d17 	ldw	r2,52(sp)
   270b4:	d9000b17 	ldw	r4,44(sp)
   270b8:	b0800015 	stw	r2,0(r22)
   270bc:	d8801b17 	ldw	r2,108(sp)
   270c0:	1907883a 	add	r3,r3,r4
   270c4:	b1000115 	stw	r4,4(r22)
   270c8:	10800044 	addi	r2,r2,1
   270cc:	d8801b15 	stw	r2,108(sp)
   270d0:	d8c01c15 	stw	r3,112(sp)
   270d4:	10800208 	cmpgei	r2,r2,8
   270d8:	1002761e 	bne	r2,zero,27ab4 <___vfprintf_internal_r+0x1648>
   270dc:	b5800204 	addi	r22,r22,8
   270e0:	d8800817 	ldw	r2,32(sp)
   270e4:	157fffc4 	addi	r21,r2,-1
   270e8:	057ddc0e 	bge	zero,r21,2685c <___vfprintf_internal_r+0x3f0>
   270ec:	01c000f4 	movhi	r7,3
   270f0:	a9000450 	cmplti	r4,r21,17
   270f4:	d8801b17 	ldw	r2,108(sp)
   270f8:	39d26a04 	addi	r7,r7,18856
   270fc:	2003521e 	bne	r4,zero,27e48 <___vfprintf_internal_r+0x19dc>
   27100:	07000404 	movi	fp,16
   27104:	3823883a 	mov	r17,r7
   27108:	00000406 	br	2711c <___vfprintf_internal_r+0xcb0>
   2710c:	b5800204 	addi	r22,r22,8
   27110:	ad7ffc04 	addi	r21,r21,-16
   27114:	a9000448 	cmpgei	r4,r21,17
   27118:	20034a26 	beq	r4,zero,27e44 <___vfprintf_internal_r+0x19d8>
   2711c:	10800044 	addi	r2,r2,1
   27120:	18c00404 	addi	r3,r3,16
   27124:	b4400015 	stw	r17,0(r22)
   27128:	b7000115 	stw	fp,4(r22)
   2712c:	d8c01c15 	stw	r3,112(sp)
   27130:	d8801b15 	stw	r2,108(sp)
   27134:	11000208 	cmpgei	r4,r2,8
   27138:	203ff426 	beq	r4,zero,2710c <___vfprintf_internal_r+0xca0>
   2713c:	d9801a04 	addi	r6,sp,104
   27140:	900b883a 	mov	r5,r18
   27144:	9809883a 	mov	r4,r19
   27148:	002d10c0 	call	2d10c <__sprint_r>
   2714c:	103dd41e 	bne	r2,zero,268a0 <___vfprintf_internal_r+0x434>
   27150:	d8c01c17 	ldw	r3,112(sp)
   27154:	d8801b17 	ldw	r2,108(sp)
   27158:	dd802704 	addi	r22,sp,156
   2715c:	003fec06 	br	27110 <___vfprintf_internal_r+0xca4>
   27160:	8519c83a 	sub	r12,r16,r20
   27164:	033dae0e 	bge	zero,r12,26820 <___vfprintf_internal_r+0x3b4>
   27168:	01c000f4 	movhi	r7,3
   2716c:	61000450 	cmplti	r4,r12,17
   27170:	d8801b17 	ldw	r2,108(sp)
   27174:	39d26a04 	addi	r7,r7,18856
   27178:	2000281e 	bne	r4,zero,2721c <___vfprintf_internal_r+0xdb0>
   2717c:	dc400e15 	stw	r17,56(sp)
   27180:	dc000f15 	stw	r16,60(sp)
   27184:	b009883a 	mov	r4,r22
   27188:	03400404 	movi	r13,16
   2718c:	a02d883a 	mov	r22,r20
   27190:	6021883a 	mov	r16,r12
   27194:	4029883a 	mov	r20,r8
   27198:	3823883a 	mov	r17,r7
   2719c:	00000406 	br	271b0 <___vfprintf_internal_r+0xd44>
   271a0:	843ffc04 	addi	r16,r16,-16
   271a4:	81400448 	cmpgei	r5,r16,17
   271a8:	21000204 	addi	r4,r4,8
   271ac:	28001426 	beq	r5,zero,27200 <___vfprintf_internal_r+0xd94>
   271b0:	10800044 	addi	r2,r2,1
   271b4:	18c00404 	addi	r3,r3,16
   271b8:	24400015 	stw	r17,0(r4)
   271bc:	23400115 	stw	r13,4(r4)
   271c0:	d8c01c15 	stw	r3,112(sp)
   271c4:	d8801b15 	stw	r2,108(sp)
   271c8:	11400208 	cmpgei	r5,r2,8
   271cc:	283ff426 	beq	r5,zero,271a0 <___vfprintf_internal_r+0xd34>
   271d0:	d9801a04 	addi	r6,sp,104
   271d4:	900b883a 	mov	r5,r18
   271d8:	9809883a 	mov	r4,r19
   271dc:	002d10c0 	call	2d10c <__sprint_r>
   271e0:	103daf1e 	bne	r2,zero,268a0 <___vfprintf_internal_r+0x434>
   271e4:	843ffc04 	addi	r16,r16,-16
   271e8:	81400448 	cmpgei	r5,r16,17
   271ec:	d8c01c17 	ldw	r3,112(sp)
   271f0:	d8801b17 	ldw	r2,108(sp)
   271f4:	d9002704 	addi	r4,sp,156
   271f8:	03400404 	movi	r13,16
   271fc:	283fec1e 	bne	r5,zero,271b0 <___vfprintf_internal_r+0xd44>
   27200:	8019883a 	mov	r12,r16
   27204:	880f883a 	mov	r7,r17
   27208:	dc000f17 	ldw	r16,60(sp)
   2720c:	dc400e17 	ldw	r17,56(sp)
   27210:	a011883a 	mov	r8,r20
   27214:	b029883a 	mov	r20,r22
   27218:	202d883a 	mov	r22,r4
   2721c:	10800044 	addi	r2,r2,1
   27220:	1b07883a 	add	r3,r3,r12
   27224:	d8801b15 	stw	r2,108(sp)
   27228:	b1c00015 	stw	r7,0(r22)
   2722c:	b3000115 	stw	r12,4(r22)
   27230:	d8c01c15 	stw	r3,112(sp)
   27234:	10800208 	cmpgei	r2,r2,8
   27238:	10030f1e 	bne	r2,zero,27e78 <___vfprintf_internal_r+0x1a0c>
   2723c:	4551c83a 	sub	r8,r8,r21
   27240:	b5800204 	addi	r22,r22,8
   27244:	023d780e 	bge	zero,r8,26828 <___vfprintf_internal_r+0x3bc>
   27248:	01c000f4 	movhi	r7,3
   2724c:	41000450 	cmplti	r4,r8,17
   27250:	d8801b17 	ldw	r2,108(sp)
   27254:	39d26a04 	addi	r7,r7,18856
   27258:	2000221e 	bne	r4,zero,272e4 <___vfprintf_internal_r+0xe78>
   2725c:	dc400e15 	stw	r17,56(sp)
   27260:	dc000f15 	stw	r16,60(sp)
   27264:	03000404 	movi	r12,16
   27268:	4021883a 	mov	r16,r8
   2726c:	3823883a 	mov	r17,r7
   27270:	00000406 	br	27284 <___vfprintf_internal_r+0xe18>
   27274:	843ffc04 	addi	r16,r16,-16
   27278:	81000448 	cmpgei	r4,r16,17
   2727c:	b5800204 	addi	r22,r22,8
   27280:	20001426 	beq	r4,zero,272d4 <___vfprintf_internal_r+0xe68>
   27284:	10800044 	addi	r2,r2,1
   27288:	18c00404 	addi	r3,r3,16
   2728c:	b4400015 	stw	r17,0(r22)
   27290:	b3000115 	stw	r12,4(r22)
   27294:	d8c01c15 	stw	r3,112(sp)
   27298:	d8801b15 	stw	r2,108(sp)
   2729c:	11000208 	cmpgei	r4,r2,8
   272a0:	203ff426 	beq	r4,zero,27274 <___vfprintf_internal_r+0xe08>
   272a4:	d9801a04 	addi	r6,sp,104
   272a8:	900b883a 	mov	r5,r18
   272ac:	9809883a 	mov	r4,r19
   272b0:	002d10c0 	call	2d10c <__sprint_r>
   272b4:	103d7a1e 	bne	r2,zero,268a0 <___vfprintf_internal_r+0x434>
   272b8:	843ffc04 	addi	r16,r16,-16
   272bc:	81000448 	cmpgei	r4,r16,17
   272c0:	d8c01c17 	ldw	r3,112(sp)
   272c4:	d8801b17 	ldw	r2,108(sp)
   272c8:	dd802704 	addi	r22,sp,156
   272cc:	03000404 	movi	r12,16
   272d0:	203fec1e 	bne	r4,zero,27284 <___vfprintf_internal_r+0xe18>
   272d4:	8011883a 	mov	r8,r16
   272d8:	880f883a 	mov	r7,r17
   272dc:	dc000f17 	ldw	r16,60(sp)
   272e0:	dc400e17 	ldw	r17,56(sp)
   272e4:	10800044 	addi	r2,r2,1
   272e8:	1a07883a 	add	r3,r3,r8
   272ec:	d8801b15 	stw	r2,108(sp)
   272f0:	b1c00015 	stw	r7,0(r22)
   272f4:	b2000115 	stw	r8,4(r22)
   272f8:	d8c01c15 	stw	r3,112(sp)
   272fc:	10800208 	cmpgei	r2,r2,8
   27300:	10016e1e 	bne	r2,zero,278bc <___vfprintf_internal_r+0x1450>
   27304:	b5800204 	addi	r22,r22,8
   27308:	003d4706 	br	26828 <___vfprintf_internal_r+0x3bc>
   2730c:	10c00060 	cmpeqi	r3,r2,1
   27310:	1803c81e 	bne	r3,zero,28234 <___vfprintf_internal_r+0x1dc8>
   27314:	108000a0 	cmpeqi	r2,r2,2
   27318:	db000417 	ldw	r12,16(sp)
   2731c:	103ed126 	beq	r2,zero,26e64 <___vfprintf_internal_r+0x9f8>
   27320:	d9000c17 	ldw	r4,48(sp)
   27324:	dc402704 	addi	r17,sp,156
   27328:	a08003cc 	andi	r2,r20,15
   2732c:	a806973a 	slli	r3,r21,28
   27330:	a028d13a 	srli	r20,r20,4
   27334:	2085883a 	add	r2,r4,r2
   27338:	10800003 	ldbu	r2,0(r2)
   2733c:	a82ad13a 	srli	r21,r21,4
   27340:	1d28b03a 	or	r20,r3,r20
   27344:	88bfffc5 	stb	r2,-1(r17)
   27348:	a544b03a 	or	r2,r20,r21
   2734c:	8c7fffc4 	addi	r17,r17,-1
   27350:	103ff51e 	bne	r2,zero,27328 <___vfprintf_internal_r+0xebc>
   27354:	d8802704 	addi	r2,sp,156
   27358:	146bc83a 	sub	r21,r2,r17
   2735c:	db000415 	stw	r12,16(sp)
   27360:	003eda06 	br	26ecc <___vfprintf_internal_r+0xa60>
   27364:	d9801a04 	addi	r6,sp,104
   27368:	900b883a 	mov	r5,r18
   2736c:	9809883a 	mov	r4,r19
   27370:	002d10c0 	call	2d10c <__sprint_r>
   27374:	103d4426 	beq	r2,zero,26888 <___vfprintf_internal_r+0x41c>
   27378:	003d4906 	br	268a0 <___vfprintf_internal_r+0x434>
   2737c:	d9801a04 	addi	r6,sp,104
   27380:	900b883a 	mov	r5,r18
   27384:	9809883a 	mov	r4,r19
   27388:	002d10c0 	call	2d10c <__sprint_r>
   2738c:	103d441e 	bne	r2,zero,268a0 <___vfprintf_internal_r+0x434>
   27390:	d9401417 	ldw	r5,80(sp)
   27394:	d8c01c17 	ldw	r3,112(sp)
   27398:	dd802704 	addi	r22,sp,156
   2739c:	2802c81e 	bne	r5,zero,27ec0 <___vfprintf_internal_r+0x1a54>
   273a0:	d8800417 	ldw	r2,16(sp)
   273a4:	d9000817 	ldw	r4,32(sp)
   273a8:	1080004c 	andi	r2,r2,1
   273ac:	1104b03a 	or	r2,r2,r4
   273b0:	103d2a26 	beq	r2,zero,2685c <___vfprintf_internal_r+0x3f0>
   273b4:	d8800d17 	ldw	r2,52(sp)
   273b8:	d9000b17 	ldw	r4,44(sp)
   273bc:	b0800015 	stw	r2,0(r22)
   273c0:	d8801b17 	ldw	r2,108(sp)
   273c4:	20c7883a 	add	r3,r4,r3
   273c8:	b1000115 	stw	r4,4(r22)
   273cc:	10800044 	addi	r2,r2,1
   273d0:	d8c01c15 	stw	r3,112(sp)
   273d4:	d8801b15 	stw	r2,108(sp)
   273d8:	11000208 	cmpgei	r4,r2,8
   273dc:	2003821e 	bne	r4,zero,281e8 <___vfprintf_internal_r+0x1d7c>
   273e0:	b5800204 	addi	r22,r22,8
   273e4:	d9000817 	ldw	r4,32(sp)
   273e8:	10800044 	addi	r2,r2,1
   273ec:	d8801b15 	stw	r2,108(sp)
   273f0:	20c7883a 	add	r3,r4,r3
   273f4:	b4400015 	stw	r17,0(r22)
   273f8:	b1000115 	stw	r4,4(r22)
   273fc:	d8c01c15 	stw	r3,112(sp)
   27400:	10800208 	cmpgei	r2,r2,8
   27404:	103d1426 	beq	r2,zero,26858 <___vfprintf_internal_r+0x3ec>
   27408:	d9801a04 	addi	r6,sp,104
   2740c:	900b883a 	mov	r5,r18
   27410:	9809883a 	mov	r4,r19
   27414:	002d10c0 	call	2d10c <__sprint_r>
   27418:	103d211e 	bne	r2,zero,268a0 <___vfprintf_internal_r+0x434>
   2741c:	d8c01c17 	ldw	r3,112(sp)
   27420:	dd802704 	addi	r22,sp,156
   27424:	003d0d06 	br	2685c <___vfprintf_internal_r+0x3f0>
   27428:	d8800817 	ldw	r2,32(sp)
   2742c:	da001b17 	ldw	r8,108(sp)
   27430:	18c00044 	addi	r3,r3,1
   27434:	10800088 	cmpgei	r2,r2,2
   27438:	45400044 	addi	r21,r8,1
   2743c:	b7000204 	addi	fp,r22,8
   27440:	1000ec26 	beq	r2,zero,277f4 <___vfprintf_internal_r+0x1388>
   27444:	00800044 	movi	r2,1
   27448:	b0800115 	stw	r2,4(r22)
   2744c:	b4400015 	stw	r17,0(r22)
   27450:	d8c01c15 	stw	r3,112(sp)
   27454:	dd401b15 	stw	r21,108(sp)
   27458:	a8800210 	cmplti	r2,r21,8
   2745c:	1001d126 	beq	r2,zero,27ba4 <___vfprintf_internal_r+0x1738>
   27460:	d8800b17 	ldw	r2,44(sp)
   27464:	d9000d17 	ldw	r4,52(sp)
   27468:	ad400044 	addi	r21,r21,1
   2746c:	1887883a 	add	r3,r3,r2
   27470:	e0800115 	stw	r2,4(fp)
   27474:	e1000015 	stw	r4,0(fp)
   27478:	d8c01c15 	stw	r3,112(sp)
   2747c:	dd401b15 	stw	r21,108(sp)
   27480:	a8800208 	cmpgei	r2,r21,8
   27484:	1001be1e 	bne	r2,zero,27b80 <___vfprintf_internal_r+0x1714>
   27488:	e7000204 	addi	fp,fp,8
   2748c:	d9000917 	ldw	r4,36(sp)
   27490:	d9400a17 	ldw	r5,40(sp)
   27494:	aa000044 	addi	r8,r21,1
   27498:	000d883a 	mov	r6,zero
   2749c:	000f883a 	mov	r7,zero
   274a0:	d8c00e15 	stw	r3,56(sp)
   274a4:	da000715 	stw	r8,28(sp)
   274a8:	00304280 	call	30428 <__eqdf2>
   274ac:	d8c00817 	ldw	r3,32(sp)
   274b0:	da000717 	ldw	r8,28(sp)
   274b4:	e5800204 	addi	r22,fp,8
   274b8:	1affffc4 	addi	r11,r3,-1
   274bc:	d8c00e17 	ldw	r3,56(sp)
   274c0:	1000de26 	beq	r2,zero,2783c <___vfprintf_internal_r+0x13d0>
   274c4:	8a400044 	addi	r9,r17,1
   274c8:	1ac7883a 	add	r3,r3,r11
   274cc:	da001b15 	stw	r8,108(sp)
   274d0:	e2400015 	stw	r9,0(fp)
   274d4:	e2c00115 	stw	r11,4(fp)
   274d8:	d8c01c15 	stw	r3,112(sp)
   274dc:	42000208 	cmpgei	r8,r8,8
   274e0:	4001621e 	bne	r8,zero,27a6c <___vfprintf_internal_r+0x1600>
   274e4:	e0800404 	addi	r2,fp,16
   274e8:	aa000084 	addi	r8,r21,2
   274ec:	b039883a 	mov	fp,r22
   274f0:	102d883a 	mov	r22,r2
   274f4:	d9001017 	ldw	r4,64(sp)
   274f8:	d8801644 	addi	r2,sp,89
   274fc:	da001b15 	stw	r8,108(sp)
   27500:	20c7883a 	add	r3,r4,r3
   27504:	e0800015 	stw	r2,0(fp)
   27508:	e1000115 	stw	r4,4(fp)
   2750c:	d8c01c15 	stw	r3,112(sp)
   27510:	42000210 	cmplti	r8,r8,8
   27514:	403cd11e 	bne	r8,zero,2685c <___vfprintf_internal_r+0x3f0>
   27518:	003fbb06 	br	27408 <___vfprintf_internal_r+0xf9c>
   2751c:	db000417 	ldw	r12,16(sp)
   27520:	003e4c06 	br	26e54 <___vfprintf_internal_r+0x9e8>
   27524:	030000f4 	movhi	r12,3
   27528:	39000450 	cmplti	r4,r7,17
   2752c:	d8801b17 	ldw	r2,108(sp)
   27530:	63126e04 	addi	r12,r12,18872
   27534:	2000321e 	bne	r4,zero,27600 <___vfprintf_internal_r+0x1194>
   27538:	dc401115 	stw	r17,68(sp)
   2753c:	b009883a 	mov	r4,r22
   27540:	9023883a 	mov	r17,r18
   27544:	a82d883a 	mov	r22,r21
   27548:	ddc01215 	stw	r23,72(sp)
   2754c:	03c00404 	movi	r15,16
   27550:	a02f883a 	mov	r23,r20
   27554:	db800e15 	stw	r14,56(sp)
   27558:	8029883a 	mov	r20,r16
   2755c:	db400f15 	stw	r13,60(sp)
   27560:	402b883a 	mov	r21,r8
   27564:	3821883a 	mov	r16,r7
   27568:	6025883a 	mov	r18,r12
   2756c:	00000406 	br	27580 <___vfprintf_internal_r+0x1114>
   27570:	843ffc04 	addi	r16,r16,-16
   27574:	81800448 	cmpgei	r6,r16,17
   27578:	21000204 	addi	r4,r4,8
   2757c:	30001426 	beq	r6,zero,275d0 <___vfprintf_internal_r+0x1164>
   27580:	10800044 	addi	r2,r2,1
   27584:	18c00404 	addi	r3,r3,16
   27588:	24800015 	stw	r18,0(r4)
   2758c:	23c00115 	stw	r15,4(r4)
   27590:	d8c01c15 	stw	r3,112(sp)
   27594:	d8801b15 	stw	r2,108(sp)
   27598:	11800208 	cmpgei	r6,r2,8
   2759c:	303ff426 	beq	r6,zero,27570 <___vfprintf_internal_r+0x1104>
   275a0:	d9801a04 	addi	r6,sp,104
   275a4:	880b883a 	mov	r5,r17
   275a8:	9809883a 	mov	r4,r19
   275ac:	002d10c0 	call	2d10c <__sprint_r>
   275b0:	1001a11e 	bne	r2,zero,27c38 <___vfprintf_internal_r+0x17cc>
   275b4:	843ffc04 	addi	r16,r16,-16
   275b8:	81800448 	cmpgei	r6,r16,17
   275bc:	d8c01c17 	ldw	r3,112(sp)
   275c0:	d8801b17 	ldw	r2,108(sp)
   275c4:	d9002704 	addi	r4,sp,156
   275c8:	03c00404 	movi	r15,16
   275cc:	303fec1e 	bne	r6,zero,27580 <___vfprintf_internal_r+0x1114>
   275d0:	800f883a 	mov	r7,r16
   275d4:	9019883a 	mov	r12,r18
   275d8:	a021883a 	mov	r16,r20
   275dc:	8825883a 	mov	r18,r17
   275e0:	b829883a 	mov	r20,r23
   275e4:	db800e17 	ldw	r14,56(sp)
   275e8:	db400f17 	ldw	r13,60(sp)
   275ec:	ddc01217 	ldw	r23,72(sp)
   275f0:	dc401117 	ldw	r17,68(sp)
   275f4:	a811883a 	mov	r8,r21
   275f8:	b02b883a 	mov	r21,r22
   275fc:	202d883a 	mov	r22,r4
   27600:	10800044 	addi	r2,r2,1
   27604:	19c7883a 	add	r3,r3,r7
   27608:	d8801b15 	stw	r2,108(sp)
   2760c:	b3000015 	stw	r12,0(r22)
   27610:	b1c00115 	stw	r7,4(r22)
   27614:	d8c01c15 	stw	r3,112(sp)
   27618:	10800208 	cmpgei	r2,r2,8
   2761c:	1001781e 	bne	r2,zero,27c00 <___vfprintf_internal_r+0x1794>
   27620:	b5800204 	addi	r22,r22,8
   27624:	003c6106 	br	267ac <___vfprintf_internal_r+0x340>
   27628:	d9801a04 	addi	r6,sp,104
   2762c:	900b883a 	mov	r5,r18
   27630:	9809883a 	mov	r4,r19
   27634:	da000f15 	stw	r8,60(sp)
   27638:	db400e15 	stw	r13,56(sp)
   2763c:	002d10c0 	call	2d10c <__sprint_r>
   27640:	103c971e 	bne	r2,zero,268a0 <___vfprintf_internal_r+0x434>
   27644:	d8c01c17 	ldw	r3,112(sp)
   27648:	da000f17 	ldw	r8,60(sp)
   2764c:	db400e17 	ldw	r13,56(sp)
   27650:	dd802704 	addi	r22,sp,156
   27654:	003c7006 	br	26818 <___vfprintf_internal_r+0x3ac>
   27658:	d9801a04 	addi	r6,sp,104
   2765c:	900b883a 	mov	r5,r18
   27660:	9809883a 	mov	r4,r19
   27664:	da001115 	stw	r8,68(sp)
   27668:	db400f15 	stw	r13,60(sp)
   2766c:	db800e15 	stw	r14,56(sp)
   27670:	002d10c0 	call	2d10c <__sprint_r>
   27674:	103c8a1e 	bne	r2,zero,268a0 <___vfprintf_internal_r+0x434>
   27678:	d8c01c17 	ldw	r3,112(sp)
   2767c:	da001117 	ldw	r8,68(sp)
   27680:	db400f17 	ldw	r13,60(sp)
   27684:	db800e17 	ldw	r14,56(sp)
   27688:	dd802704 	addi	r22,sp,156
   2768c:	003c5506 	br	267e4 <___vfprintf_internal_r+0x378>
   27690:	d9401417 	ldw	r5,80(sp)
   27694:	01414c0e 	bge	zero,r5,27bc8 <___vfprintf_internal_r+0x175c>
   27698:	d8800717 	ldw	r2,28(sp)
   2769c:	d9000817 	ldw	r4,32(sp)
   276a0:	102b883a 	mov	r21,r2
   276a4:	2080e316 	blt	r4,r2,27a34 <___vfprintf_internal_r+0x15c8>
   276a8:	05400a0e 	bge	zero,r21,276d4 <___vfprintf_internal_r+0x1268>
   276ac:	d8801b17 	ldw	r2,108(sp)
   276b0:	1d47883a 	add	r3,r3,r21
   276b4:	b4400015 	stw	r17,0(r22)
   276b8:	10800044 	addi	r2,r2,1
   276bc:	d8801b15 	stw	r2,108(sp)
   276c0:	b5400115 	stw	r21,4(r22)
   276c4:	d8c01c15 	stw	r3,112(sp)
   276c8:	10800208 	cmpgei	r2,r2,8
   276cc:	10030c1e 	bne	r2,zero,28300 <___vfprintf_internal_r+0x1e94>
   276d0:	b5800204 	addi	r22,r22,8
   276d4:	a800ff16 	blt	r21,zero,27ad4 <___vfprintf_internal_r+0x1668>
   276d8:	d8800717 	ldw	r2,28(sp)
   276dc:	156bc83a 	sub	r21,r2,r21
   276e0:	05410616 	blt	zero,r21,27afc <___vfprintf_internal_r+0x1690>
   276e4:	dd401417 	ldw	r21,80(sp)
   276e8:	d8800817 	ldw	r2,32(sp)
   276ec:	a880d40e 	bge	r21,r2,27a40 <___vfprintf_internal_r+0x15d4>
   276f0:	d8800d17 	ldw	r2,52(sp)
   276f4:	d9000b17 	ldw	r4,44(sp)
   276f8:	b0800015 	stw	r2,0(r22)
   276fc:	d8801b17 	ldw	r2,108(sp)
   27700:	1907883a 	add	r3,r3,r4
   27704:	b1000115 	stw	r4,4(r22)
   27708:	10800044 	addi	r2,r2,1
   2770c:	d8801b15 	stw	r2,108(sp)
   27710:	d8c01c15 	stw	r3,112(sp)
   27714:	10800208 	cmpgei	r2,r2,8
   27718:	10028e1e 	bne	r2,zero,28154 <___vfprintf_internal_r+0x1ce8>
   2771c:	b5800204 	addi	r22,r22,8
   27720:	d9000817 	ldw	r4,32(sp)
   27724:	d9400717 	ldw	r5,28(sp)
   27728:	2545c83a 	sub	r2,r4,r21
   2772c:	2149c83a 	sub	r4,r4,r5
   27730:	102b883a 	mov	r21,r2
   27734:	2080010e 	bge	r4,r2,2773c <___vfprintf_internal_r+0x12d0>
   27738:	202b883a 	mov	r21,r4
   2773c:	05400c0e 	bge	zero,r21,27770 <___vfprintf_internal_r+0x1304>
   27740:	d9000717 	ldw	r4,28(sp)
   27744:	1d47883a 	add	r3,r3,r21
   27748:	b5400115 	stw	r21,4(r22)
   2774c:	8913883a 	add	r9,r17,r4
   27750:	d9001b17 	ldw	r4,108(sp)
   27754:	b2400015 	stw	r9,0(r22)
   27758:	d8c01c15 	stw	r3,112(sp)
   2775c:	21000044 	addi	r4,r4,1
   27760:	d9001b15 	stw	r4,108(sp)
   27764:	21000208 	cmpgei	r4,r4,8
   27768:	2002f01e 	bne	r4,zero,2832c <___vfprintf_internal_r+0x1ec0>
   2776c:	b5800204 	addi	r22,r22,8
   27770:	a800010e 	bge	r21,zero,27778 <___vfprintf_internal_r+0x130c>
   27774:	002b883a 	mov	r21,zero
   27778:	156bc83a 	sub	r21,r2,r21
   2777c:	057c370e 	bge	zero,r21,2685c <___vfprintf_internal_r+0x3f0>
   27780:	01c000f4 	movhi	r7,3
   27784:	a9000450 	cmplti	r4,r21,17
   27788:	d8801b17 	ldw	r2,108(sp)
   2778c:	39d26a04 	addi	r7,r7,18856
   27790:	2001ad1e 	bne	r4,zero,27e48 <___vfprintf_internal_r+0x19dc>
   27794:	07000404 	movi	fp,16
   27798:	3823883a 	mov	r17,r7
   2779c:	00000406 	br	277b0 <___vfprintf_internal_r+0x1344>
   277a0:	b5800204 	addi	r22,r22,8
   277a4:	ad7ffc04 	addi	r21,r21,-16
   277a8:	a9000448 	cmpgei	r4,r21,17
   277ac:	2001a526 	beq	r4,zero,27e44 <___vfprintf_internal_r+0x19d8>
   277b0:	10800044 	addi	r2,r2,1
   277b4:	18c00404 	addi	r3,r3,16
   277b8:	b4400015 	stw	r17,0(r22)
   277bc:	b7000115 	stw	fp,4(r22)
   277c0:	d8c01c15 	stw	r3,112(sp)
   277c4:	d8801b15 	stw	r2,108(sp)
   277c8:	11000208 	cmpgei	r4,r2,8
   277cc:	203ff426 	beq	r4,zero,277a0 <___vfprintf_internal_r+0x1334>
   277d0:	d9801a04 	addi	r6,sp,104
   277d4:	900b883a 	mov	r5,r18
   277d8:	9809883a 	mov	r4,r19
   277dc:	002d10c0 	call	2d10c <__sprint_r>
   277e0:	103c2f1e 	bne	r2,zero,268a0 <___vfprintf_internal_r+0x434>
   277e4:	d8c01c17 	ldw	r3,112(sp)
   277e8:	d8801b17 	ldw	r2,108(sp)
   277ec:	dd802704 	addi	r22,sp,156
   277f0:	003fec06 	br	277a4 <___vfprintf_internal_r+0x1338>
   277f4:	d8800417 	ldw	r2,16(sp)
   277f8:	1080004c 	andi	r2,r2,1
   277fc:	103f111e 	bne	r2,zero,27444 <___vfprintf_internal_r+0xfd8>
   27800:	00800044 	movi	r2,1
   27804:	dd401b15 	stw	r21,108(sp)
   27808:	b4400015 	stw	r17,0(r22)
   2780c:	b0800115 	stw	r2,4(r22)
   27810:	d8c01c15 	stw	r3,112(sp)
   27814:	ad400208 	cmpgei	r21,r21,8
   27818:	a800941e 	bne	r21,zero,27a6c <___vfprintf_internal_r+0x1600>
   2781c:	42000084 	addi	r8,r8,2
   27820:	b5800404 	addi	r22,r22,16
   27824:	003f3306 	br	274f4 <___vfprintf_internal_r+0x1088>
   27828:	4002821e 	bne	r8,zero,28234 <___vfprintf_internal_r+0x1dc8>
   2782c:	0011883a 	mov	r8,zero
   27830:	002b883a 	mov	r21,zero
   27834:	dc402704 	addi	r17,sp,156
   27838:	003da406 	br	26ecc <___vfprintf_internal_r+0xa60>
   2783c:	02ff2d0e 	bge	zero,r11,274f4 <___vfprintf_internal_r+0x1088>
   27840:	58800450 	cmplti	r2,r11,17
   27844:	01c000f4 	movhi	r7,3
   27848:	1003261e 	bne	r2,zero,284e4 <___vfprintf_internal_r+0x2078>
   2784c:	39d26a04 	addi	r7,r7,18856
   27850:	dc000715 	stw	r16,28(sp)
   27854:	05800404 	movi	r22,16
   27858:	5823883a 	mov	r17,r11
   2785c:	3821883a 	mov	r16,r7
   27860:	402b883a 	mov	r21,r8
   27864:	00000506 	br	2787c <___vfprintf_internal_r+0x1410>
   27868:	e7000204 	addi	fp,fp,8
   2786c:	8c7ffc04 	addi	r17,r17,-16
   27870:	88800448 	cmpgei	r2,r17,17
   27874:	1001be26 	beq	r2,zero,27f70 <___vfprintf_internal_r+0x1b04>
   27878:	ad400044 	addi	r21,r21,1
   2787c:	18c00404 	addi	r3,r3,16
   27880:	e4000015 	stw	r16,0(fp)
   27884:	e5800115 	stw	r22,4(fp)
   27888:	d8c01c15 	stw	r3,112(sp)
   2788c:	dd401b15 	stw	r21,108(sp)
   27890:	a8800208 	cmpgei	r2,r21,8
   27894:	103ff426 	beq	r2,zero,27868 <___vfprintf_internal_r+0x13fc>
   27898:	d9801a04 	addi	r6,sp,104
   2789c:	900b883a 	mov	r5,r18
   278a0:	9809883a 	mov	r4,r19
   278a4:	002d10c0 	call	2d10c <__sprint_r>
   278a8:	103bfd1e 	bne	r2,zero,268a0 <___vfprintf_internal_r+0x434>
   278ac:	dd401b17 	ldw	r21,108(sp)
   278b0:	d8c01c17 	ldw	r3,112(sp)
   278b4:	df002704 	addi	fp,sp,156
   278b8:	003fec06 	br	2786c <___vfprintf_internal_r+0x1400>
   278bc:	d9801a04 	addi	r6,sp,104
   278c0:	900b883a 	mov	r5,r18
   278c4:	9809883a 	mov	r4,r19
   278c8:	002d10c0 	call	2d10c <__sprint_r>
   278cc:	103bf41e 	bne	r2,zero,268a0 <___vfprintf_internal_r+0x434>
   278d0:	d8c01c17 	ldw	r3,112(sp)
   278d4:	dd802704 	addi	r22,sp,156
   278d8:	003bd306 	br	26828 <___vfprintf_internal_r+0x3bc>
   278dc:	d8800417 	ldw	r2,16(sp)
   278e0:	1080004c 	andi	r2,r2,1
   278e4:	103bdd26 	beq	r2,zero,2685c <___vfprintf_internal_r+0x3f0>
   278e8:	003df106 	br	270b0 <___vfprintf_internal_r+0xc44>
   278ec:	dc402704 	addi	r17,sp,156
   278f0:	003d7606 	br	26ecc <___vfprintf_internal_r+0xa60>
   278f4:	d9000517 	ldw	r4,20(sp)
   278f8:	2005d7fa 	srai	r2,r4,31
   278fc:	19000015 	stw	r4,0(r3)
   27900:	18800115 	stw	r2,4(r3)
   27904:	003b0d06 	br	2653c <___vfprintf_internal_r+0xd0>
   27908:	00800c04 	movi	r2,48
   2790c:	d8801385 	stb	r2,78(sp)
   27910:	df0013c5 	stb	fp,79(sp)
   27914:	63000094 	ori	r12,r12,2
   27918:	00800084 	movi	r2,2
   2791c:	003c1406 	br	26970 <___vfprintf_internal_r+0x504>
   27920:	25000017 	ldw	r20,0(r4)
   27924:	002b883a 	mov	r21,zero
   27928:	d8c00615 	stw	r3,24(sp)
   2792c:	003ceb06 	br	26cdc <___vfprintf_internal_r+0x870>
   27930:	25000017 	ldw	r20,0(r4)
   27934:	002b883a 	mov	r21,zero
   27938:	d8c00615 	stw	r3,24(sp)
   2793c:	0005883a 	mov	r2,zero
   27940:	003c0b06 	br	26970 <___vfprintf_internal_r+0x504>
   27944:	25000017 	ldw	r20,0(r4)
   27948:	002b883a 	mov	r21,zero
   2794c:	d8c00615 	stw	r3,24(sp)
   27950:	00800044 	movi	r2,1
   27954:	003c0606 	br	26970 <___vfprintf_internal_r+0x504>
   27958:	25000017 	ldw	r20,0(r4)
   2795c:	d8c00615 	stw	r3,24(sp)
   27960:	a02bd7fa 	srai	r21,r20,31
   27964:	a805883a 	mov	r2,r21
   27968:	003cba06 	br	26c54 <___vfprintf_internal_r+0x7e8>
   2796c:	18800017 	ldw	r2,0(r3)
   27970:	d8800915 	stw	r2,36(sp)
   27974:	18800117 	ldw	r2,4(r3)
   27978:	d8800a15 	stw	r2,40(sp)
   2797c:	003c3206 	br	26a48 <___vfprintf_internal_r+0x5dc>
   27980:	db401343 	ldbu	r13,77(sp)
   27984:	a83cbe26 	beq	r21,zero,26c80 <___vfprintf_internal_r+0x814>
   27988:	dc402704 	addi	r17,sp,156
   2798c:	a805883a 	mov	r2,r21
   27990:	dc000715 	stw	r16,28(sp)
   27994:	902b883a 	mov	r21,r18
   27998:	8821883a 	mov	r16,r17
   2799c:	db000415 	stw	r12,16(sp)
   279a0:	a023883a 	mov	r17,r20
   279a4:	da000e15 	stw	r8,56(sp)
   279a8:	9829883a 	mov	r20,r19
   279ac:	1025883a 	mov	r18,r2
   279b0:	6827883a 	mov	r19,r13
   279b4:	8809883a 	mov	r4,r17
   279b8:	900b883a 	mov	r5,r18
   279bc:	01800284 	movi	r6,10
   279c0:	000f883a 	mov	r7,zero
   279c4:	002f5100 	call	2f510 <__umoddi3>
   279c8:	10800c04 	addi	r2,r2,48
   279cc:	8809883a 	mov	r4,r17
   279d0:	900b883a 	mov	r5,r18
   279d4:	01800284 	movi	r6,10
   279d8:	000f883a 	mov	r7,zero
   279dc:	80bfffc5 	stb	r2,-1(r16)
   279e0:	002ef800 	call	2ef80 <__udivdi3>
   279e4:	900d883a 	mov	r6,r18
   279e8:	880f883a 	mov	r7,r17
   279ec:	843fffc4 	addi	r16,r16,-1
   279f0:	1023883a 	mov	r17,r2
   279f4:	1825883a 	mov	r18,r3
   279f8:	303fee1e 	bne	r6,zero,279b4 <___vfprintf_internal_r+0x1548>
   279fc:	39c002a8 	cmpgeui	r7,r7,10
   27a00:	383fec1e 	bne	r7,zero,279b4 <___vfprintf_internal_r+0x1548>
   27a04:	8023883a 	mov	r17,r16
   27a08:	d8802704 	addi	r2,sp,156
   27a0c:	981b883a 	mov	r13,r19
   27a10:	a825883a 	mov	r18,r21
   27a14:	dc000717 	ldw	r16,28(sp)
   27a18:	da000e17 	ldw	r8,56(sp)
   27a1c:	a027883a 	mov	r19,r20
   27a20:	146bc83a 	sub	r21,r2,r17
   27a24:	003d2906 	br	26ecc <___vfprintf_internal_r+0xa60>
   27a28:	0421c83a 	sub	r16,zero,r16
   27a2c:	d8800615 	stw	r2,24(sp)
   27a30:	003d4506 	br	26f48 <___vfprintf_internal_r+0xadc>
   27a34:	202b883a 	mov	r21,r4
   27a38:	057f1c16 	blt	zero,r21,276ac <___vfprintf_internal_r+0x1240>
   27a3c:	003f2506 	br	276d4 <___vfprintf_internal_r+0x1268>
   27a40:	d8800417 	ldw	r2,16(sp)
   27a44:	1080004c 	andi	r2,r2,1
   27a48:	103f291e 	bne	r2,zero,276f0 <___vfprintf_internal_r+0x1284>
   27a4c:	d9000817 	ldw	r4,32(sp)
   27a50:	d9400717 	ldw	r5,28(sp)
   27a54:	2545c83a 	sub	r2,r4,r21
   27a58:	2179c83a 	sub	fp,r4,r5
   27a5c:	102b883a 	mov	r21,r2
   27a60:	e0bf430e 	bge	fp,r2,27770 <___vfprintf_internal_r+0x1304>
   27a64:	e02b883a 	mov	r21,fp
   27a68:	003f4106 	br	27770 <___vfprintf_internal_r+0x1304>
   27a6c:	d9801a04 	addi	r6,sp,104
   27a70:	900b883a 	mov	r5,r18
   27a74:	9809883a 	mov	r4,r19
   27a78:	002d10c0 	call	2d10c <__sprint_r>
   27a7c:	103b881e 	bne	r2,zero,268a0 <___vfprintf_internal_r+0x434>
   27a80:	da001b17 	ldw	r8,108(sp)
   27a84:	d8c01c17 	ldw	r3,112(sp)
   27a88:	dd802904 	addi	r22,sp,164
   27a8c:	42000044 	addi	r8,r8,1
   27a90:	df002704 	addi	fp,sp,156
   27a94:	003e9706 	br	274f4 <___vfprintf_internal_r+0x1088>
   27a98:	bf000043 	ldbu	fp,1(r23)
   27a9c:	63000814 	ori	r12,r12,32
   27aa0:	bdc00044 	addi	r23,r23,1
   27aa4:	e2c03fcc 	andi	r11,fp,255
   27aa8:	5ac0201c 	xori	r11,r11,128
   27aac:	5affe004 	addi	r11,r11,-128
   27ab0:	003aba06 	br	2659c <___vfprintf_internal_r+0x130>
   27ab4:	d9801a04 	addi	r6,sp,104
   27ab8:	900b883a 	mov	r5,r18
   27abc:	9809883a 	mov	r4,r19
   27ac0:	002d10c0 	call	2d10c <__sprint_r>
   27ac4:	103b761e 	bne	r2,zero,268a0 <___vfprintf_internal_r+0x434>
   27ac8:	d8c01c17 	ldw	r3,112(sp)
   27acc:	dd802704 	addi	r22,sp,156
   27ad0:	003d8306 	br	270e0 <___vfprintf_internal_r+0xc74>
   27ad4:	002b883a 	mov	r21,zero
   27ad8:	003eff06 	br	276d8 <___vfprintf_internal_r+0x126c>
   27adc:	408001f0 	cmpltui	r2,r8,7
   27ae0:	402b883a 	mov	r21,r8
   27ae4:	1001a426 	beq	r2,zero,28178 <___vfprintf_internal_r+0x1d0c>
   27ae8:	044000f4 	movhi	r17,3
   27aec:	a829883a 	mov	r20,r21
   27af0:	d8c00615 	stw	r3,24(sp)
   27af4:	8c526704 	addi	r17,r17,18844
   27af8:	003b1f06 	br	26778 <___vfprintf_internal_r+0x30c>
   27afc:	01c000f4 	movhi	r7,3
   27b00:	a9000450 	cmplti	r4,r21,17
   27b04:	d8801b17 	ldw	r2,108(sp)
   27b08:	39d26a04 	addi	r7,r7,18856
   27b0c:	20017f1e 	bne	r4,zero,2810c <___vfprintf_internal_r+0x1ca0>
   27b10:	dc000e15 	stw	r16,56(sp)
   27b14:	07000404 	movi	fp,16
   27b18:	3821883a 	mov	r16,r7
   27b1c:	00000406 	br	27b30 <___vfprintf_internal_r+0x16c4>
   27b20:	b5800204 	addi	r22,r22,8
   27b24:	ad7ffc04 	addi	r21,r21,-16
   27b28:	a9000448 	cmpgei	r4,r21,17
   27b2c:	20017526 	beq	r4,zero,28104 <___vfprintf_internal_r+0x1c98>
   27b30:	10800044 	addi	r2,r2,1
   27b34:	18c00404 	addi	r3,r3,16
   27b38:	b4000015 	stw	r16,0(r22)
   27b3c:	b7000115 	stw	fp,4(r22)
   27b40:	d8c01c15 	stw	r3,112(sp)
   27b44:	d8801b15 	stw	r2,108(sp)
   27b48:	11000208 	cmpgei	r4,r2,8
   27b4c:	203ff426 	beq	r4,zero,27b20 <___vfprintf_internal_r+0x16b4>
   27b50:	d9801a04 	addi	r6,sp,104
   27b54:	900b883a 	mov	r5,r18
   27b58:	9809883a 	mov	r4,r19
   27b5c:	002d10c0 	call	2d10c <__sprint_r>
   27b60:	103b4f1e 	bne	r2,zero,268a0 <___vfprintf_internal_r+0x434>
   27b64:	d8c01c17 	ldw	r3,112(sp)
   27b68:	d8801b17 	ldw	r2,108(sp)
   27b6c:	dd802704 	addi	r22,sp,156
   27b70:	003fec06 	br	27b24 <___vfprintf_internal_r+0x16b8>
   27b74:	d8800517 	ldw	r2,20(sp)
   27b78:	18800015 	stw	r2,0(r3)
   27b7c:	003a6f06 	br	2653c <___vfprintf_internal_r+0xd0>
   27b80:	d9801a04 	addi	r6,sp,104
   27b84:	900b883a 	mov	r5,r18
   27b88:	9809883a 	mov	r4,r19
   27b8c:	002d10c0 	call	2d10c <__sprint_r>
   27b90:	103b431e 	bne	r2,zero,268a0 <___vfprintf_internal_r+0x434>
   27b94:	d8c01c17 	ldw	r3,112(sp)
   27b98:	dd401b17 	ldw	r21,108(sp)
   27b9c:	df002704 	addi	fp,sp,156
   27ba0:	003e3a06 	br	2748c <___vfprintf_internal_r+0x1020>
   27ba4:	d9801a04 	addi	r6,sp,104
   27ba8:	900b883a 	mov	r5,r18
   27bac:	9809883a 	mov	r4,r19
   27bb0:	002d10c0 	call	2d10c <__sprint_r>
   27bb4:	103b3a1e 	bne	r2,zero,268a0 <___vfprintf_internal_r+0x434>
   27bb8:	d8c01c17 	ldw	r3,112(sp)
   27bbc:	dd401b17 	ldw	r21,108(sp)
   27bc0:	df002704 	addi	fp,sp,156
   27bc4:	003e2606 	br	27460 <___vfprintf_internal_r+0xff4>
   27bc8:	d8801b17 	ldw	r2,108(sp)
   27bcc:	010000f4 	movhi	r4,3
   27bd0:	21126904 	addi	r4,r4,18852
   27bd4:	10800044 	addi	r2,r2,1
   27bd8:	18c00044 	addi	r3,r3,1
   27bdc:	b1000015 	stw	r4,0(r22)
   27be0:	01000044 	movi	r4,1
   27be4:	d8801b15 	stw	r2,108(sp)
   27be8:	b1000115 	stw	r4,4(r22)
   27bec:	d8c01c15 	stw	r3,112(sp)
   27bf0:	10800208 	cmpgei	r2,r2,8
   27bf4:	103de11e 	bne	r2,zero,2737c <___vfprintf_internal_r+0xf10>
   27bf8:	b5800204 	addi	r22,r22,8
   27bfc:	003de706 	br	2739c <___vfprintf_internal_r+0xf30>
   27c00:	d9801a04 	addi	r6,sp,104
   27c04:	900b883a 	mov	r5,r18
   27c08:	9809883a 	mov	r4,r19
   27c0c:	da001115 	stw	r8,68(sp)
   27c10:	db400f15 	stw	r13,60(sp)
   27c14:	db800e15 	stw	r14,56(sp)
   27c18:	002d10c0 	call	2d10c <__sprint_r>
   27c1c:	103b201e 	bne	r2,zero,268a0 <___vfprintf_internal_r+0x434>
   27c20:	d8c01c17 	ldw	r3,112(sp)
   27c24:	da001117 	ldw	r8,68(sp)
   27c28:	db400f17 	ldw	r13,60(sp)
   27c2c:	db800e17 	ldw	r14,56(sp)
   27c30:	dd802704 	addi	r22,sp,156
   27c34:	003add06 	br	267ac <___vfprintf_internal_r+0x340>
   27c38:	8825883a 	mov	r18,r17
   27c3c:	003b1806 	br	268a0 <___vfprintf_internal_r+0x434>
   27c40:	d9000917 	ldw	r4,36(sp)
   27c44:	d9400a17 	ldw	r5,40(sp)
   27c48:	da000615 	stw	r8,24(sp)
   27c4c:	200d883a 	mov	r6,r4
   27c50:	280f883a 	mov	r7,r5
   27c54:	db000415 	stw	r12,16(sp)
   27c58:	003162c0 	call	3162c <__unorddf2>
   27c5c:	db000417 	ldw	r12,16(sp)
   27c60:	da000617 	ldw	r8,24(sp)
   27c64:	1002091e 	bne	r2,zero,2848c <___vfprintf_internal_r+0x2020>
   27c68:	057ff7c4 	movi	r21,-33
   27c6c:	40bfffe0 	cmpeqi	r2,r8,-1
   27c70:	e56a703a 	and	r21,fp,r21
   27c74:	1001ab1e 	bne	r2,zero,28324 <___vfprintf_internal_r+0x1eb8>
   27c78:	a88011d8 	cmpnei	r2,r21,71
   27c7c:	10015726 	beq	r2,zero,281dc <___vfprintf_internal_r+0x1d70>
   27c80:	60804014 	ori	r2,r12,256
   27c84:	d8800415 	stw	r2,16(sp)
   27c88:	d8800a17 	ldw	r2,40(sp)
   27c8c:	10012d16 	blt	r2,zero,28144 <___vfprintf_internal_r+0x1cd8>
   27c90:	dd000a17 	ldw	r20,40(sp)
   27c94:	d8000605 	stb	zero,24(sp)
   27c98:	e08019a0 	cmpeqi	r2,fp,102
   27c9c:	d8800f15 	stw	r2,60(sp)
   27ca0:	1000c31e 	bne	r2,zero,27fb0 <___vfprintf_internal_r+0x1b44>
   27ca4:	e08011a0 	cmpeqi	r2,fp,70
   27ca8:	1000c11e 	bne	r2,zero,27fb0 <___vfprintf_internal_r+0x1b44>
   27cac:	a8801158 	cmpnei	r2,r21,69
   27cb0:	10016226 	beq	r2,zero,2823c <___vfprintf_internal_r+0x1dd0>
   27cb4:	d8801804 	addi	r2,sp,96
   27cb8:	d8800315 	stw	r2,12(sp)
   27cbc:	d9400917 	ldw	r5,36(sp)
   27cc0:	d8801504 	addi	r2,sp,84
   27cc4:	d8800215 	stw	r2,8(sp)
   27cc8:	d8801404 	addi	r2,sp,80
   27ccc:	da000015 	stw	r8,0(sp)
   27cd0:	9809883a 	mov	r4,r19
   27cd4:	d8800115 	stw	r2,4(sp)
   27cd8:	01c00084 	movi	r7,2
   27cdc:	a00d883a 	mov	r6,r20
   27ce0:	db000815 	stw	r12,32(sp)
   27ce4:	da000715 	stw	r8,28(sp)
   27ce8:	0028a380 	call	28a38 <_dtoa_r>
   27cec:	da000717 	ldw	r8,28(sp)
   27cf0:	e10019d8 	cmpnei	r4,fp,103
   27cf4:	db000817 	ldw	r12,32(sp)
   27cf8:	1023883a 	mov	r17,r2
   27cfc:	4007883a 	mov	r3,r8
   27d00:	2001621e 	bne	r4,zero,2828c <___vfprintf_internal_r+0x1e20>
   27d04:	6080004c 	andi	r2,r12,1
   27d08:	1001621e 	bne	r2,zero,28294 <___vfprintf_internal_r+0x1e28>
   27d0c:	d8801417 	ldw	r2,80(sp)
   27d10:	ad4011e0 	cmpeqi	r21,r21,71
   27d14:	d8800715 	stw	r2,28(sp)
   27d18:	d8801817 	ldw	r2,96(sp)
   27d1c:	1445c83a 	sub	r2,r2,r17
   27d20:	d8800815 	stw	r2,32(sp)
   27d24:	a8000526 	beq	r21,zero,27d3c <___vfprintf_internal_r+0x18d0>
   27d28:	d8c00717 	ldw	r3,28(sp)
   27d2c:	18bfff50 	cmplti	r2,r3,-3
   27d30:	1000011e 	bne	r2,zero,27d38 <___vfprintf_internal_r+0x18cc>
   27d34:	40c1670e 	bge	r8,r3,282d4 <___vfprintf_internal_r+0x1e68>
   27d38:	e73fff84 	addi	fp,fp,-2
   27d3c:	d8800717 	ldw	r2,28(sp)
   27d40:	df001645 	stb	fp,89(sp)
   27d44:	157fffc4 	addi	r21,r2,-1
   27d48:	dd401415 	stw	r21,80(sp)
   27d4c:	a801c316 	blt	r21,zero,2845c <___vfprintf_internal_r+0x1ff0>
   27d50:	00800ac4 	movi	r2,43
   27d54:	d8801685 	stb	r2,90(sp)
   27d58:	a8800290 	cmplti	r2,r21,10
   27d5c:	1001b81e 	bne	r2,zero,28440 <___vfprintf_internal_r+0x1fd4>
   27d60:	d98019c4 	addi	r6,sp,103
   27d64:	9029883a 	mov	r20,r18
   27d68:	dc400715 	stw	r17,28(sp)
   27d6c:	8025883a 	mov	r18,r16
   27d70:	db000f15 	stw	r12,60(sp)
   27d74:	3021883a 	mov	r16,r6
   27d78:	a809883a 	mov	r4,r21
   27d7c:	01400284 	movi	r5,10
   27d80:	0020f1c0 	call	20f1c <__modsi3>
   27d84:	10800c04 	addi	r2,r2,48
   27d88:	a809883a 	mov	r4,r21
   27d8c:	80bfffc5 	stb	r2,-1(r16)
   27d90:	01400284 	movi	r5,10
   27d94:	0020e9c0 	call	20e9c <__divsi3>
   27d98:	a9001908 	cmpgei	r4,r21,100
   27d9c:	8023883a 	mov	r17,r16
   27da0:	102b883a 	mov	r21,r2
   27da4:	843fffc4 	addi	r16,r16,-1
   27da8:	203ff31e 	bne	r4,zero,27d78 <___vfprintf_internal_r+0x190c>
   27dac:	800d883a 	mov	r6,r16
   27db0:	11000c04 	addi	r4,r2,48
   27db4:	9021883a 	mov	r16,r18
   27db8:	a025883a 	mov	r18,r20
   27dbc:	8829883a 	mov	r20,r17
   27dc0:	a0bfff84 	addi	r2,r20,-2
   27dc4:	313fffc5 	stb	r4,-1(r6)
   27dc8:	d8c019c4 	addi	r3,sp,103
   27dcc:	db000f17 	ldw	r12,60(sp)
   27dd0:	dc400717 	ldw	r17,28(sp)
   27dd4:	10c1cd2e 	bgeu	r2,r3,2850c <___vfprintf_internal_r+0x20a0>
   27dd8:	d8c016c4 	addi	r3,sp,91
   27ddc:	00000106 	br	27de4 <___vfprintf_internal_r+0x1978>
   27de0:	11000003 	ldbu	r4,0(r2)
   27de4:	19000005 	stb	r4,0(r3)
   27de8:	10800044 	addi	r2,r2,1
   27dec:	d90019c4 	addi	r4,sp,103
   27df0:	18c00044 	addi	r3,r3,1
   27df4:	113ffa1e 	bne	r2,r4,27de0 <___vfprintf_internal_r+0x1974>
   27df8:	d8801a44 	addi	r2,sp,105
   27dfc:	d8c016c4 	addi	r3,sp,91
   27e00:	1505c83a 	sub	r2,r2,r20
   27e04:	1885883a 	add	r2,r3,r2
   27e08:	d8c01644 	addi	r3,sp,89
   27e0c:	10c5c83a 	sub	r2,r2,r3
   27e10:	d8801015 	stw	r2,64(sp)
   27e14:	d8c00817 	ldw	r3,32(sp)
   27e18:	d9001017 	ldw	r4,64(sp)
   27e1c:	18800088 	cmpgei	r2,r3,2
   27e20:	20eb883a 	add	r21,r4,r3
   27e24:	10019226 	beq	r2,zero,28470 <___vfprintf_internal_r+0x2004>
   27e28:	d8800b17 	ldw	r2,44(sp)
   27e2c:	a8ab883a 	add	r21,r21,r2
   27e30:	a829883a 	mov	r20,r21
   27e34:	a800010e 	bge	r21,zero,27e3c <___vfprintf_internal_r+0x19d0>
   27e38:	0029883a 	mov	r20,zero
   27e3c:	d8000715 	stw	zero,28(sp)
   27e40:	00008e06 	br	2807c <___vfprintf_internal_r+0x1c10>
   27e44:	880f883a 	mov	r7,r17
   27e48:	10800044 	addi	r2,r2,1
   27e4c:	1d47883a 	add	r3,r3,r21
   27e50:	b1c00015 	stw	r7,0(r22)
   27e54:	003a7b06 	br	26844 <___vfprintf_internal_r+0x3d8>
   27e58:	d9801a04 	addi	r6,sp,104
   27e5c:	900b883a 	mov	r5,r18
   27e60:	9809883a 	mov	r4,r19
   27e64:	002d10c0 	call	2d10c <__sprint_r>
   27e68:	103a8d1e 	bne	r2,zero,268a0 <___vfprintf_internal_r+0x434>
   27e6c:	d8c01c17 	ldw	r3,112(sp)
   27e70:	dd802704 	addi	r22,sp,156
   27e74:	003c8b06 	br	270a4 <___vfprintf_internal_r+0xc38>
   27e78:	d9801a04 	addi	r6,sp,104
   27e7c:	900b883a 	mov	r5,r18
   27e80:	9809883a 	mov	r4,r19
   27e84:	da000e15 	stw	r8,56(sp)
   27e88:	002d10c0 	call	2d10c <__sprint_r>
   27e8c:	103a841e 	bne	r2,zero,268a0 <___vfprintf_internal_r+0x434>
   27e90:	d8c01c17 	ldw	r3,112(sp)
   27e94:	da000e17 	ldw	r8,56(sp)
   27e98:	dd802704 	addi	r22,sp,156
   27e9c:	003a6006 	br	26820 <___vfprintf_internal_r+0x3b4>
   27ea0:	8809883a 	mov	r4,r17
   27ea4:	db000415 	stw	r12,16(sp)
   27ea8:	d8c00615 	stw	r3,24(sp)
   27eac:	002cebc0 	call	2cebc <strlen>
   27eb0:	db000417 	ldw	r12,16(sp)
   27eb4:	102b883a 	mov	r21,r2
   27eb8:	1029883a 	mov	r20,r2
   27ebc:	003a2e06 	br	26778 <___vfprintf_internal_r+0x30c>
   27ec0:	d8800d17 	ldw	r2,52(sp)
   27ec4:	d9000b17 	ldw	r4,44(sp)
   27ec8:	b0800015 	stw	r2,0(r22)
   27ecc:	d8801b17 	ldw	r2,108(sp)
   27ed0:	20c7883a 	add	r3,r4,r3
   27ed4:	b1000115 	stw	r4,4(r22)
   27ed8:	10800044 	addi	r2,r2,1
   27edc:	d8c01c15 	stw	r3,112(sp)
   27ee0:	d8801b15 	stw	r2,108(sp)
   27ee4:	11000208 	cmpgei	r4,r2,8
   27ee8:	2000bf1e 	bne	r4,zero,281e8 <___vfprintf_internal_r+0x1d7c>
   27eec:	b5800204 	addi	r22,r22,8
   27ef0:	283d3c0e 	bge	r5,zero,273e4 <___vfprintf_internal_r+0xf78>
   27ef4:	01c000f4 	movhi	r7,3
   27ef8:	293ffc08 	cmpgei	r4,r5,-16
   27efc:	39d26a04 	addi	r7,r7,18856
   27f00:	0179c83a 	sub	fp,zero,r5
   27f04:	2001361e 	bne	r4,zero,283e0 <___vfprintf_internal_r+0x1f74>
   27f08:	dc000715 	stw	r16,28(sp)
   27f0c:	05400404 	movi	r21,16
   27f10:	9021883a 	mov	r16,r18
   27f14:	3825883a 	mov	r18,r7
   27f18:	00000406 	br	27f2c <___vfprintf_internal_r+0x1ac0>
   27f1c:	b5800204 	addi	r22,r22,8
   27f20:	e73ffc04 	addi	fp,fp,-16
   27f24:	e1800448 	cmpgei	r6,fp,17
   27f28:	30012a26 	beq	r6,zero,283d4 <___vfprintf_internal_r+0x1f68>
   27f2c:	10800044 	addi	r2,r2,1
   27f30:	18c00404 	addi	r3,r3,16
   27f34:	b4800015 	stw	r18,0(r22)
   27f38:	b5400115 	stw	r21,4(r22)
   27f3c:	d8c01c15 	stw	r3,112(sp)
   27f40:	d8801b15 	stw	r2,108(sp)
   27f44:	11800208 	cmpgei	r6,r2,8
   27f48:	303ff426 	beq	r6,zero,27f1c <___vfprintf_internal_r+0x1ab0>
   27f4c:	d9801a04 	addi	r6,sp,104
   27f50:	800b883a 	mov	r5,r16
   27f54:	9809883a 	mov	r4,r19
   27f58:	002d10c0 	call	2d10c <__sprint_r>
   27f5c:	10015f1e 	bne	r2,zero,284dc <___vfprintf_internal_r+0x2070>
   27f60:	d8c01c17 	ldw	r3,112(sp)
   27f64:	d8801b17 	ldw	r2,108(sp)
   27f68:	dd802704 	addi	r22,sp,156
   27f6c:	003fec06 	br	27f20 <___vfprintf_internal_r+0x1ab4>
   27f70:	800f883a 	mov	r7,r16
   27f74:	dc000717 	ldw	r16,28(sp)
   27f78:	8817883a 	mov	r11,r17
   27f7c:	aa000044 	addi	r8,r21,1
   27f80:	e0800204 	addi	r2,fp,8
   27f84:	1ac7883a 	add	r3,r3,r11
   27f88:	e1c00015 	stw	r7,0(fp)
   27f8c:	e2c00115 	stw	r11,4(fp)
   27f90:	d8c01c15 	stw	r3,112(sp)
   27f94:	da001b15 	stw	r8,108(sp)
   27f98:	41000208 	cmpgei	r4,r8,8
   27f9c:	203eb31e 	bne	r4,zero,27a6c <___vfprintf_internal_r+0x1600>
   27fa0:	42000044 	addi	r8,r8,1
   27fa4:	15800204 	addi	r22,r2,8
   27fa8:	1039883a 	mov	fp,r2
   27fac:	003d5106 	br	274f4 <___vfprintf_internal_r+0x1088>
   27fb0:	d8801804 	addi	r2,sp,96
   27fb4:	d8800315 	stw	r2,12(sp)
   27fb8:	d9400917 	ldw	r5,36(sp)
   27fbc:	d8801504 	addi	r2,sp,84
   27fc0:	d8800215 	stw	r2,8(sp)
   27fc4:	d8801404 	addi	r2,sp,80
   27fc8:	da000015 	stw	r8,0(sp)
   27fcc:	d8800115 	stw	r2,4(sp)
   27fd0:	01c000c4 	movi	r7,3
   27fd4:	a00d883a 	mov	r6,r20
   27fd8:	9809883a 	mov	r4,r19
   27fdc:	db000815 	stw	r12,32(sp)
   27fe0:	da000715 	stw	r8,28(sp)
   27fe4:	0028a380 	call	28a38 <_dtoa_r>
   27fe8:	da000717 	ldw	r8,28(sp)
   27fec:	1023883a 	mov	r17,r2
   27ff0:	db000817 	ldw	r12,32(sp)
   27ff4:	1207883a 	add	r3,r2,r8
   27ff8:	88800007 	ldb	r2,0(r17)
   27ffc:	10800c20 	cmpeqi	r2,r2,48
   28000:	1000661e 	bne	r2,zero,2819c <___vfprintf_internal_r+0x1d30>
   28004:	d8801417 	ldw	r2,80(sp)
   28008:	1893883a 	add	r9,r3,r2
   2800c:	d9000917 	ldw	r4,36(sp)
   28010:	000d883a 	mov	r6,zero
   28014:	000f883a 	mov	r7,zero
   28018:	a00b883a 	mov	r5,r20
   2801c:	da401115 	stw	r9,68(sp)
   28020:	da000815 	stw	r8,32(sp)
   28024:	db000715 	stw	r12,28(sp)
   28028:	00304280 	call	30428 <__eqdf2>
   2802c:	db000717 	ldw	r12,28(sp)
   28030:	da000817 	ldw	r8,32(sp)
   28034:	da401117 	ldw	r9,68(sp)
   28038:	1000981e 	bne	r2,zero,2829c <___vfprintf_internal_r+0x1e30>
   2803c:	4805883a 	mov	r2,r9
   28040:	d8c01417 	ldw	r3,80(sp)
   28044:	1445c83a 	sub	r2,r2,r17
   28048:	ad4011d8 	cmpnei	r21,r21,71
   2804c:	d8c00715 	stw	r3,28(sp)
   28050:	d8800815 	stw	r2,32(sp)
   28054:	a83f3426 	beq	r21,zero,27d28 <___vfprintf_internal_r+0x18bc>
   28058:	d8800f17 	ldw	r2,60(sp)
   2805c:	103f3726 	beq	r2,zero,27d3c <___vfprintf_internal_r+0x18d0>
   28060:	d8c00717 	ldw	r3,28(sp)
   28064:	6080004c 	andi	r2,r12,1
   28068:	1204b03a 	or	r2,r2,r8
   2806c:	00c1130e 	bge	zero,r3,284bc <___vfprintf_internal_r+0x2050>
   28070:	10010e1e 	bne	r2,zero,284ac <___vfprintf_internal_r+0x2040>
   28074:	dd400717 	ldw	r21,28(sp)
   28078:	a829883a 	mov	r20,r21
   2807c:	d8800607 	ldb	r2,24(sp)
   28080:	10008f26 	beq	r2,zero,282c0 <___vfprintf_internal_r+0x1e54>
   28084:	00800b44 	movi	r2,45
   28088:	d8801345 	stb	r2,77(sp)
   2808c:	d8800e17 	ldw	r2,56(sp)
   28090:	0011883a 	mov	r8,zero
   28094:	d8800615 	stw	r2,24(sp)
   28098:	003b9406 	br	26eec <___vfprintf_internal_r+0xa80>
   2809c:	044000f4 	movhi	r17,3
   280a0:	8c525904 	addi	r17,r17,18788
   280a4:	003a8d06 	br	26adc <___vfprintf_internal_r+0x670>
   280a8:	d8800617 	ldw	r2,24(sp)
   280ac:	d8c00615 	stw	r3,24(sp)
   280b0:	15000017 	ldw	r20,0(r2)
   280b4:	a02bd7fa 	srai	r21,r20,31
   280b8:	a805883a 	mov	r2,r21
   280bc:	003ae506 	br	26c54 <___vfprintf_internal_r+0x7e8>
   280c0:	d8800617 	ldw	r2,24(sp)
   280c4:	002b883a 	mov	r21,zero
   280c8:	d8c00615 	stw	r3,24(sp)
   280cc:	15000017 	ldw	r20,0(r2)
   280d0:	0005883a 	mov	r2,zero
   280d4:	003a2606 	br	26970 <___vfprintf_internal_r+0x504>
   280d8:	d8800617 	ldw	r2,24(sp)
   280dc:	002b883a 	mov	r21,zero
   280e0:	d8c00615 	stw	r3,24(sp)
   280e4:	15000017 	ldw	r20,0(r2)
   280e8:	00800044 	movi	r2,1
   280ec:	003a2006 	br	26970 <___vfprintf_internal_r+0x504>
   280f0:	d8800617 	ldw	r2,24(sp)
   280f4:	002b883a 	mov	r21,zero
   280f8:	d8c00615 	stw	r3,24(sp)
   280fc:	15000017 	ldw	r20,0(r2)
   28100:	003af606 	br	26cdc <___vfprintf_internal_r+0x870>
   28104:	800f883a 	mov	r7,r16
   28108:	dc000e17 	ldw	r16,56(sp)
   2810c:	10800044 	addi	r2,r2,1
   28110:	1d47883a 	add	r3,r3,r21
   28114:	d8801b15 	stw	r2,108(sp)
   28118:	b1c00015 	stw	r7,0(r22)
   2811c:	b5400115 	stw	r21,4(r22)
   28120:	d8c01c15 	stw	r3,112(sp)
   28124:	10800208 	cmpgei	r2,r2,8
   28128:	10003a1e 	bne	r2,zero,28214 <___vfprintf_internal_r+0x1da8>
   2812c:	b5800204 	addi	r22,r22,8
   28130:	003d6c06 	br	276e4 <___vfprintf_internal_r+0x1278>
   28134:	00800b44 	movi	r2,45
   28138:	d8801345 	stb	r2,77(sp)
   2813c:	03400b44 	movi	r13,45
   28140:	003a6206 	br	26acc <___vfprintf_internal_r+0x660>
   28144:	1520003c 	xorhi	r20,r2,32768
   28148:	00800b44 	movi	r2,45
   2814c:	d8800605 	stb	r2,24(sp)
   28150:	003ed106 	br	27c98 <___vfprintf_internal_r+0x182c>
   28154:	d9801a04 	addi	r6,sp,104
   28158:	900b883a 	mov	r5,r18
   2815c:	9809883a 	mov	r4,r19
   28160:	002d10c0 	call	2d10c <__sprint_r>
   28164:	1039ce1e 	bne	r2,zero,268a0 <___vfprintf_internal_r+0x434>
   28168:	dd401417 	ldw	r21,80(sp)
   2816c:	d8c01c17 	ldw	r3,112(sp)
   28170:	dd802704 	addi	r22,sp,156
   28174:	003d6a06 	br	27720 <___vfprintf_internal_r+0x12b4>
   28178:	05400184 	movi	r21,6
   2817c:	003e5a06 	br	27ae8 <___vfprintf_internal_r+0x167c>
   28180:	d9801a04 	addi	r6,sp,104
   28184:	900b883a 	mov	r5,r18
   28188:	9809883a 	mov	r4,r19
   2818c:	002d10c0 	call	2d10c <__sprint_r>
   28190:	0039c306 	br	268a0 <___vfprintf_internal_r+0x434>
   28194:	d9401345 	stb	r5,77(sp)
   28198:	00397106 	br	26760 <___vfprintf_internal_r+0x2f4>
   2819c:	d9000917 	ldw	r4,36(sp)
   281a0:	000d883a 	mov	r6,zero
   281a4:	000f883a 	mov	r7,zero
   281a8:	a00b883a 	mov	r5,r20
   281ac:	d8c01115 	stw	r3,68(sp)
   281b0:	da000815 	stw	r8,32(sp)
   281b4:	db000715 	stw	r12,28(sp)
   281b8:	00304280 	call	30428 <__eqdf2>
   281bc:	db000717 	ldw	r12,28(sp)
   281c0:	da000817 	ldw	r8,32(sp)
   281c4:	d8c01117 	ldw	r3,68(sp)
   281c8:	103f8e26 	beq	r2,zero,28004 <___vfprintf_internal_r+0x1b98>
   281cc:	00800044 	movi	r2,1
   281d0:	1205c83a 	sub	r2,r2,r8
   281d4:	d8801415 	stw	r2,80(sp)
   281d8:	003f8b06 	br	28008 <___vfprintf_internal_r+0x1b9c>
   281dc:	403ea81e 	bne	r8,zero,27c80 <___vfprintf_internal_r+0x1814>
   281e0:	02000044 	movi	r8,1
   281e4:	003ea606 	br	27c80 <___vfprintf_internal_r+0x1814>
   281e8:	d9801a04 	addi	r6,sp,104
   281ec:	900b883a 	mov	r5,r18
   281f0:	9809883a 	mov	r4,r19
   281f4:	002d10c0 	call	2d10c <__sprint_r>
   281f8:	1039a91e 	bne	r2,zero,268a0 <___vfprintf_internal_r+0x434>
   281fc:	d9401417 	ldw	r5,80(sp)
   28200:	d8c01c17 	ldw	r3,112(sp)
   28204:	d8801b17 	ldw	r2,108(sp)
   28208:	dd802704 	addi	r22,sp,156
   2820c:	283c750e 	bge	r5,zero,273e4 <___vfprintf_internal_r+0xf78>
   28210:	003f3806 	br	27ef4 <___vfprintf_internal_r+0x1a88>
   28214:	d9801a04 	addi	r6,sp,104
   28218:	900b883a 	mov	r5,r18
   2821c:	9809883a 	mov	r4,r19
   28220:	002d10c0 	call	2d10c <__sprint_r>
   28224:	10399e1e 	bne	r2,zero,268a0 <___vfprintf_internal_r+0x434>
   28228:	d8c01c17 	ldw	r3,112(sp)
   2822c:	dd802704 	addi	r22,sp,156
   28230:	003d2c06 	br	276e4 <___vfprintf_internal_r+0x1278>
   28234:	db000417 	ldw	r12,16(sp)
   28238:	003a9306 	br	26c88 <___vfprintf_internal_r+0x81c>
   2823c:	d8801804 	addi	r2,sp,96
   28240:	d8800315 	stw	r2,12(sp)
   28244:	d9400917 	ldw	r5,36(sp)
   28248:	d8801504 	addi	r2,sp,84
   2824c:	40c00044 	addi	r3,r8,1
   28250:	d8800215 	stw	r2,8(sp)
   28254:	d8801404 	addi	r2,sp,80
   28258:	d8c00015 	stw	r3,0(sp)
   2825c:	d8800115 	stw	r2,4(sp)
   28260:	01c00084 	movi	r7,2
   28264:	a00d883a 	mov	r6,r20
   28268:	9809883a 	mov	r4,r19
   2826c:	db001115 	stw	r12,68(sp)
   28270:	da000815 	stw	r8,32(sp)
   28274:	d8c00715 	stw	r3,28(sp)
   28278:	0028a380 	call	28a38 <_dtoa_r>
   2827c:	d8c00717 	ldw	r3,28(sp)
   28280:	da000817 	ldw	r8,32(sp)
   28284:	db001117 	ldw	r12,68(sp)
   28288:	1023883a 	mov	r17,r2
   2828c:	e08011d8 	cmpnei	r2,fp,71
   28290:	103e9c26 	beq	r2,zero,27d04 <___vfprintf_internal_r+0x1898>
   28294:	88d3883a 	add	r9,r17,r3
   28298:	003f5c06 	br	2800c <___vfprintf_internal_r+0x1ba0>
   2829c:	d8801817 	ldw	r2,96(sp)
   282a0:	127f672e 	bgeu	r2,r9,28040 <___vfprintf_internal_r+0x1bd4>
   282a4:	01000c04 	movi	r4,48
   282a8:	10c00044 	addi	r3,r2,1
   282ac:	d8c01815 	stw	r3,96(sp)
   282b0:	11000005 	stb	r4,0(r2)
   282b4:	d8801817 	ldw	r2,96(sp)
   282b8:	127ffb36 	bltu	r2,r9,282a8 <___vfprintf_internal_r+0x1e3c>
   282bc:	003f6006 	br	28040 <___vfprintf_internal_r+0x1bd4>
   282c0:	d8800e17 	ldw	r2,56(sp)
   282c4:	db401343 	ldbu	r13,77(sp)
   282c8:	0011883a 	mov	r8,zero
   282cc:	d8800615 	stw	r2,24(sp)
   282d0:	003b0206 	br	26edc <___vfprintf_internal_r+0xa70>
   282d4:	d8800717 	ldw	r2,28(sp)
   282d8:	d8c00817 	ldw	r3,32(sp)
   282dc:	10c02216 	blt	r2,r3,28368 <___vfprintf_internal_r+0x1efc>
   282e0:	6300004c 	andi	r12,r12,1
   282e4:	60004f1e 	bne	r12,zero,28424 <___vfprintf_internal_r+0x1fb8>
   282e8:	1029883a 	mov	r20,r2
   282ec:	1000010e 	bge	r2,zero,282f4 <___vfprintf_internal_r+0x1e88>
   282f0:	0029883a 	mov	r20,zero
   282f4:	dd400717 	ldw	r21,28(sp)
   282f8:	070019c4 	movi	fp,103
   282fc:	003f5f06 	br	2807c <___vfprintf_internal_r+0x1c10>
   28300:	d9801a04 	addi	r6,sp,104
   28304:	900b883a 	mov	r5,r18
   28308:	9809883a 	mov	r4,r19
   2830c:	002d10c0 	call	2d10c <__sprint_r>
   28310:	1039631e 	bne	r2,zero,268a0 <___vfprintf_internal_r+0x434>
   28314:	d8c01c17 	ldw	r3,112(sp)
   28318:	dd802704 	addi	r22,sp,156
   2831c:	a83cee0e 	bge	r21,zero,276d8 <___vfprintf_internal_r+0x126c>
   28320:	003dec06 	br	27ad4 <___vfprintf_internal_r+0x1668>
   28324:	02000184 	movi	r8,6
   28328:	003e5506 	br	27c80 <___vfprintf_internal_r+0x1814>
   2832c:	d9801a04 	addi	r6,sp,104
   28330:	900b883a 	mov	r5,r18
   28334:	9809883a 	mov	r4,r19
   28338:	002d10c0 	call	2d10c <__sprint_r>
   2833c:	1039581e 	bne	r2,zero,268a0 <___vfprintf_internal_r+0x434>
   28340:	d8801417 	ldw	r2,80(sp)
   28344:	d9000817 	ldw	r4,32(sp)
   28348:	d8c01c17 	ldw	r3,112(sp)
   2834c:	dd802704 	addi	r22,sp,156
   28350:	2085c83a 	sub	r2,r4,r2
   28354:	003d0606 	br	27770 <___vfprintf_internal_r+0x1304>
   28358:	4029883a 	mov	r20,r8
   2835c:	d8c00615 	stw	r3,24(sp)
   28360:	402b883a 	mov	r21,r8
   28364:	00390406 	br	26778 <___vfprintf_internal_r+0x30c>
   28368:	d8800817 	ldw	r2,32(sp)
   2836c:	d8c00b17 	ldw	r3,44(sp)
   28370:	10eb883a 	add	r21,r2,r3
   28374:	d8800717 	ldw	r2,28(sp)
   28378:	00800316 	blt	zero,r2,28388 <___vfprintf_internal_r+0x1f1c>
   2837c:	d8800717 	ldw	r2,28(sp)
   28380:	a8abc83a 	sub	r21,r21,r2
   28384:	ad400044 	addi	r21,r21,1
   28388:	a829883a 	mov	r20,r21
   2838c:	a8002a16 	blt	r21,zero,28438 <___vfprintf_internal_r+0x1fcc>
   28390:	070019c4 	movi	fp,103
   28394:	003f3906 	br	2807c <___vfprintf_internal_r+0x1c10>
   28398:	d9401345 	stb	r5,77(sp)
   2839c:	003a2506 	br	26c34 <___vfprintf_internal_r+0x7c8>
   283a0:	d9401345 	stb	r5,77(sp)
   283a4:	003b1806 	br	27008 <___vfprintf_internal_r+0xb9c>
   283a8:	d9401345 	stb	r5,77(sp)
   283ac:	003a9006 	br	26df0 <___vfprintf_internal_r+0x984>
   283b0:	d9401345 	stb	r5,77(sp)
   283b4:	003a3f06 	br	26cb4 <___vfprintf_internal_r+0x848>
   283b8:	d9401345 	stb	r5,77(sp)
   283bc:	003a7806 	br	26da0 <___vfprintf_internal_r+0x934>
   283c0:	d9401345 	stb	r5,77(sp)
   283c4:	00399606 	br	26a20 <___vfprintf_internal_r+0x5b4>
   283c8:	00bfffc4 	movi	r2,-1
   283cc:	d8800515 	stw	r2,20(sp)
   283d0:	00393606 	br	268ac <___vfprintf_internal_r+0x440>
   283d4:	900f883a 	mov	r7,r18
   283d8:	8025883a 	mov	r18,r16
   283dc:	dc000717 	ldw	r16,28(sp)
   283e0:	10800044 	addi	r2,r2,1
   283e4:	1f07883a 	add	r3,r3,fp
   283e8:	b1c00015 	stw	r7,0(r22)
   283ec:	b7000115 	stw	fp,4(r22)
   283f0:	d8c01c15 	stw	r3,112(sp)
   283f4:	d8801b15 	stw	r2,108(sp)
   283f8:	11000208 	cmpgei	r4,r2,8
   283fc:	203bf826 	beq	r4,zero,273e0 <___vfprintf_internal_r+0xf74>
   28400:	d9801a04 	addi	r6,sp,104
   28404:	900b883a 	mov	r5,r18
   28408:	9809883a 	mov	r4,r19
   2840c:	002d10c0 	call	2d10c <__sprint_r>
   28410:	1039231e 	bne	r2,zero,268a0 <___vfprintf_internal_r+0x434>
   28414:	d8c01c17 	ldw	r3,112(sp)
   28418:	d8801b17 	ldw	r2,108(sp)
   2841c:	dd802704 	addi	r22,sp,156
   28420:	003bf006 	br	273e4 <___vfprintf_internal_r+0xf78>
   28424:	d8800717 	ldw	r2,28(sp)
   28428:	d8c00b17 	ldw	r3,44(sp)
   2842c:	10eb883a 	add	r21,r2,r3
   28430:	a829883a 	mov	r20,r21
   28434:	a83fd60e 	bge	r21,zero,28390 <___vfprintf_internal_r+0x1f24>
   28438:	0029883a 	mov	r20,zero
   2843c:	003fd406 	br	28390 <___vfprintf_internal_r+0x1f24>
   28440:	00800c04 	movi	r2,48
   28444:	ad400c04 	addi	r21,r21,48
   28448:	d88016c5 	stb	r2,91(sp)
   2844c:	00800104 	movi	r2,4
   28450:	dd401705 	stb	r21,92(sp)
   28454:	d8801015 	stw	r2,64(sp)
   28458:	003e6e06 	br	27e14 <___vfprintf_internal_r+0x19a8>
   2845c:	05400044 	movi	r21,1
   28460:	a8abc83a 	sub	r21,r21,r2
   28464:	00800b44 	movi	r2,45
   28468:	d8801685 	stb	r2,90(sp)
   2846c:	003e3a06 	br	27d58 <___vfprintf_internal_r+0x18ec>
   28470:	6080004c 	andi	r2,r12,1
   28474:	d8800715 	stw	r2,28(sp)
   28478:	103e6b1e 	bne	r2,zero,27e28 <___vfprintf_internal_r+0x19bc>
   2847c:	a829883a 	mov	r20,r21
   28480:	a83efe0e 	bge	r21,zero,2807c <___vfprintf_internal_r+0x1c10>
   28484:	0029883a 	mov	r20,zero
   28488:	003efc06 	br	2807c <___vfprintf_internal_r+0x1c10>
   2848c:	d8800a17 	ldw	r2,40(sp)
   28490:	10001a16 	blt	r2,zero,284fc <___vfprintf_internal_r+0x2090>
   28494:	db401343 	ldbu	r13,77(sp)
   28498:	e0801210 	cmplti	r2,fp,72
   2849c:	1000141e 	bne	r2,zero,284f0 <___vfprintf_internal_r+0x2084>
   284a0:	044000f4 	movhi	r17,3
   284a4:	8c525c04 	addi	r17,r17,18800
   284a8:	00398c06 	br	26adc <___vfprintf_internal_r+0x670>
   284ac:	d8800b17 	ldw	r2,44(sp)
   284b0:	18ab883a 	add	r21,r3,r2
   284b4:	aa2b883a 	add	r21,r21,r8
   284b8:	003ff006 	br	2847c <___vfprintf_internal_r+0x2010>
   284bc:	1000031e 	bne	r2,zero,284cc <___vfprintf_internal_r+0x2060>
   284c0:	05000044 	movi	r20,1
   284c4:	05400044 	movi	r21,1
   284c8:	003eec06 	br	2807c <___vfprintf_internal_r+0x1c10>
   284cc:	d8800b17 	ldw	r2,44(sp)
   284d0:	15400044 	addi	r21,r2,1
   284d4:	aa2b883a 	add	r21,r21,r8
   284d8:	003fe806 	br	2847c <___vfprintf_internal_r+0x2010>
   284dc:	8025883a 	mov	r18,r16
   284e0:	0038ef06 	br	268a0 <___vfprintf_internal_r+0x434>
   284e4:	b005883a 	mov	r2,r22
   284e8:	39d26a04 	addi	r7,r7,18856
   284ec:	003ea506 	br	27f84 <___vfprintf_internal_r+0x1b18>
   284f0:	044000f4 	movhi	r17,3
   284f4:	8c525b04 	addi	r17,r17,18796
   284f8:	00397806 	br	26adc <___vfprintf_internal_r+0x670>
   284fc:	00800b44 	movi	r2,45
   28500:	d8801345 	stb	r2,77(sp)
   28504:	03400b44 	movi	r13,45
   28508:	003fe306 	br	28498 <___vfprintf_internal_r+0x202c>
   2850c:	00800084 	movi	r2,2
   28510:	d8801015 	stw	r2,64(sp)
   28514:	003e3f06 	br	27e14 <___vfprintf_internal_r+0x19a8>
   28518:	d8800617 	ldw	r2,24(sp)
   2851c:	12000017 	ldw	r8,0(r2)
   28520:	10800104 	addi	r2,r2,4
   28524:	4000010e 	bge	r8,zero,2852c <___vfprintf_internal_r+0x20c0>
   28528:	023fffc4 	movi	r8,-1
   2852c:	bf000043 	ldbu	fp,1(r23)
   28530:	d8800615 	stw	r2,24(sp)
   28534:	182f883a 	mov	r23,r3
   28538:	e2c03fcc 	andi	r11,fp,255
   2853c:	5ac0201c 	xori	r11,r11,128
   28540:	5affe004 	addi	r11,r11,-128
   28544:	00381506 	br	2659c <___vfprintf_internal_r+0x130>

00028548 <__vfprintf_internal>:
   28548:	00c000f4 	movhi	r3,3
   2854c:	2005883a 	mov	r2,r4
   28550:	191af817 	ldw	r4,27616(r3)
   28554:	300f883a 	mov	r7,r6
   28558:	280d883a 	mov	r6,r5
   2855c:	100b883a 	mov	r5,r2
   28560:	002646c1 	jmpi	2646c <___vfprintf_internal_r>

00028564 <__sbprintf>:
   28564:	2880030b 	ldhu	r2,12(r5)
   28568:	2b001917 	ldw	r12,100(r5)
   2856c:	2ac0038b 	ldhu	r11,14(r5)
   28570:	2a800717 	ldw	r10,28(r5)
   28574:	2a400917 	ldw	r9,36(r5)
   28578:	defee204 	addi	sp,sp,-1144
   2857c:	da001a04 	addi	r8,sp,104
   28580:	00c10004 	movi	r3,1024
   28584:	dc011a15 	stw	r16,1128(sp)
   28588:	10bfff4c 	andi	r2,r2,65533
   2858c:	2821883a 	mov	r16,r5
   28590:	d80b883a 	mov	r5,sp
   28594:	dc811c15 	stw	r18,1136(sp)
   28598:	dc411b15 	stw	r17,1132(sp)
   2859c:	dfc11d15 	stw	ra,1140(sp)
   285a0:	2025883a 	mov	r18,r4
   285a4:	d880030d 	sth	r2,12(sp)
   285a8:	db001915 	stw	r12,100(sp)
   285ac:	dac0038d 	sth	r11,14(sp)
   285b0:	da800715 	stw	r10,28(sp)
   285b4:	da400915 	stw	r9,36(sp)
   285b8:	da000015 	stw	r8,0(sp)
   285bc:	da000415 	stw	r8,16(sp)
   285c0:	d8c00215 	stw	r3,8(sp)
   285c4:	d8c00515 	stw	r3,20(sp)
   285c8:	d8000615 	stw	zero,24(sp)
   285cc:	002646c0 	call	2646c <___vfprintf_internal_r>
   285d0:	1023883a 	mov	r17,r2
   285d4:	10000d0e 	bge	r2,zero,2860c <__sbprintf+0xa8>
   285d8:	d880030b 	ldhu	r2,12(sp)
   285dc:	1080100c 	andi	r2,r2,64
   285e0:	10000326 	beq	r2,zero,285f0 <__sbprintf+0x8c>
   285e4:	8080030b 	ldhu	r2,12(r16)
   285e8:	10801014 	ori	r2,r2,64
   285ec:	8080030d 	sth	r2,12(r16)
   285f0:	8805883a 	mov	r2,r17
   285f4:	dfc11d17 	ldw	ra,1140(sp)
   285f8:	dc811c17 	ldw	r18,1136(sp)
   285fc:	dc411b17 	ldw	r17,1132(sp)
   28600:	dc011a17 	ldw	r16,1128(sp)
   28604:	dec11e04 	addi	sp,sp,1144
   28608:	f800283a 	ret
   2860c:	d80b883a 	mov	r5,sp
   28610:	9009883a 	mov	r4,r18
   28614:	0022a600 	call	22a60 <_fflush_r>
   28618:	103fef26 	beq	r2,zero,285d8 <__sbprintf+0x74>
   2861c:	047fffc4 	movi	r17,-1
   28620:	003fed06 	br	285d8 <__sbprintf+0x74>

00028624 <_write_r>:
   28624:	2807883a 	mov	r3,r5
   28628:	defffe04 	addi	sp,sp,-8
   2862c:	dc000015 	stw	r16,0(sp)
   28630:	300b883a 	mov	r5,r6
   28634:	00800134 	movhi	r2,4
   28638:	380d883a 	mov	r6,r7
   2863c:	2021883a 	mov	r16,r4
   28640:	1809883a 	mov	r4,r3
   28644:	dfc00115 	stw	ra,4(sp)
   28648:	10220b15 	stw	zero,-30676(r2)
   2864c:	003273c0 	call	3273c <write>
   28650:	10ffffd8 	cmpnei	r3,r2,-1
   28654:	18000426 	beq	r3,zero,28668 <_write_r+0x44>
   28658:	dfc00117 	ldw	ra,4(sp)
   2865c:	dc000017 	ldw	r16,0(sp)
   28660:	dec00204 	addi	sp,sp,8
   28664:	f800283a 	ret
   28668:	00c00134 	movhi	r3,4
   2866c:	18e20b17 	ldw	r3,-30676(r3)
   28670:	183ff926 	beq	r3,zero,28658 <_write_r+0x34>
   28674:	80c00015 	stw	r3,0(r16)
   28678:	dfc00117 	ldw	ra,4(sp)
   2867c:	dc000017 	ldw	r16,0(sp)
   28680:	dec00204 	addi	sp,sp,8
   28684:	f800283a 	ret

00028688 <__swsetup_r>:
   28688:	008000f4 	movhi	r2,3
   2868c:	109af817 	ldw	r2,27616(r2)
   28690:	defffd04 	addi	sp,sp,-12
   28694:	dc400115 	stw	r17,4(sp)
   28698:	dc000015 	stw	r16,0(sp)
   2869c:	dfc00215 	stw	ra,8(sp)
   286a0:	2023883a 	mov	r17,r4
   286a4:	2821883a 	mov	r16,r5
   286a8:	10000226 	beq	r2,zero,286b4 <__swsetup_r+0x2c>
   286ac:	10c00e17 	ldw	r3,56(r2)
   286b0:	18003326 	beq	r3,zero,28780 <__swsetup_r+0xf8>
   286b4:	8180030b 	ldhu	r6,12(r16)
   286b8:	30c0020c 	andi	r3,r6,8
   286bc:	3005883a 	mov	r2,r6
   286c0:	18000f26 	beq	r3,zero,28700 <__swsetup_r+0x78>
   286c4:	80c00417 	ldw	r3,16(r16)
   286c8:	18001626 	beq	r3,zero,28724 <__swsetup_r+0x9c>
   286cc:	1100004c 	andi	r4,r2,1
   286d0:	20001f1e 	bne	r4,zero,28750 <__swsetup_r+0xc8>
   286d4:	1100008c 	andi	r4,r2,2
   286d8:	20002c1e 	bne	r4,zero,2878c <__swsetup_r+0x104>
   286dc:	81000517 	ldw	r4,20(r16)
   286e0:	81000215 	stw	r4,8(r16)
   286e4:	18001f26 	beq	r3,zero,28764 <__swsetup_r+0xdc>
   286e8:	0005883a 	mov	r2,zero
   286ec:	dfc00217 	ldw	ra,8(sp)
   286f0:	dc400117 	ldw	r17,4(sp)
   286f4:	dc000017 	ldw	r16,0(sp)
   286f8:	dec00304 	addi	sp,sp,12
   286fc:	f800283a 	ret
   28700:	3080040c 	andi	r2,r6,16
   28704:	10003126 	beq	r2,zero,287cc <__swsetup_r+0x144>
   28708:	3080010c 	andi	r2,r6,4
   2870c:	1000211e 	bne	r2,zero,28794 <__swsetup_r+0x10c>
   28710:	80c00417 	ldw	r3,16(r16)
   28714:	30800214 	ori	r2,r6,8
   28718:	8080030d 	sth	r2,12(r16)
   2871c:	100d883a 	mov	r6,r2
   28720:	183fea1e 	bne	r3,zero,286cc <__swsetup_r+0x44>
   28724:	1100a00c 	andi	r4,r2,640
   28728:	21008020 	cmpeqi	r4,r4,512
   2872c:	203fe71e 	bne	r4,zero,286cc <__swsetup_r+0x44>
   28730:	8809883a 	mov	r4,r17
   28734:	800b883a 	mov	r5,r16
   28738:	0023c640 	call	23c64 <__smakebuf_r>
   2873c:	8180030b 	ldhu	r6,12(r16)
   28740:	80c00417 	ldw	r3,16(r16)
   28744:	3005883a 	mov	r2,r6
   28748:	1100004c 	andi	r4,r2,1
   2874c:	203fe126 	beq	r4,zero,286d4 <__swsetup_r+0x4c>
   28750:	81000517 	ldw	r4,20(r16)
   28754:	80000215 	stw	zero,8(r16)
   28758:	0109c83a 	sub	r4,zero,r4
   2875c:	81000615 	stw	r4,24(r16)
   28760:	183fe11e 	bne	r3,zero,286e8 <__swsetup_r+0x60>
   28764:	10c0200c 	andi	r3,r2,128
   28768:	0005883a 	mov	r2,zero
   2876c:	183fdf26 	beq	r3,zero,286ec <__swsetup_r+0x64>
   28770:	31801014 	ori	r6,r6,64
   28774:	8180030d 	sth	r6,12(r16)
   28778:	00bfffc4 	movi	r2,-1
   2877c:	003fdb06 	br	286ec <__swsetup_r+0x64>
   28780:	1009883a 	mov	r4,r2
   28784:	0022de40 	call	22de4 <__sinit>
   28788:	003fca06 	br	286b4 <__swsetup_r+0x2c>
   2878c:	0009883a 	mov	r4,zero
   28790:	003fd306 	br	286e0 <__swsetup_r+0x58>
   28794:	81400c17 	ldw	r5,48(r16)
   28798:	28000626 	beq	r5,zero,287b4 <__swsetup_r+0x12c>
   2879c:	80801004 	addi	r2,r16,64
   287a0:	28800326 	beq	r5,r2,287b0 <__swsetup_r+0x128>
   287a4:	8809883a 	mov	r4,r17
   287a8:	002309c0 	call	2309c <_free_r>
   287ac:	8180030b 	ldhu	r6,12(r16)
   287b0:	80000c15 	stw	zero,48(r16)
   287b4:	80c00417 	ldw	r3,16(r16)
   287b8:	00bff6c4 	movi	r2,-37
   287bc:	118c703a 	and	r6,r2,r6
   287c0:	80000115 	stw	zero,4(r16)
   287c4:	80c00015 	stw	r3,0(r16)
   287c8:	003fd206 	br	28714 <__swsetup_r+0x8c>
   287cc:	00800244 	movi	r2,9
   287d0:	88800015 	stw	r2,0(r17)
   287d4:	31801014 	ori	r6,r6,64
   287d8:	8180030d 	sth	r6,12(r16)
   287dc:	00bfffc4 	movi	r2,-1
   287e0:	003fc206 	br	286ec <__swsetup_r+0x64>

000287e4 <_close_r>:
   287e4:	defffe04 	addi	sp,sp,-8
   287e8:	dc000015 	stw	r16,0(sp)
   287ec:	00800134 	movhi	r2,4
   287f0:	2021883a 	mov	r16,r4
   287f4:	2809883a 	mov	r4,r5
   287f8:	dfc00115 	stw	ra,4(sp)
   287fc:	10220b15 	stw	zero,-30676(r2)
   28800:	003174c0 	call	3174c <close>
   28804:	10ffffd8 	cmpnei	r3,r2,-1
   28808:	18000426 	beq	r3,zero,2881c <_close_r+0x38>
   2880c:	dfc00117 	ldw	ra,4(sp)
   28810:	dc000017 	ldw	r16,0(sp)
   28814:	dec00204 	addi	sp,sp,8
   28818:	f800283a 	ret
   2881c:	00c00134 	movhi	r3,4
   28820:	18e20b17 	ldw	r3,-30676(r3)
   28824:	183ff926 	beq	r3,zero,2880c <_close_r+0x28>
   28828:	80c00015 	stw	r3,0(r16)
   2882c:	dfc00117 	ldw	ra,4(sp)
   28830:	dc000017 	ldw	r16,0(sp)
   28834:	dec00204 	addi	sp,sp,8
   28838:	f800283a 	ret

0002883c <quorem>:
   2883c:	defff504 	addi	sp,sp,-44
   28840:	dc800315 	stw	r18,12(sp)
   28844:	20800417 	ldw	r2,16(r4)
   28848:	2c800417 	ldw	r18,16(r5)
   2884c:	dfc00a15 	stw	ra,40(sp)
   28850:	df000915 	stw	fp,36(sp)
   28854:	ddc00815 	stw	r23,32(sp)
   28858:	dd800715 	stw	r22,28(sp)
   2885c:	dd400615 	stw	r21,24(sp)
   28860:	dd000515 	stw	r20,20(sp)
   28864:	dcc00415 	stw	r19,16(sp)
   28868:	dc400215 	stw	r17,8(sp)
   2886c:	dc000115 	stw	r16,4(sp)
   28870:	14806f16 	blt	r2,r18,28a30 <quorem+0x1f4>
   28874:	94bfffc4 	addi	r18,r18,-1
   28878:	902c90ba 	slli	r22,r18,2
   2887c:	2c000504 	addi	r16,r5,20
   28880:	25000504 	addi	r20,r4,20
   28884:	85a7883a 	add	r19,r16,r22
   28888:	9f000017 	ldw	fp,0(r19)
   2888c:	a5ad883a 	add	r22,r20,r22
   28890:	202b883a 	mov	r21,r4
   28894:	b1000017 	ldw	r4,0(r22)
   28898:	e7000044 	addi	fp,fp,1
   2889c:	282f883a 	mov	r23,r5
   288a0:	e00b883a 	mov	r5,fp
   288a4:	d9000015 	stw	r4,0(sp)
   288a8:	0020f900 	call	20f90 <__udivsi3>
   288ac:	d9000017 	ldw	r4,0(sp)
   288b0:	1023883a 	mov	r17,r2
   288b4:	27002a36 	bltu	r4,fp,28960 <quorem+0x124>
   288b8:	800b883a 	mov	r5,r16
   288bc:	a009883a 	mov	r4,r20
   288c0:	0013883a 	mov	r9,zero
   288c4:	0007883a 	mov	r3,zero
   288c8:	2a000017 	ldw	r8,0(r5)
   288cc:	21800017 	ldw	r6,0(r4)
   288d0:	21000104 	addi	r4,r4,4
   288d4:	40bfffcc 	andi	r2,r8,65535
   288d8:	1445383a 	mul	r2,r2,r17
   288dc:	400ed43a 	srli	r7,r8,16
   288e0:	32bfffcc 	andi	r10,r6,65535
   288e4:	1245883a 	add	r2,r2,r9
   288e8:	1012d43a 	srli	r9,r2,16
   288ec:	123fffcc 	andi	r8,r2,65535
   288f0:	3c4f383a 	mul	r7,r7,r17
   288f4:	1a07c83a 	sub	r3,r3,r8
   288f8:	1a91883a 	add	r8,r3,r10
   288fc:	3006d43a 	srli	r3,r6,16
   28900:	4005d43a 	srai	r2,r8,16
   28904:	3a4f883a 	add	r7,r7,r9
   28908:	39bfffcc 	andi	r6,r7,65535
   2890c:	1987c83a 	sub	r3,r3,r6
   28910:	1887883a 	add	r3,r3,r2
   28914:	1804943a 	slli	r2,r3,16
   28918:	423fffcc 	andi	r8,r8,65535
   2891c:	29400104 	addi	r5,r5,4
   28920:	1210b03a 	or	r8,r2,r8
   28924:	223fff15 	stw	r8,-4(r4)
   28928:	3812d43a 	srli	r9,r7,16
   2892c:	1807d43a 	srai	r3,r3,16
   28930:	997fe52e 	bgeu	r19,r5,288c8 <quorem+0x8c>
   28934:	b0800017 	ldw	r2,0(r22)
   28938:	1000091e 	bne	r2,zero,28960 <quorem+0x124>
   2893c:	b5bfff04 	addi	r22,r22,-4
   28940:	a5800336 	bltu	r20,r22,28950 <quorem+0x114>
   28944:	00000506 	br	2895c <quorem+0x120>
   28948:	94bfffc4 	addi	r18,r18,-1
   2894c:	a580032e 	bgeu	r20,r22,2895c <quorem+0x120>
   28950:	b0800017 	ldw	r2,0(r22)
   28954:	b5bfff04 	addi	r22,r22,-4
   28958:	103ffb26 	beq	r2,zero,28948 <quorem+0x10c>
   2895c:	ac800415 	stw	r18,16(r21)
   28960:	b80b883a 	mov	r5,r23
   28964:	a809883a 	mov	r4,r21
   28968:	002c1100 	call	2c110 <__mcmp>
   2896c:	10002316 	blt	r2,zero,289fc <quorem+0x1c0>
   28970:	8c400044 	addi	r17,r17,1
   28974:	a00d883a 	mov	r6,r20
   28978:	0007883a 	mov	r3,zero
   2897c:	81000017 	ldw	r4,0(r16)
   28980:	31400017 	ldw	r5,0(r6)
   28984:	31800104 	addi	r6,r6,4
   28988:	20bfffcc 	andi	r2,r4,65535
   2898c:	1887c83a 	sub	r3,r3,r2
   28990:	28bfffcc 	andi	r2,r5,65535
   28994:	1885883a 	add	r2,r3,r2
   28998:	2008d43a 	srli	r4,r4,16
   2899c:	2806d43a 	srli	r3,r5,16
   289a0:	100fd43a 	srai	r7,r2,16
   289a4:	117fffcc 	andi	r5,r2,65535
   289a8:	1907c83a 	sub	r3,r3,r4
   289ac:	19c7883a 	add	r3,r3,r7
   289b0:	1804943a 	slli	r2,r3,16
   289b4:	84000104 	addi	r16,r16,4
   289b8:	1807d43a 	srai	r3,r3,16
   289bc:	1144b03a 	or	r2,r2,r5
   289c0:	30bfff15 	stw	r2,-4(r6)
   289c4:	9c3fed2e 	bgeu	r19,r16,2897c <quorem+0x140>
   289c8:	900490ba 	slli	r2,r18,2
   289cc:	a085883a 	add	r2,r20,r2
   289d0:	10c00017 	ldw	r3,0(r2)
   289d4:	1800091e 	bne	r3,zero,289fc <quorem+0x1c0>
   289d8:	10bfff04 	addi	r2,r2,-4
   289dc:	a0800336 	bltu	r20,r2,289ec <quorem+0x1b0>
   289e0:	00000506 	br	289f8 <quorem+0x1bc>
   289e4:	94bfffc4 	addi	r18,r18,-1
   289e8:	a080032e 	bgeu	r20,r2,289f8 <quorem+0x1bc>
   289ec:	10c00017 	ldw	r3,0(r2)
   289f0:	10bfff04 	addi	r2,r2,-4
   289f4:	183ffb26 	beq	r3,zero,289e4 <quorem+0x1a8>
   289f8:	ac800415 	stw	r18,16(r21)
   289fc:	8805883a 	mov	r2,r17
   28a00:	dfc00a17 	ldw	ra,40(sp)
   28a04:	df000917 	ldw	fp,36(sp)
   28a08:	ddc00817 	ldw	r23,32(sp)
   28a0c:	dd800717 	ldw	r22,28(sp)
   28a10:	dd400617 	ldw	r21,24(sp)
   28a14:	dd000517 	ldw	r20,20(sp)
   28a18:	dcc00417 	ldw	r19,16(sp)
   28a1c:	dc800317 	ldw	r18,12(sp)
   28a20:	dc400217 	ldw	r17,8(sp)
   28a24:	dc000117 	ldw	r16,4(sp)
   28a28:	dec00b04 	addi	sp,sp,44
   28a2c:	f800283a 	ret
   28a30:	0005883a 	mov	r2,zero
   28a34:	003ff206 	br	28a00 <quorem+0x1c4>

00028a38 <_dtoa_r>:
   28a38:	20801017 	ldw	r2,64(r4)
   28a3c:	deffe204 	addi	sp,sp,-120
   28a40:	ddc01b15 	stw	r23,108(sp)
   28a44:	dd001815 	stw	r20,96(sp)
   28a48:	dc801615 	stw	r18,88(sp)
   28a4c:	dc401515 	stw	r17,84(sp)
   28a50:	dc001415 	stw	r16,80(sp)
   28a54:	dfc01d15 	stw	ra,116(sp)
   28a58:	df001c15 	stw	fp,112(sp)
   28a5c:	dd801a15 	stw	r22,104(sp)
   28a60:	dd401915 	stw	r21,100(sp)
   28a64:	dcc01715 	stw	r19,92(sp)
   28a68:	d9c00115 	stw	r7,4(sp)
   28a6c:	dc002017 	ldw	r16,128(sp)
   28a70:	202f883a 	mov	r23,r4
   28a74:	3025883a 	mov	r18,r6
   28a78:	2829883a 	mov	r20,r5
   28a7c:	3023883a 	mov	r17,r6
   28a80:	10000826 	beq	r2,zero,28aa4 <_dtoa_r+0x6c>
   28a84:	21801117 	ldw	r6,68(r4)
   28a88:	00c00044 	movi	r3,1
   28a8c:	100b883a 	mov	r5,r2
   28a90:	1986983a 	sll	r3,r3,r6
   28a94:	11800115 	stw	r6,4(r2)
   28a98:	10c00215 	stw	r3,8(r2)
   28a9c:	002b8440 	call	2b844 <_Bfree>
   28aa0:	b8001015 	stw	zero,64(r23)
   28aa4:	90018616 	blt	r18,zero,290c0 <_dtoa_r+0x688>
   28aa8:	80000015 	stw	zero,0(r16)
   28aac:	909ffc2c 	andhi	r2,r18,32752
   28ab0:	00dffc34 	movhi	r3,32752
   28ab4:	10c18b26 	beq	r2,r3,290e4 <_dtoa_r+0x6ac>
   28ab8:	000d883a 	mov	r6,zero
   28abc:	000f883a 	mov	r7,zero
   28ac0:	a009883a 	mov	r4,r20
   28ac4:	880b883a 	mov	r5,r17
   28ac8:	00304280 	call	30428 <__eqdf2>
   28acc:	1000181e 	bne	r2,zero,28b30 <_dtoa_r+0xf8>
   28ad0:	d8c01f17 	ldw	r3,124(sp)
   28ad4:	00800044 	movi	r2,1
   28ad8:	18800015 	stw	r2,0(r3)
   28adc:	d8802117 	ldw	r2,132(sp)
   28ae0:	10030b26 	beq	r2,zero,29710 <_dtoa_r+0xcd8>
   28ae4:	d8c02117 	ldw	r3,132(sp)
   28ae8:	008000f4 	movhi	r2,3
   28aec:	10926944 	addi	r2,r2,18853
   28af0:	070000f4 	movhi	fp,3
   28af4:	18800015 	stw	r2,0(r3)
   28af8:	e7126904 	addi	fp,fp,18852
   28afc:	e005883a 	mov	r2,fp
   28b00:	dfc01d17 	ldw	ra,116(sp)
   28b04:	df001c17 	ldw	fp,112(sp)
   28b08:	ddc01b17 	ldw	r23,108(sp)
   28b0c:	dd801a17 	ldw	r22,104(sp)
   28b10:	dd401917 	ldw	r21,100(sp)
   28b14:	dd001817 	ldw	r20,96(sp)
   28b18:	dcc01717 	ldw	r19,92(sp)
   28b1c:	dc801617 	ldw	r18,88(sp)
   28b20:	dc401517 	ldw	r17,84(sp)
   28b24:	dc001417 	ldw	r16,80(sp)
   28b28:	dec01e04 	addi	sp,sp,120
   28b2c:	f800283a 	ret
   28b30:	d8801204 	addi	r2,sp,72
   28b34:	9020d53a 	srli	r16,r18,20
   28b38:	d8800015 	stw	r2,0(sp)
   28b3c:	d9c01304 	addi	r7,sp,76
   28b40:	a00b883a 	mov	r5,r20
   28b44:	880d883a 	mov	r6,r17
   28b48:	b809883a 	mov	r4,r23
   28b4c:	002c4f40 	call	2c4f4 <__d2b>
   28b50:	102d883a 	mov	r22,r2
   28b54:	8001741e 	bne	r16,zero,29128 <_dtoa_r+0x6f0>
   28b58:	df001217 	ldw	fp,72(sp)
   28b5c:	dc001317 	ldw	r16,76(sp)
   28b60:	e421883a 	add	r16,fp,r16
   28b64:	80810c84 	addi	r2,r16,1074
   28b68:	10c00850 	cmplti	r3,r2,33
   28b6c:	1802f81e 	bne	r3,zero,29750 <_dtoa_r+0xd18>
   28b70:	01001004 	movi	r4,64
   28b74:	2085c83a 	sub	r2,r4,r2
   28b78:	81010484 	addi	r4,r16,1042
   28b7c:	90a4983a 	sll	r18,r18,r2
   28b80:	a108d83a 	srl	r4,r20,r4
   28b84:	9108b03a 	or	r4,r18,r4
   28b88:	00316800 	call	31680 <__floatunsidf>
   28b8c:	1009883a 	mov	r4,r2
   28b90:	017f8434 	movhi	r5,65040
   28b94:	00800044 	movi	r2,1
   28b98:	194b883a 	add	r5,r3,r5
   28b9c:	843fffc4 	addi	r16,r16,-1
   28ba0:	d8800915 	stw	r2,36(sp)
   28ba4:	000d883a 	mov	r6,zero
   28ba8:	01cffe34 	movhi	r7,16376
   28bac:	0030cf80 	call	30cf8 <__subdf3>
   28bb0:	0198dbf4 	movhi	r6,25455
   28bb4:	01cff4f4 	movhi	r7,16339
   28bb8:	3190d844 	addi	r6,r6,17249
   28bbc:	39e1e9c4 	addi	r7,r7,-30809
   28bc0:	1009883a 	mov	r4,r2
   28bc4:	180b883a 	mov	r5,r3
   28bc8:	00306880 	call	30688 <__muldf3>
   28bcc:	01a2d874 	movhi	r6,35681
   28bd0:	01cff1f4 	movhi	r7,16327
   28bd4:	31b22cc4 	addi	r6,r6,-14157
   28bd8:	39e28a04 	addi	r7,r7,-30168
   28bdc:	180b883a 	mov	r5,r3
   28be0:	1009883a 	mov	r4,r2
   28be4:	00219f00 	call	219f0 <__adddf3>
   28be8:	8009883a 	mov	r4,r16
   28bec:	1027883a 	mov	r19,r2
   28bf0:	1825883a 	mov	r18,r3
   28bf4:	00223e80 	call	223e8 <__floatsidf>
   28bf8:	019427f4 	movhi	r6,20639
   28bfc:	01cff4f4 	movhi	r7,16339
   28c00:	319e7ec4 	addi	r6,r6,31227
   28c04:	39d104c4 	addi	r7,r7,17427
   28c08:	1009883a 	mov	r4,r2
   28c0c:	180b883a 	mov	r5,r3
   28c10:	00306880 	call	30688 <__muldf3>
   28c14:	100d883a 	mov	r6,r2
   28c18:	180f883a 	mov	r7,r3
   28c1c:	9809883a 	mov	r4,r19
   28c20:	900b883a 	mov	r5,r18
   28c24:	00219f00 	call	219f0 <__adddf3>
   28c28:	1009883a 	mov	r4,r2
   28c2c:	180b883a 	mov	r5,r3
   28c30:	1025883a 	mov	r18,r2
   28c34:	182b883a 	mov	r21,r3
   28c38:	00223680 	call	22368 <__fixdfsi>
   28c3c:	000d883a 	mov	r6,zero
   28c40:	000f883a 	mov	r7,zero
   28c44:	9009883a 	mov	r4,r18
   28c48:	a80b883a 	mov	r5,r21
   28c4c:	1027883a 	mov	r19,r2
   28c50:	00305980 	call	30598 <__ledf2>
   28c54:	1002a416 	blt	r2,zero,296e8 <_dtoa_r+0xcb0>
   28c58:	e439c83a 	sub	fp,fp,r16
   28c5c:	e0ffffc4 	addi	r3,fp,-1
   28c60:	988005e8 	cmpgeui	r2,r19,23
   28c64:	d8c00215 	stw	r3,8(sp)
   28c68:	1002961e 	bne	r2,zero,296c4 <_dtoa_r+0xc8c>
   28c6c:	980690fa 	slli	r3,r19,3
   28c70:	008000f4 	movhi	r2,3
   28c74:	10930804 	addi	r2,r2,19488
   28c78:	10c5883a 	add	r2,r2,r3
   28c7c:	11800017 	ldw	r6,0(r2)
   28c80:	11c00117 	ldw	r7,4(r2)
   28c84:	a009883a 	mov	r4,r20
   28c88:	880b883a 	mov	r5,r17
   28c8c:	00305980 	call	30598 <__ledf2>
   28c90:	1002670e 	bge	r2,zero,29630 <_dtoa_r+0xbf8>
   28c94:	d8000815 	stw	zero,32(sp)
   28c98:	e0bfffc4 	addi	r2,fp,-1
   28c9c:	9cffffc4 	addi	r19,r19,-1
   28ca0:	10028c16 	blt	r2,zero,296d4 <_dtoa_r+0xc9c>
   28ca4:	d8000515 	stw	zero,20(sp)
   28ca8:	9802650e 	bge	r19,zero,29640 <_dtoa_r+0xc08>
   28cac:	d8800517 	ldw	r2,20(sp)
   28cb0:	d8c00117 	ldw	r3,4(sp)
   28cb4:	dcc00315 	stw	r19,12(sp)
   28cb8:	14c5c83a 	sub	r2,r2,r19
   28cbc:	d8800515 	stw	r2,20(sp)
   28cc0:	04c5c83a 	sub	r2,zero,r19
   28cc4:	d8800715 	stw	r2,28(sp)
   28cc8:	188002a8 	cmpgeui	r2,r3,10
   28ccc:	0027883a 	mov	r19,zero
   28cd0:	1002631e 	bne	r2,zero,29660 <_dtoa_r+0xc28>
   28cd4:	18800190 	cmplti	r2,r3,6
   28cd8:	1002a11e 	bne	r2,zero,29760 <_dtoa_r+0xd28>
   28cdc:	18bfff04 	addi	r2,r3,-4
   28ce0:	d8800115 	stw	r2,4(sp)
   28ce4:	0021883a 	mov	r16,zero
   28ce8:	d8c00117 	ldw	r3,4(sp)
   28cec:	18800120 	cmpeqi	r2,r3,4
   28cf0:	1003721e 	bne	r2,zero,29abc <_dtoa_r+0x1084>
   28cf4:	18800160 	cmpeqi	r2,r3,5
   28cf8:	10032f1e 	bne	r2,zero,299b8 <_dtoa_r+0xf80>
   28cfc:	188000a0 	cmpeqi	r2,r3,2
   28d00:	10026326 	beq	r2,zero,29690 <_dtoa_r+0xc58>
   28d04:	d8000615 	stw	zero,24(sp)
   28d08:	d8801e17 	ldw	r2,120(sp)
   28d0c:	00833c0e 	bge	zero,r2,29a00 <_dtoa_r+0xfc8>
   28d10:	d8800b15 	stw	r2,44(sp)
   28d14:	d8800415 	stw	r2,16(sp)
   28d18:	100d883a 	mov	r6,r2
   28d1c:	b8001115 	stw	zero,68(r23)
   28d20:	30800610 	cmplti	r2,r6,24
   28d24:	1005161e 	bne	r2,zero,2a180 <_dtoa_r+0x1748>
   28d28:	00c00044 	movi	r3,1
   28d2c:	00800104 	movi	r2,4
   28d30:	1085883a 	add	r2,r2,r2
   28d34:	11000504 	addi	r4,r2,20
   28d38:	180b883a 	mov	r5,r3
   28d3c:	18c00044 	addi	r3,r3,1
   28d40:	313ffb2e 	bgeu	r6,r4,28d30 <_dtoa_r+0x2f8>
   28d44:	b9401115 	stw	r5,68(r23)
   28d48:	b809883a 	mov	r4,r23
   28d4c:	002b7a00 	call	2b7a0 <_Balloc>
   28d50:	1039883a 	mov	fp,r2
   28d54:	1004f526 	beq	r2,zero,2a12c <_dtoa_r+0x16f4>
   28d58:	b8801015 	stw	r2,64(r23)
   28d5c:	d8800417 	ldw	r2,16(sp)
   28d60:	108003e8 	cmpgeui	r2,r2,15
   28d64:	10010b1e 	bne	r2,zero,29194 <_dtoa_r+0x75c>
   28d68:	80010a26 	beq	r16,zero,29194 <_dtoa_r+0x75c>
   28d6c:	d9000317 	ldw	r4,12(sp)
   28d70:	0103a30e 	bge	zero,r4,29c00 <_dtoa_r+0x11c8>
   28d74:	208003cc 	andi	r2,r4,15
   28d78:	100690fa 	slli	r3,r2,3
   28d7c:	202bd13a 	srai	r21,r4,4
   28d80:	008000f4 	movhi	r2,3
   28d84:	10930804 	addi	r2,r2,19488
   28d88:	10c5883a 	add	r2,r2,r3
   28d8c:	a8c0040c 	andi	r3,r21,16
   28d90:	12800017 	ldw	r10,0(r2)
   28d94:	12400117 	ldw	r9,4(r2)
   28d98:	18034226 	beq	r3,zero,29aa4 <_dtoa_r+0x106c>
   28d9c:	008000f4 	movhi	r2,3
   28da0:	1092fe04 	addi	r2,r2,19448
   28da4:	11800817 	ldw	r6,32(r2)
   28da8:	11c00917 	ldw	r7,36(r2)
   28dac:	a009883a 	mov	r4,r20
   28db0:	880b883a 	mov	r5,r17
   28db4:	da400e15 	stw	r9,56(sp)
   28db8:	da800d15 	stw	r10,52(sp)
   28dbc:	002fbc80 	call	2fbc8 <__divdf3>
   28dc0:	da800d17 	ldw	r10,52(sp)
   28dc4:	da400e17 	ldw	r9,56(sp)
   28dc8:	ad4003cc 	andi	r21,r21,15
   28dcc:	d8800a15 	stw	r2,40(sp)
   28dd0:	d8c00c15 	stw	r3,48(sp)
   28dd4:	040000c4 	movi	r16,3
   28dd8:	a8001126 	beq	r21,zero,28e20 <_dtoa_r+0x3e8>
   28ddc:	048000f4 	movhi	r18,3
   28de0:	9492fe04 	addi	r18,r18,19448
   28de4:	5009883a 	mov	r4,r10
   28de8:	480b883a 	mov	r5,r9
   28dec:	a980004c 	andi	r6,r21,1
   28df0:	30000626 	beq	r6,zero,28e0c <_dtoa_r+0x3d4>
   28df4:	91800017 	ldw	r6,0(r18)
   28df8:	91c00117 	ldw	r7,4(r18)
   28dfc:	84000044 	addi	r16,r16,1
   28e00:	00306880 	call	30688 <__muldf3>
   28e04:	1009883a 	mov	r4,r2
   28e08:	180b883a 	mov	r5,r3
   28e0c:	a82bd07a 	srai	r21,r21,1
   28e10:	94800204 	addi	r18,r18,8
   28e14:	a83ff51e 	bne	r21,zero,28dec <_dtoa_r+0x3b4>
   28e18:	2015883a 	mov	r10,r4
   28e1c:	2813883a 	mov	r9,r5
   28e20:	d9000a17 	ldw	r4,40(sp)
   28e24:	d9400c17 	ldw	r5,48(sp)
   28e28:	500d883a 	mov	r6,r10
   28e2c:	480f883a 	mov	r7,r9
   28e30:	002fbc80 	call	2fbc8 <__divdf3>
   28e34:	1025883a 	mov	r18,r2
   28e38:	d8c00a15 	stw	r3,40(sp)
   28e3c:	d8800817 	ldw	r2,32(sp)
   28e40:	10000726 	beq	r2,zero,28e60 <_dtoa_r+0x428>
   28e44:	dd400a17 	ldw	r21,40(sp)
   28e48:	000d883a 	mov	r6,zero
   28e4c:	01cffc34 	movhi	r7,16368
   28e50:	9009883a 	mov	r4,r18
   28e54:	a80b883a 	mov	r5,r21
   28e58:	00305980 	call	30598 <__ledf2>
   28e5c:	10045516 	blt	r2,zero,29fb4 <_dtoa_r+0x157c>
   28e60:	8009883a 	mov	r4,r16
   28e64:	00223e80 	call	223e8 <__floatsidf>
   28e68:	d9c00a17 	ldw	r7,40(sp)
   28e6c:	900d883a 	mov	r6,r18
   28e70:	1009883a 	mov	r4,r2
   28e74:	180b883a 	mov	r5,r3
   28e78:	00306880 	call	30688 <__muldf3>
   28e7c:	000d883a 	mov	r6,zero
   28e80:	01d00734 	movhi	r7,16412
   28e84:	1009883a 	mov	r4,r2
   28e88:	180b883a 	mov	r5,r3
   28e8c:	00219f00 	call	219f0 <__adddf3>
   28e90:	d8800c15 	stw	r2,48(sp)
   28e94:	00bf3034 	movhi	r2,64704
   28e98:	1885883a 	add	r2,r3,r2
   28e9c:	d8800d15 	stw	r2,52(sp)
   28ea0:	d8800417 	ldw	r2,16(sp)
   28ea4:	10033926 	beq	r2,zero,29b8c <_dtoa_r+0x1154>
   28ea8:	d8800317 	ldw	r2,12(sp)
   28eac:	d8801115 	stw	r2,68(sp)
   28eb0:	d8800417 	ldw	r2,16(sp)
   28eb4:	d8800e15 	stw	r2,56(sp)
   28eb8:	dc000a17 	ldw	r16,40(sp)
   28ebc:	9009883a 	mov	r4,r18
   28ec0:	800b883a 	mov	r5,r16
   28ec4:	00223680 	call	22368 <__fixdfsi>
   28ec8:	d8c00e17 	ldw	r3,56(sp)
   28ecc:	d8801015 	stw	r2,64(sp)
   28ed0:	18ffffc4 	addi	r3,r3,-1
   28ed4:	180890fa 	slli	r4,r3,3
   28ed8:	00c000f4 	movhi	r3,3
   28edc:	18d30804 	addi	r3,r3,19488
   28ee0:	1907883a 	add	r3,r3,r4
   28ee4:	1b000017 	ldw	r12,0(r3)
   28ee8:	1b400117 	ldw	r13,4(r3)
   28eec:	1009883a 	mov	r4,r2
   28ef0:	db000f15 	stw	r12,60(sp)
   28ef4:	db400a15 	stw	r13,40(sp)
   28ef8:	00223e80 	call	223e8 <__floatsidf>
   28efc:	9009883a 	mov	r4,r18
   28f00:	800b883a 	mov	r5,r16
   28f04:	100d883a 	mov	r6,r2
   28f08:	180f883a 	mov	r7,r3
   28f0c:	0030cf80 	call	30cf8 <__subdf3>
   28f10:	dac01017 	ldw	r11,64(sp)
   28f14:	102b883a 	mov	r21,r2
   28f18:	d8800617 	ldw	r2,24(sp)
   28f1c:	db400a17 	ldw	r13,40(sp)
   28f20:	db000f17 	ldw	r12,60(sp)
   28f24:	e4000044 	addi	r16,fp,1
   28f28:	1825883a 	mov	r18,r3
   28f2c:	5ac00c04 	addi	r11,r11,48
   28f30:	1003c626 	beq	r2,zero,29e4c <_dtoa_r+0x1414>
   28f34:	600d883a 	mov	r6,r12
   28f38:	680f883a 	mov	r7,r13
   28f3c:	0009883a 	mov	r4,zero
   28f40:	014ff834 	movhi	r5,16352
   28f44:	dac00f15 	stw	r11,60(sp)
   28f48:	002fbc80 	call	2fbc8 <__divdf3>
   28f4c:	d9800c17 	ldw	r6,48(sp)
   28f50:	d9c00d17 	ldw	r7,52(sp)
   28f54:	1009883a 	mov	r4,r2
   28f58:	180b883a 	mov	r5,r3
   28f5c:	0030cf80 	call	30cf8 <__subdf3>
   28f60:	dac00f17 	ldw	r11,60(sp)
   28f64:	a80d883a 	mov	r6,r21
   28f68:	900f883a 	mov	r7,r18
   28f6c:	e2c00005 	stb	r11,0(fp)
   28f70:	1009883a 	mov	r4,r2
   28f74:	180b883a 	mov	r5,r3
   28f78:	d8800a15 	stw	r2,40(sp)
   28f7c:	d8c00c15 	stw	r3,48(sp)
   28f80:	00304a80 	call	304a8 <__gedf2>
   28f84:	00844116 	blt	zero,r2,2a08c <_dtoa_r+0x1654>
   28f88:	0005883a 	mov	r2,zero
   28f8c:	dcc00f15 	stw	r19,60(sp)
   28f90:	dd800d15 	stw	r22,52(sp)
   28f94:	dcc00c17 	ldw	r19,48(sp)
   28f98:	dd800e17 	ldw	r22,56(sp)
   28f9c:	dc400c15 	stw	r17,48(sp)
   28fa0:	ddc00e15 	stw	r23,56(sp)
   28fa4:	dc400a17 	ldw	r17,40(sp)
   28fa8:	dd000a15 	stw	r20,40(sp)
   28fac:	1029883a 	mov	r20,r2
   28fb0:	00002606 	br	2904c <_dtoa_r+0x614>
   28fb4:	a5000044 	addi	r20,r20,1
   28fb8:	a5843d0e 	bge	r20,r22,2a0b0 <_dtoa_r+0x1678>
   28fbc:	8809883a 	mov	r4,r17
   28fc0:	980b883a 	mov	r5,r19
   28fc4:	000d883a 	mov	r6,zero
   28fc8:	01d00934 	movhi	r7,16420
   28fcc:	00306880 	call	30688 <__muldf3>
   28fd0:	000d883a 	mov	r6,zero
   28fd4:	01d00934 	movhi	r7,16420
   28fd8:	a809883a 	mov	r4,r21
   28fdc:	900b883a 	mov	r5,r18
   28fe0:	1023883a 	mov	r17,r2
   28fe4:	1827883a 	mov	r19,r3
   28fe8:	00306880 	call	30688 <__muldf3>
   28fec:	180b883a 	mov	r5,r3
   28ff0:	1009883a 	mov	r4,r2
   28ff4:	1825883a 	mov	r18,r3
   28ff8:	102b883a 	mov	r21,r2
   28ffc:	00223680 	call	22368 <__fixdfsi>
   29000:	1009883a 	mov	r4,r2
   29004:	102f883a 	mov	r23,r2
   29008:	00223e80 	call	223e8 <__floatsidf>
   2900c:	a809883a 	mov	r4,r21
   29010:	900b883a 	mov	r5,r18
   29014:	100d883a 	mov	r6,r2
   29018:	180f883a 	mov	r7,r3
   2901c:	0030cf80 	call	30cf8 <__subdf3>
   29020:	84000044 	addi	r16,r16,1
   29024:	ba000c04 	addi	r8,r23,48
   29028:	823fffc5 	stb	r8,-1(r16)
   2902c:	880d883a 	mov	r6,r17
   29030:	980f883a 	mov	r7,r19
   29034:	1009883a 	mov	r4,r2
   29038:	180b883a 	mov	r5,r3
   2903c:	102b883a 	mov	r21,r2
   29040:	1825883a 	mov	r18,r3
   29044:	00305980 	call	30598 <__ledf2>
   29048:	10040e16 	blt	r2,zero,2a084 <_dtoa_r+0x164c>
   2904c:	a80d883a 	mov	r6,r21
   29050:	900f883a 	mov	r7,r18
   29054:	0009883a 	mov	r4,zero
   29058:	014ffc34 	movhi	r5,16368
   2905c:	0030cf80 	call	30cf8 <__subdf3>
   29060:	880d883a 	mov	r6,r17
   29064:	980f883a 	mov	r7,r19
   29068:	1009883a 	mov	r4,r2
   2906c:	180b883a 	mov	r5,r3
   29070:	00305980 	call	30598 <__ledf2>
   29074:	103fcf0e 	bge	r2,zero,28fb4 <_dtoa_r+0x57c>
   29078:	dd800d17 	ldw	r22,52(sp)
   2907c:	ddc00e17 	ldw	r23,56(sp)
   29080:	d8801117 	ldw	r2,68(sp)
   29084:	10800044 	addi	r2,r2,1
   29088:	d8800315 	stw	r2,12(sp)
   2908c:	00000106 	br	29094 <_dtoa_r+0x65c>
   29090:	e403ee26 	beq	fp,r16,2a04c <_dtoa_r+0x1614>
   29094:	80ffffc3 	ldbu	r3,-1(r16)
   29098:	8025883a 	mov	r18,r16
   2909c:	843fffc4 	addi	r16,r16,-1
   290a0:	18803fcc 	andi	r2,r3,255
   290a4:	1080201c 	xori	r2,r2,128
   290a8:	10bfe004 	addi	r2,r2,-128
   290ac:	10800e60 	cmpeqi	r2,r2,57
   290b0:	103ff71e 	bne	r2,zero,29090 <_dtoa_r+0x658>
   290b4:	18c00044 	addi	r3,r3,1
   290b8:	80c00005 	stb	r3,0(r16)
   290bc:	00015106 	br	29604 <_dtoa_r+0xbcc>
   290c0:	04600034 	movhi	r17,32768
   290c4:	8c7fffc4 	addi	r17,r17,-1
   290c8:	9462703a 	and	r17,r18,r17
   290cc:	00800044 	movi	r2,1
   290d0:	8825883a 	mov	r18,r17
   290d4:	80800015 	stw	r2,0(r16)
   290d8:	00dffc34 	movhi	r3,32752
   290dc:	909ffc2c 	andhi	r2,r18,32752
   290e0:	10fe751e 	bne	r2,r3,28ab8 <_dtoa_r+0x80>
   290e4:	d8c01f17 	ldw	r3,124(sp)
   290e8:	00800434 	movhi	r2,16
   290ec:	10bfffc4 	addi	r2,r2,-1
   290f0:	90a4703a 	and	r18,r18,r2
   290f4:	0089c3c4 	movi	r2,9999
   290f8:	18800015 	stw	r2,0(r3)
   290fc:	9528b03a 	or	r20,r18,r20
   29100:	a000121e 	bne	r20,zero,2914c <_dtoa_r+0x714>
   29104:	d8802117 	ldw	r2,132(sp)
   29108:	070000f4 	movhi	fp,3
   2910c:	10041526 	beq	r2,zero,2a164 <_dtoa_r+0x172c>
   29110:	008000f4 	movhi	r2,3
   29114:	e7127304 	addi	fp,fp,18892
   29118:	10927504 	addi	r2,r2,18900
   2911c:	d8c02117 	ldw	r3,132(sp)
   29120:	18800015 	stw	r2,0(r3)
   29124:	003e7506 	br	28afc <_dtoa_r+0xc4>
   29128:	01400434 	movhi	r5,16
   2912c:	297fffc4 	addi	r5,r5,-1
   29130:	894a703a 	and	r5,r17,r5
   29134:	df001217 	ldw	fp,72(sp)
   29138:	a009883a 	mov	r4,r20
   2913c:	294ffc34 	orhi	r5,r5,16368
   29140:	843f0044 	addi	r16,r16,-1023
   29144:	d8000915 	stw	zero,36(sp)
   29148:	003e9606 	br	28ba4 <_dtoa_r+0x16c>
   2914c:	d8802117 	ldw	r2,132(sp)
   29150:	070000f4 	movhi	fp,3
   29154:	1002141e 	bne	r2,zero,299a8 <_dtoa_r+0xf70>
   29158:	e7127204 	addi	fp,fp,18888
   2915c:	003e6706 	br	28afc <_dtoa_r+0xc4>
   29160:	b8001115 	stw	zero,68(r23)
   29164:	000b883a 	mov	r5,zero
   29168:	b809883a 	mov	r4,r23
   2916c:	002b7a00 	call	2b7a0 <_Balloc>
   29170:	1039883a 	mov	fp,r2
   29174:	1003ed26 	beq	r2,zero,2a12c <_dtoa_r+0x16f4>
   29178:	b8801015 	stw	r2,64(r23)
   2917c:	00bfffc4 	movi	r2,-1
   29180:	d8800415 	stw	r2,16(sp)
   29184:	d8800b15 	stw	r2,44(sp)
   29188:	00800044 	movi	r2,1
   2918c:	d8001e15 	stw	zero,120(sp)
   29190:	d8800615 	stw	r2,24(sp)
   29194:	d8801317 	ldw	r2,76(sp)
   29198:	10007216 	blt	r2,zero,29364 <_dtoa_r+0x92c>
   2919c:	d9000317 	ldw	r4,12(sp)
   291a0:	20c003c8 	cmpgei	r3,r4,15
   291a4:	18006f1e 	bne	r3,zero,29364 <_dtoa_r+0x92c>
   291a8:	200690fa 	slli	r3,r4,3
   291ac:	008000f4 	movhi	r2,3
   291b0:	10930804 	addi	r2,r2,19488
   291b4:	10c5883a 	add	r2,r2,r3
   291b8:	10c00017 	ldw	r3,0(r2)
   291bc:	14800117 	ldw	r18,4(r2)
   291c0:	d8801e17 	ldw	r2,120(sp)
   291c4:	d8c00115 	stw	r3,4(sp)
   291c8:	1000150e 	bge	r2,zero,29220 <_dtoa_r+0x7e8>
   291cc:	d8800417 	ldw	r2,16(sp)
   291d0:	00801316 	blt	zero,r2,29220 <_dtoa_r+0x7e8>
   291d4:	d8800417 	ldw	r2,16(sp)
   291d8:	1002801e 	bne	r2,zero,29bdc <_dtoa_r+0x11a4>
   291dc:	d9000117 	ldw	r4,4(sp)
   291e0:	000d883a 	mov	r6,zero
   291e4:	01d00534 	movhi	r7,16404
   291e8:	900b883a 	mov	r5,r18
   291ec:	00306880 	call	30688 <__muldf3>
   291f0:	100d883a 	mov	r6,r2
   291f4:	180f883a 	mov	r7,r3
   291f8:	a009883a 	mov	r4,r20
   291fc:	880b883a 	mov	r5,r17
   29200:	00305980 	call	30598 <__ledf2>
   29204:	002b883a 	mov	r21,zero
   29208:	0021883a 	mov	r16,zero
   2920c:	00820f16 	blt	zero,r2,29a4c <_dtoa_r+0x1014>
   29210:	d8801e17 	ldw	r2,120(sp)
   29214:	e025883a 	mov	r18,fp
   29218:	00a2303a 	nor	r17,zero,r2
   2921c:	00021006 	br	29a60 <_dtoa_r+0x1028>
   29220:	dd400117 	ldw	r21,4(sp)
   29224:	900f883a 	mov	r7,r18
   29228:	a009883a 	mov	r4,r20
   2922c:	a80d883a 	mov	r6,r21
   29230:	880b883a 	mov	r5,r17
   29234:	002fbc80 	call	2fbc8 <__divdf3>
   29238:	180b883a 	mov	r5,r3
   2923c:	1009883a 	mov	r4,r2
   29240:	00223680 	call	22368 <__fixdfsi>
   29244:	1009883a 	mov	r4,r2
   29248:	1027883a 	mov	r19,r2
   2924c:	00223e80 	call	223e8 <__floatsidf>
   29250:	a80d883a 	mov	r6,r21
   29254:	900f883a 	mov	r7,r18
   29258:	1009883a 	mov	r4,r2
   2925c:	180b883a 	mov	r5,r3
   29260:	00306880 	call	30688 <__muldf3>
   29264:	100d883a 	mov	r6,r2
   29268:	a009883a 	mov	r4,r20
   2926c:	880b883a 	mov	r5,r17
   29270:	180f883a 	mov	r7,r3
   29274:	0030cf80 	call	30cf8 <__subdf3>
   29278:	d9800417 	ldw	r6,16(sp)
   2927c:	1009883a 	mov	r4,r2
   29280:	98800c04 	addi	r2,r19,48
   29284:	e0800005 	stb	r2,0(fp)
   29288:	30800060 	cmpeqi	r2,r6,1
   2928c:	180b883a 	mov	r5,r3
   29290:	e4000044 	addi	r16,fp,1
   29294:	1002a91e 	bne	r2,zero,29d3c <_dtoa_r+0x1304>
   29298:	04400044 	movi	r17,1
   2929c:	3027883a 	mov	r19,r6
   292a0:	dd800215 	stw	r22,8(sp)
   292a4:	ddc00415 	stw	r23,16(sp)
   292a8:	00001c06 	br	2931c <_dtoa_r+0x8e4>
   292ac:	a80d883a 	mov	r6,r21
   292b0:	900f883a 	mov	r7,r18
   292b4:	b809883a 	mov	r4,r23
   292b8:	a00b883a 	mov	r5,r20
   292bc:	002fbc80 	call	2fbc8 <__divdf3>
   292c0:	180b883a 	mov	r5,r3
   292c4:	1009883a 	mov	r4,r2
   292c8:	00223680 	call	22368 <__fixdfsi>
   292cc:	1009883a 	mov	r4,r2
   292d0:	102d883a 	mov	r22,r2
   292d4:	00223e80 	call	223e8 <__floatsidf>
   292d8:	a80d883a 	mov	r6,r21
   292dc:	900f883a 	mov	r7,r18
   292e0:	1009883a 	mov	r4,r2
   292e4:	180b883a 	mov	r5,r3
   292e8:	00306880 	call	30688 <__muldf3>
   292ec:	b809883a 	mov	r4,r23
   292f0:	a00b883a 	mov	r5,r20
   292f4:	100d883a 	mov	r6,r2
   292f8:	180f883a 	mov	r7,r3
   292fc:	0030cf80 	call	30cf8 <__subdf3>
   29300:	b1000c04 	addi	r4,r22,48
   29304:	81000005 	stb	r4,0(r16)
   29308:	8c400044 	addi	r17,r17,1
   2930c:	84000044 	addi	r16,r16,1
   29310:	1009883a 	mov	r4,r2
   29314:	180b883a 	mov	r5,r3
   29318:	9c428526 	beq	r19,r17,29d30 <_dtoa_r+0x12f8>
   2931c:	000d883a 	mov	r6,zero
   29320:	01d00934 	movhi	r7,16420
   29324:	00306880 	call	30688 <__muldf3>
   29328:	000d883a 	mov	r6,zero
   2932c:	000f883a 	mov	r7,zero
   29330:	1009883a 	mov	r4,r2
   29334:	180b883a 	mov	r5,r3
   29338:	102f883a 	mov	r23,r2
   2933c:	1829883a 	mov	r20,r3
   29340:	00304280 	call	30428 <__eqdf2>
   29344:	103fd91e 	bne	r2,zero,292ac <_dtoa_r+0x874>
   29348:	d8800317 	ldw	r2,12(sp)
   2934c:	dd800217 	ldw	r22,8(sp)
   29350:	ddc00417 	ldw	r23,16(sp)
   29354:	10800044 	addi	r2,r2,1
   29358:	d8800315 	stw	r2,12(sp)
   2935c:	8025883a 	mov	r18,r16
   29360:	0000a806 	br	29604 <_dtoa_r+0xbcc>
   29364:	d8c00617 	ldw	r3,24(sp)
   29368:	1800ec26 	beq	r3,zero,2971c <_dtoa_r+0xce4>
   2936c:	d8c00117 	ldw	r3,4(sp)
   29370:	18c00088 	cmpgei	r3,r3,2
   29374:	1801e926 	beq	r3,zero,29b1c <_dtoa_r+0x10e4>
   29378:	d8800417 	ldw	r2,16(sp)
   2937c:	157fffc4 	addi	r21,r2,-1
   29380:	d8800717 	ldw	r2,28(sp)
   29384:	1541c50e 	bge	r2,r21,29a9c <_dtoa_r+0x1064>
   29388:	d8800717 	ldw	r2,28(sp)
   2938c:	dd400715 	stw	r21,28(sp)
   29390:	a885c83a 	sub	r2,r21,r2
   29394:	98a7883a 	add	r19,r19,r2
   29398:	002b883a 	mov	r21,zero
   2939c:	d8800417 	ldw	r2,16(sp)
   293a0:	10029516 	blt	r2,zero,29df8 <_dtoa_r+0x13c0>
   293a4:	d8c00517 	ldw	r3,20(sp)
   293a8:	d9000217 	ldw	r4,8(sp)
   293ac:	1825883a 	mov	r18,r3
   293b0:	2089883a 	add	r4,r4,r2
   293b4:	10c5883a 	add	r2,r2,r3
   293b8:	d9000215 	stw	r4,8(sp)
   293bc:	d8800515 	stw	r2,20(sp)
   293c0:	01400044 	movi	r5,1
   293c4:	b809883a 	mov	r4,r23
   293c8:	002bbec0 	call	2bbec <__i2b>
   293cc:	1021883a 	mov	r16,r2
   293d0:	04800b0e 	bge	zero,r18,29400 <_dtoa_r+0x9c8>
   293d4:	d8c00217 	ldw	r3,8(sp)
   293d8:	00c0090e 	bge	zero,r3,29400 <_dtoa_r+0x9c8>
   293dc:	9005883a 	mov	r2,r18
   293e0:	1c81a616 	blt	r3,r18,29a7c <_dtoa_r+0x1044>
   293e4:	d8c00517 	ldw	r3,20(sp)
   293e8:	90a5c83a 	sub	r18,r18,r2
   293ec:	1887c83a 	sub	r3,r3,r2
   293f0:	d8c00515 	stw	r3,20(sp)
   293f4:	d8c00217 	ldw	r3,8(sp)
   293f8:	1885c83a 	sub	r2,r3,r2
   293fc:	d8800215 	stw	r2,8(sp)
   29400:	d8800717 	ldw	r2,28(sp)
   29404:	10001526 	beq	r2,zero,2945c <_dtoa_r+0xa24>
   29408:	d8800617 	ldw	r2,24(sp)
   2940c:	1001f626 	beq	r2,zero,29be8 <_dtoa_r+0x11b0>
   29410:	05400f0e 	bge	zero,r21,29450 <_dtoa_r+0xa18>
   29414:	800b883a 	mov	r5,r16
   29418:	a80d883a 	mov	r6,r21
   2941c:	b809883a 	mov	r4,r23
   29420:	002be700 	call	2be70 <__pow5mult>
   29424:	b00d883a 	mov	r6,r22
   29428:	100b883a 	mov	r5,r2
   2942c:	b809883a 	mov	r4,r23
   29430:	1021883a 	mov	r16,r2
   29434:	002bc400 	call	2bc40 <__multiply>
   29438:	b00b883a 	mov	r5,r22
   2943c:	b809883a 	mov	r4,r23
   29440:	d8800915 	stw	r2,36(sp)
   29444:	002b8440 	call	2b844 <_Bfree>
   29448:	d8800917 	ldw	r2,36(sp)
   2944c:	102d883a 	mov	r22,r2
   29450:	d8800717 	ldw	r2,28(sp)
   29454:	154dc83a 	sub	r6,r2,r21
   29458:	1542621e 	bne	r2,r21,29de4 <_dtoa_r+0x13ac>
   2945c:	01400044 	movi	r5,1
   29460:	b809883a 	mov	r4,r23
   29464:	002bbec0 	call	2bbec <__i2b>
   29468:	102b883a 	mov	r21,r2
   2946c:	04c0be16 	blt	zero,r19,29768 <_dtoa_r+0xd30>
   29470:	d8800117 	ldw	r2,4(sp)
   29474:	10800088 	cmpgei	r2,r2,2
   29478:	10015226 	beq	r2,zero,299c4 <_dtoa_r+0xf8c>
   2947c:	0023883a 	mov	r17,zero
   29480:	00800044 	movi	r2,1
   29484:	9800c11e 	bne	r19,zero,2978c <_dtoa_r+0xd54>
   29488:	d9400217 	ldw	r5,8(sp)
   2948c:	1145883a 	add	r2,r2,r5
   29490:	108007cc 	andi	r2,r2,31
   29494:	1000a526 	beq	r2,zero,2972c <_dtoa_r+0xcf4>
   29498:	00c00804 	movi	r3,32
   2949c:	1887c83a 	sub	r3,r3,r2
   294a0:	19000150 	cmplti	r4,r3,5
   294a4:	2003311e 	bne	r4,zero,2a16c <_dtoa_r+0x1734>
   294a8:	00c00704 	movi	r3,28
   294ac:	1885c83a 	sub	r2,r3,r2
   294b0:	d8c00517 	ldw	r3,20(sp)
   294b4:	90a5883a 	add	r18,r18,r2
   294b8:	1887883a 	add	r3,r3,r2
   294bc:	2885883a 	add	r2,r5,r2
   294c0:	d8c00515 	stw	r3,20(sp)
   294c4:	d8800215 	stw	r2,8(sp)
   294c8:	d8800517 	ldw	r2,20(sp)
   294cc:	0080050e 	bge	zero,r2,294e4 <_dtoa_r+0xaac>
   294d0:	b00b883a 	mov	r5,r22
   294d4:	100d883a 	mov	r6,r2
   294d8:	b809883a 	mov	r4,r23
   294dc:	002bf880 	call	2bf88 <__lshift>
   294e0:	102d883a 	mov	r22,r2
   294e4:	d8800217 	ldw	r2,8(sp)
   294e8:	0080050e 	bge	zero,r2,29500 <_dtoa_r+0xac8>
   294ec:	a80b883a 	mov	r5,r21
   294f0:	100d883a 	mov	r6,r2
   294f4:	b809883a 	mov	r4,r23
   294f8:	002bf880 	call	2bf88 <__lshift>
   294fc:	102b883a 	mov	r21,r2
   29500:	d8800817 	ldw	r2,32(sp)
   29504:	1001161e 	bne	r2,zero,29960 <_dtoa_r+0xf28>
   29508:	d8800417 	ldw	r2,16(sp)
   2950c:	0081040e 	bge	zero,r2,29920 <_dtoa_r+0xee8>
   29510:	d8800617 	ldw	r2,24(sp)
   29514:	1000b01e 	bne	r2,zero,297d8 <_dtoa_r+0xda0>
   29518:	d8800317 	ldw	r2,12(sp)
   2951c:	10800044 	addi	r2,r2,1
   29520:	d8800315 	stw	r2,12(sp)
   29524:	dc800417 	ldw	r18,16(sp)
   29528:	04400044 	movi	r17,1
   2952c:	00000706 	br	2954c <_dtoa_r+0xb14>
   29530:	b00b883a 	mov	r5,r22
   29534:	000f883a 	mov	r7,zero
   29538:	01800284 	movi	r6,10
   2953c:	b809883a 	mov	r4,r23
   29540:	002b8680 	call	2b868 <__multadd>
   29544:	102d883a 	mov	r22,r2
   29548:	8c400044 	addi	r17,r17,1
   2954c:	a80b883a 	mov	r5,r21
   29550:	b009883a 	mov	r4,r22
   29554:	002883c0 	call	2883c <quorem>
   29558:	10c00c04 	addi	r3,r2,48
   2955c:	e445883a 	add	r2,fp,r17
   29560:	10ffffc5 	stb	r3,-1(r2)
   29564:	8cbff216 	blt	r17,r18,29530 <_dtoa_r+0xaf8>
   29568:	d8800417 	ldw	r2,16(sp)
   2956c:	0081510e 	bge	zero,r2,29ab4 <_dtoa_r+0x107c>
   29570:	e0a5883a 	add	r18,fp,r2
   29574:	0023883a 	mov	r17,zero
   29578:	b00b883a 	mov	r5,r22
   2957c:	01800044 	movi	r6,1
   29580:	b809883a 	mov	r4,r23
   29584:	d8c00115 	stw	r3,4(sp)
   29588:	002bf880 	call	2bf88 <__lshift>
   2958c:	1009883a 	mov	r4,r2
   29590:	a80b883a 	mov	r5,r21
   29594:	102d883a 	mov	r22,r2
   29598:	002c1100 	call	2c110 <__mcmp>
   2959c:	913fffc3 	ldbu	r4,-1(r18)
   295a0:	00800416 	blt	zero,r2,295b4 <_dtoa_r+0xb7c>
   295a4:	00014806 	br	29ac8 <_dtoa_r+0x1090>
   295a8:	e0c15626 	beq	fp,r3,29b04 <_dtoa_r+0x10cc>
   295ac:	193fffc3 	ldbu	r4,-1(r3)
   295b0:	1825883a 	mov	r18,r3
   295b4:	20803fcc 	andi	r2,r4,255
   295b8:	1080201c 	xori	r2,r2,128
   295bc:	10bfe004 	addi	r2,r2,-128
   295c0:	10800e60 	cmpeqi	r2,r2,57
   295c4:	90ffffc4 	addi	r3,r18,-1
   295c8:	103ff71e 	bne	r2,zero,295a8 <_dtoa_r+0xb70>
   295cc:	21000044 	addi	r4,r4,1
   295d0:	19000005 	stb	r4,0(r3)
   295d4:	a80b883a 	mov	r5,r21
   295d8:	b809883a 	mov	r4,r23
   295dc:	002b8440 	call	2b844 <_Bfree>
   295e0:	80000826 	beq	r16,zero,29604 <_dtoa_r+0xbcc>
   295e4:	88000426 	beq	r17,zero,295f8 <_dtoa_r+0xbc0>
   295e8:	8c000326 	beq	r17,r16,295f8 <_dtoa_r+0xbc0>
   295ec:	880b883a 	mov	r5,r17
   295f0:	b809883a 	mov	r4,r23
   295f4:	002b8440 	call	2b844 <_Bfree>
   295f8:	800b883a 	mov	r5,r16
   295fc:	b809883a 	mov	r4,r23
   29600:	002b8440 	call	2b844 <_Bfree>
   29604:	b00b883a 	mov	r5,r22
   29608:	b809883a 	mov	r4,r23
   2960c:	002b8440 	call	2b844 <_Bfree>
   29610:	d8801f17 	ldw	r2,124(sp)
   29614:	d8c00317 	ldw	r3,12(sp)
   29618:	90000005 	stb	zero,0(r18)
   2961c:	10c00015 	stw	r3,0(r2)
   29620:	d8802117 	ldw	r2,132(sp)
   29624:	103d3526 	beq	r2,zero,28afc <_dtoa_r+0xc4>
   29628:	14800015 	stw	r18,0(r2)
   2962c:	003d3306 	br	28afc <_dtoa_r+0xc4>
   29630:	e0bfffc4 	addi	r2,fp,-1
   29634:	d8000815 	stw	zero,32(sp)
   29638:	10002616 	blt	r2,zero,296d4 <_dtoa_r+0xc9c>
   2963c:	d8000515 	stw	zero,20(sp)
   29640:	d8800217 	ldw	r2,8(sp)
   29644:	d8c00117 	ldw	r3,4(sp)
   29648:	dcc00315 	stw	r19,12(sp)
   2964c:	14c5883a 	add	r2,r2,r19
   29650:	d8800215 	stw	r2,8(sp)
   29654:	d8000715 	stw	zero,28(sp)
   29658:	188002a8 	cmpgeui	r2,r3,10
   2965c:	103d9d26 	beq	r2,zero,28cd4 <_dtoa_r+0x29c>
   29660:	00800044 	movi	r2,1
   29664:	d8800615 	stw	r2,24(sp)
   29668:	00bfffc4 	movi	r2,-1
   2966c:	04000044 	movi	r16,1
   29670:	d8000115 	stw	zero,4(sp)
   29674:	d8800415 	stw	r2,16(sp)
   29678:	d8001e15 	stw	zero,120(sp)
   2967c:	d8800417 	ldw	r2,16(sp)
   29680:	b8001115 	stw	zero,68(r23)
   29684:	000b883a 	mov	r5,zero
   29688:	d8800b15 	stw	r2,44(sp)
   2968c:	003dae06 	br	28d48 <_dtoa_r+0x310>
   29690:	188000e0 	cmpeqi	r2,r3,3
   29694:	d8000615 	stw	zero,24(sp)
   29698:	103eb126 	beq	r2,zero,29160 <_dtoa_r+0x728>
   2969c:	d8801e17 	ldw	r2,120(sp)
   296a0:	d8c00317 	ldw	r3,12(sp)
   296a4:	10c5883a 	add	r2,r2,r3
   296a8:	d8800b15 	stw	r2,44(sp)
   296ac:	10800044 	addi	r2,r2,1
   296b0:	d8800415 	stw	r2,16(sp)
   296b4:	100d883a 	mov	r6,r2
   296b8:	00bd9816 	blt	zero,r2,28d1c <_dtoa_r+0x2e4>
   296bc:	01800044 	movi	r6,1
   296c0:	003d9606 	br	28d1c <_dtoa_r+0x2e4>
   296c4:	00800044 	movi	r2,1
   296c8:	d8800815 	stw	r2,32(sp)
   296cc:	e0bfffc4 	addi	r2,fp,-1
   296d0:	103d740e 	bge	r2,zero,28ca4 <_dtoa_r+0x26c>
   296d4:	00800044 	movi	r2,1
   296d8:	1705c83a 	sub	r2,r2,fp
   296dc:	d8800515 	stw	r2,20(sp)
   296e0:	d8000215 	stw	zero,8(sp)
   296e4:	003d7006 	br	28ca8 <_dtoa_r+0x270>
   296e8:	9809883a 	mov	r4,r19
   296ec:	00223e80 	call	223e8 <__floatsidf>
   296f0:	900d883a 	mov	r6,r18
   296f4:	a80f883a 	mov	r7,r21
   296f8:	1009883a 	mov	r4,r2
   296fc:	180b883a 	mov	r5,r3
   29700:	00304280 	call	30428 <__eqdf2>
   29704:	103d5426 	beq	r2,zero,28c58 <_dtoa_r+0x220>
   29708:	9cffffc4 	addi	r19,r19,-1
   2970c:	003d5206 	br	28c58 <_dtoa_r+0x220>
   29710:	070000f4 	movhi	fp,3
   29714:	e7126904 	addi	fp,fp,18852
   29718:	003cf806 	br	28afc <_dtoa_r+0xc4>
   2971c:	dd400717 	ldw	r21,28(sp)
   29720:	dc800517 	ldw	r18,20(sp)
   29724:	0021883a 	mov	r16,zero
   29728:	003f2906 	br	293d0 <_dtoa_r+0x998>
   2972c:	00800704 	movi	r2,28
   29730:	d8c00517 	ldw	r3,20(sp)
   29734:	90a5883a 	add	r18,r18,r2
   29738:	1887883a 	add	r3,r3,r2
   2973c:	d8c00515 	stw	r3,20(sp)
   29740:	d8c00217 	ldw	r3,8(sp)
   29744:	1885883a 	add	r2,r3,r2
   29748:	d8800215 	stw	r2,8(sp)
   2974c:	003f5e06 	br	294c8 <_dtoa_r+0xa90>
   29750:	01000804 	movi	r4,32
   29754:	2089c83a 	sub	r4,r4,r2
   29758:	a108983a 	sll	r4,r20,r4
   2975c:	003d0a06 	br	28b88 <_dtoa_r+0x150>
   29760:	04000044 	movi	r16,1
   29764:	003d6006 	br	28ce8 <_dtoa_r+0x2b0>
   29768:	100b883a 	mov	r5,r2
   2976c:	980d883a 	mov	r6,r19
   29770:	b809883a 	mov	r4,r23
   29774:	002be700 	call	2be70 <__pow5mult>
   29778:	d8c00117 	ldw	r3,4(sp)
   2977c:	102b883a 	mov	r21,r2
   29780:	18c00090 	cmplti	r3,r3,2
   29784:	18014b1e 	bne	r3,zero,29cb4 <_dtoa_r+0x127c>
   29788:	0023883a 	mov	r17,zero
   2978c:	a8800417 	ldw	r2,16(r21)
   29790:	10800104 	addi	r2,r2,4
   29794:	100490ba 	slli	r2,r2,2
   29798:	a885883a 	add	r2,r21,r2
   2979c:	11000017 	ldw	r4,0(r2)
   297a0:	002bad80 	call	2bad8 <__hi0bits>
   297a4:	00c00804 	movi	r3,32
   297a8:	1885c83a 	sub	r2,r3,r2
   297ac:	003f3606 	br	29488 <_dtoa_r+0xa50>
   297b0:	800b883a 	mov	r5,r16
   297b4:	000f883a 	mov	r7,zero
   297b8:	01800284 	movi	r6,10
   297bc:	b809883a 	mov	r4,r23
   297c0:	002b8680 	call	2b868 <__multadd>
   297c4:	1021883a 	mov	r16,r2
   297c8:	d8800b17 	ldw	r2,44(sp)
   297cc:	00824d0e 	bge	zero,r2,2a104 <_dtoa_r+0x16cc>
   297d0:	dcc00315 	stw	r19,12(sp)
   297d4:	d8800415 	stw	r2,16(sp)
   297d8:	0480aa16 	blt	zero,r18,29a84 <_dtoa_r+0x104c>
   297dc:	8801701e 	bne	r17,zero,29da0 <_dtoa_r+0x1368>
   297e0:	8027883a 	mov	r19,r16
   297e4:	d9000417 	ldw	r4,16(sp)
   297e8:	e0bfffc4 	addi	r2,fp,-1
   297ec:	a0c0004c 	andi	r3,r20,1
   297f0:	1105883a 	add	r2,r2,r4
   297f4:	d8800415 	stw	r2,16(sp)
   297f8:	d8800117 	ldw	r2,4(sp)
   297fc:	d8c00715 	stw	r3,28(sp)
   29800:	e029883a 	mov	r20,fp
   29804:	1884b03a 	or	r2,r3,r2
   29808:	d8800615 	stw	r2,24(sp)
   2980c:	df000815 	stw	fp,32(sp)
   29810:	00002906 	br	298b8 <_dtoa_r+0xe80>
   29814:	b009883a 	mov	r4,r22
   29818:	002c1100 	call	2c110 <__mcmp>
   2981c:	900b883a 	mov	r5,r18
   29820:	b809883a 	mov	r4,r23
   29824:	d8800215 	stw	r2,8(sp)
   29828:	002b8440 	call	2b844 <_Bfree>
   2982c:	d8800217 	ldw	r2,8(sp)
   29830:	1000021e 	bne	r2,zero,2983c <_dtoa_r+0xe04>
   29834:	d8c00617 	ldw	r3,24(sp)
   29838:	18022326 	beq	r3,zero,2a0c8 <_dtoa_r+0x1690>
   2983c:	a4800044 	addi	r18,r20,1
   29840:	88012216 	blt	r17,zero,29ccc <_dtoa_r+0x1294>
   29844:	d8c00117 	ldw	r3,4(sp)
   29848:	1c62b03a 	or	r17,r3,r17
   2984c:	d8c00717 	ldw	r3,28(sp)
   29850:	1c62b03a 	or	r17,r3,r17
   29854:	88011d26 	beq	r17,zero,29ccc <_dtoa_r+0x1294>
   29858:	00816b16 	blt	zero,r2,29e08 <_dtoa_r+0x13d0>
   2985c:	d8800417 	ldw	r2,16(sp)
   29860:	a7000005 	stb	fp,0(r20)
   29864:	15017126 	beq	r2,r20,29e2c <_dtoa_r+0x13f4>
   29868:	b00b883a 	mov	r5,r22
   2986c:	000f883a 	mov	r7,zero
   29870:	01800284 	movi	r6,10
   29874:	b809883a 	mov	r4,r23
   29878:	002b8680 	call	2b868 <__multadd>
   2987c:	102d883a 	mov	r22,r2
   29880:	800b883a 	mov	r5,r16
   29884:	000f883a 	mov	r7,zero
   29888:	01800284 	movi	r6,10
   2988c:	b809883a 	mov	r4,r23
   29890:	84c01f26 	beq	r16,r19,29910 <_dtoa_r+0xed8>
   29894:	002b8680 	call	2b868 <__multadd>
   29898:	980b883a 	mov	r5,r19
   2989c:	000f883a 	mov	r7,zero
   298a0:	01800284 	movi	r6,10
   298a4:	b809883a 	mov	r4,r23
   298a8:	1021883a 	mov	r16,r2
   298ac:	002b8680 	call	2b868 <__multadd>
   298b0:	1027883a 	mov	r19,r2
   298b4:	9029883a 	mov	r20,r18
   298b8:	a80b883a 	mov	r5,r21
   298bc:	b009883a 	mov	r4,r22
   298c0:	002883c0 	call	2883c <quorem>
   298c4:	800b883a 	mov	r5,r16
   298c8:	b009883a 	mov	r4,r22
   298cc:	1039883a 	mov	fp,r2
   298d0:	d8800515 	stw	r2,20(sp)
   298d4:	002c1100 	call	2c110 <__mcmp>
   298d8:	a80b883a 	mov	r5,r21
   298dc:	980d883a 	mov	r6,r19
   298e0:	b809883a 	mov	r4,r23
   298e4:	1023883a 	mov	r17,r2
   298e8:	002c1680 	call	2c168 <__mdiff>
   298ec:	1025883a 	mov	r18,r2
   298f0:	10800317 	ldw	r2,12(r2)
   298f4:	e7000c04 	addi	fp,fp,48
   298f8:	900b883a 	mov	r5,r18
   298fc:	103fc526 	beq	r2,zero,29814 <_dtoa_r+0xddc>
   29900:	b809883a 	mov	r4,r23
   29904:	002b8440 	call	2b844 <_Bfree>
   29908:	00800044 	movi	r2,1
   2990c:	003fcb06 	br	2983c <_dtoa_r+0xe04>
   29910:	002b8680 	call	2b868 <__multadd>
   29914:	1021883a 	mov	r16,r2
   29918:	1027883a 	mov	r19,r2
   2991c:	003fe506 	br	298b4 <_dtoa_r+0xe7c>
   29920:	d8800117 	ldw	r2,4(sp)
   29924:	108000d0 	cmplti	r2,r2,3
   29928:	10003c26 	beq	r2,zero,29a1c <_dtoa_r+0xfe4>
   2992c:	d8800617 	ldw	r2,24(sp)
   29930:	103fa91e 	bne	r2,zero,297d8 <_dtoa_r+0xda0>
   29934:	a80b883a 	mov	r5,r21
   29938:	b009883a 	mov	r4,r22
   2993c:	002883c0 	call	2883c <quorem>
   29940:	10c00c04 	addi	r3,r2,48
   29944:	d8800317 	ldw	r2,12(sp)
   29948:	e4800044 	addi	r18,fp,1
   2994c:	e0c00005 	stb	r3,0(fp)
   29950:	10800044 	addi	r2,r2,1
   29954:	d8800315 	stw	r2,12(sp)
   29958:	0023883a 	mov	r17,zero
   2995c:	003f0606 	br	29578 <_dtoa_r+0xb40>
   29960:	a80b883a 	mov	r5,r21
   29964:	b009883a 	mov	r4,r22
   29968:	002c1100 	call	2c110 <__mcmp>
   2996c:	103ee60e 	bge	r2,zero,29508 <_dtoa_r+0xad0>
   29970:	b00b883a 	mov	r5,r22
   29974:	000f883a 	mov	r7,zero
   29978:	01800284 	movi	r6,10
   2997c:	b809883a 	mov	r4,r23
   29980:	002b8680 	call	2b868 <__multadd>
   29984:	d8c00317 	ldw	r3,12(sp)
   29988:	102d883a 	mov	r22,r2
   2998c:	d8800617 	ldw	r2,24(sp)
   29990:	1cffffc4 	addi	r19,r3,-1
   29994:	103f861e 	bne	r2,zero,297b0 <_dtoa_r+0xd78>
   29998:	d8800b17 	ldw	r2,44(sp)
   2999c:	0081d40e 	bge	zero,r2,2a0f0 <_dtoa_r+0x16b8>
   299a0:	d8800415 	stw	r2,16(sp)
   299a4:	003edf06 	br	29524 <_dtoa_r+0xaec>
   299a8:	008000f4 	movhi	r2,3
   299ac:	e7127204 	addi	fp,fp,18888
   299b0:	109272c4 	addi	r2,r2,18891
   299b4:	003dd906 	br	2911c <_dtoa_r+0x6e4>
   299b8:	00800044 	movi	r2,1
   299bc:	d8800615 	stw	r2,24(sp)
   299c0:	003f3606 	br	2969c <_dtoa_r+0xc64>
   299c4:	a03ead1e 	bne	r20,zero,2947c <_dtoa_r+0xa44>
   299c8:	00800434 	movhi	r2,16
   299cc:	10bfffc4 	addi	r2,r2,-1
   299d0:	8884703a 	and	r2,r17,r2
   299d4:	103ea91e 	bne	r2,zero,2947c <_dtoa_r+0xa44>
   299d8:	8c5ffc2c 	andhi	r17,r17,32752
   299dc:	883ea726 	beq	r17,zero,2947c <_dtoa_r+0xa44>
   299e0:	d8800517 	ldw	r2,20(sp)
   299e4:	04400044 	movi	r17,1
   299e8:	10800044 	addi	r2,r2,1
   299ec:	d8800515 	stw	r2,20(sp)
   299f0:	d8800217 	ldw	r2,8(sp)
   299f4:	10800044 	addi	r2,r2,1
   299f8:	d8800215 	stw	r2,8(sp)
   299fc:	003ea006 	br	29480 <_dtoa_r+0xa48>
   29a00:	00800044 	movi	r2,1
   29a04:	d8800415 	stw	r2,16(sp)
   29a08:	d8801e15 	stw	r2,120(sp)
   29a0c:	003f1b06 	br	2967c <_dtoa_r+0xc44>
   29a10:	d8800b17 	ldw	r2,44(sp)
   29a14:	dcc00315 	stw	r19,12(sp)
   29a18:	d8800415 	stw	r2,16(sp)
   29a1c:	d8800417 	ldw	r2,16(sp)
   29a20:	103dfb1e 	bne	r2,zero,29210 <_dtoa_r+0x7d8>
   29a24:	a80b883a 	mov	r5,r21
   29a28:	b809883a 	mov	r4,r23
   29a2c:	000f883a 	mov	r7,zero
   29a30:	01800144 	movi	r6,5
   29a34:	002b8680 	call	2b868 <__multadd>
   29a38:	100b883a 	mov	r5,r2
   29a3c:	b009883a 	mov	r4,r22
   29a40:	102b883a 	mov	r21,r2
   29a44:	002c1100 	call	2c110 <__mcmp>
   29a48:	00bdf10e 	bge	zero,r2,29210 <_dtoa_r+0x7d8>
   29a4c:	00800c44 	movi	r2,49
   29a50:	e0800005 	stb	r2,0(fp)
   29a54:	d8800317 	ldw	r2,12(sp)
   29a58:	e4800044 	addi	r18,fp,1
   29a5c:	14400044 	addi	r17,r2,1
   29a60:	a80b883a 	mov	r5,r21
   29a64:	b809883a 	mov	r4,r23
   29a68:	002b8440 	call	2b844 <_Bfree>
   29a6c:	88800044 	addi	r2,r17,1
   29a70:	d8800315 	stw	r2,12(sp)
   29a74:	803ee01e 	bne	r16,zero,295f8 <_dtoa_r+0xbc0>
   29a78:	003ee206 	br	29604 <_dtoa_r+0xbcc>
   29a7c:	1805883a 	mov	r2,r3
   29a80:	003e5806 	br	293e4 <_dtoa_r+0x9ac>
   29a84:	800b883a 	mov	r5,r16
   29a88:	900d883a 	mov	r6,r18
   29a8c:	b809883a 	mov	r4,r23
   29a90:	002bf880 	call	2bf88 <__lshift>
   29a94:	1021883a 	mov	r16,r2
   29a98:	003f5006 	br	297dc <_dtoa_r+0xda4>
   29a9c:	156bc83a 	sub	r21,r2,r21
   29aa0:	003e3e06 	br	2939c <_dtoa_r+0x964>
   29aa4:	dd000a15 	stw	r20,40(sp)
   29aa8:	dc400c15 	stw	r17,48(sp)
   29aac:	04000084 	movi	r16,2
   29ab0:	003cc906 	br	28dd8 <_dtoa_r+0x3a0>
   29ab4:	00800044 	movi	r2,1
   29ab8:	003ead06 	br	29570 <_dtoa_r+0xb38>
   29abc:	00800044 	movi	r2,1
   29ac0:	d8800615 	stw	r2,24(sp)
   29ac4:	003c9006 	br	28d08 <_dtoa_r+0x2d0>
   29ac8:	1000031e 	bne	r2,zero,29ad8 <_dtoa_r+0x10a0>
   29acc:	d8c00117 	ldw	r3,4(sp)
   29ad0:	18c0004c 	andi	r3,r3,1
   29ad4:	183eb71e 	bne	r3,zero,295b4 <_dtoa_r+0xb7c>
   29ad8:	2005883a 	mov	r2,r4
   29adc:	00000206 	br	29ae8 <_dtoa_r+0x10b0>
   29ae0:	90bfff83 	ldbu	r2,-2(r18)
   29ae4:	1825883a 	mov	r18,r3
   29ae8:	10803fcc 	andi	r2,r2,255
   29aec:	1080201c 	xori	r2,r2,128
   29af0:	10bfe004 	addi	r2,r2,-128
   29af4:	10800c18 	cmpnei	r2,r2,48
   29af8:	90ffffc4 	addi	r3,r18,-1
   29afc:	103ff826 	beq	r2,zero,29ae0 <_dtoa_r+0x10a8>
   29b00:	003eb406 	br	295d4 <_dtoa_r+0xb9c>
   29b04:	00800c44 	movi	r2,49
   29b08:	e0800005 	stb	r2,0(fp)
   29b0c:	d8800317 	ldw	r2,12(sp)
   29b10:	10800044 	addi	r2,r2,1
   29b14:	d8800315 	stw	r2,12(sp)
   29b18:	003eae06 	br	295d4 <_dtoa_r+0xb9c>
   29b1c:	d8c00917 	ldw	r3,36(sp)
   29b20:	18011826 	beq	r3,zero,29f84 <_dtoa_r+0x154c>
   29b24:	d8c00517 	ldw	r3,20(sp)
   29b28:	d9000217 	ldw	r4,8(sp)
   29b2c:	10810cc4 	addi	r2,r2,1075
   29b30:	dd400717 	ldw	r21,28(sp)
   29b34:	2089883a 	add	r4,r4,r2
   29b38:	1885883a 	add	r2,r3,r2
   29b3c:	1825883a 	mov	r18,r3
   29b40:	d9000215 	stw	r4,8(sp)
   29b44:	d8800515 	stw	r2,20(sp)
   29b48:	003e1d06 	br	293c0 <_dtoa_r+0x988>
   29b4c:	8009883a 	mov	r4,r16
   29b50:	00223e80 	call	223e8 <__floatsidf>
   29b54:	d9c00a17 	ldw	r7,40(sp)
   29b58:	900d883a 	mov	r6,r18
   29b5c:	1009883a 	mov	r4,r2
   29b60:	180b883a 	mov	r5,r3
   29b64:	00306880 	call	30688 <__muldf3>
   29b68:	000d883a 	mov	r6,zero
   29b6c:	01d00734 	movhi	r7,16412
   29b70:	1009883a 	mov	r4,r2
   29b74:	180b883a 	mov	r5,r3
   29b78:	00219f00 	call	219f0 <__adddf3>
   29b7c:	d8800c15 	stw	r2,48(sp)
   29b80:	00bf3034 	movhi	r2,64704
   29b84:	1885883a 	add	r2,r3,r2
   29b88:	d8800d15 	stw	r2,52(sp)
   29b8c:	d9400a17 	ldw	r5,40(sp)
   29b90:	9009883a 	mov	r4,r18
   29b94:	000d883a 	mov	r6,zero
   29b98:	01d00534 	movhi	r7,16404
   29b9c:	0030cf80 	call	30cf8 <__subdf3>
   29ba0:	dd400d17 	ldw	r21,52(sp)
   29ba4:	d9800c17 	ldw	r6,48(sp)
   29ba8:	1009883a 	mov	r4,r2
   29bac:	a80f883a 	mov	r7,r21
   29bb0:	180b883a 	mov	r5,r3
   29bb4:	1025883a 	mov	r18,r2
   29bb8:	1821883a 	mov	r16,r3
   29bbc:	00304a80 	call	304a8 <__gedf2>
   29bc0:	00812d16 	blt	zero,r2,2a078 <_dtoa_r+0x1640>
   29bc4:	d9800c17 	ldw	r6,48(sp)
   29bc8:	a9e0003c 	xorhi	r7,r21,32768
   29bcc:	9009883a 	mov	r4,r18
   29bd0:	800b883a 	mov	r5,r16
   29bd4:	00305980 	call	30598 <__ledf2>
   29bd8:	103d6e0e 	bge	r2,zero,29194 <_dtoa_r+0x75c>
   29bdc:	002b883a 	mov	r21,zero
   29be0:	0021883a 	mov	r16,zero
   29be4:	003d8a06 	br	29210 <_dtoa_r+0x7d8>
   29be8:	d9800717 	ldw	r6,28(sp)
   29bec:	b00b883a 	mov	r5,r22
   29bf0:	b809883a 	mov	r4,r23
   29bf4:	002be700 	call	2be70 <__pow5mult>
   29bf8:	102d883a 	mov	r22,r2
   29bfc:	003e1706 	br	2945c <_dtoa_r+0xa24>
   29c00:	d8800317 	ldw	r2,12(sp)
   29c04:	10010d26 	beq	r2,zero,2a03c <_dtoa_r+0x1604>
   29c08:	00abc83a 	sub	r21,zero,r2
   29c0c:	a88003cc 	andi	r2,r21,15
   29c10:	100690fa 	slli	r3,r2,3
   29c14:	008000f4 	movhi	r2,3
   29c18:	10930804 	addi	r2,r2,19488
   29c1c:	10c5883a 	add	r2,r2,r3
   29c20:	11800017 	ldw	r6,0(r2)
   29c24:	11c00117 	ldw	r7,4(r2)
   29c28:	a009883a 	mov	r4,r20
   29c2c:	880b883a 	mov	r5,r17
   29c30:	a82bd13a 	srai	r21,r21,4
   29c34:	00306880 	call	30688 <__muldf3>
   29c38:	d8c00a15 	stw	r3,40(sp)
   29c3c:	1025883a 	mov	r18,r2
   29c40:	a8013826 	beq	r21,zero,2a124 <_dtoa_r+0x16ec>
   29c44:	020000f4 	movhi	r8,3
   29c48:	04000084 	movi	r16,2
   29c4c:	4212fe04 	addi	r8,r8,19448
   29c50:	180b883a 	mov	r5,r3
   29c54:	dc400c15 	stw	r17,48(sp)
   29c58:	1009883a 	mov	r4,r2
   29c5c:	8023883a 	mov	r17,r16
   29c60:	0007883a 	mov	r3,zero
   29c64:	4021883a 	mov	r16,r8
   29c68:	a980004c 	andi	r6,r21,1
   29c6c:	30000726 	beq	r6,zero,29c8c <_dtoa_r+0x1254>
   29c70:	81800017 	ldw	r6,0(r16)
   29c74:	81c00117 	ldw	r7,4(r16)
   29c78:	8c400044 	addi	r17,r17,1
   29c7c:	00306880 	call	30688 <__muldf3>
   29c80:	180b883a 	mov	r5,r3
   29c84:	1009883a 	mov	r4,r2
   29c88:	00c00044 	movi	r3,1
   29c8c:	a82bd07a 	srai	r21,r21,1
   29c90:	84000204 	addi	r16,r16,8
   29c94:	a83ff41e 	bne	r21,zero,29c68 <_dtoa_r+0x1230>
   29c98:	18c03fcc 	andi	r3,r3,255
   29c9c:	8821883a 	mov	r16,r17
   29ca0:	dc400c17 	ldw	r17,48(sp)
   29ca4:	183c6526 	beq	r3,zero,28e3c <_dtoa_r+0x404>
   29ca8:	2025883a 	mov	r18,r4
   29cac:	d9400a15 	stw	r5,40(sp)
   29cb0:	003c6206 	br	28e3c <_dtoa_r+0x404>
   29cb4:	a03eb41e 	bne	r20,zero,29788 <_dtoa_r+0xd50>
   29cb8:	00800434 	movhi	r2,16
   29cbc:	10bfffc4 	addi	r2,r2,-1
   29cc0:	8884703a 	and	r2,r17,r2
   29cc4:	103f4426 	beq	r2,zero,299d8 <_dtoa_r+0xfa0>
   29cc8:	003eaf06 	br	29788 <_dtoa_r+0xd50>
   29ccc:	d9000317 	ldw	r4,12(sp)
   29cd0:	e007883a 	mov	r3,fp
   29cd4:	df000817 	ldw	fp,32(sp)
   29cd8:	21000044 	addi	r4,r4,1
   29cdc:	d9000315 	stw	r4,12(sp)
   29ce0:	00800f0e 	bge	zero,r2,29d20 <_dtoa_r+0x12e8>
   29ce4:	b00b883a 	mov	r5,r22
   29ce8:	01800044 	movi	r6,1
   29cec:	b809883a 	mov	r4,r23
   29cf0:	d8c00115 	stw	r3,4(sp)
   29cf4:	002bf880 	call	2bf88 <__lshift>
   29cf8:	a80b883a 	mov	r5,r21
   29cfc:	1009883a 	mov	r4,r2
   29d00:	102d883a 	mov	r22,r2
   29d04:	002c1100 	call	2c110 <__mcmp>
   29d08:	d8c00117 	ldw	r3,4(sp)
   29d0c:	0080e40e 	bge	zero,r2,2a0a0 <_dtoa_r+0x1668>
   29d10:	18c00e60 	cmpeqi	r3,r3,57
   29d14:	1800d21e 	bne	r3,zero,2a060 <_dtoa_r+0x1628>
   29d18:	d8800517 	ldw	r2,20(sp)
   29d1c:	10c00c44 	addi	r3,r2,49
   29d20:	8023883a 	mov	r17,r16
   29d24:	a0c00005 	stb	r3,0(r20)
   29d28:	9821883a 	mov	r16,r19
   29d2c:	003e2906 	br	295d4 <_dtoa_r+0xb9c>
   29d30:	b027883a 	mov	r19,r22
   29d34:	ddc00417 	ldw	r23,16(sp)
   29d38:	dd800217 	ldw	r22,8(sp)
   29d3c:	200d883a 	mov	r6,r4
   29d40:	280f883a 	mov	r7,r5
   29d44:	00219f00 	call	219f0 <__adddf3>
   29d48:	dd400117 	ldw	r21,4(sp)
   29d4c:	180b883a 	mov	r5,r3
   29d50:	900f883a 	mov	r7,r18
   29d54:	a80d883a 	mov	r6,r21
   29d58:	1009883a 	mov	r4,r2
   29d5c:	1823883a 	mov	r17,r3
   29d60:	1029883a 	mov	r20,r2
   29d64:	00304a80 	call	304a8 <__gedf2>
   29d68:	d8c00317 	ldw	r3,12(sp)
   29d6c:	18c00044 	addi	r3,r3,1
   29d70:	d8c00315 	stw	r3,12(sp)
   29d74:	00bcc716 	blt	zero,r2,29094 <_dtoa_r+0x65c>
   29d78:	a80d883a 	mov	r6,r21
   29d7c:	900f883a 	mov	r7,r18
   29d80:	a009883a 	mov	r4,r20
   29d84:	880b883a 	mov	r5,r17
   29d88:	00304280 	call	30428 <__eqdf2>
   29d8c:	1000021e 	bne	r2,zero,29d98 <_dtoa_r+0x1360>
   29d90:	9cc0004c 	andi	r19,r19,1
   29d94:	983cbf1e 	bne	r19,zero,29094 <_dtoa_r+0x65c>
   29d98:	8025883a 	mov	r18,r16
   29d9c:	003e1906 	br	29604 <_dtoa_r+0xbcc>
   29da0:	81400117 	ldw	r5,4(r16)
   29da4:	b809883a 	mov	r4,r23
   29da8:	002b7a00 	call	2b7a0 <_Balloc>
   29dac:	1023883a 	mov	r17,r2
   29db0:	1000e526 	beq	r2,zero,2a148 <_dtoa_r+0x1710>
   29db4:	81800417 	ldw	r6,16(r16)
   29db8:	81400304 	addi	r5,r16,12
   29dbc:	11000304 	addi	r4,r2,12
   29dc0:	31800084 	addi	r6,r6,2
   29dc4:	300c90ba 	slli	r6,r6,2
   29dc8:	00245a40 	call	245a4 <memcpy>
   29dcc:	01800044 	movi	r6,1
   29dd0:	880b883a 	mov	r5,r17
   29dd4:	b809883a 	mov	r4,r23
   29dd8:	002bf880 	call	2bf88 <__lshift>
   29ddc:	1027883a 	mov	r19,r2
   29de0:	003e8006 	br	297e4 <_dtoa_r+0xdac>
   29de4:	b00b883a 	mov	r5,r22
   29de8:	b809883a 	mov	r4,r23
   29dec:	002be700 	call	2be70 <__pow5mult>
   29df0:	102d883a 	mov	r22,r2
   29df4:	003d9906 	br	2945c <_dtoa_r+0xa24>
   29df8:	d8800517 	ldw	r2,20(sp)
   29dfc:	d8c00417 	ldw	r3,16(sp)
   29e00:	10e5c83a 	sub	r18,r2,r3
   29e04:	003d6e06 	br	293c0 <_dtoa_r+0x988>
   29e08:	d9000317 	ldw	r4,12(sp)
   29e0c:	e007883a 	mov	r3,fp
   29e10:	18800e58 	cmpnei	r2,r3,57
   29e14:	21000044 	addi	r4,r4,1
   29e18:	d9000315 	stw	r4,12(sp)
   29e1c:	df000817 	ldw	fp,32(sp)
   29e20:	10008f26 	beq	r2,zero,2a060 <_dtoa_r+0x1628>
   29e24:	18c00044 	addi	r3,r3,1
   29e28:	003fbd06 	br	29d20 <_dtoa_r+0x12e8>
   29e2c:	d8800317 	ldw	r2,12(sp)
   29e30:	e007883a 	mov	r3,fp
   29e34:	8023883a 	mov	r17,r16
   29e38:	10800044 	addi	r2,r2,1
   29e3c:	df000817 	ldw	fp,32(sp)
   29e40:	d8800315 	stw	r2,12(sp)
   29e44:	9821883a 	mov	r16,r19
   29e48:	003dcb06 	br	29578 <_dtoa_r+0xb40>
   29e4c:	d9000c17 	ldw	r4,48(sp)
   29e50:	d9400d17 	ldw	r5,52(sp)
   29e54:	600d883a 	mov	r6,r12
   29e58:	680f883a 	mov	r7,r13
   29e5c:	dac00a15 	stw	r11,40(sp)
   29e60:	00306880 	call	30688 <__muldf3>
   29e64:	dac00a17 	ldw	r11,40(sp)
   29e68:	d9400e17 	ldw	r5,56(sp)
   29e6c:	d8800a15 	stw	r2,40(sp)
   29e70:	e2c00005 	stb	r11,0(fp)
   29e74:	29000058 	cmpnei	r4,r5,1
   29e78:	d8c00c15 	stw	r3,48(sp)
   29e7c:	e145883a 	add	r2,fp,r5
   29e80:	20002126 	beq	r4,zero,29f08 <_dtoa_r+0x14d0>
   29e84:	dc400e15 	stw	r17,56(sp)
   29e88:	dcc00d15 	stw	r19,52(sp)
   29e8c:	8023883a 	mov	r17,r16
   29e90:	a809883a 	mov	r4,r21
   29e94:	900b883a 	mov	r5,r18
   29e98:	1021883a 	mov	r16,r2
   29e9c:	000d883a 	mov	r6,zero
   29ea0:	01d00934 	movhi	r7,16420
   29ea4:	00306880 	call	30688 <__muldf3>
   29ea8:	180b883a 	mov	r5,r3
   29eac:	1009883a 	mov	r4,r2
   29eb0:	182b883a 	mov	r21,r3
   29eb4:	1027883a 	mov	r19,r2
   29eb8:	00223680 	call	22368 <__fixdfsi>
   29ebc:	1009883a 	mov	r4,r2
   29ec0:	1025883a 	mov	r18,r2
   29ec4:	00223e80 	call	223e8 <__floatsidf>
   29ec8:	9809883a 	mov	r4,r19
   29ecc:	a80b883a 	mov	r5,r21
   29ed0:	100d883a 	mov	r6,r2
   29ed4:	180f883a 	mov	r7,r3
   29ed8:	8c400044 	addi	r17,r17,1
   29edc:	94800c04 	addi	r18,r18,48
   29ee0:	0030cf80 	call	30cf8 <__subdf3>
   29ee4:	8cbfffc5 	stb	r18,-1(r17)
   29ee8:	1009883a 	mov	r4,r2
   29eec:	180b883a 	mov	r5,r3
   29ef0:	847fea1e 	bne	r16,r17,29e9c <_dtoa_r+0x1464>
   29ef4:	8821883a 	mov	r16,r17
   29ef8:	dcc00d17 	ldw	r19,52(sp)
   29efc:	dc400e17 	ldw	r17,56(sp)
   29f00:	102b883a 	mov	r21,r2
   29f04:	1825883a 	mov	r18,r3
   29f08:	d9000a17 	ldw	r4,40(sp)
   29f0c:	d9400c17 	ldw	r5,48(sp)
   29f10:	000d883a 	mov	r6,zero
   29f14:	01cff834 	movhi	r7,16352
   29f18:	00219f00 	call	219f0 <__adddf3>
   29f1c:	a80d883a 	mov	r6,r21
   29f20:	900f883a 	mov	r7,r18
   29f24:	1009883a 	mov	r4,r2
   29f28:	180b883a 	mov	r5,r3
   29f2c:	00305980 	call	30598 <__ledf2>
   29f30:	103c5316 	blt	r2,zero,29080 <_dtoa_r+0x648>
   29f34:	d9800a17 	ldw	r6,40(sp)
   29f38:	d9c00c17 	ldw	r7,48(sp)
   29f3c:	0009883a 	mov	r4,zero
   29f40:	014ff834 	movhi	r5,16352
   29f44:	0030cf80 	call	30cf8 <__subdf3>
   29f48:	a80d883a 	mov	r6,r21
   29f4c:	900f883a 	mov	r7,r18
   29f50:	1009883a 	mov	r4,r2
   29f54:	180b883a 	mov	r5,r3
   29f58:	00304a80 	call	304a8 <__gedf2>
   29f5c:	00bc8d0e 	bge	zero,r2,29194 <_dtoa_r+0x75c>
   29f60:	80bfffc7 	ldb	r2,-1(r16)
   29f64:	8025883a 	mov	r18,r16
   29f68:	843fffc4 	addi	r16,r16,-1
   29f6c:	10800c20 	cmpeqi	r2,r2,48
   29f70:	103ffb1e 	bne	r2,zero,29f60 <_dtoa_r+0x1528>
   29f74:	d8801117 	ldw	r2,68(sp)
   29f78:	10800044 	addi	r2,r2,1
   29f7c:	d8800315 	stw	r2,12(sp)
   29f80:	003da006 	br	29604 <_dtoa_r+0xbcc>
   29f84:	d8c01217 	ldw	r3,72(sp)
   29f88:	00800d84 	movi	r2,54
   29f8c:	d9000517 	ldw	r4,20(sp)
   29f90:	10c5c83a 	sub	r2,r2,r3
   29f94:	d8c00217 	ldw	r3,8(sp)
   29f98:	dd400717 	ldw	r21,28(sp)
   29f9c:	2025883a 	mov	r18,r4
   29fa0:	1887883a 	add	r3,r3,r2
   29fa4:	2085883a 	add	r2,r4,r2
   29fa8:	d8c00215 	stw	r3,8(sp)
   29fac:	d8800515 	stw	r2,20(sp)
   29fb0:	003d0306 	br	293c0 <_dtoa_r+0x988>
   29fb4:	d8800417 	ldw	r2,16(sp)
   29fb8:	103ee426 	beq	r2,zero,29b4c <_dtoa_r+0x1114>
   29fbc:	d8800b17 	ldw	r2,44(sp)
   29fc0:	00bc740e 	bge	zero,r2,29194 <_dtoa_r+0x75c>
   29fc4:	a80b883a 	mov	r5,r21
   29fc8:	9009883a 	mov	r4,r18
   29fcc:	000d883a 	mov	r6,zero
   29fd0:	01d00934 	movhi	r7,16420
   29fd4:	00306880 	call	30688 <__muldf3>
   29fd8:	81000044 	addi	r4,r16,1
   29fdc:	1025883a 	mov	r18,r2
   29fe0:	182b883a 	mov	r21,r3
   29fe4:	d8c00a15 	stw	r3,40(sp)
   29fe8:	00223e80 	call	223e8 <__floatsidf>
   29fec:	900d883a 	mov	r6,r18
   29ff0:	a80f883a 	mov	r7,r21
   29ff4:	1009883a 	mov	r4,r2
   29ff8:	180b883a 	mov	r5,r3
   29ffc:	00306880 	call	30688 <__muldf3>
   2a000:	1009883a 	mov	r4,r2
   2a004:	000d883a 	mov	r6,zero
   2a008:	01d00734 	movhi	r7,16412
   2a00c:	180b883a 	mov	r5,r3
   2a010:	00219f00 	call	219f0 <__adddf3>
   2a014:	d9000317 	ldw	r4,12(sp)
   2a018:	d8800c15 	stw	r2,48(sp)
   2a01c:	00bf3034 	movhi	r2,64704
   2a020:	1887883a 	add	r3,r3,r2
   2a024:	d8800b17 	ldw	r2,44(sp)
   2a028:	213fffc4 	addi	r4,r4,-1
   2a02c:	d9001115 	stw	r4,68(sp)
   2a030:	d8c00d15 	stw	r3,52(sp)
   2a034:	d8800e15 	stw	r2,56(sp)
   2a038:	003b9f06 	br	28eb8 <_dtoa_r+0x480>
   2a03c:	a025883a 	mov	r18,r20
   2a040:	dc400a15 	stw	r17,40(sp)
   2a044:	04000084 	movi	r16,2
   2a048:	003b7c06 	br	28e3c <_dtoa_r+0x404>
   2a04c:	d8800317 	ldw	r2,12(sp)
   2a050:	00c00c44 	movi	r3,49
   2a054:	10800044 	addi	r2,r2,1
   2a058:	d8800315 	stw	r2,12(sp)
   2a05c:	003c1606 	br	290b8 <_dtoa_r+0x680>
   2a060:	00800e44 	movi	r2,57
   2a064:	8023883a 	mov	r17,r16
   2a068:	a0800005 	stb	r2,0(r20)
   2a06c:	9821883a 	mov	r16,r19
   2a070:	01000e44 	movi	r4,57
   2a074:	003d4f06 	br	295b4 <_dtoa_r+0xb7c>
   2a078:	002b883a 	mov	r21,zero
   2a07c:	0021883a 	mov	r16,zero
   2a080:	003e7206 	br	29a4c <_dtoa_r+0x1014>
   2a084:	dd800d17 	ldw	r22,52(sp)
   2a088:	ddc00e17 	ldw	r23,56(sp)
   2a08c:	d8801117 	ldw	r2,68(sp)
   2a090:	8025883a 	mov	r18,r16
   2a094:	10800044 	addi	r2,r2,1
   2a098:	d8800315 	stw	r2,12(sp)
   2a09c:	003d5906 	br	29604 <_dtoa_r+0xbcc>
   2a0a0:	103f1f1e 	bne	r2,zero,29d20 <_dtoa_r+0x12e8>
   2a0a4:	1880004c 	andi	r2,r3,1
   2a0a8:	103f191e 	bne	r2,zero,29d10 <_dtoa_r+0x12d8>
   2a0ac:	003f1c06 	br	29d20 <_dtoa_r+0x12e8>
   2a0b0:	dcc00f17 	ldw	r19,60(sp)
   2a0b4:	dd800d17 	ldw	r22,52(sp)
   2a0b8:	ddc00e17 	ldw	r23,56(sp)
   2a0bc:	dc400c17 	ldw	r17,48(sp)
   2a0c0:	dd000a17 	ldw	r20,40(sp)
   2a0c4:	003c3306 	br	29194 <_dtoa_r+0x75c>
   2a0c8:	d9000317 	ldw	r4,12(sp)
   2a0cc:	e007883a 	mov	r3,fp
   2a0d0:	18800e60 	cmpeqi	r2,r3,57
   2a0d4:	21000044 	addi	r4,r4,1
   2a0d8:	d9000315 	stw	r4,12(sp)
   2a0dc:	df000817 	ldw	fp,32(sp)
   2a0e0:	a4800044 	addi	r18,r20,1
   2a0e4:	103fde1e 	bne	r2,zero,2a060 <_dtoa_r+0x1628>
   2a0e8:	047f0b16 	blt	zero,r17,29d18 <_dtoa_r+0x12e0>
   2a0ec:	003f0c06 	br	29d20 <_dtoa_r+0x12e8>
   2a0f0:	d8800117 	ldw	r2,4(sp)
   2a0f4:	108000c8 	cmpgei	r2,r2,3
   2a0f8:	103e451e 	bne	r2,zero,29a10 <_dtoa_r+0xfd8>
   2a0fc:	dcc00315 	stw	r19,12(sp)
   2a100:	003e0c06 	br	29934 <_dtoa_r+0xefc>
   2a104:	d8800117 	ldw	r2,4(sp)
   2a108:	108000c8 	cmpgei	r2,r2,3
   2a10c:	103e401e 	bne	r2,zero,29a10 <_dtoa_r+0xfd8>
   2a110:	d8800b17 	ldw	r2,44(sp)
   2a114:	dcc00315 	stw	r19,12(sp)
   2a118:	d8800415 	stw	r2,16(sp)
   2a11c:	04bdaf0e 	bge	zero,r18,297dc <_dtoa_r+0xda4>
   2a120:	003e5806 	br	29a84 <_dtoa_r+0x104c>
   2a124:	04000084 	movi	r16,2
   2a128:	003b4406 	br	28e3c <_dtoa_r+0x404>
   2a12c:	01c000f4 	movhi	r7,3
   2a130:	010000f4 	movhi	r4,3
   2a134:	39d27604 	addi	r7,r7,18904
   2a138:	000d883a 	mov	r6,zero
   2a13c:	01406a84 	movi	r5,426
   2a140:	21127b04 	addi	r4,r4,18924
   2a144:	002e5400 	call	2e540 <__assert_func>
   2a148:	01c000f4 	movhi	r7,3
   2a14c:	010000f4 	movhi	r4,3
   2a150:	39d27604 	addi	r7,r7,18904
   2a154:	000d883a 	mov	r6,zero
   2a158:	0140ba84 	movi	r5,746
   2a15c:	21127b04 	addi	r4,r4,18924
   2a160:	002e5400 	call	2e540 <__assert_func>
   2a164:	e7127304 	addi	fp,fp,18892
   2a168:	003a6406 	br	28afc <_dtoa_r+0xc4>
   2a16c:	18c00120 	cmpeqi	r3,r3,4
   2a170:	183cd51e 	bne	r3,zero,294c8 <_dtoa_r+0xa90>
   2a174:	00c00f04 	movi	r3,60
   2a178:	1885c83a 	sub	r2,r3,r2
   2a17c:	003d6c06 	br	29730 <_dtoa_r+0xcf8>
   2a180:	000b883a 	mov	r5,zero
   2a184:	003af006 	br	28d48 <_dtoa_r+0x310>

0002a188 <_fclose_r>:
   2a188:	defffc04 	addi	sp,sp,-16
   2a18c:	dfc00315 	stw	ra,12(sp)
   2a190:	dc800215 	stw	r18,8(sp)
   2a194:	dc400115 	stw	r17,4(sp)
   2a198:	dc000015 	stw	r16,0(sp)
   2a19c:	28000726 	beq	r5,zero,2a1bc <_fclose_r+0x34>
   2a1a0:	2821883a 	mov	r16,r5
   2a1a4:	2023883a 	mov	r17,r4
   2a1a8:	20000226 	beq	r4,zero,2a1b4 <_fclose_r+0x2c>
   2a1ac:	20800e17 	ldw	r2,56(r4)
   2a1b0:	10002726 	beq	r2,zero,2a250 <_fclose_r+0xc8>
   2a1b4:	8080030f 	ldh	r2,12(r16)
   2a1b8:	1000081e 	bne	r2,zero,2a1dc <_fclose_r+0x54>
   2a1bc:	0025883a 	mov	r18,zero
   2a1c0:	9005883a 	mov	r2,r18
   2a1c4:	dfc00317 	ldw	ra,12(sp)
   2a1c8:	dc800217 	ldw	r18,8(sp)
   2a1cc:	dc400117 	ldw	r17,4(sp)
   2a1d0:	dc000017 	ldw	r16,0(sp)
   2a1d4:	dec00404 	addi	sp,sp,16
   2a1d8:	f800283a 	ret
   2a1dc:	800b883a 	mov	r5,r16
   2a1e0:	8809883a 	mov	r4,r17
   2a1e4:	00228380 	call	22838 <__sflush_r>
   2a1e8:	80c00b17 	ldw	r3,44(r16)
   2a1ec:	1025883a 	mov	r18,r2
   2a1f0:	18000426 	beq	r3,zero,2a204 <_fclose_r+0x7c>
   2a1f4:	81400717 	ldw	r5,28(r16)
   2a1f8:	8809883a 	mov	r4,r17
   2a1fc:	183ee83a 	callr	r3
   2a200:	10001716 	blt	r2,zero,2a260 <_fclose_r+0xd8>
   2a204:	8080030b 	ldhu	r2,12(r16)
   2a208:	1080200c 	andi	r2,r2,128
   2a20c:	1000181e 	bne	r2,zero,2a270 <_fclose_r+0xe8>
   2a210:	81400c17 	ldw	r5,48(r16)
   2a214:	28000526 	beq	r5,zero,2a22c <_fclose_r+0xa4>
   2a218:	80801004 	addi	r2,r16,64
   2a21c:	28800226 	beq	r5,r2,2a228 <_fclose_r+0xa0>
   2a220:	8809883a 	mov	r4,r17
   2a224:	002309c0 	call	2309c <_free_r>
   2a228:	80000c15 	stw	zero,48(r16)
   2a22c:	81401117 	ldw	r5,68(r16)
   2a230:	28000326 	beq	r5,zero,2a240 <_fclose_r+0xb8>
   2a234:	8809883a 	mov	r4,r17
   2a238:	002309c0 	call	2309c <_free_r>
   2a23c:	80001115 	stw	zero,68(r16)
   2a240:	0022df40 	call	22df4 <__sfp_lock_acquire>
   2a244:	8000030d 	sth	zero,12(r16)
   2a248:	0022df80 	call	22df8 <__sfp_lock_release>
   2a24c:	003fdc06 	br	2a1c0 <_fclose_r+0x38>
   2a250:	0022de40 	call	22de4 <__sinit>
   2a254:	8080030f 	ldh	r2,12(r16)
   2a258:	103fd826 	beq	r2,zero,2a1bc <_fclose_r+0x34>
   2a25c:	003fdf06 	br	2a1dc <_fclose_r+0x54>
   2a260:	8080030b 	ldhu	r2,12(r16)
   2a264:	04bfffc4 	movi	r18,-1
   2a268:	1080200c 	andi	r2,r2,128
   2a26c:	103fe826 	beq	r2,zero,2a210 <_fclose_r+0x88>
   2a270:	81400417 	ldw	r5,16(r16)
   2a274:	8809883a 	mov	r4,r17
   2a278:	002309c0 	call	2309c <_free_r>
   2a27c:	003fe406 	br	2a210 <_fclose_r+0x88>

0002a280 <fclose>:
   2a280:	008000f4 	movhi	r2,3
   2a284:	200b883a 	mov	r5,r4
   2a288:	111af817 	ldw	r4,27616(r2)
   2a28c:	002a1881 	jmpi	2a188 <_fclose_r>

0002a290 <__sflags>:
   2a290:	28800007 	ldb	r2,0(r5)
   2a294:	10c01ca0 	cmpeqi	r3,r2,114
   2a298:	1800271e 	bne	r3,zero,2a338 <__sflags+0xa8>
   2a29c:	10c01de0 	cmpeqi	r3,r2,119
   2a2a0:	1800061e 	bne	r3,zero,2a2bc <__sflags+0x2c>
   2a2a4:	10801860 	cmpeqi	r2,r2,97
   2a2a8:	10001f1e 	bne	r2,zero,2a328 <__sflags+0x98>
   2a2ac:	00800584 	movi	r2,22
   2a2b0:	20800015 	stw	r2,0(r4)
   2a2b4:	0005883a 	mov	r2,zero
   2a2b8:	f800283a 	ret
   2a2bc:	02018004 	movi	r8,1536
   2a2c0:	01000044 	movi	r4,1
   2a2c4:	00800204 	movi	r2,8
   2a2c8:	28c00047 	ldb	r3,1(r5)
   2a2cc:	29400044 	addi	r5,r5,1
   2a2d0:	18001226 	beq	r3,zero,2a31c <__sflags+0x8c>
   2a2d4:	02bff8c4 	movi	r10,-29
   2a2d8:	027fff04 	movi	r9,-4
   2a2dc:	00000506 	br	2a2f4 <__sflags+0x64>
   2a2e0:	18000126 	beq	r3,zero,2a2e8 <__sflags+0x58>
   2a2e4:	21020014 	ori	r4,r4,2048
   2a2e8:	28c00047 	ldb	r3,1(r5)
   2a2ec:	29400044 	addi	r5,r5,1
   2a2f0:	18000a26 	beq	r3,zero,2a31c <__sflags+0x8c>
   2a2f4:	19c00ae0 	cmpeqi	r7,r3,43
   2a2f8:	18c01e20 	cmpeqi	r3,r3,120
   2a2fc:	383ff826 	beq	r7,zero,2a2e0 <__sflags+0x50>
   2a300:	28c00047 	ldb	r3,1(r5)
   2a304:	1284703a 	and	r2,r2,r10
   2a308:	2248703a 	and	r4,r4,r9
   2a30c:	10800414 	ori	r2,r2,16
   2a310:	21000094 	ori	r4,r4,2
   2a314:	29400044 	addi	r5,r5,1
   2a318:	183ff61e 	bne	r3,zero,2a2f4 <__sflags+0x64>
   2a31c:	4108b03a 	or	r4,r8,r4
   2a320:	31000015 	stw	r4,0(r6)
   2a324:	f800283a 	ret
   2a328:	02008204 	movi	r8,520
   2a32c:	01000044 	movi	r4,1
   2a330:	00804204 	movi	r2,264
   2a334:	003fe406 	br	2a2c8 <__sflags+0x38>
   2a338:	0011883a 	mov	r8,zero
   2a33c:	0009883a 	mov	r4,zero
   2a340:	00800104 	movi	r2,4
   2a344:	003fe006 	br	2a2c8 <__sflags+0x38>

0002a348 <__sfvwrite_r>:
   2a348:	30800217 	ldw	r2,8(r6)
   2a34c:	1000c726 	beq	r2,zero,2a66c <__sfvwrite_r+0x324>
   2a350:	29c0030b 	ldhu	r7,12(r5)
   2a354:	defff404 	addi	sp,sp,-48
   2a358:	dd800815 	stw	r22,32(sp)
   2a35c:	dd400715 	stw	r21,28(sp)
   2a360:	dc000215 	stw	r16,8(sp)
   2a364:	dfc00b15 	stw	ra,44(sp)
   2a368:	df000a15 	stw	fp,40(sp)
   2a36c:	ddc00915 	stw	r23,36(sp)
   2a370:	dd000615 	stw	r20,24(sp)
   2a374:	dcc00515 	stw	r19,20(sp)
   2a378:	dc800415 	stw	r18,16(sp)
   2a37c:	dc400315 	stw	r17,12(sp)
   2a380:	3880020c 	andi	r2,r7,8
   2a384:	302d883a 	mov	r22,r6
   2a388:	202b883a 	mov	r21,r4
   2a38c:	2821883a 	mov	r16,r5
   2a390:	10002226 	beq	r2,zero,2a41c <__sfvwrite_r+0xd4>
   2a394:	28800417 	ldw	r2,16(r5)
   2a398:	10002026 	beq	r2,zero,2a41c <__sfvwrite_r+0xd4>
   2a39c:	3880008c 	andi	r2,r7,2
   2a3a0:	b4400017 	ldw	r17,0(r22)
   2a3a4:	10002526 	beq	r2,zero,2a43c <__sfvwrite_r+0xf4>
   2a3a8:	80800917 	ldw	r2,36(r16)
   2a3ac:	81400717 	ldw	r5,28(r16)
   2a3b0:	05200034 	movhi	r20,32768
   2a3b4:	0027883a 	mov	r19,zero
   2a3b8:	0025883a 	mov	r18,zero
   2a3bc:	a53f0004 	addi	r20,r20,-1024
   2a3c0:	980d883a 	mov	r6,r19
   2a3c4:	a809883a 	mov	r4,r21
   2a3c8:	90001026 	beq	r18,zero,2a40c <__sfvwrite_r+0xc4>
   2a3cc:	900f883a 	mov	r7,r18
   2a3d0:	a480012e 	bgeu	r20,r18,2a3d8 <__sfvwrite_r+0x90>
   2a3d4:	a00f883a 	mov	r7,r20
   2a3d8:	103ee83a 	callr	r2
   2a3dc:	00809e0e 	bge	zero,r2,2a658 <__sfvwrite_r+0x310>
   2a3e0:	b1000217 	ldw	r4,8(r22)
   2a3e4:	98a7883a 	add	r19,r19,r2
   2a3e8:	90a5c83a 	sub	r18,r18,r2
   2a3ec:	2085c83a 	sub	r2,r4,r2
   2a3f0:	b0800215 	stw	r2,8(r22)
   2a3f4:	10006226 	beq	r2,zero,2a580 <__sfvwrite_r+0x238>
   2a3f8:	80800917 	ldw	r2,36(r16)
   2a3fc:	81400717 	ldw	r5,28(r16)
   2a400:	980d883a 	mov	r6,r19
   2a404:	a809883a 	mov	r4,r21
   2a408:	903ff01e 	bne	r18,zero,2a3cc <__sfvwrite_r+0x84>
   2a40c:	8cc00017 	ldw	r19,0(r17)
   2a410:	8c800117 	ldw	r18,4(r17)
   2a414:	8c400204 	addi	r17,r17,8
   2a418:	003fe906 	br	2a3c0 <__sfvwrite_r+0x78>
   2a41c:	800b883a 	mov	r5,r16
   2a420:	a809883a 	mov	r4,r21
   2a424:	00286880 	call	28688 <__swsetup_r>
   2a428:	1000f41e 	bne	r2,zero,2a7fc <__sfvwrite_r+0x4b4>
   2a42c:	81c0030b 	ldhu	r7,12(r16)
   2a430:	b4400017 	ldw	r17,0(r22)
   2a434:	3880008c 	andi	r2,r7,2
   2a438:	103fdb1e 	bne	r2,zero,2a3a8 <__sfvwrite_r+0x60>
   2a43c:	3880004c 	andi	r2,r7,1
   2a440:	84800217 	ldw	r18,8(r16)
   2a444:	82000017 	ldw	r8,0(r16)
   2a448:	10008a1e 	bne	r2,zero,2a674 <__sfvwrite_r+0x32c>
   2a44c:	00a00034 	movhi	r2,32768
   2a450:	10bfff84 	addi	r2,r2,-2
   2a454:	00e00034 	movhi	r3,32768
   2a458:	d8800015 	stw	r2,0(sp)
   2a45c:	18bfffc4 	addi	r2,r3,-1
   2a460:	0039883a 	mov	fp,zero
   2a464:	0027883a 	mov	r19,zero
   2a468:	d8800115 	stw	r2,4(sp)
   2a46c:	98004026 	beq	r19,zero,2a570 <__sfvwrite_r+0x228>
   2a470:	3880800c 	andi	r2,r7,512
   2a474:	10009226 	beq	r2,zero,2a6c0 <__sfvwrite_r+0x378>
   2a478:	902f883a 	mov	r23,r18
   2a47c:	9c80b636 	bltu	r19,r18,2a758 <__sfvwrite_r+0x410>
   2a480:	3881200c 	andi	r2,r7,1152
   2a484:	10002526 	beq	r2,zero,2a51c <__sfvwrite_r+0x1d4>
   2a488:	81000517 	ldw	r4,20(r16)
   2a48c:	81400417 	ldw	r5,16(r16)
   2a490:	98800044 	addi	r2,r19,1
   2a494:	210000e4 	muli	r4,r4,3
   2a498:	4165c83a 	sub	r18,r8,r5
   2a49c:	1485883a 	add	r2,r2,r18
   2a4a0:	2028d7fa 	srli	r20,r4,31
   2a4a4:	a109883a 	add	r4,r20,r4
   2a4a8:	2029d07a 	srai	r20,r4,1
   2a4ac:	a00d883a 	mov	r6,r20
   2a4b0:	a080022e 	bgeu	r20,r2,2a4bc <__sfvwrite_r+0x174>
   2a4b4:	1029883a 	mov	r20,r2
   2a4b8:	100d883a 	mov	r6,r2
   2a4bc:	39c1000c 	andi	r7,r7,1024
   2a4c0:	3800be26 	beq	r7,zero,2a7bc <__sfvwrite_r+0x474>
   2a4c4:	a809883a 	mov	r4,r21
   2a4c8:	300b883a 	mov	r5,r6
   2a4cc:	0023dc40 	call	23dc4 <_malloc_r>
   2a4d0:	1009883a 	mov	r4,r2
   2a4d4:	1000c526 	beq	r2,zero,2a7ec <__sfvwrite_r+0x4a4>
   2a4d8:	81400417 	ldw	r5,16(r16)
   2a4dc:	900d883a 	mov	r6,r18
   2a4e0:	00245a40 	call	245a4 <memcpy>
   2a4e4:	1009883a 	mov	r4,r2
   2a4e8:	8080030b 	ldhu	r2,12(r16)
   2a4ec:	00fedfc4 	movi	r3,-1153
   2a4f0:	10c4703a 	and	r2,r2,r3
   2a4f4:	10802014 	ori	r2,r2,128
   2a4f8:	8080030d 	sth	r2,12(r16)
   2a4fc:	2491883a 	add	r8,r4,r18
   2a500:	a485c83a 	sub	r2,r20,r18
   2a504:	81000415 	stw	r4,16(r16)
   2a508:	82000015 	stw	r8,0(r16)
   2a50c:	85000515 	stw	r20,20(r16)
   2a510:	9825883a 	mov	r18,r19
   2a514:	80800215 	stw	r2,8(r16)
   2a518:	982f883a 	mov	r23,r19
   2a51c:	4009883a 	mov	r4,r8
   2a520:	b80d883a 	mov	r6,r23
   2a524:	e00b883a 	mov	r5,fp
   2a528:	002b6740 	call	2b674 <memmove>
   2a52c:	81000217 	ldw	r4,8(r16)
   2a530:	80800017 	ldw	r2,0(r16)
   2a534:	9829883a 	mov	r20,r19
   2a538:	24a5c83a 	sub	r18,r4,r18
   2a53c:	15c5883a 	add	r2,r2,r23
   2a540:	84800215 	stw	r18,8(r16)
   2a544:	80800015 	stw	r2,0(r16)
   2a548:	0027883a 	mov	r19,zero
   2a54c:	b0800217 	ldw	r2,8(r22)
   2a550:	e539883a 	add	fp,fp,r20
   2a554:	1529c83a 	sub	r20,r2,r20
   2a558:	b5000215 	stw	r20,8(r22)
   2a55c:	a0000826 	beq	r20,zero,2a580 <__sfvwrite_r+0x238>
   2a560:	81c0030b 	ldhu	r7,12(r16)
   2a564:	84800217 	ldw	r18,8(r16)
   2a568:	82000017 	ldw	r8,0(r16)
   2a56c:	983fc01e 	bne	r19,zero,2a470 <__sfvwrite_r+0x128>
   2a570:	8f000017 	ldw	fp,0(r17)
   2a574:	8cc00117 	ldw	r19,4(r17)
   2a578:	8c400204 	addi	r17,r17,8
   2a57c:	003fbb06 	br	2a46c <__sfvwrite_r+0x124>
   2a580:	0005883a 	mov	r2,zero
   2a584:	dfc00b17 	ldw	ra,44(sp)
   2a588:	df000a17 	ldw	fp,40(sp)
   2a58c:	ddc00917 	ldw	r23,36(sp)
   2a590:	dd800817 	ldw	r22,32(sp)
   2a594:	dd400717 	ldw	r21,28(sp)
   2a598:	dd000617 	ldw	r20,24(sp)
   2a59c:	dcc00517 	ldw	r19,20(sp)
   2a5a0:	dc800417 	ldw	r18,16(sp)
   2a5a4:	dc400317 	ldw	r17,12(sp)
   2a5a8:	dc000217 	ldw	r16,8(sp)
   2a5ac:	dec00c04 	addi	sp,sp,48
   2a5b0:	f800283a 	ret
   2a5b4:	e1c07016 	blt	fp,r7,2a778 <__sfvwrite_r+0x430>
   2a5b8:	80800917 	ldw	r2,36(r16)
   2a5bc:	81400717 	ldw	r5,28(r16)
   2a5c0:	b80d883a 	mov	r6,r23
   2a5c4:	a809883a 	mov	r4,r21
   2a5c8:	103ee83a 	callr	r2
   2a5cc:	1025883a 	mov	r18,r2
   2a5d0:	0080210e 	bge	zero,r2,2a658 <__sfvwrite_r+0x310>
   2a5d4:	a4a9c83a 	sub	r20,r20,r18
   2a5d8:	a0006226 	beq	r20,zero,2a764 <__sfvwrite_r+0x41c>
   2a5dc:	00800044 	movi	r2,1
   2a5e0:	b1800217 	ldw	r6,8(r22)
   2a5e4:	bcaf883a 	add	r23,r23,r18
   2a5e8:	9ca7c83a 	sub	r19,r19,r18
   2a5ec:	34a5c83a 	sub	r18,r6,r18
   2a5f0:	b4800215 	stw	r18,8(r22)
   2a5f4:	903fe226 	beq	r18,zero,2a580 <__sfvwrite_r+0x238>
   2a5f8:	84800217 	ldw	r18,8(r16)
   2a5fc:	82000017 	ldw	r8,0(r16)
   2a600:	98002126 	beq	r19,zero,2a688 <__sfvwrite_r+0x340>
   2a604:	10002426 	beq	r2,zero,2a698 <__sfvwrite_r+0x350>
   2a608:	a005883a 	mov	r2,r20
   2a60c:	9839883a 	mov	fp,r19
   2a610:	14c0012e 	bgeu	r2,r19,2a618 <__sfvwrite_r+0x2d0>
   2a614:	1039883a 	mov	fp,r2
   2a618:	80800417 	ldw	r2,16(r16)
   2a61c:	81c00517 	ldw	r7,20(r16)
   2a620:	123fe42e 	bgeu	r2,r8,2a5b4 <__sfvwrite_r+0x26c>
   2a624:	3ca5883a 	add	r18,r7,r18
   2a628:	973fe20e 	bge	r18,fp,2a5b4 <__sfvwrite_r+0x26c>
   2a62c:	b80b883a 	mov	r5,r23
   2a630:	4009883a 	mov	r4,r8
   2a634:	900d883a 	mov	r6,r18
   2a638:	002b6740 	call	2b674 <memmove>
   2a63c:	80800017 	ldw	r2,0(r16)
   2a640:	800b883a 	mov	r5,r16
   2a644:	a809883a 	mov	r4,r21
   2a648:	1485883a 	add	r2,r2,r18
   2a64c:	80800015 	stw	r2,0(r16)
   2a650:	0022a600 	call	22a60 <_fflush_r>
   2a654:	103fdf26 	beq	r2,zero,2a5d4 <__sfvwrite_r+0x28c>
   2a658:	8080030b 	ldhu	r2,12(r16)
   2a65c:	10801014 	ori	r2,r2,64
   2a660:	8080030d 	sth	r2,12(r16)
   2a664:	00bfffc4 	movi	r2,-1
   2a668:	003fc606 	br	2a584 <__sfvwrite_r+0x23c>
   2a66c:	0005883a 	mov	r2,zero
   2a670:	f800283a 	ret
   2a674:	0027883a 	mov	r19,zero
   2a678:	0029883a 	mov	r20,zero
   2a67c:	0005883a 	mov	r2,zero
   2a680:	002f883a 	mov	r23,zero
   2a684:	983fdf1e 	bne	r19,zero,2a604 <__sfvwrite_r+0x2bc>
   2a688:	8cc00117 	ldw	r19,4(r17)
   2a68c:	8dc00017 	ldw	r23,0(r17)
   2a690:	8c400204 	addi	r17,r17,8
   2a694:	983ffc26 	beq	r19,zero,2a688 <__sfvwrite_r+0x340>
   2a698:	980d883a 	mov	r6,r19
   2a69c:	01400284 	movi	r5,10
   2a6a0:	b809883a 	mov	r4,r23
   2a6a4:	da000015 	stw	r8,0(sp)
   2a6a8:	002b5a00 	call	2b5a0 <memchr>
   2a6ac:	da000017 	ldw	r8,0(sp)
   2a6b0:	10003f26 	beq	r2,zero,2a7b0 <__sfvwrite_r+0x468>
   2a6b4:	10800044 	addi	r2,r2,1
   2a6b8:	15e9c83a 	sub	r20,r2,r23
   2a6bc:	003fd206 	br	2a608 <__sfvwrite_r+0x2c0>
   2a6c0:	80800417 	ldw	r2,16(r16)
   2a6c4:	12001136 	bltu	r2,r8,2a70c <__sfvwrite_r+0x3c4>
   2a6c8:	85000517 	ldw	r20,20(r16)
   2a6cc:	9d000f36 	bltu	r19,r20,2a70c <__sfvwrite_r+0x3c4>
   2a6d0:	d8800017 	ldw	r2,0(sp)
   2a6d4:	14c0342e 	bgeu	r2,r19,2a7a8 <__sfvwrite_r+0x460>
   2a6d8:	d9000117 	ldw	r4,4(sp)
   2a6dc:	a00b883a 	mov	r5,r20
   2a6e0:	0020e9c0 	call	20e9c <__divsi3>
   2a6e4:	150f383a 	mul	r7,r2,r20
   2a6e8:	82000917 	ldw	r8,36(r16)
   2a6ec:	81400717 	ldw	r5,28(r16)
   2a6f0:	e00d883a 	mov	r6,fp
   2a6f4:	a809883a 	mov	r4,r21
   2a6f8:	403ee83a 	callr	r8
   2a6fc:	1029883a 	mov	r20,r2
   2a700:	00bfd50e 	bge	zero,r2,2a658 <__sfvwrite_r+0x310>
   2a704:	9d27c83a 	sub	r19,r19,r20
   2a708:	003f9006 	br	2a54c <__sfvwrite_r+0x204>
   2a70c:	9029883a 	mov	r20,r18
   2a710:	9c80012e 	bgeu	r19,r18,2a718 <__sfvwrite_r+0x3d0>
   2a714:	9829883a 	mov	r20,r19
   2a718:	4009883a 	mov	r4,r8
   2a71c:	a00d883a 	mov	r6,r20
   2a720:	e00b883a 	mov	r5,fp
   2a724:	002b6740 	call	2b674 <memmove>
   2a728:	80800217 	ldw	r2,8(r16)
   2a72c:	81000017 	ldw	r4,0(r16)
   2a730:	1505c83a 	sub	r2,r2,r20
   2a734:	2509883a 	add	r4,r4,r20
   2a738:	80800215 	stw	r2,8(r16)
   2a73c:	81000015 	stw	r4,0(r16)
   2a740:	103ff01e 	bne	r2,zero,2a704 <__sfvwrite_r+0x3bc>
   2a744:	800b883a 	mov	r5,r16
   2a748:	a809883a 	mov	r4,r21
   2a74c:	0022a600 	call	22a60 <_fflush_r>
   2a750:	103fec26 	beq	r2,zero,2a704 <__sfvwrite_r+0x3bc>
   2a754:	003fc006 	br	2a658 <__sfvwrite_r+0x310>
   2a758:	9825883a 	mov	r18,r19
   2a75c:	982f883a 	mov	r23,r19
   2a760:	003f6e06 	br	2a51c <__sfvwrite_r+0x1d4>
   2a764:	800b883a 	mov	r5,r16
   2a768:	a809883a 	mov	r4,r21
   2a76c:	0022a600 	call	22a60 <_fflush_r>
   2a770:	103f9b26 	beq	r2,zero,2a5e0 <__sfvwrite_r+0x298>
   2a774:	003fb806 	br	2a658 <__sfvwrite_r+0x310>
   2a778:	e00d883a 	mov	r6,fp
   2a77c:	b80b883a 	mov	r5,r23
   2a780:	4009883a 	mov	r4,r8
   2a784:	002b6740 	call	2b674 <memmove>
   2a788:	80800217 	ldw	r2,8(r16)
   2a78c:	81800017 	ldw	r6,0(r16)
   2a790:	e025883a 	mov	r18,fp
   2a794:	1705c83a 	sub	r2,r2,fp
   2a798:	370d883a 	add	r6,r6,fp
   2a79c:	80800215 	stw	r2,8(r16)
   2a7a0:	81800015 	stw	r6,0(r16)
   2a7a4:	003f8b06 	br	2a5d4 <__sfvwrite_r+0x28c>
   2a7a8:	9809883a 	mov	r4,r19
   2a7ac:	003fcb06 	br	2a6dc <__sfvwrite_r+0x394>
   2a7b0:	98800044 	addi	r2,r19,1
   2a7b4:	1029883a 	mov	r20,r2
   2a7b8:	003f9406 	br	2a60c <__sfvwrite_r+0x2c4>
   2a7bc:	a809883a 	mov	r4,r21
   2a7c0:	002c8a00 	call	2c8a0 <_realloc_r>
   2a7c4:	1009883a 	mov	r4,r2
   2a7c8:	103f4c1e 	bne	r2,zero,2a4fc <__sfvwrite_r+0x1b4>
   2a7cc:	81400417 	ldw	r5,16(r16)
   2a7d0:	a809883a 	mov	r4,r21
   2a7d4:	002309c0 	call	2309c <_free_r>
   2a7d8:	8080030b 	ldhu	r2,12(r16)
   2a7dc:	00c00304 	movi	r3,12
   2a7e0:	a8c00015 	stw	r3,0(r21)
   2a7e4:	10bfdfcc 	andi	r2,r2,65407
   2a7e8:	003f9c06 	br	2a65c <__sfvwrite_r+0x314>
   2a7ec:	00c00304 	movi	r3,12
   2a7f0:	8080030b 	ldhu	r2,12(r16)
   2a7f4:	a8c00015 	stw	r3,0(r21)
   2a7f8:	003f9806 	br	2a65c <__sfvwrite_r+0x314>
   2a7fc:	00bfffc4 	movi	r2,-1
   2a800:	003f6006 	br	2a584 <__sfvwrite_r+0x23c>

0002a804 <rshift>:
   2a804:	2817d17a 	srai	r11,r5,5
   2a808:	21c00417 	ldw	r7,16(r4)
   2a80c:	59c0220e 	bge	r11,r7,2a898 <rshift+0x94>
   2a810:	381090ba 	slli	r8,r7,2
   2a814:	580490ba 	slli	r2,r11,2
   2a818:	22400504 	addi	r9,r4,20
   2a81c:	298007cc 	andi	r6,r5,31
   2a820:	4a11883a 	add	r8,r9,r8
   2a824:	4885883a 	add	r2,r9,r2
   2a828:	30001e26 	beq	r6,zero,2a8a4 <rshift+0xa0>
   2a82c:	10c00017 	ldw	r3,0(r2)
   2a830:	03000804 	movi	r12,32
   2a834:	10800104 	addi	r2,r2,4
   2a838:	198ad83a 	srl	r5,r3,r6
   2a83c:	6199c83a 	sub	r12,r12,r6
   2a840:	1200122e 	bgeu	r2,r8,2a88c <rshift+0x88>
   2a844:	4815883a 	mov	r10,r9
   2a848:	10c00017 	ldw	r3,0(r2)
   2a84c:	52800104 	addi	r10,r10,4
   2a850:	10800104 	addi	r2,r2,4
   2a854:	1b06983a 	sll	r3,r3,r12
   2a858:	1946b03a 	or	r3,r3,r5
   2a85c:	50ffff15 	stw	r3,-4(r10)
   2a860:	10ffff17 	ldw	r3,-4(r2)
   2a864:	198ad83a 	srl	r5,r3,r6
   2a868:	123ff736 	bltu	r2,r8,2a848 <rshift+0x44>
   2a86c:	3acfc83a 	sub	r7,r7,r11
   2a870:	380e90ba 	slli	r7,r7,2
   2a874:	39ffff04 	addi	r7,r7,-4
   2a878:	49cf883a 	add	r7,r9,r7
   2a87c:	39400015 	stw	r5,0(r7)
   2a880:	28001226 	beq	r5,zero,2a8cc <rshift+0xc8>
   2a884:	39c00104 	addi	r7,r7,4
   2a888:	00001006 	br	2a8cc <rshift+0xc8>
   2a88c:	21400515 	stw	r5,20(r4)
   2a890:	480f883a 	mov	r7,r9
   2a894:	283ffb1e 	bne	r5,zero,2a884 <rshift+0x80>
   2a898:	20000415 	stw	zero,16(r4)
   2a89c:	20000515 	stw	zero,20(r4)
   2a8a0:	f800283a 	ret
   2a8a4:	4807883a 	mov	r3,r9
   2a8a8:	123ffb2e 	bgeu	r2,r8,2a898 <rshift+0x94>
   2a8ac:	11400017 	ldw	r5,0(r2)
   2a8b0:	10800104 	addi	r2,r2,4
   2a8b4:	18c00104 	addi	r3,r3,4
   2a8b8:	197fff15 	stw	r5,-4(r3)
   2a8bc:	123ffb36 	bltu	r2,r8,2a8ac <rshift+0xa8>
   2a8c0:	3acfc83a 	sub	r7,r7,r11
   2a8c4:	380e90ba 	slli	r7,r7,2
   2a8c8:	49cf883a 	add	r7,r9,r7
   2a8cc:	3a45c83a 	sub	r2,r7,r9
   2a8d0:	1005d0ba 	srai	r2,r2,2
   2a8d4:	20800415 	stw	r2,16(r4)
   2a8d8:	3a7ff026 	beq	r7,r9,2a89c <rshift+0x98>
   2a8dc:	f800283a 	ret

0002a8e0 <__gethex>:
   2a8e0:	deffec04 	addi	sp,sp,-80
   2a8e4:	008000f4 	movhi	r2,3
   2a8e8:	dc800c15 	stw	r18,48(sp)
   2a8ec:	1492dc17 	ldw	r18,19312(r2)
   2a8f0:	dd000e15 	stw	r20,56(sp)
   2a8f4:	2029883a 	mov	r20,r4
   2a8f8:	9009883a 	mov	r4,r18
   2a8fc:	dd801015 	stw	r22,64(sp)
   2a900:	dd400f15 	stw	r21,60(sp)
   2a904:	dc400b15 	stw	r17,44(sp)
   2a908:	282d883a 	mov	r22,r5
   2a90c:	d9c00915 	stw	r7,36(sp)
   2a910:	dfc01315 	stw	ra,76(sp)
   2a914:	df001215 	stw	fp,72(sp)
   2a918:	ddc01115 	stw	r23,68(sp)
   2a91c:	dcc00d15 	stw	r19,52(sp)
   2a920:	dc000a15 	stw	r16,40(sp)
   2a924:	dd000015 	stw	r20,0(sp)
   2a928:	3023883a 	mov	r17,r6
   2a92c:	002cebc0 	call	2cebc <strlen>
   2a930:	b1c00017 	ldw	r7,0(r22)
   2a934:	9089883a 	add	r4,r18,r2
   2a938:	213fffc3 	ldbu	r4,-1(r4)
   2a93c:	102b883a 	mov	r21,r2
   2a940:	38800083 	ldbu	r2,2(r7)
   2a944:	d9000205 	stb	r4,8(sp)
   2a948:	10c00c18 	cmpnei	r3,r2,48
   2a94c:	1801641e 	bne	r3,zero,2aee0 <__gethex+0x600>
   2a950:	017fff84 	movi	r5,-2
   2a954:	38c000c4 	addi	r3,r7,3
   2a958:	29cbc83a 	sub	r5,r5,r7
   2a95c:	18800003 	ldbu	r2,0(r3)
   2a960:	28ef883a 	add	r23,r5,r3
   2a964:	1829883a 	mov	r20,r3
   2a968:	11000c20 	cmpeqi	r4,r2,48
   2a96c:	18c00044 	addi	r3,r3,1
   2a970:	203ffa1e 	bne	r4,zero,2a95c <__gethex+0x7c>
   2a974:	00c000f4 	movhi	r3,3
   2a978:	10c7883a 	add	r3,r2,r3
   2a97c:	18929b03 	ldbu	r2,19052(r3)
   2a980:	1000191e 	bne	r2,zero,2a9e8 <__gethex+0x108>
   2a984:	a80d883a 	mov	r6,r21
   2a988:	900b883a 	mov	r5,r18
   2a98c:	a009883a 	mov	r4,r20
   2a990:	002cf540 	call	2cf54 <strncmp>
   2a994:	1000e31e 	bne	r2,zero,2ad24 <__gethex+0x444>
   2a998:	a561883a 	add	r16,r20,r21
   2a99c:	80c00003 	ldbu	r3,0(r16)
   2a9a0:	008000f4 	movhi	r2,3
   2a9a4:	19003fcc 	andi	r4,r3,255
   2a9a8:	2085883a 	add	r2,r4,r2
   2a9ac:	10929b03 	ldbu	r2,19052(r2)
   2a9b0:	1000de26 	beq	r2,zero,2ad2c <__gethex+0x44c>
   2a9b4:	21000c18 	cmpnei	r4,r4,48
   2a9b8:	8029883a 	mov	r20,r16
   2a9bc:	2000071e 	bne	r4,zero,2a9dc <__gethex+0xfc>
   2a9c0:	a0800043 	ldbu	r2,1(r20)
   2a9c4:	a5000044 	addi	r20,r20,1
   2a9c8:	10c00c20 	cmpeqi	r3,r2,48
   2a9cc:	183ffc1e 	bne	r3,zero,2a9c0 <__gethex+0xe0>
   2a9d0:	00c000f4 	movhi	r3,3
   2a9d4:	10c7883a 	add	r3,r2,r3
   2a9d8:	18929b03 	ldbu	r2,19052(r3)
   2a9dc:	1013003a 	cmpeq	r9,r2,zero
   2a9e0:	05c00044 	movi	r23,1
   2a9e4:	00000606 	br	2aa00 <__gethex+0x120>
   2a9e8:	a0c00003 	ldbu	r3,0(r20)
   2a9ec:	008000f4 	movhi	r2,3
   2a9f0:	0013883a 	mov	r9,zero
   2a9f4:	1885883a 	add	r2,r3,r2
   2a9f8:	10929b03 	ldbu	r2,19052(r2)
   2a9fc:	0021883a 	mov	r16,zero
   2aa00:	a039883a 	mov	fp,r20
   2aa04:	10000626 	beq	r2,zero,2aa20 <__gethex+0x140>
   2aa08:	e0800043 	ldbu	r2,1(fp)
   2aa0c:	00c000f4 	movhi	r3,3
   2aa10:	e7000044 	addi	fp,fp,1
   2aa14:	10c7883a 	add	r3,r2,r3
   2aa18:	18929b03 	ldbu	r2,19052(r3)
   2aa1c:	103ffa1e 	bne	r2,zero,2aa08 <__gethex+0x128>
   2aa20:	a80d883a 	mov	r6,r21
   2aa24:	900b883a 	mov	r5,r18
   2aa28:	e009883a 	mov	r4,fp
   2aa2c:	da400115 	stw	r9,4(sp)
   2aa30:	002cf540 	call	2cf54 <strncmp>
   2aa34:	da400117 	ldw	r9,4(sp)
   2aa38:	1000031e 	bne	r2,zero,2aa48 <__gethex+0x168>
   2aa3c:	80012b26 	beq	r16,zero,2aeec <__gethex+0x60c>
   2aa40:	e0800003 	ldbu	r2,0(fp)
   2aa44:	00000206 	br	2aa50 <__gethex+0x170>
   2aa48:	e0800003 	ldbu	r2,0(fp)
   2aa4c:	8000dc26 	beq	r16,zero,2adc0 <__gethex+0x4e0>
   2aa50:	8721c83a 	sub	r16,r16,fp
   2aa54:	802690ba 	slli	r19,r16,2
   2aa58:	108037cc 	andi	r2,r2,223
   2aa5c:	10801418 	cmpnei	r2,r2,80
   2aa60:	e021883a 	mov	r16,fp
   2aa64:	10006a26 	beq	r2,zero,2ac10 <__gethex+0x330>
   2aa68:	b7000015 	stw	fp,0(r22)
   2aa6c:	4800831e 	bne	r9,zero,2ac7c <__gethex+0x39c>
   2aa70:	8505c83a 	sub	r2,r16,r20
   2aa74:	10bfffc4 	addi	r2,r2,-1
   2aa78:	10c00210 	cmplti	r3,r2,8
   2aa7c:	000b883a 	mov	r5,zero
   2aa80:	1800041e 	bne	r3,zero,2aa94 <__gethex+0x1b4>
   2aa84:	1005d07a 	srai	r2,r2,1
   2aa88:	29400044 	addi	r5,r5,1
   2aa8c:	10c00208 	cmpgei	r3,r2,8
   2aa90:	183ffc1e 	bne	r3,zero,2aa84 <__gethex+0x1a4>
   2aa94:	d9000017 	ldw	r4,0(sp)
   2aa98:	002b7a00 	call	2b7a0 <_Balloc>
   2aa9c:	102d883a 	mov	r22,r2
   2aaa0:	10019026 	beq	r2,zero,2b0e4 <__gethex+0x804>
   2aaa4:	12400504 	addi	r9,r2,20
   2aaa8:	da400115 	stw	r9,4(sp)
   2aaac:	a4013b2e 	bgeu	r20,r16,2af9c <__gethex+0x6bc>
   2aab0:	dac00203 	ldbu	r11,8(sp)
   2aab4:	03000044 	movi	r12,1
   2aab8:	0039883a 	mov	fp,zero
   2aabc:	0011883a 	mov	r8,zero
   2aac0:	6559c83a 	sub	r12,r12,r21
   2aac4:	83bfffc3 	ldbu	r14,-1(r16)
   2aac8:	837fffc4 	addi	r13,r16,-1
   2aacc:	4dc00104 	addi	r23,r9,4
   2aad0:	72c02d26 	beq	r14,r11,2ab88 <__gethex+0x2a8>
   2aad4:	e0800820 	cmpeqi	r2,fp,32
   2aad8:	1000421e 	bne	r2,zero,2abe4 <__gethex+0x304>
   2aadc:	e009883a 	mov	r4,fp
   2aae0:	e7000104 	addi	fp,fp,4
   2aae4:	008000f4 	movhi	r2,3
   2aae8:	7085883a 	add	r2,r14,r2
   2aaec:	10d29b03 	ldbu	r3,19052(r2)
   2aaf0:	6821883a 	mov	r16,r13
   2aaf4:	18c003cc 	andi	r3,r3,15
   2aaf8:	1906983a 	sll	r3,r3,r4
   2aafc:	40d0b03a 	or	r8,r8,r3
   2ab00:	a43ff036 	bltu	r20,r16,2aac4 <__gethex+0x1e4>
   2ab04:	d8800117 	ldw	r2,4(sp)
   2ab08:	4a000015 	stw	r8,0(r9)
   2ab0c:	4009883a 	mov	r4,r8
   2ab10:	b8afc83a 	sub	r23,r23,r2
   2ab14:	b82fd0ba 	srai	r23,r23,2
   2ab18:	b820917a 	slli	r16,r23,5
   2ab1c:	b5c00415 	stw	r23,16(r22)
   2ab20:	002bad80 	call	2bad8 <__hi0bits>
   2ab24:	8c800017 	ldw	r18,0(r17)
   2ab28:	8085c83a 	sub	r2,r16,r2
   2ab2c:	90808b16 	blt	r18,r2,2ad5c <__gethex+0x47c>
   2ab30:	1480e016 	blt	r2,r18,2aeb4 <__gethex+0x5d4>
   2ab34:	002f883a 	mov	r23,zero
   2ab38:	88800217 	ldw	r2,8(r17)
   2ab3c:	14c10e16 	blt	r2,r19,2af78 <__gethex+0x698>
   2ab40:	88800117 	ldw	r2,4(r17)
   2ab44:	98805c0e 	bge	r19,r2,2acb8 <__gethex+0x3d8>
   2ab48:	14e7c83a 	sub	r19,r2,r19
   2ab4c:	9c80a016 	blt	r19,r18,2add0 <__gethex+0x4f0>
   2ab50:	88c00317 	ldw	r3,12(r17)
   2ab54:	190000a0 	cmpeqi	r4,r3,2
   2ab58:	2001361e 	bne	r4,zero,2b034 <__gethex+0x754>
   2ab5c:	190000e0 	cmpeqi	r4,r3,3
   2ab60:	2001311e 	bne	r4,zero,2b028 <__gethex+0x748>
   2ab64:	18c00058 	cmpnei	r3,r3,1
   2ab68:	18011d26 	beq	r3,zero,2afe0 <__gethex+0x700>
   2ab6c:	d9000017 	ldw	r4,0(sp)
   2ab70:	b00b883a 	mov	r5,r22
   2ab74:	04001404 	movi	r16,80
   2ab78:	002b8440 	call	2b844 <_Bfree>
   2ab7c:	d8801417 	ldw	r2,80(sp)
   2ab80:	10000015 	stw	zero,0(r2)
   2ab84:	00005a06 	br	2acf0 <__gethex+0x410>
   2ab88:	6b09883a 	add	r4,r13,r12
   2ab8c:	253fd136 	bltu	r4,r20,2aad4 <__gethex+0x1f4>
   2ab90:	a80d883a 	mov	r6,r21
   2ab94:	900b883a 	mov	r5,r18
   2ab98:	db000815 	stw	r12,32(sp)
   2ab9c:	db800715 	stw	r14,28(sp)
   2aba0:	dac00615 	stw	r11,24(sp)
   2aba4:	db400515 	stw	r13,20(sp)
   2aba8:	da000415 	stw	r8,16(sp)
   2abac:	da400315 	stw	r9,12(sp)
   2abb0:	d9000215 	stw	r4,8(sp)
   2abb4:	002cf540 	call	2cf54 <strncmp>
   2abb8:	d9000217 	ldw	r4,8(sp)
   2abbc:	da400317 	ldw	r9,12(sp)
   2abc0:	da000417 	ldw	r8,16(sp)
   2abc4:	db400517 	ldw	r13,20(sp)
   2abc8:	dac00617 	ldw	r11,24(sp)
   2abcc:	db800717 	ldw	r14,28(sp)
   2abd0:	db000817 	ldw	r12,32(sp)
   2abd4:	103fbf1e 	bne	r2,zero,2aad4 <__gethex+0x1f4>
   2abd8:	2021883a 	mov	r16,r4
   2abdc:	a43fb936 	bltu	r20,r16,2aac4 <__gethex+0x1e4>
   2abe0:	003fc806 	br	2ab04 <__gethex+0x224>
   2abe4:	4a000015 	stw	r8,0(r9)
   2abe8:	48800204 	addi	r2,r9,8
   2abec:	83bfffc3 	ldbu	r14,-1(r16)
   2abf0:	b813883a 	mov	r9,r23
   2abf4:	0009883a 	mov	r4,zero
   2abf8:	07000104 	movi	fp,4
   2abfc:	102f883a 	mov	r23,r2
   2ac00:	0011883a 	mov	r8,zero
   2ac04:	003fb706 	br	2aae4 <__gethex+0x204>
   2ac08:	0027883a 	mov	r19,zero
   2ac0c:	02400044 	movi	r9,1
   2ac10:	80800043 	ldbu	r2,1(r16)
   2ac14:	10c00ae0 	cmpeqi	r3,r2,43
   2ac18:	1800a41e 	bne	r3,zero,2aeac <__gethex+0x5cc>
   2ac1c:	10c00b60 	cmpeqi	r3,r2,45
   2ac20:	18004a1e 	bne	r3,zero,2ad4c <__gethex+0x46c>
   2ac24:	87000044 	addi	fp,r16,1
   2ac28:	000b883a 	mov	r5,zero
   2ac2c:	00c000f4 	movhi	r3,3
   2ac30:	10c7883a 	add	r3,r2,r3
   2ac34:	18929b03 	ldbu	r2,19052(r3)
   2ac38:	10ffffc4 	addi	r3,r2,-1
   2ac3c:	18c03fcc 	andi	r3,r3,255
   2ac40:	18c00668 	cmpgeui	r3,r3,25
   2ac44:	18003f1e 	bne	r3,zero,2ad44 <__gethex+0x464>
   2ac48:	e1000043 	ldbu	r4,1(fp)
   2ac4c:	00c000f4 	movhi	r3,3
   2ac50:	10803fcc 	andi	r2,r2,255
   2ac54:	20c7883a 	add	r3,r4,r3
   2ac58:	18d29b03 	ldbu	r3,19052(r3)
   2ac5c:	10bffc04 	addi	r2,r2,-16
   2ac60:	e7000044 	addi	fp,fp,1
   2ac64:	1800111e 	bne	r3,zero,2acac <__gethex+0x3cc>
   2ac68:	28000126 	beq	r5,zero,2ac70 <__gethex+0x390>
   2ac6c:	0085c83a 	sub	r2,zero,r2
   2ac70:	b7000015 	stw	fp,0(r22)
   2ac74:	98a7883a 	add	r19,r19,r2
   2ac78:	483f7d26 	beq	r9,zero,2aa70 <__gethex+0x190>
   2ac7c:	b8005226 	beq	r23,zero,2adc8 <__gethex+0x4e8>
   2ac80:	0021883a 	mov	r16,zero
   2ac84:	00001a06 	br	2acf0 <__gethex+0x410>
   2ac88:	e2800043 	ldbu	r10,1(fp)
   2ac8c:	108002a4 	muli	r2,r2,10
   2ac90:	010000f4 	movhi	r4,3
   2ac94:	5109883a 	add	r4,r10,r4
   2ac98:	10c5883a 	add	r2,r2,r3
   2ac9c:	20d29b03 	ldbu	r3,19052(r4)
   2aca0:	e7000044 	addi	fp,fp,1
   2aca4:	10bffc04 	addi	r2,r2,-16
   2aca8:	183fef26 	beq	r3,zero,2ac68 <__gethex+0x388>
   2acac:	19000690 	cmplti	r4,r3,26
   2acb0:	203ff51e 	bne	r4,zero,2ac88 <__gethex+0x3a8>
   2acb4:	003fec06 	br	2ac68 <__gethex+0x388>
   2acb8:	04000044 	movi	r16,1
   2acbc:	b8000826 	beq	r23,zero,2ace0 <__gethex+0x400>
   2acc0:	88800317 	ldw	r2,12(r17)
   2acc4:	10c000a0 	cmpeqi	r3,r2,2
   2acc8:	1800561e 	bne	r3,zero,2ae24 <__gethex+0x544>
   2accc:	10c000e0 	cmpeqi	r3,r2,3
   2acd0:	1800581e 	bne	r3,zero,2ae34 <__gethex+0x554>
   2acd4:	10800058 	cmpnei	r2,r2,1
   2acd8:	10006c26 	beq	r2,zero,2ae8c <__gethex+0x5ac>
   2acdc:	84000414 	ori	r16,r16,16
   2ace0:	d8801417 	ldw	r2,80(sp)
   2ace4:	15800015 	stw	r22,0(r2)
   2ace8:	d8800917 	ldw	r2,36(sp)
   2acec:	14c00015 	stw	r19,0(r2)
   2acf0:	8005883a 	mov	r2,r16
   2acf4:	dfc01317 	ldw	ra,76(sp)
   2acf8:	df001217 	ldw	fp,72(sp)
   2acfc:	ddc01117 	ldw	r23,68(sp)
   2ad00:	dd801017 	ldw	r22,64(sp)
   2ad04:	dd400f17 	ldw	r21,60(sp)
   2ad08:	dd000e17 	ldw	r20,56(sp)
   2ad0c:	dcc00d17 	ldw	r19,52(sp)
   2ad10:	dc800c17 	ldw	r18,48(sp)
   2ad14:	dc400b17 	ldw	r17,44(sp)
   2ad18:	dc000a17 	ldw	r16,40(sp)
   2ad1c:	dec01404 	addi	sp,sp,80
   2ad20:	f800283a 	ret
   2ad24:	a0c00003 	ldbu	r3,0(r20)
   2ad28:	a021883a 	mov	r16,r20
   2ad2c:	18c037cc 	andi	r3,r3,223
   2ad30:	18c01420 	cmpeqi	r3,r3,80
   2ad34:	183fb41e 	bne	r3,zero,2ac08 <__gethex+0x328>
   2ad38:	b4000015 	stw	r16,0(r22)
   2ad3c:	b83fd01e 	bne	r23,zero,2ac80 <__gethex+0x3a0>
   2ad40:	00002106 	br	2adc8 <__gethex+0x4e8>
   2ad44:	8039883a 	mov	fp,r16
   2ad48:	003f4706 	br	2aa68 <__gethex+0x188>
   2ad4c:	01400044 	movi	r5,1
   2ad50:	80800083 	ldbu	r2,2(r16)
   2ad54:	87000084 	addi	fp,r16,2
   2ad58:	003fb406 	br	2ac2c <__gethex+0x34c>
   2ad5c:	14a1c83a 	sub	r16,r2,r18
   2ad60:	800b883a 	mov	r5,r16
   2ad64:	b009883a 	mov	r4,r22
   2ad68:	002c7dc0 	call	2c7dc <__any_on>
   2ad6c:	102f883a 	mov	r23,r2
   2ad70:	10000e26 	beq	r2,zero,2adac <__gethex+0x4cc>
   2ad74:	813fffc4 	addi	r4,r16,-1
   2ad78:	2007d17a 	srai	r3,r4,5
   2ad7c:	214007cc 	andi	r5,r4,31
   2ad80:	00800044 	movi	r2,1
   2ad84:	1144983a 	sll	r2,r2,r5
   2ad88:	180690ba 	slli	r3,r3,2
   2ad8c:	d9400117 	ldw	r5,4(sp)
   2ad90:	28c7883a 	add	r3,r5,r3
   2ad94:	18c00017 	ldw	r3,0(r3)
   2ad98:	10c4703a 	and	r2,r2,r3
   2ad9c:	10008326 	beq	r2,zero,2afac <__gethex+0x6cc>
   2ada0:	21000090 	cmplti	r4,r4,2
   2ada4:	20008826 	beq	r4,zero,2afc8 <__gethex+0x6e8>
   2ada8:	05c00084 	movi	r23,2
   2adac:	800b883a 	mov	r5,r16
   2adb0:	b009883a 	mov	r4,r22
   2adb4:	002a8040 	call	2a804 <rshift>
   2adb8:	9c27883a 	add	r19,r19,r16
   2adbc:	003f5e06 	br	2ab38 <__gethex+0x258>
   2adc0:	0027883a 	mov	r19,zero
   2adc4:	003f2406 	br	2aa58 <__gethex+0x178>
   2adc8:	04000184 	movi	r16,6
   2adcc:	003fc806 	br	2acf0 <__gethex+0x410>
   2add0:	9c3fffc4 	addi	r16,r19,-1
   2add4:	b8006f1e 	bne	r23,zero,2af94 <__gethex+0x6b4>
   2add8:	8000761e 	bne	r16,zero,2afb4 <__gethex+0x6d4>
   2addc:	8007d17a 	srai	r3,r16,5
   2ade0:	d9000117 	ldw	r4,4(sp)
   2ade4:	840007cc 	andi	r16,r16,31
   2ade8:	180690ba 	slli	r3,r3,2
   2adec:	00800044 	movi	r2,1
   2adf0:	1404983a 	sll	r2,r2,r16
   2adf4:	20c7883a 	add	r3,r4,r3
   2adf8:	18c00017 	ldw	r3,0(r3)
   2adfc:	10c4703a 	and	r2,r2,r3
   2ae00:	10000126 	beq	r2,zero,2ae08 <__gethex+0x528>
   2ae04:	bdc00094 	ori	r23,r23,2
   2ae08:	980b883a 	mov	r5,r19
   2ae0c:	b009883a 	mov	r4,r22
   2ae10:	002a8040 	call	2a804 <rshift>
   2ae14:	94e5c83a 	sub	r18,r18,r19
   2ae18:	04000084 	movi	r16,2
   2ae1c:	8cc00117 	ldw	r19,4(r17)
   2ae20:	003fa606 	br	2acbc <__gethex+0x3dc>
   2ae24:	d8c01517 	ldw	r3,84(sp)
   2ae28:	00800044 	movi	r2,1
   2ae2c:	10c5c83a 	sub	r2,r2,r3
   2ae30:	d8801515 	stw	r2,84(sp)
   2ae34:	d8801517 	ldw	r2,84(sp)
   2ae38:	103fa826 	beq	r2,zero,2acdc <__gethex+0x3fc>
   2ae3c:	b5c00417 	ldw	r23,16(r22)
   2ae40:	d9800117 	ldw	r6,4(sp)
   2ae44:	b83890ba 	slli	fp,r23,2
   2ae48:	3005883a 	mov	r2,r6
   2ae4c:	370b883a 	add	r5,r6,fp
   2ae50:	00000306 	br	2ae60 <__gethex+0x580>
   2ae54:	10800104 	addi	r2,r2,4
   2ae58:	103fff15 	stw	zero,-4(r2)
   2ae5c:	1140332e 	bgeu	r2,r5,2af2c <__gethex+0x64c>
   2ae60:	10c00017 	ldw	r3,0(r2)
   2ae64:	193fffe0 	cmpeqi	r4,r3,-1
   2ae68:	203ffa1e 	bne	r4,zero,2ae54 <__gethex+0x574>
   2ae6c:	18c00044 	addi	r3,r3,1
   2ae70:	10c00015 	stw	r3,0(r2)
   2ae74:	840000a0 	cmpeqi	r16,r16,2
   2ae78:	8000711e 	bne	r16,zero,2b040 <__gethex+0x760>
   2ae7c:	948007cc 	andi	r18,r18,31
   2ae80:	9000871e 	bne	r18,zero,2b0a0 <__gethex+0x7c0>
   2ae84:	04000844 	movi	r16,33
   2ae88:	003f9506 	br	2ace0 <__gethex+0x400>
   2ae8c:	b880008c 	andi	r2,r23,2
   2ae90:	103f9226 	beq	r2,zero,2acdc <__gethex+0x3fc>
   2ae94:	d8800117 	ldw	r2,4(sp)
   2ae98:	10800017 	ldw	r2,0(r2)
   2ae9c:	b884b03a 	or	r2,r23,r2
   2aea0:	1080004c 	andi	r2,r2,1
   2aea4:	103fe51e 	bne	r2,zero,2ae3c <__gethex+0x55c>
   2aea8:	003f8c06 	br	2acdc <__gethex+0x3fc>
   2aeac:	000b883a 	mov	r5,zero
   2aeb0:	003fa706 	br	2ad50 <__gethex+0x470>
   2aeb4:	d9000017 	ldw	r4,0(sp)
   2aeb8:	90a1c83a 	sub	r16,r18,r2
   2aebc:	b00b883a 	mov	r5,r22
   2aec0:	800d883a 	mov	r6,r16
   2aec4:	002bf880 	call	2bf88 <__lshift>
   2aec8:	102d883a 	mov	r22,r2
   2aecc:	10800504 	addi	r2,r2,20
   2aed0:	9c27c83a 	sub	r19,r19,r16
   2aed4:	d8800115 	stw	r2,4(sp)
   2aed8:	002f883a 	mov	r23,zero
   2aedc:	003f1606 	br	2ab38 <__gethex+0x258>
   2aee0:	3d000084 	addi	r20,r7,2
   2aee4:	002f883a 	mov	r23,zero
   2aee8:	003ea206 	br	2a974 <__gethex+0x94>
   2aeec:	e561883a 	add	r16,fp,r21
   2aef0:	80800003 	ldbu	r2,0(r16)
   2aef4:	00c000f4 	movhi	r3,3
   2aef8:	8039883a 	mov	fp,r16
   2aefc:	11003fcc 	andi	r4,r2,255
   2af00:	20c7883a 	add	r3,r4,r3
   2af04:	18d29b03 	ldbu	r3,19052(r3)
   2af08:	183ed026 	beq	r3,zero,2aa4c <__gethex+0x16c>
   2af0c:	e0800043 	ldbu	r2,1(fp)
   2af10:	00c000f4 	movhi	r3,3
   2af14:	e7000044 	addi	fp,fp,1
   2af18:	11003fcc 	andi	r4,r2,255
   2af1c:	20c7883a 	add	r3,r4,r3
   2af20:	18d29b03 	ldbu	r3,19052(r3)
   2af24:	183ff91e 	bne	r3,zero,2af0c <__gethex+0x62c>
   2af28:	003ec806 	br	2aa4c <__gethex+0x16c>
   2af2c:	b0800217 	ldw	r2,8(r22)
   2af30:	b880480e 	bge	r23,r2,2b054 <__gethex+0x774>
   2af34:	b807883a 	mov	r3,r23
   2af38:	18800144 	addi	r2,r3,5
   2af3c:	100490ba 	slli	r2,r2,2
   2af40:	18c00044 	addi	r3,r3,1
   2af44:	b0c00415 	stw	r3,16(r22)
   2af48:	b085883a 	add	r2,r22,r2
   2af4c:	01000044 	movi	r4,1
   2af50:	11000015 	stw	r4,0(r2)
   2af54:	84000098 	cmpnei	r16,r16,2
   2af58:	80003926 	beq	r16,zero,2b040 <__gethex+0x760>
   2af5c:	b8ffc70e 	bge	r23,r3,2ae7c <__gethex+0x59c>
   2af60:	01400044 	movi	r5,1
   2af64:	b009883a 	mov	r4,r22
   2af68:	002a8040 	call	2a804 <rshift>
   2af6c:	88800217 	ldw	r2,8(r17)
   2af70:	9cc00044 	addi	r19,r19,1
   2af74:	14ffc30e 	bge	r2,r19,2ae84 <__gethex+0x5a4>
   2af78:	d9000017 	ldw	r4,0(sp)
   2af7c:	b00b883a 	mov	r5,r22
   2af80:	040028c4 	movi	r16,163
   2af84:	002b8440 	call	2b844 <_Bfree>
   2af88:	d8801417 	ldw	r2,80(sp)
   2af8c:	10000015 	stw	zero,0(r2)
   2af90:	003f5706 	br	2acf0 <__gethex+0x410>
   2af94:	05c00044 	movi	r23,1
   2af98:	003f9006 	br	2addc <__gethex+0x4fc>
   2af9c:	da400117 	ldw	r9,4(sp)
   2afa0:	15c00604 	addi	r23,r2,24
   2afa4:	0011883a 	mov	r8,zero
   2afa8:	003ed606 	br	2ab04 <__gethex+0x224>
   2afac:	05c00044 	movi	r23,1
   2afb0:	003f7e06 	br	2adac <__gethex+0x4cc>
   2afb4:	800b883a 	mov	r5,r16
   2afb8:	b009883a 	mov	r4,r22
   2afbc:	002c7dc0 	call	2c7dc <__any_on>
   2afc0:	102f883a 	mov	r23,r2
   2afc4:	003f8506 	br	2addc <__gethex+0x4fc>
   2afc8:	817fff84 	addi	r5,r16,-2
   2afcc:	b009883a 	mov	r4,r22
   2afd0:	002c7dc0 	call	2c7dc <__any_on>
   2afd4:	103f7426 	beq	r2,zero,2ada8 <__gethex+0x4c8>
   2afd8:	05c000c4 	movi	r23,3
   2afdc:	003f7306 	br	2adac <__gethex+0x4cc>
   2afe0:	94fee21e 	bne	r18,r19,2ab6c <__gethex+0x28c>
   2afe4:	90c00060 	cmpeqi	r3,r18,1
   2afe8:	1800051e 	bne	r3,zero,2b000 <__gethex+0x720>
   2afec:	917fffc4 	addi	r5,r18,-1
   2aff0:	b009883a 	mov	r4,r22
   2aff4:	002c7dc0 	call	2c7dc <__any_on>
   2aff8:	103edc26 	beq	r2,zero,2ab6c <__gethex+0x28c>
   2affc:	88800117 	ldw	r2,4(r17)
   2b000:	d8c00917 	ldw	r3,36(sp)
   2b004:	04001884 	movi	r16,98
   2b008:	18800015 	stw	r2,0(r3)
   2b00c:	d8c00117 	ldw	r3,4(sp)
   2b010:	00800044 	movi	r2,1
   2b014:	b0800415 	stw	r2,16(r22)
   2b018:	18800015 	stw	r2,0(r3)
   2b01c:	d8801417 	ldw	r2,80(sp)
   2b020:	15800015 	stw	r22,0(r2)
   2b024:	003f3206 	br	2acf0 <__gethex+0x410>
   2b028:	d8c01517 	ldw	r3,84(sp)
   2b02c:	183ecf26 	beq	r3,zero,2ab6c <__gethex+0x28c>
   2b030:	003ff306 	br	2b000 <__gethex+0x720>
   2b034:	d8c01517 	ldw	r3,84(sp)
   2b038:	183ecc1e 	bne	r3,zero,2ab6c <__gethex+0x28c>
   2b03c:	003ff006 	br	2b000 <__gethex+0x720>
   2b040:	88800017 	ldw	r2,0(r17)
   2b044:	10bfffc4 	addi	r2,r2,-1
   2b048:	14801c26 	beq	r2,r18,2b0bc <__gethex+0x7dc>
   2b04c:	04000884 	movi	r16,34
   2b050:	003f2306 	br	2ace0 <__gethex+0x400>
   2b054:	b1400117 	ldw	r5,4(r22)
   2b058:	d9000017 	ldw	r4,0(sp)
   2b05c:	29400044 	addi	r5,r5,1
   2b060:	002b7a00 	call	2b7a0 <_Balloc>
   2b064:	1029883a 	mov	r20,r2
   2b068:	10002526 	beq	r2,zero,2b100 <__gethex+0x820>
   2b06c:	b1800417 	ldw	r6,16(r22)
   2b070:	b1400304 	addi	r5,r22,12
   2b074:	11000304 	addi	r4,r2,12
   2b078:	31800084 	addi	r6,r6,2
   2b07c:	300c90ba 	slli	r6,r6,2
   2b080:	00245a40 	call	245a4 <memcpy>
   2b084:	d9000017 	ldw	r4,0(sp)
   2b088:	b00b883a 	mov	r5,r22
   2b08c:	a02d883a 	mov	r22,r20
   2b090:	002b8440 	call	2b844 <_Bfree>
   2b094:	a0c00417 	ldw	r3,16(r20)
   2b098:	a1800504 	addi	r6,r20,20
   2b09c:	003fa606 	br	2af38 <__gethex+0x658>
   2b0a0:	3705883a 	add	r2,r6,fp
   2b0a4:	113fff17 	ldw	r4,-4(r2)
   2b0a8:	002bad80 	call	2bad8 <__hi0bits>
   2b0ac:	00c00804 	movi	r3,32
   2b0b0:	1ca5c83a 	sub	r18,r3,r18
   2b0b4:	14bf730e 	bge	r2,r18,2ae84 <__gethex+0x5a4>
   2b0b8:	003fa906 	br	2af60 <__gethex+0x680>
   2b0bc:	9007d17a 	srai	r3,r18,5
   2b0c0:	00800044 	movi	r2,1
   2b0c4:	948007cc 	andi	r18,r18,31
   2b0c8:	180690ba 	slli	r3,r3,2
   2b0cc:	1484983a 	sll	r2,r2,r18
   2b0d0:	30c7883a 	add	r3,r6,r3
   2b0d4:	18c00017 	ldw	r3,0(r3)
   2b0d8:	10c4703a 	and	r2,r2,r3
   2b0dc:	103fdb26 	beq	r2,zero,2b04c <__gethex+0x76c>
   2b0e0:	003f6806 	br	2ae84 <__gethex+0x5a4>
   2b0e4:	01c000f4 	movhi	r7,3
   2b0e8:	010000f4 	movhi	r4,3
   2b0ec:	39d27604 	addi	r7,r7,18904
   2b0f0:	000d883a 	mov	r6,zero
   2b0f4:	01403784 	movi	r5,222
   2b0f8:	21128a04 	addi	r4,r4,18984
   2b0fc:	002e5400 	call	2e540 <__assert_func>
   2b100:	01c000f4 	movhi	r7,3
   2b104:	010000f4 	movhi	r4,3
   2b108:	39d27604 	addi	r7,r7,18904
   2b10c:	000d883a 	mov	r6,zero
   2b110:	01402104 	movi	r5,132
   2b114:	21128a04 	addi	r4,r4,18984
   2b118:	002e5400 	call	2e540 <__assert_func>

0002b11c <__match>:
   2b11c:	21800017 	ldw	r6,0(r4)
   2b120:	29c00007 	ldb	r7,0(r5)
   2b124:	31800044 	addi	r6,r6,1
   2b128:	29400044 	addi	r5,r5,1
   2b12c:	38000c26 	beq	r7,zero,2b160 <__match+0x44>
   2b130:	30c00003 	ldbu	r3,0(r6)
   2b134:	18bfefc4 	addi	r2,r3,-65
   2b138:	10803fcc 	andi	r2,r2,255
   2b13c:	18c03fcc 	andi	r3,r3,255
   2b140:	18c0201c 	xori	r3,r3,128
   2b144:	108006a8 	cmpgeui	r2,r2,26
   2b148:	18ffe004 	addi	r3,r3,-128
   2b14c:	1000011e 	bne	r2,zero,2b154 <__match+0x38>
   2b150:	18c00804 	addi	r3,r3,32
   2b154:	19fff226 	beq	r3,r7,2b120 <__match+0x4>
   2b158:	0005883a 	mov	r2,zero
   2b15c:	f800283a 	ret
   2b160:	21800015 	stw	r6,0(r4)
   2b164:	00800044 	movi	r2,1
   2b168:	f800283a 	ret

0002b16c <__hexnan>:
   2b16c:	2bc00017 	ldw	r15,0(r5)
   2b170:	7805d17a 	srai	r2,r15,5
   2b174:	7bc007cc 	andi	r15,r15,31
   2b178:	100490ba 	slli	r2,r2,2
   2b17c:	3085883a 	add	r2,r6,r2
   2b180:	7800661e 	bne	r15,zero,2b31c <__hexnan+0x1b0>
   2b184:	127fff04 	addi	r9,r2,-4
   2b188:	1019883a 	mov	r12,r2
   2b18c:	21c00017 	ldw	r7,0(r4)
   2b190:	603fff15 	stw	zero,-4(r12)
   2b194:	39400043 	ldbu	r5,1(r7)
   2b198:	28008c26 	beq	r5,zero,2b3cc <__hexnan+0x260>
   2b19c:	defffc04 	addi	sp,sp,-16
   2b1a0:	dfc00315 	stw	ra,12(sp)
   2b1a4:	dc000015 	stw	r16,0(sp)
   2b1a8:	dc800215 	stw	r18,8(sp)
   2b1ac:	dc400115 	stw	r17,4(sp)
   2b1b0:	481b883a 	mov	r13,r9
   2b1b4:	4807883a 	mov	r3,r9
   2b1b8:	0011883a 	mov	r8,zero
   2b1bc:	001d883a 	mov	r14,zero
   2b1c0:	0017883a 	mov	r11,zero
   2b1c4:	04000204 	movi	r16,8
   2b1c8:	07c00804 	movi	ra,32
   2b1cc:	008000f4 	movhi	r2,3
   2b1d0:	2885883a 	add	r2,r5,r2
   2b1d4:	10929b03 	ldbu	r2,19052(r2)
   2b1d8:	12803fcc 	andi	r10,r2,255
   2b1dc:	5000391e 	bne	r10,zero,2b2c4 <__hexnan+0x158>
   2b1e0:	28800868 	cmpgeui	r2,r5,33
   2b1e4:	1000671e 	bne	r2,zero,2b384 <__hexnan+0x218>
   2b1e8:	72c0050e 	bge	r14,r11,2b200 <__hexnan+0x94>
   2b1ec:	1b40022e 	bgeu	r3,r13,2b1f8 <__hexnan+0x8c>
   2b1f0:	40800208 	cmpgei	r2,r8,8
   2b1f4:	10004c26 	beq	r2,zero,2b328 <__hexnan+0x1bc>
   2b1f8:	30c04236 	bltu	r6,r3,2b304 <__hexnan+0x198>
   2b1fc:	02000204 	movi	r8,8
   2b200:	39400083 	ldbu	r5,2(r7)
   2b204:	39c00044 	addi	r7,r7,1
   2b208:	283ff01e 	bne	r5,zero,2b1cc <__hexnan+0x60>
   2b20c:	58005f26 	beq	r11,zero,2b38c <__hexnan+0x220>
   2b210:	1b40112e 	bgeu	r3,r13,2b258 <__hexnan+0xec>
   2b214:	40800208 	cmpgei	r2,r8,8
   2b218:	10000f1e 	bne	r2,zero,2b258 <__hexnan+0xec>
   2b21c:	00800204 	movi	r2,8
   2b220:	1211c83a 	sub	r8,r2,r8
   2b224:	401090ba 	slli	r8,r8,2
   2b228:	19400017 	ldw	r5,0(r3)
   2b22c:	02800804 	movi	r10,32
   2b230:	5215c83a 	sub	r10,r10,r8
   2b234:	1805883a 	mov	r2,r3
   2b238:	11c00117 	ldw	r7,4(r2)
   2b23c:	10800104 	addi	r2,r2,4
   2b240:	3a88983a 	sll	r4,r7,r10
   2b244:	2148b03a 	or	r4,r4,r5
   2b248:	3a0ad83a 	srl	r5,r7,r8
   2b24c:	113fff15 	stw	r4,-4(r2)
   2b250:	11400015 	stw	r5,0(r2)
   2b254:	137ff836 	bltu	r2,r13,2b238 <__hexnan+0xcc>
   2b258:	30c0412e 	bgeu	r6,r3,2b360 <__hexnan+0x1f4>
   2b25c:	3009883a 	mov	r4,r6
   2b260:	1805883a 	mov	r2,r3
   2b264:	11400017 	ldw	r5,0(r2)
   2b268:	10800104 	addi	r2,r2,4
   2b26c:	21000104 	addi	r4,r4,4
   2b270:	217fff15 	stw	r5,-4(r4)
   2b274:	48bffb2e 	bgeu	r9,r2,2b264 <__hexnan+0xf8>
   2b278:	48800044 	addi	r2,r9,1
   2b27c:	19000044 	addi	r4,r3,1
   2b280:	11005036 	bltu	r2,r4,2b3c4 <__hexnan+0x258>
   2b284:	48c5c83a 	sub	r2,r9,r3
   2b288:	1004d0ba 	srli	r2,r2,2
   2b28c:	10800044 	addi	r2,r2,1
   2b290:	100490ba 	slli	r2,r2,2
   2b294:	3085883a 	add	r2,r6,r2
   2b298:	10800104 	addi	r2,r2,4
   2b29c:	103fff15 	stw	zero,-4(r2)
   2b2a0:	48bffd2e 	bgeu	r9,r2,2b298 <__hexnan+0x12c>
   2b2a4:	60bfff17 	ldw	r2,-4(r12)
   2b2a8:	1000041e 	bne	r2,zero,2b2bc <__hexnan+0x150>
   2b2ac:	32403e26 	beq	r6,r9,2b3a8 <__hexnan+0x23c>
   2b2b0:	48bfff17 	ldw	r2,-4(r9)
   2b2b4:	4a7fff04 	addi	r9,r9,-4
   2b2b8:	103ffc26 	beq	r2,zero,2b2ac <__hexnan+0x140>
   2b2bc:	00800144 	movi	r2,5
   2b2c0:	00003306 	br	2b390 <__hexnan+0x224>
   2b2c4:	42000044 	addi	r8,r8,1
   2b2c8:	41400248 	cmpgei	r5,r8,9
   2b2cc:	5ac00044 	addi	r11,r11,1
   2b2d0:	2800061e 	bne	r5,zero,2b2ec <__hexnan+0x180>
   2b2d4:	19400017 	ldw	r5,0(r3)
   2b2d8:	280a913a 	slli	r5,r5,4
   2b2dc:	108003cc 	andi	r2,r2,15
   2b2e0:	1144b03a 	or	r2,r2,r5
   2b2e4:	18800015 	stw	r2,0(r3)
   2b2e8:	003fc506 	br	2b200 <__hexnan+0x94>
   2b2ec:	30ffc42e 	bgeu	r6,r3,2b200 <__hexnan+0x94>
   2b2f0:	183fff15 	stw	zero,-4(r3)
   2b2f4:	000b883a 	mov	r5,zero
   2b2f8:	18ffff04 	addi	r3,r3,-4
   2b2fc:	02000044 	movi	r8,1
   2b300:	003ff606 	br	2b2dc <__hexnan+0x170>
   2b304:	1b7fff04 	addi	r13,r3,-4
   2b308:	183fff15 	stw	zero,-4(r3)
   2b30c:	581d883a 	mov	r14,r11
   2b310:	6807883a 	mov	r3,r13
   2b314:	0011883a 	mov	r8,zero
   2b318:	003fb906 	br	2b200 <__hexnan+0x94>
   2b31c:	13000104 	addi	r12,r2,4
   2b320:	1013883a 	mov	r9,r2
   2b324:	003f9906 	br	2b18c <__hexnan+0x20>
   2b328:	8211c83a 	sub	r8,r16,r8
   2b32c:	402290ba 	slli	r17,r8,2
   2b330:	1a800017 	ldw	r10,0(r3)
   2b334:	1805883a 	mov	r2,r3
   2b338:	fc65c83a 	sub	r18,ra,r17
   2b33c:	12000117 	ldw	r8,4(r2)
   2b340:	10800104 	addi	r2,r2,4
   2b344:	448a983a 	sll	r5,r8,r18
   2b348:	2a8ab03a 	or	r5,r5,r10
   2b34c:	4454d83a 	srl	r10,r8,r17
   2b350:	117fff15 	stw	r5,-4(r2)
   2b354:	12800015 	stw	r10,0(r2)
   2b358:	137ff836 	bltu	r2,r13,2b33c <__hexnan+0x1d0>
   2b35c:	003fa606 	br	2b1f8 <__hexnan+0x8c>
   2b360:	60bfff17 	ldw	r2,-4(r12)
   2b364:	783fd026 	beq	r15,zero,2b2a8 <__hexnan+0x13c>
   2b368:	00c00804 	movi	r3,32
   2b36c:	1bdfc83a 	sub	r15,r3,r15
   2b370:	00ffffc4 	movi	r3,-1
   2b374:	1bc6d83a 	srl	r3,r3,r15
   2b378:	10c4703a 	and	r2,r2,r3
   2b37c:	60bfff15 	stw	r2,-4(r12)
   2b380:	003fc906 	br	2b2a8 <__hexnan+0x13c>
   2b384:	29400a58 	cmpnei	r5,r5,41
   2b388:	28000b26 	beq	r5,zero,2b3b8 <__hexnan+0x24c>
   2b38c:	00800104 	movi	r2,4
   2b390:	dfc00317 	ldw	ra,12(sp)
   2b394:	dc800217 	ldw	r18,8(sp)
   2b398:	dc400117 	ldw	r17,4(sp)
   2b39c:	dc000017 	ldw	r16,0(sp)
   2b3a0:	dec00404 	addi	sp,sp,16
   2b3a4:	f800283a 	ret
   2b3a8:	00800044 	movi	r2,1
   2b3ac:	48800015 	stw	r2,0(r9)
   2b3b0:	00800144 	movi	r2,5
   2b3b4:	003ff606 	br	2b390 <__hexnan+0x224>
   2b3b8:	39c00084 	addi	r7,r7,2
   2b3bc:	21c00015 	stw	r7,0(r4)
   2b3c0:	003f9206 	br	2b20c <__hexnan+0xa0>
   2b3c4:	00800104 	movi	r2,4
   2b3c8:	003fb206 	br	2b294 <__hexnan+0x128>
   2b3cc:	00800104 	movi	r2,4
   2b3d0:	f800283a 	ret

0002b3d4 <_isatty_r>:
   2b3d4:	defffe04 	addi	sp,sp,-8
   2b3d8:	dc000015 	stw	r16,0(sp)
   2b3dc:	00800134 	movhi	r2,4
   2b3e0:	2021883a 	mov	r16,r4
   2b3e4:	2809883a 	mov	r4,r5
   2b3e8:	dfc00115 	stw	ra,4(sp)
   2b3ec:	10220b15 	stw	zero,-30676(r2)
   2b3f0:	0031b480 	call	31b48 <isatty>
   2b3f4:	10ffffd8 	cmpnei	r3,r2,-1
   2b3f8:	18000426 	beq	r3,zero,2b40c <_isatty_r+0x38>
   2b3fc:	dfc00117 	ldw	ra,4(sp)
   2b400:	dc000017 	ldw	r16,0(sp)
   2b404:	dec00204 	addi	sp,sp,8
   2b408:	f800283a 	ret
   2b40c:	00c00134 	movhi	r3,4
   2b410:	18e20b17 	ldw	r3,-30676(r3)
   2b414:	183ff926 	beq	r3,zero,2b3fc <_isatty_r+0x28>
   2b418:	80c00015 	stw	r3,0(r16)
   2b41c:	dfc00117 	ldw	ra,4(sp)
   2b420:	dc000017 	ldw	r16,0(sp)
   2b424:	dec00204 	addi	sp,sp,8
   2b428:	f800283a 	ret

0002b42c <__numeric_load_locale>:
   2b42c:	0005883a 	mov	r2,zero
   2b430:	f800283a 	ret

0002b434 <_setlocale_r>:
   2b434:	30001626 	beq	r6,zero,2b490 <_setlocale_r+0x5c>
   2b438:	014000f4 	movhi	r5,3
   2b43c:	defffe04 	addi	sp,sp,-8
   2b440:	2952e004 	addi	r5,r5,19328
   2b444:	3009883a 	mov	r4,r6
   2b448:	dc000015 	stw	r16,0(sp)
   2b44c:	dfc00115 	stw	ra,4(sp)
   2b450:	3021883a 	mov	r16,r6
   2b454:	002ce040 	call	2ce04 <strcmp>
   2b458:	1000061e 	bne	r2,zero,2b474 <_setlocale_r+0x40>
   2b45c:	008000f4 	movhi	r2,3
   2b460:	1092df04 	addi	r2,r2,19324
   2b464:	dfc00117 	ldw	ra,4(sp)
   2b468:	dc000017 	ldw	r16,0(sp)
   2b46c:	dec00204 	addi	sp,sp,8
   2b470:	f800283a 	ret
   2b474:	80800003 	ldbu	r2,0(r16)
   2b478:	10bfef44 	addi	r2,r2,-67
   2b47c:	10000726 	beq	r2,zero,2b49c <_setlocale_r+0x68>
   2b480:	80800003 	ldbu	r2,0(r16)
   2b484:	103ff526 	beq	r2,zero,2b45c <_setlocale_r+0x28>
   2b488:	0005883a 	mov	r2,zero
   2b48c:	003ff506 	br	2b464 <_setlocale_r+0x30>
   2b490:	008000f4 	movhi	r2,3
   2b494:	1092df04 	addi	r2,r2,19324
   2b498:	f800283a 	ret
   2b49c:	80800043 	ldbu	r2,1(r16)
   2b4a0:	103fee26 	beq	r2,zero,2b45c <_setlocale_r+0x28>
   2b4a4:	003ff606 	br	2b480 <_setlocale_r+0x4c>

0002b4a8 <__locale_mb_cur_max>:
   2b4a8:	008000f4 	movhi	r2,3
   2b4ac:	10965907 	ldb	r2,22884(r2)
   2b4b0:	f800283a 	ret

0002b4b4 <setlocale>:
   2b4b4:	00c000f4 	movhi	r3,3
   2b4b8:	2005883a 	mov	r2,r4
   2b4bc:	191af817 	ldw	r4,27616(r3)
   2b4c0:	280d883a 	mov	r6,r5
   2b4c4:	100b883a 	mov	r5,r2
   2b4c8:	002b4341 	jmpi	2b434 <_setlocale_r>

0002b4cc <__localeconv_l>:
   2b4cc:	20803c04 	addi	r2,r4,240
   2b4d0:	f800283a 	ret

0002b4d4 <_localeconv_r>:
   2b4d4:	008000f4 	movhi	r2,3
   2b4d8:	10964b04 	addi	r2,r2,22828
   2b4dc:	f800283a 	ret

0002b4e0 <localeconv>:
   2b4e0:	008000f4 	movhi	r2,3
   2b4e4:	10964b04 	addi	r2,r2,22828
   2b4e8:	f800283a 	ret

0002b4ec <_lseek_r>:
   2b4ec:	2807883a 	mov	r3,r5
   2b4f0:	defffe04 	addi	sp,sp,-8
   2b4f4:	dc000015 	stw	r16,0(sp)
   2b4f8:	300b883a 	mov	r5,r6
   2b4fc:	00800134 	movhi	r2,4
   2b500:	380d883a 	mov	r6,r7
   2b504:	2021883a 	mov	r16,r4
   2b508:	1809883a 	mov	r4,r3
   2b50c:	dfc00115 	stw	ra,4(sp)
   2b510:	10220b15 	stw	zero,-30676(r2)
   2b514:	0031e7c0 	call	31e7c <lseek>
   2b518:	10ffffd8 	cmpnei	r3,r2,-1
   2b51c:	18000426 	beq	r3,zero,2b530 <_lseek_r+0x44>
   2b520:	dfc00117 	ldw	ra,4(sp)
   2b524:	dc000017 	ldw	r16,0(sp)
   2b528:	dec00204 	addi	sp,sp,8
   2b52c:	f800283a 	ret
   2b530:	00c00134 	movhi	r3,4
   2b534:	18e20b17 	ldw	r3,-30676(r3)
   2b538:	183ff926 	beq	r3,zero,2b520 <_lseek_r+0x34>
   2b53c:	80c00015 	stw	r3,0(r16)
   2b540:	dfc00117 	ldw	ra,4(sp)
   2b544:	dc000017 	ldw	r16,0(sp)
   2b548:	dec00204 	addi	sp,sp,8
   2b54c:	f800283a 	ret

0002b550 <_mbtowc_r>:
   2b550:	008000f4 	movhi	r2,3
   2b554:	10964817 	ldw	r2,22816(r2)
   2b558:	1000683a 	jmp	r2

0002b55c <__ascii_mbtowc>:
   2b55c:	deffff04 	addi	sp,sp,-4
   2b560:	28000826 	beq	r5,zero,2b584 <__ascii_mbtowc+0x28>
   2b564:	30000926 	beq	r6,zero,2b58c <__ascii_mbtowc+0x30>
   2b568:	38000b26 	beq	r7,zero,2b598 <__ascii_mbtowc+0x3c>
   2b56c:	30800003 	ldbu	r2,0(r6)
   2b570:	28800015 	stw	r2,0(r5)
   2b574:	30800003 	ldbu	r2,0(r6)
   2b578:	1004c03a 	cmpne	r2,r2,zero
   2b57c:	dec00104 	addi	sp,sp,4
   2b580:	f800283a 	ret
   2b584:	d80b883a 	mov	r5,sp
   2b588:	303ff71e 	bne	r6,zero,2b568 <__ascii_mbtowc+0xc>
   2b58c:	0005883a 	mov	r2,zero
   2b590:	dec00104 	addi	sp,sp,4
   2b594:	f800283a 	ret
   2b598:	00bfff84 	movi	r2,-2
   2b59c:	003ff706 	br	2b57c <__ascii_mbtowc+0x20>

0002b5a0 <memchr>:
   2b5a0:	208000cc 	andi	r2,r4,3
   2b5a4:	280f883a 	mov	r7,r5
   2b5a8:	10000e26 	beq	r2,zero,2b5e4 <memchr+0x44>
   2b5ac:	30bfffc4 	addi	r2,r6,-1
   2b5b0:	30001726 	beq	r6,zero,2b610 <memchr+0x70>
   2b5b4:	29803fcc 	andi	r6,r5,255
   2b5b8:	00000606 	br	2b5d4 <memchr+0x34>
   2b5bc:	21000044 	addi	r4,r4,1
   2b5c0:	20c000cc 	andi	r3,r4,3
   2b5c4:	18000826 	beq	r3,zero,2b5e8 <memchr+0x48>
   2b5c8:	10bfffc4 	addi	r2,r2,-1
   2b5cc:	10ffffe0 	cmpeqi	r3,r2,-1
   2b5d0:	18000f1e 	bne	r3,zero,2b610 <memchr+0x70>
   2b5d4:	20c00003 	ldbu	r3,0(r4)
   2b5d8:	19bff81e 	bne	r3,r6,2b5bc <memchr+0x1c>
   2b5dc:	2005883a 	mov	r2,r4
   2b5e0:	f800283a 	ret
   2b5e4:	3005883a 	mov	r2,r6
   2b5e8:	10c00128 	cmpgeui	r3,r2,4
   2b5ec:	18000a1e 	bne	r3,zero,2b618 <memchr+0x78>
   2b5f0:	10001f26 	beq	r2,zero,2b670 <memchr+0xd0>
   2b5f4:	2087883a 	add	r3,r4,r2
   2b5f8:	39803fcc 	andi	r6,r7,255
   2b5fc:	2005883a 	mov	r2,r4
   2b600:	11000003 	ldbu	r4,0(r2)
   2b604:	21bff626 	beq	r4,r6,2b5e0 <memchr+0x40>
   2b608:	10800044 	addi	r2,r2,1
   2b60c:	18bffc1e 	bne	r3,r2,2b600 <memchr+0x60>
   2b610:	0005883a 	mov	r2,zero
   2b614:	f800283a 	ret
   2b618:	2810923a 	slli	r8,r5,8
   2b61c:	29403fcc 	andi	r5,r5,255
   2b620:	027fbff4 	movhi	r9,65279
   2b624:	423fffcc 	andi	r8,r8,65535
   2b628:	414ab03a 	or	r5,r8,r5
   2b62c:	2810943a 	slli	r8,r5,16
   2b630:	01a02074 	movhi	r6,32897
   2b634:	4a7fbfc4 	addi	r9,r9,-257
   2b638:	4150b03a 	or	r8,r8,r5
   2b63c:	31a02004 	addi	r6,r6,-32640
   2b640:	20c00017 	ldw	r3,0(r4)
   2b644:	40c6f03a 	xor	r3,r8,r3
   2b648:	1a4b883a 	add	r5,r3,r9
   2b64c:	00c6303a 	nor	r3,zero,r3
   2b650:	28c6703a 	and	r3,r5,r3
   2b654:	1986703a 	and	r3,r3,r6
   2b658:	183fe61e 	bne	r3,zero,2b5f4 <memchr+0x54>
   2b65c:	10bfff04 	addi	r2,r2,-4
   2b660:	10c00128 	cmpgeui	r3,r2,4
   2b664:	21000104 	addi	r4,r4,4
   2b668:	183ff51e 	bne	r3,zero,2b640 <memchr+0xa0>
   2b66c:	003fe006 	br	2b5f0 <memchr+0x50>
   2b670:	f800283a 	ret

0002b674 <memmove>:
   2b674:	2005883a 	mov	r2,r4
   2b678:	29000a2e 	bgeu	r5,r4,2b6a4 <memmove+0x30>
   2b67c:	2989883a 	add	r4,r5,r6
   2b680:	1100082e 	bgeu	r2,r4,2b6a4 <memmove+0x30>
   2b684:	1187883a 	add	r3,r2,r6
   2b688:	30003e26 	beq	r6,zero,2b784 <memmove+0x110>
   2b68c:	217fffc3 	ldbu	r5,-1(r4)
   2b690:	18ffffc4 	addi	r3,r3,-1
   2b694:	213fffc4 	addi	r4,r4,-1
   2b698:	19400005 	stb	r5,0(r3)
   2b69c:	10fffb1e 	bne	r2,r3,2b68c <memmove+0x18>
   2b6a0:	f800283a 	ret
   2b6a4:	30c00430 	cmpltui	r3,r6,16
   2b6a8:	18000b26 	beq	r3,zero,2b6d8 <memmove+0x64>
   2b6ac:	1007883a 	mov	r3,r2
   2b6b0:	31ffffc4 	addi	r7,r6,-1
   2b6b4:	30003726 	beq	r6,zero,2b794 <memmove+0x120>
   2b6b8:	39c00044 	addi	r7,r7,1
   2b6bc:	29cf883a 	add	r7,r5,r7
   2b6c0:	29800003 	ldbu	r6,0(r5)
   2b6c4:	29400044 	addi	r5,r5,1
   2b6c8:	18c00044 	addi	r3,r3,1
   2b6cc:	19bfffc5 	stb	r6,-1(r3)
   2b6d0:	29fffb1e 	bne	r5,r7,2b6c0 <memmove+0x4c>
   2b6d4:	f800283a 	ret
   2b6d8:	2886b03a 	or	r3,r5,r2
   2b6dc:	18c000cc 	andi	r3,r3,3
   2b6e0:	1800291e 	bne	r3,zero,2b788 <memmove+0x114>
   2b6e4:	327ffc04 	addi	r9,r6,-16
   2b6e8:	4812d13a 	srli	r9,r9,4
   2b6ec:	280f883a 	mov	r7,r5
   2b6f0:	1007883a 	mov	r3,r2
   2b6f4:	4a400044 	addi	r9,r9,1
   2b6f8:	4812913a 	slli	r9,r9,4
   2b6fc:	1251883a 	add	r8,r2,r9
   2b700:	39000017 	ldw	r4,0(r7)
   2b704:	39c00404 	addi	r7,r7,16
   2b708:	18c00404 	addi	r3,r3,16
   2b70c:	193ffc15 	stw	r4,-16(r3)
   2b710:	393ffd17 	ldw	r4,-12(r7)
   2b714:	193ffd15 	stw	r4,-12(r3)
   2b718:	393ffe17 	ldw	r4,-8(r7)
   2b71c:	193ffe15 	stw	r4,-8(r3)
   2b720:	393fff17 	ldw	r4,-4(r7)
   2b724:	193fff15 	stw	r4,-4(r3)
   2b728:	40fff51e 	bne	r8,r3,2b700 <memmove+0x8c>
   2b72c:	3100030c 	andi	r4,r6,12
   2b730:	2a4b883a 	add	r5,r5,r9
   2b734:	320003cc 	andi	r8,r6,15
   2b738:	20001726 	beq	r4,zero,2b798 <memmove+0x124>
   2b73c:	2813883a 	mov	r9,r5
   2b740:	180f883a 	mov	r7,r3
   2b744:	4a800017 	ldw	r10,0(r9)
   2b748:	39c00104 	addi	r7,r7,4
   2b74c:	41c9c83a 	sub	r4,r8,r7
   2b750:	1909883a 	add	r4,r3,r4
   2b754:	21000128 	cmpgeui	r4,r4,4
   2b758:	3abfff15 	stw	r10,-4(r7)
   2b75c:	4a400104 	addi	r9,r9,4
   2b760:	203ff81e 	bne	r4,zero,2b744 <memmove+0xd0>
   2b764:	413fff04 	addi	r4,r8,-4
   2b768:	2008d0ba 	srli	r4,r4,2
   2b76c:	318000cc 	andi	r6,r6,3
   2b770:	21000044 	addi	r4,r4,1
   2b774:	200890ba 	slli	r4,r4,2
   2b778:	1907883a 	add	r3,r3,r4
   2b77c:	290b883a 	add	r5,r5,r4
   2b780:	003fcb06 	br	2b6b0 <memmove+0x3c>
   2b784:	f800283a 	ret
   2b788:	31ffffc4 	addi	r7,r6,-1
   2b78c:	1007883a 	mov	r3,r2
   2b790:	003fc906 	br	2b6b8 <memmove+0x44>
   2b794:	f800283a 	ret
   2b798:	400d883a 	mov	r6,r8
   2b79c:	003fc406 	br	2b6b0 <memmove+0x3c>

0002b7a0 <_Balloc>:
   2b7a0:	20801317 	ldw	r2,76(r4)
   2b7a4:	defffc04 	addi	sp,sp,-16
   2b7a8:	dc400115 	stw	r17,4(sp)
   2b7ac:	dc000015 	stw	r16,0(sp)
   2b7b0:	dfc00315 	stw	ra,12(sp)
   2b7b4:	dc800215 	stw	r18,8(sp)
   2b7b8:	2021883a 	mov	r16,r4
   2b7bc:	2823883a 	mov	r17,r5
   2b7c0:	10000e26 	beq	r2,zero,2b7fc <_Balloc+0x5c>
   2b7c4:	880690ba 	slli	r3,r17,2
   2b7c8:	10c7883a 	add	r3,r2,r3
   2b7cc:	18800017 	ldw	r2,0(r3)
   2b7d0:	10001126 	beq	r2,zero,2b818 <_Balloc+0x78>
   2b7d4:	11000017 	ldw	r4,0(r2)
   2b7d8:	19000015 	stw	r4,0(r3)
   2b7dc:	10000415 	stw	zero,16(r2)
   2b7e0:	10000315 	stw	zero,12(r2)
   2b7e4:	dfc00317 	ldw	ra,12(sp)
   2b7e8:	dc800217 	ldw	r18,8(sp)
   2b7ec:	dc400117 	ldw	r17,4(sp)
   2b7f0:	dc000017 	ldw	r16,0(sp)
   2b7f4:	dec00404 	addi	sp,sp,16
   2b7f8:	f800283a 	ret
   2b7fc:	01800844 	movi	r6,33
   2b800:	01400104 	movi	r5,4
   2b804:	00227840 	call	22784 <_calloc_r>
   2b808:	80801315 	stw	r2,76(r16)
   2b80c:	103fed1e 	bne	r2,zero,2b7c4 <_Balloc+0x24>
   2b810:	0005883a 	mov	r2,zero
   2b814:	003ff306 	br	2b7e4 <_Balloc+0x44>
   2b818:	04800044 	movi	r18,1
   2b81c:	9464983a 	sll	r18,r18,r17
   2b820:	01400044 	movi	r5,1
   2b824:	8009883a 	mov	r4,r16
   2b828:	91800144 	addi	r6,r18,5
   2b82c:	300c90ba 	slli	r6,r6,2
   2b830:	00227840 	call	22784 <_calloc_r>
   2b834:	103ff626 	beq	r2,zero,2b810 <_Balloc+0x70>
   2b838:	14400115 	stw	r17,4(r2)
   2b83c:	14800215 	stw	r18,8(r2)
   2b840:	003fe606 	br	2b7dc <_Balloc+0x3c>

0002b844 <_Bfree>:
   2b844:	28000726 	beq	r5,zero,2b864 <_Bfree+0x20>
   2b848:	28c00117 	ldw	r3,4(r5)
   2b84c:	20801317 	ldw	r2,76(r4)
   2b850:	180690ba 	slli	r3,r3,2
   2b854:	10c5883a 	add	r2,r2,r3
   2b858:	10c00017 	ldw	r3,0(r2)
   2b85c:	28c00015 	stw	r3,0(r5)
   2b860:	11400015 	stw	r5,0(r2)
   2b864:	f800283a 	ret

0002b868 <__multadd>:
   2b868:	defffa04 	addi	sp,sp,-24
   2b86c:	dc400115 	stw	r17,4(sp)
   2b870:	2c400417 	ldw	r17,16(r5)
   2b874:	dcc00315 	stw	r19,12(sp)
   2b878:	dc800215 	stw	r18,8(sp)
   2b87c:	dc000015 	stw	r16,0(sp)
   2b880:	dfc00515 	stw	ra,20(sp)
   2b884:	dd000415 	stw	r20,16(sp)
   2b888:	2825883a 	mov	r18,r5
   2b88c:	2027883a 	mov	r19,r4
   2b890:	3821883a 	mov	r16,r7
   2b894:	2a000504 	addi	r8,r5,20
   2b898:	0013883a 	mov	r9,zero
   2b89c:	40800017 	ldw	r2,0(r8)
   2b8a0:	42000104 	addi	r8,r8,4
   2b8a4:	4a400044 	addi	r9,r9,1
   2b8a8:	10ffffcc 	andi	r3,r2,65535
   2b8ac:	1987383a 	mul	r3,r3,r6
   2b8b0:	100ed43a 	srli	r7,r2,16
   2b8b4:	1c05883a 	add	r2,r3,r16
   2b8b8:	1006d43a 	srli	r3,r2,16
   2b8bc:	398f383a 	mul	r7,r7,r6
   2b8c0:	10bfffcc 	andi	r2,r2,65535
   2b8c4:	38cf883a 	add	r7,r7,r3
   2b8c8:	3806943a 	slli	r3,r7,16
   2b8cc:	3820d43a 	srli	r16,r7,16
   2b8d0:	1885883a 	add	r2,r3,r2
   2b8d4:	40bfff15 	stw	r2,-4(r8)
   2b8d8:	4c7ff016 	blt	r9,r17,2b89c <__multadd+0x34>
   2b8dc:	80000826 	beq	r16,zero,2b900 <__multadd+0x98>
   2b8e0:	90800217 	ldw	r2,8(r18)
   2b8e4:	88800f0e 	bge	r17,r2,2b924 <__multadd+0xbc>
   2b8e8:	88800144 	addi	r2,r17,5
   2b8ec:	100490ba 	slli	r2,r2,2
   2b8f0:	8c400044 	addi	r17,r17,1
   2b8f4:	9085883a 	add	r2,r18,r2
   2b8f8:	14000015 	stw	r16,0(r2)
   2b8fc:	94400415 	stw	r17,16(r18)
   2b900:	9005883a 	mov	r2,r18
   2b904:	dfc00517 	ldw	ra,20(sp)
   2b908:	dd000417 	ldw	r20,16(sp)
   2b90c:	dcc00317 	ldw	r19,12(sp)
   2b910:	dc800217 	ldw	r18,8(sp)
   2b914:	dc400117 	ldw	r17,4(sp)
   2b918:	dc000017 	ldw	r16,0(sp)
   2b91c:	dec00604 	addi	sp,sp,24
   2b920:	f800283a 	ret
   2b924:	91400117 	ldw	r5,4(r18)
   2b928:	9809883a 	mov	r4,r19
   2b92c:	29400044 	addi	r5,r5,1
   2b930:	002b7a00 	call	2b7a0 <_Balloc>
   2b934:	1029883a 	mov	r20,r2
   2b938:	10001226 	beq	r2,zero,2b984 <__multadd+0x11c>
   2b93c:	91800417 	ldw	r6,16(r18)
   2b940:	91400304 	addi	r5,r18,12
   2b944:	11000304 	addi	r4,r2,12
   2b948:	31800084 	addi	r6,r6,2
   2b94c:	300c90ba 	slli	r6,r6,2
   2b950:	00245a40 	call	245a4 <memcpy>
   2b954:	90000926 	beq	r18,zero,2b97c <__multadd+0x114>
   2b958:	90c00117 	ldw	r3,4(r18)
   2b95c:	98801317 	ldw	r2,76(r19)
   2b960:	180690ba 	slli	r3,r3,2
   2b964:	10c5883a 	add	r2,r2,r3
   2b968:	10c00017 	ldw	r3,0(r2)
   2b96c:	90c00015 	stw	r3,0(r18)
   2b970:	14800015 	stw	r18,0(r2)
   2b974:	a025883a 	mov	r18,r20
   2b978:	003fdb06 	br	2b8e8 <__multadd+0x80>
   2b97c:	a025883a 	mov	r18,r20
   2b980:	003fd906 	br	2b8e8 <__multadd+0x80>
   2b984:	01c000f4 	movhi	r7,3
   2b988:	010000f4 	movhi	r4,3
   2b98c:	39d27604 	addi	r7,r7,18904
   2b990:	000d883a 	mov	r6,zero
   2b994:	01402d44 	movi	r5,181
   2b998:	2112e204 	addi	r4,r4,19336
   2b99c:	002e5400 	call	2e540 <__assert_func>

0002b9a0 <__s2b>:
   2b9a0:	defff904 	addi	sp,sp,-28
   2b9a4:	dc800215 	stw	r18,8(sp)
   2b9a8:	dc000015 	stw	r16,0(sp)
   2b9ac:	2025883a 	mov	r18,r4
   2b9b0:	2821883a 	mov	r16,r5
   2b9b4:	39000204 	addi	r4,r7,8
   2b9b8:	01400244 	movi	r5,9
   2b9bc:	dcc00315 	stw	r19,12(sp)
   2b9c0:	dc400115 	stw	r17,4(sp)
   2b9c4:	dfc00615 	stw	ra,24(sp)
   2b9c8:	3823883a 	mov	r17,r7
   2b9cc:	dd400515 	stw	r21,20(sp)
   2b9d0:	dd000415 	stw	r20,16(sp)
   2b9d4:	3027883a 	mov	r19,r6
   2b9d8:	0020e9c0 	call	20e9c <__divsi3>
   2b9dc:	88c00290 	cmplti	r3,r17,10
   2b9e0:	1800341e 	bne	r3,zero,2bab4 <__s2b+0x114>
   2b9e4:	00c00044 	movi	r3,1
   2b9e8:	000b883a 	mov	r5,zero
   2b9ec:	18c7883a 	add	r3,r3,r3
   2b9f0:	29400044 	addi	r5,r5,1
   2b9f4:	18bffd16 	blt	r3,r2,2b9ec <__s2b+0x4c>
   2b9f8:	9009883a 	mov	r4,r18
   2b9fc:	002b7a00 	call	2b7a0 <_Balloc>
   2ba00:	100b883a 	mov	r5,r2
   2ba04:	10002d26 	beq	r2,zero,2babc <__s2b+0x11c>
   2ba08:	d8800717 	ldw	r2,28(sp)
   2ba0c:	28800515 	stw	r2,20(r5)
   2ba10:	00800044 	movi	r2,1
   2ba14:	28800415 	stw	r2,16(r5)
   2ba18:	98800290 	cmplti	r2,r19,10
   2ba1c:	1000221e 	bne	r2,zero,2baa8 <__s2b+0x108>
   2ba20:	85400244 	addi	r21,r16,9
   2ba24:	a829883a 	mov	r20,r21
   2ba28:	84e1883a 	add	r16,r16,r19
   2ba2c:	a1c00007 	ldb	r7,0(r20)
   2ba30:	01800284 	movi	r6,10
   2ba34:	9009883a 	mov	r4,r18
   2ba38:	39fff404 	addi	r7,r7,-48
   2ba3c:	002b8680 	call	2b868 <__multadd>
   2ba40:	a5000044 	addi	r20,r20,1
   2ba44:	100b883a 	mov	r5,r2
   2ba48:	a43ff81e 	bne	r20,r16,2ba2c <__s2b+0x8c>
   2ba4c:	9c3ffe04 	addi	r16,r19,-8
   2ba50:	ac21883a 	add	r16,r21,r16
   2ba54:	9c400a0e 	bge	r19,r17,2ba80 <__s2b+0xe0>
   2ba58:	8ce3c83a 	sub	r17,r17,r19
   2ba5c:	8463883a 	add	r17,r16,r17
   2ba60:	81c00007 	ldb	r7,0(r16)
   2ba64:	01800284 	movi	r6,10
   2ba68:	9009883a 	mov	r4,r18
   2ba6c:	39fff404 	addi	r7,r7,-48
   2ba70:	002b8680 	call	2b868 <__multadd>
   2ba74:	84000044 	addi	r16,r16,1
   2ba78:	100b883a 	mov	r5,r2
   2ba7c:	8c3ff81e 	bne	r17,r16,2ba60 <__s2b+0xc0>
   2ba80:	2805883a 	mov	r2,r5
   2ba84:	dfc00617 	ldw	ra,24(sp)
   2ba88:	dd400517 	ldw	r21,20(sp)
   2ba8c:	dd000417 	ldw	r20,16(sp)
   2ba90:	dcc00317 	ldw	r19,12(sp)
   2ba94:	dc800217 	ldw	r18,8(sp)
   2ba98:	dc400117 	ldw	r17,4(sp)
   2ba9c:	dc000017 	ldw	r16,0(sp)
   2baa0:	dec00704 	addi	sp,sp,28
   2baa4:	f800283a 	ret
   2baa8:	84000284 	addi	r16,r16,10
   2baac:	04c00244 	movi	r19,9
   2bab0:	003fe806 	br	2ba54 <__s2b+0xb4>
   2bab4:	000b883a 	mov	r5,zero
   2bab8:	003fcf06 	br	2b9f8 <__s2b+0x58>
   2babc:	01c000f4 	movhi	r7,3
   2bac0:	010000f4 	movhi	r4,3
   2bac4:	39d27604 	addi	r7,r7,18904
   2bac8:	000d883a 	mov	r6,zero
   2bacc:	01403384 	movi	r5,206
   2bad0:	2112e204 	addi	r4,r4,19336
   2bad4:	002e5400 	call	2e540 <__assert_func>

0002bad8 <__hi0bits>:
   2bad8:	20bfffec 	andhi	r2,r4,65535
   2badc:	1000131e 	bne	r2,zero,2bb2c <__hi0bits+0x54>
   2bae0:	2008943a 	slli	r4,r4,16
   2bae4:	00800404 	movi	r2,16
   2bae8:	20ffc02c 	andhi	r3,r4,65280
   2baec:	1800021e 	bne	r3,zero,2baf8 <__hi0bits+0x20>
   2baf0:	2008923a 	slli	r4,r4,8
   2baf4:	10800204 	addi	r2,r2,8
   2baf8:	20fc002c 	andhi	r3,r4,61440
   2bafc:	1800021e 	bne	r3,zero,2bb08 <__hi0bits+0x30>
   2bb00:	2008913a 	slli	r4,r4,4
   2bb04:	10800104 	addi	r2,r2,4
   2bb08:	20f0002c 	andhi	r3,r4,49152
   2bb0c:	1800021e 	bne	r3,zero,2bb18 <__hi0bits+0x40>
   2bb10:	200890ba 	slli	r4,r4,2
   2bb14:	10800084 	addi	r2,r2,2
   2bb18:	20000316 	blt	r4,zero,2bb28 <__hi0bits+0x50>
   2bb1c:	2110002c 	andhi	r4,r4,16384
   2bb20:	10800044 	addi	r2,r2,1
   2bb24:	20000326 	beq	r4,zero,2bb34 <__hi0bits+0x5c>
   2bb28:	f800283a 	ret
   2bb2c:	0005883a 	mov	r2,zero
   2bb30:	003fed06 	br	2bae8 <__hi0bits+0x10>
   2bb34:	00800804 	movi	r2,32
   2bb38:	f800283a 	ret

0002bb3c <__lo0bits>:
   2bb3c:	20c00017 	ldw	r3,0(r4)
   2bb40:	188001cc 	andi	r2,r3,7
   2bb44:	10000826 	beq	r2,zero,2bb68 <__lo0bits+0x2c>
   2bb48:	1880004c 	andi	r2,r3,1
   2bb4c:	10001f1e 	bne	r2,zero,2bbcc <__lo0bits+0x90>
   2bb50:	1880008c 	andi	r2,r3,2
   2bb54:	10002126 	beq	r2,zero,2bbdc <__lo0bits+0xa0>
   2bb58:	1806d07a 	srli	r3,r3,1
   2bb5c:	00800044 	movi	r2,1
   2bb60:	20c00015 	stw	r3,0(r4)
   2bb64:	f800283a 	ret
   2bb68:	18bfffcc 	andi	r2,r3,65535
   2bb6c:	10001426 	beq	r2,zero,2bbc0 <__lo0bits+0x84>
   2bb70:	0005883a 	mov	r2,zero
   2bb74:	19403fcc 	andi	r5,r3,255
   2bb78:	2800021e 	bne	r5,zero,2bb84 <__lo0bits+0x48>
   2bb7c:	1806d23a 	srli	r3,r3,8
   2bb80:	10800204 	addi	r2,r2,8
   2bb84:	194003cc 	andi	r5,r3,15
   2bb88:	2800021e 	bne	r5,zero,2bb94 <__lo0bits+0x58>
   2bb8c:	1806d13a 	srli	r3,r3,4
   2bb90:	10800104 	addi	r2,r2,4
   2bb94:	194000cc 	andi	r5,r3,3
   2bb98:	2800021e 	bne	r5,zero,2bba4 <__lo0bits+0x68>
   2bb9c:	1806d0ba 	srli	r3,r3,2
   2bba0:	10800084 	addi	r2,r2,2
   2bba4:	1940004c 	andi	r5,r3,1
   2bba8:	2800031e 	bne	r5,zero,2bbb8 <__lo0bits+0x7c>
   2bbac:	1806d07a 	srli	r3,r3,1
   2bbb0:	10800044 	addi	r2,r2,1
   2bbb4:	18000726 	beq	r3,zero,2bbd4 <__lo0bits+0x98>
   2bbb8:	20c00015 	stw	r3,0(r4)
   2bbbc:	f800283a 	ret
   2bbc0:	1806d43a 	srli	r3,r3,16
   2bbc4:	00800404 	movi	r2,16
   2bbc8:	003fea06 	br	2bb74 <__lo0bits+0x38>
   2bbcc:	0005883a 	mov	r2,zero
   2bbd0:	f800283a 	ret
   2bbd4:	00800804 	movi	r2,32
   2bbd8:	f800283a 	ret
   2bbdc:	1806d0ba 	srli	r3,r3,2
   2bbe0:	00800084 	movi	r2,2
   2bbe4:	20c00015 	stw	r3,0(r4)
   2bbe8:	f800283a 	ret

0002bbec <__i2b>:
   2bbec:	defffe04 	addi	sp,sp,-8
   2bbf0:	dc000015 	stw	r16,0(sp)
   2bbf4:	2821883a 	mov	r16,r5
   2bbf8:	01400044 	movi	r5,1
   2bbfc:	dfc00115 	stw	ra,4(sp)
   2bc00:	002b7a00 	call	2b7a0 <_Balloc>
   2bc04:	10000726 	beq	r2,zero,2bc24 <__i2b+0x38>
   2bc08:	01000044 	movi	r4,1
   2bc0c:	14000515 	stw	r16,20(r2)
   2bc10:	11000415 	stw	r4,16(r2)
   2bc14:	dfc00117 	ldw	ra,4(sp)
   2bc18:	dc000017 	ldw	r16,0(sp)
   2bc1c:	dec00204 	addi	sp,sp,8
   2bc20:	f800283a 	ret
   2bc24:	01c000f4 	movhi	r7,3
   2bc28:	010000f4 	movhi	r4,3
   2bc2c:	39d27604 	addi	r7,r7,18904
   2bc30:	000d883a 	mov	r6,zero
   2bc34:	01405004 	movi	r5,320
   2bc38:	2112e204 	addi	r4,r4,19336
   2bc3c:	002e5400 	call	2e540 <__assert_func>

0002bc40 <__multiply>:
   2bc40:	defffa04 	addi	sp,sp,-24
   2bc44:	dcc00315 	stw	r19,12(sp)
   2bc48:	dc800215 	stw	r18,8(sp)
   2bc4c:	34c00417 	ldw	r19,16(r6)
   2bc50:	2c800417 	ldw	r18,16(r5)
   2bc54:	dd000415 	stw	r20,16(sp)
   2bc58:	dc400115 	stw	r17,4(sp)
   2bc5c:	dfc00515 	stw	ra,20(sp)
   2bc60:	dc000015 	stw	r16,0(sp)
   2bc64:	2829883a 	mov	r20,r5
   2bc68:	3023883a 	mov	r17,r6
   2bc6c:	94c00516 	blt	r18,r19,2bc84 <__multiply+0x44>
   2bc70:	9807883a 	mov	r3,r19
   2bc74:	2823883a 	mov	r17,r5
   2bc78:	9027883a 	mov	r19,r18
   2bc7c:	3029883a 	mov	r20,r6
   2bc80:	1825883a 	mov	r18,r3
   2bc84:	88800217 	ldw	r2,8(r17)
   2bc88:	9ca1883a 	add	r16,r19,r18
   2bc8c:	89400117 	ldw	r5,4(r17)
   2bc90:	1400010e 	bge	r2,r16,2bc98 <__multiply+0x58>
   2bc94:	29400044 	addi	r5,r5,1
   2bc98:	002b7a00 	call	2b7a0 <_Balloc>
   2bc9c:	10006d26 	beq	r2,zero,2be54 <__multiply+0x214>
   2bca0:	801290ba 	slli	r9,r16,2
   2bca4:	12800504 	addi	r10,r2,20
   2bca8:	5007883a 	mov	r3,r10
   2bcac:	5253883a 	add	r9,r10,r9
   2bcb0:	5240032e 	bgeu	r10,r9,2bcc0 <__multiply+0x80>
   2bcb4:	18000015 	stw	zero,0(r3)
   2bcb8:	18c00104 	addi	r3,r3,4
   2bcbc:	1a7ffd36 	bltu	r3,r9,2bcb4 <__multiply+0x74>
   2bcc0:	901690ba 	slli	r11,r18,2
   2bcc4:	980e90ba 	slli	r7,r19,2
   2bcc8:	a2000504 	addi	r8,r20,20
   2bccc:	8b000504 	addi	r12,r17,20
   2bcd0:	42d7883a 	add	r11,r8,r11
   2bcd4:	61cf883a 	add	r7,r12,r7
   2bcd8:	42c02e2e 	bgeu	r8,r11,2bd94 <__multiply+0x154>
   2bcdc:	88c00544 	addi	r3,r17,21
   2bce0:	38c03c36 	bltu	r7,r3,2bdd4 <__multiply+0x194>
   2bce4:	3c4dc83a 	sub	r6,r7,r17
   2bce8:	31bffac4 	addi	r6,r6,-21
   2bcec:	300cd0ba 	srli	r6,r6,2
   2bcf0:	31800044 	addi	r6,r6,1
   2bcf4:	300c90ba 	slli	r6,r6,2
   2bcf8:	00000306 	br	2bd08 <__multiply+0xc8>
   2bcfc:	42000104 	addi	r8,r8,4
   2bd00:	52800104 	addi	r10,r10,4
   2bd04:	42c0232e 	bgeu	r8,r11,2bd94 <__multiply+0x154>
   2bd08:	43800017 	ldw	r14,0(r8)
   2bd0c:	77ffffcc 	andi	ra,r14,65535
   2bd10:	f800341e 	bne	ra,zero,2bde4 <__multiply+0x1a4>
   2bd14:	701cd43a 	srli	r14,r14,16
   2bd18:	703ff826 	beq	r14,zero,2bcfc <__multiply+0xbc>
   2bd1c:	50c00017 	ldw	r3,0(r10)
   2bd20:	501f883a 	mov	r15,r10
   2bd24:	601b883a 	mov	r13,r12
   2bd28:	183f883a 	mov	ra,r3
   2bd2c:	0023883a 	mov	r17,zero
   2bd30:	6940000b 	ldhu	r5,0(r13)
   2bd34:	f824d43a 	srli	r18,ra,16
   2bd38:	193fffcc 	andi	r4,r3,65535
   2bd3c:	2b8b383a 	mul	r5,r5,r14
   2bd40:	6b400104 	addi	r13,r13,4
   2bd44:	7fc00117 	ldw	ra,4(r15)
   2bd48:	2c8b883a 	add	r5,r5,r18
   2bd4c:	2c4b883a 	add	r5,r5,r17
   2bd50:	2806943a 	slli	r3,r5,16
   2bd54:	280ad43a 	srli	r5,r5,16
   2bd58:	fc7fffcc 	andi	r17,ra,65535
   2bd5c:	1908b03a 	or	r4,r3,r4
   2bd60:	79000015 	stw	r4,0(r15)
   2bd64:	68ffff8b 	ldhu	r3,-2(r13)
   2bd68:	7bc00104 	addi	r15,r15,4
   2bd6c:	1b87383a 	mul	r3,r3,r14
   2bd70:	1c47883a 	add	r3,r3,r17
   2bd74:	1947883a 	add	r3,r3,r5
   2bd78:	1822d43a 	srli	r17,r3,16
   2bd7c:	69ffec36 	bltu	r13,r7,2bd30 <__multiply+0xf0>
   2bd80:	5189883a 	add	r4,r10,r6
   2bd84:	20c00015 	stw	r3,0(r4)
   2bd88:	42000104 	addi	r8,r8,4
   2bd8c:	52800104 	addi	r10,r10,4
   2bd90:	42ffdd36 	bltu	r8,r11,2bd08 <__multiply+0xc8>
   2bd94:	04000316 	blt	zero,r16,2bda4 <__multiply+0x164>
   2bd98:	00000506 	br	2bdb0 <__multiply+0x170>
   2bd9c:	843fffc4 	addi	r16,r16,-1
   2bda0:	80000326 	beq	r16,zero,2bdb0 <__multiply+0x170>
   2bda4:	48ffff17 	ldw	r3,-4(r9)
   2bda8:	4a7fff04 	addi	r9,r9,-4
   2bdac:	183ffb26 	beq	r3,zero,2bd9c <__multiply+0x15c>
   2bdb0:	14000415 	stw	r16,16(r2)
   2bdb4:	dfc00517 	ldw	ra,20(sp)
   2bdb8:	dd000417 	ldw	r20,16(sp)
   2bdbc:	dcc00317 	ldw	r19,12(sp)
   2bdc0:	dc800217 	ldw	r18,8(sp)
   2bdc4:	dc400117 	ldw	r17,4(sp)
   2bdc8:	dc000017 	ldw	r16,0(sp)
   2bdcc:	dec00604 	addi	sp,sp,24
   2bdd0:	f800283a 	ret
   2bdd4:	43800017 	ldw	r14,0(r8)
   2bdd8:	01800104 	movi	r6,4
   2bddc:	77ffffcc 	andi	ra,r14,65535
   2bde0:	f83fcc26 	beq	ra,zero,2bd14 <__multiply+0xd4>
   2bde4:	501f883a 	mov	r15,r10
   2bde8:	601d883a 	mov	r14,r12
   2bdec:	0023883a 	mov	r17,zero
   2bdf0:	71000017 	ldw	r4,0(r14)
   2bdf4:	7b400017 	ldw	r13,0(r15)
   2bdf8:	7bc00104 	addi	r15,r15,4
   2bdfc:	217fffcc 	andi	r5,r4,65535
   2be00:	2fcb383a 	mul	r5,r5,ra
   2be04:	2006d43a 	srli	r3,r4,16
   2be08:	693fffcc 	andi	r4,r13,65535
   2be0c:	290b883a 	add	r5,r5,r4
   2be10:	2c4b883a 	add	r5,r5,r17
   2be14:	1fc7383a 	mul	r3,r3,ra
   2be18:	681ad43a 	srli	r13,r13,16
   2be1c:	2808d43a 	srli	r4,r5,16
   2be20:	297fffcc 	andi	r5,r5,65535
   2be24:	1b47883a 	add	r3,r3,r13
   2be28:	1907883a 	add	r3,r3,r4
   2be2c:	1808943a 	slli	r4,r3,16
   2be30:	73800104 	addi	r14,r14,4
   2be34:	1822d43a 	srli	r17,r3,16
   2be38:	214ab03a 	or	r5,r4,r5
   2be3c:	797fff15 	stw	r5,-4(r15)
   2be40:	71ffeb36 	bltu	r14,r7,2bdf0 <__multiply+0x1b0>
   2be44:	5187883a 	add	r3,r10,r6
   2be48:	1c400015 	stw	r17,0(r3)
   2be4c:	43800017 	ldw	r14,0(r8)
   2be50:	003fb006 	br	2bd14 <__multiply+0xd4>
   2be54:	01c000f4 	movhi	r7,3
   2be58:	010000f4 	movhi	r4,3
   2be5c:	39d27604 	addi	r7,r7,18904
   2be60:	000d883a 	mov	r6,zero
   2be64:	01405744 	movi	r5,349
   2be68:	2112e204 	addi	r4,r4,19336
   2be6c:	002e5400 	call	2e540 <__assert_func>

0002be70 <__pow5mult>:
   2be70:	defffb04 	addi	sp,sp,-20
   2be74:	dcc00315 	stw	r19,12(sp)
   2be78:	dc000015 	stw	r16,0(sp)
   2be7c:	dfc00415 	stw	ra,16(sp)
   2be80:	dc800215 	stw	r18,8(sp)
   2be84:	dc400115 	stw	r17,4(sp)
   2be88:	308000cc 	andi	r2,r6,3
   2be8c:	3021883a 	mov	r16,r6
   2be90:	2027883a 	mov	r19,r4
   2be94:	10002d1e 	bne	r2,zero,2bf4c <__pow5mult+0xdc>
   2be98:	2825883a 	mov	r18,r5
   2be9c:	8021d0ba 	srai	r16,r16,2
   2bea0:	80001926 	beq	r16,zero,2bf08 <__pow5mult+0x98>
   2bea4:	9c401217 	ldw	r17,72(r19)
   2bea8:	8800061e 	bne	r17,zero,2bec4 <__pow5mult+0x54>
   2beac:	00002f06 	br	2bf6c <__pow5mult+0xfc>
   2beb0:	8021d07a 	srai	r16,r16,1
   2beb4:	80001426 	beq	r16,zero,2bf08 <__pow5mult+0x98>
   2beb8:	88800017 	ldw	r2,0(r17)
   2bebc:	10001a26 	beq	r2,zero,2bf28 <__pow5mult+0xb8>
   2bec0:	1023883a 	mov	r17,r2
   2bec4:	8080004c 	andi	r2,r16,1
   2bec8:	103ff926 	beq	r2,zero,2beb0 <__pow5mult+0x40>
   2becc:	880d883a 	mov	r6,r17
   2bed0:	900b883a 	mov	r5,r18
   2bed4:	9809883a 	mov	r4,r19
   2bed8:	002bc400 	call	2bc40 <__multiply>
   2bedc:	90001926 	beq	r18,zero,2bf44 <__pow5mult+0xd4>
   2bee0:	91000117 	ldw	r4,4(r18)
   2bee4:	98c01317 	ldw	r3,76(r19)
   2bee8:	8021d07a 	srai	r16,r16,1
   2beec:	200890ba 	slli	r4,r4,2
   2bef0:	1907883a 	add	r3,r3,r4
   2bef4:	19000017 	ldw	r4,0(r3)
   2bef8:	91000015 	stw	r4,0(r18)
   2befc:	1c800015 	stw	r18,0(r3)
   2bf00:	1025883a 	mov	r18,r2
   2bf04:	803fec1e 	bne	r16,zero,2beb8 <__pow5mult+0x48>
   2bf08:	9005883a 	mov	r2,r18
   2bf0c:	dfc00417 	ldw	ra,16(sp)
   2bf10:	dcc00317 	ldw	r19,12(sp)
   2bf14:	dc800217 	ldw	r18,8(sp)
   2bf18:	dc400117 	ldw	r17,4(sp)
   2bf1c:	dc000017 	ldw	r16,0(sp)
   2bf20:	dec00504 	addi	sp,sp,20
   2bf24:	f800283a 	ret
   2bf28:	880d883a 	mov	r6,r17
   2bf2c:	880b883a 	mov	r5,r17
   2bf30:	9809883a 	mov	r4,r19
   2bf34:	002bc400 	call	2bc40 <__multiply>
   2bf38:	88800015 	stw	r2,0(r17)
   2bf3c:	10000015 	stw	zero,0(r2)
   2bf40:	003fdf06 	br	2bec0 <__pow5mult+0x50>
   2bf44:	1025883a 	mov	r18,r2
   2bf48:	003fd906 	br	2beb0 <__pow5mult+0x40>
   2bf4c:	100490ba 	slli	r2,r2,2
   2bf50:	00c000f4 	movhi	r3,3
   2bf54:	000f883a 	mov	r7,zero
   2bf58:	10c7883a 	add	r3,r2,r3
   2bf5c:	1992f017 	ldw	r6,19392(r3)
   2bf60:	002b8680 	call	2b868 <__multadd>
   2bf64:	1025883a 	mov	r18,r2
   2bf68:	003fcc06 	br	2be9c <__pow5mult+0x2c>
   2bf6c:	01409c44 	movi	r5,625
   2bf70:	9809883a 	mov	r4,r19
   2bf74:	002bbec0 	call	2bbec <__i2b>
   2bf78:	98801215 	stw	r2,72(r19)
   2bf7c:	1023883a 	mov	r17,r2
   2bf80:	10000015 	stw	zero,0(r2)
   2bf84:	003fcf06 	br	2bec4 <__pow5mult+0x54>

0002bf88 <__lshift>:
   2bf88:	defff904 	addi	sp,sp,-28
   2bf8c:	dd400515 	stw	r21,20(sp)
   2bf90:	dc800215 	stw	r18,8(sp)
   2bf94:	302bd17a 	srai	r21,r6,5
   2bf98:	2c800417 	ldw	r18,16(r5)
   2bf9c:	28800217 	ldw	r2,8(r5)
   2bfa0:	dd000415 	stw	r20,16(sp)
   2bfa4:	aca5883a 	add	r18,r21,r18
   2bfa8:	dcc00315 	stw	r19,12(sp)
   2bfac:	dc400115 	stw	r17,4(sp)
   2bfb0:	dc000015 	stw	r16,0(sp)
   2bfb4:	dfc00615 	stw	ra,24(sp)
   2bfb8:	94400044 	addi	r17,r18,1
   2bfbc:	2821883a 	mov	r16,r5
   2bfc0:	3029883a 	mov	r20,r6
   2bfc4:	29400117 	ldw	r5,4(r5)
   2bfc8:	2027883a 	mov	r19,r4
   2bfcc:	1440030e 	bge	r2,r17,2bfdc <__lshift+0x54>
   2bfd0:	1085883a 	add	r2,r2,r2
   2bfd4:	29400044 	addi	r5,r5,1
   2bfd8:	147ffd16 	blt	r2,r17,2bfd0 <__lshift+0x48>
   2bfdc:	9809883a 	mov	r4,r19
   2bfe0:	002b7a00 	call	2b7a0 <_Balloc>
   2bfe4:	10004326 	beq	r2,zero,2c0f4 <__lshift+0x16c>
   2bfe8:	12000504 	addi	r8,r2,20
   2bfec:	0540090e 	bge	zero,r21,2c014 <__lshift+0x8c>
   2bff0:	ad400144 	addi	r21,r21,5
   2bff4:	a82a90ba 	slli	r21,r21,2
   2bff8:	4007883a 	mov	r3,r8
   2bffc:	1549883a 	add	r4,r2,r21
   2c000:	18c00104 	addi	r3,r3,4
   2c004:	183fff15 	stw	zero,-4(r3)
   2c008:	193ffd1e 	bne	r3,r4,2c000 <__lshift+0x78>
   2c00c:	ad7ffb04 	addi	r21,r21,-20
   2c010:	4551883a 	add	r8,r8,r21
   2c014:	82400417 	ldw	r9,16(r16)
   2c018:	80c00504 	addi	r3,r16,20
   2c01c:	a14007cc 	andi	r5,r20,31
   2c020:	481290ba 	slli	r9,r9,2
   2c024:	1a53883a 	add	r9,r3,r9
   2c028:	28002a26 	beq	r5,zero,2c0d4 <__lshift+0x14c>
   2c02c:	02800804 	movi	r10,32
   2c030:	5155c83a 	sub	r10,r10,r5
   2c034:	4009883a 	mov	r4,r8
   2c038:	000f883a 	mov	r7,zero
   2c03c:	19800017 	ldw	r6,0(r3)
   2c040:	21000104 	addi	r4,r4,4
   2c044:	18c00104 	addi	r3,r3,4
   2c048:	314c983a 	sll	r6,r6,r5
   2c04c:	31ccb03a 	or	r6,r6,r7
   2c050:	21bfff15 	stw	r6,-4(r4)
   2c054:	19bfff17 	ldw	r6,-4(r3)
   2c058:	328ed83a 	srl	r7,r6,r10
   2c05c:	1a7ff736 	bltu	r3,r9,2c03c <__lshift+0xb4>
   2c060:	80c00544 	addi	r3,r16,21
   2c064:	48c02136 	bltu	r9,r3,2c0ec <__lshift+0x164>
   2c068:	4c07c83a 	sub	r3,r9,r16
   2c06c:	18fffac4 	addi	r3,r3,-21
   2c070:	1806d0ba 	srli	r3,r3,2
   2c074:	18c00044 	addi	r3,r3,1
   2c078:	180690ba 	slli	r3,r3,2
   2c07c:	40d1883a 	add	r8,r8,r3
   2c080:	41c00015 	stw	r7,0(r8)
   2c084:	38000126 	beq	r7,zero,2c08c <__lshift+0x104>
   2c088:	8825883a 	mov	r18,r17
   2c08c:	14800415 	stw	r18,16(r2)
   2c090:	80000726 	beq	r16,zero,2c0b0 <__lshift+0x128>
   2c094:	81000117 	ldw	r4,4(r16)
   2c098:	98c01317 	ldw	r3,76(r19)
   2c09c:	200890ba 	slli	r4,r4,2
   2c0a0:	1907883a 	add	r3,r3,r4
   2c0a4:	19000017 	ldw	r4,0(r3)
   2c0a8:	81000015 	stw	r4,0(r16)
   2c0ac:	1c000015 	stw	r16,0(r3)
   2c0b0:	dfc00617 	ldw	ra,24(sp)
   2c0b4:	dd400517 	ldw	r21,20(sp)
   2c0b8:	dd000417 	ldw	r20,16(sp)
   2c0bc:	dcc00317 	ldw	r19,12(sp)
   2c0c0:	dc800217 	ldw	r18,8(sp)
   2c0c4:	dc400117 	ldw	r17,4(sp)
   2c0c8:	dc000017 	ldw	r16,0(sp)
   2c0cc:	dec00704 	addi	sp,sp,28
   2c0d0:	f800283a 	ret
   2c0d4:	19000017 	ldw	r4,0(r3)
   2c0d8:	18c00104 	addi	r3,r3,4
   2c0dc:	42000104 	addi	r8,r8,4
   2c0e0:	413fff15 	stw	r4,-4(r8)
   2c0e4:	1a7ffb36 	bltu	r3,r9,2c0d4 <__lshift+0x14c>
   2c0e8:	003fe806 	br	2c08c <__lshift+0x104>
   2c0ec:	00c00104 	movi	r3,4
   2c0f0:	003fe206 	br	2c07c <__lshift+0xf4>
   2c0f4:	01c000f4 	movhi	r7,3
   2c0f8:	010000f4 	movhi	r4,3
   2c0fc:	39d27604 	addi	r7,r7,18904
   2c100:	000d883a 	mov	r6,zero
   2c104:	01407644 	movi	r5,473
   2c108:	2112e204 	addi	r4,r4,19336
   2c10c:	002e5400 	call	2e540 <__assert_func>

0002c110 <__mcmp>:
   2c110:	21800417 	ldw	r6,16(r4)
   2c114:	28c00417 	ldw	r3,16(r5)
   2c118:	30c5c83a 	sub	r2,r6,r3
   2c11c:	30c00e1e 	bne	r6,r3,2c158 <__mcmp+0x48>
   2c120:	180690ba 	slli	r3,r3,2
   2c124:	21c00504 	addi	r7,r4,20
   2c128:	29400504 	addi	r5,r5,20
   2c12c:	38c9883a 	add	r4,r7,r3
   2c130:	28c7883a 	add	r3,r5,r3
   2c134:	00000106 	br	2c13c <__mcmp+0x2c>
   2c138:	3900082e 	bgeu	r7,r4,2c15c <__mcmp+0x4c>
   2c13c:	21bfff17 	ldw	r6,-4(r4)
   2c140:	197fff17 	ldw	r5,-4(r3)
   2c144:	213fff04 	addi	r4,r4,-4
   2c148:	18ffff04 	addi	r3,r3,-4
   2c14c:	317ffa26 	beq	r6,r5,2c138 <__mcmp+0x28>
   2c150:	3140032e 	bgeu	r6,r5,2c160 <__mcmp+0x50>
   2c154:	00bfffc4 	movi	r2,-1
   2c158:	f800283a 	ret
   2c15c:	f800283a 	ret
   2c160:	00800044 	movi	r2,1
   2c164:	f800283a 	ret

0002c168 <__mdiff>:
   2c168:	28800417 	ldw	r2,16(r5)
   2c16c:	30c00417 	ldw	r3,16(r6)
   2c170:	defffc04 	addi	sp,sp,-16
   2c174:	dc800215 	stw	r18,8(sp)
   2c178:	dc400115 	stw	r17,4(sp)
   2c17c:	dc000015 	stw	r16,0(sp)
   2c180:	dfc00315 	stw	ra,12(sp)
   2c184:	2823883a 	mov	r17,r5
   2c188:	3021883a 	mov	r16,r6
   2c18c:	10e5c83a 	sub	r18,r2,r3
   2c190:	10c0641e 	bne	r2,r3,2c324 <__mdiff+0x1bc>
   2c194:	180c90ba 	slli	r6,r3,2
   2c198:	29400504 	addi	r5,r5,20
   2c19c:	80c00504 	addi	r3,r16,20
   2c1a0:	2985883a 	add	r2,r5,r6
   2c1a4:	1987883a 	add	r3,r3,r6
   2c1a8:	00000106 	br	2c1b0 <__mdiff+0x48>
   2c1ac:	2880642e 	bgeu	r5,r2,2c340 <__mdiff+0x1d8>
   2c1b0:	11ffff17 	ldw	r7,-4(r2)
   2c1b4:	19bfff17 	ldw	r6,-4(r3)
   2c1b8:	10bfff04 	addi	r2,r2,-4
   2c1bc:	18ffff04 	addi	r3,r3,-4
   2c1c0:	39bffa26 	beq	r7,r6,2c1ac <__mdiff+0x44>
   2c1c4:	39805236 	bltu	r7,r6,2c310 <__mdiff+0x1a8>
   2c1c8:	89400117 	ldw	r5,4(r17)
   2c1cc:	002b7a00 	call	2b7a0 <_Balloc>
   2c1d0:	10006226 	beq	r2,zero,2c35c <__mdiff+0x1f4>
   2c1d4:	8a400417 	ldw	r9,16(r17)
   2c1d8:	83000417 	ldw	r12,16(r16)
   2c1dc:	8ac00504 	addi	r11,r17,20
   2c1e0:	481090ba 	slli	r8,r9,2
   2c1e4:	601890ba 	slli	r12,r12,2
   2c1e8:	81800504 	addi	r6,r16,20
   2c1ec:	13400504 	addi	r13,r2,20
   2c1f0:	14800315 	stw	r18,12(r2)
   2c1f4:	5a11883a 	add	r8,r11,r8
   2c1f8:	3319883a 	add	r12,r6,r12
   2c1fc:	681d883a 	mov	r14,r13
   2c200:	5815883a 	mov	r10,r11
   2c204:	0007883a 	mov	r3,zero
   2c208:	51000017 	ldw	r4,0(r10)
   2c20c:	31c00017 	ldw	r7,0(r6)
   2c210:	73800104 	addi	r14,r14,4
   2c214:	217fffcc 	andi	r5,r4,65535
   2c218:	28cb883a 	add	r5,r5,r3
   2c21c:	38ffffcc 	andi	r3,r7,65535
   2c220:	28cbc83a 	sub	r5,r5,r3
   2c224:	380ed43a 	srli	r7,r7,16
   2c228:	2006d43a 	srli	r3,r4,16
   2c22c:	2809d43a 	srai	r4,r5,16
   2c230:	297fffcc 	andi	r5,r5,65535
   2c234:	19c7c83a 	sub	r3,r3,r7
   2c238:	1907883a 	add	r3,r3,r4
   2c23c:	1808943a 	slli	r4,r3,16
   2c240:	31800104 	addi	r6,r6,4
   2c244:	1807d43a 	srai	r3,r3,16
   2c248:	214ab03a 	or	r5,r4,r5
   2c24c:	717fff15 	stw	r5,-4(r14)
   2c250:	52800104 	addi	r10,r10,4
   2c254:	333fec36 	bltu	r6,r12,2c208 <__mdiff+0xa0>
   2c258:	640fc83a 	sub	r7,r12,r16
   2c25c:	39fffac4 	addi	r7,r7,-21
   2c260:	84000544 	addi	r16,r16,21
   2c264:	380ed0ba 	srli	r7,r7,2
   2c268:	64003336 	bltu	r12,r16,2c338 <__mdiff+0x1d0>
   2c26c:	380890ba 	slli	r4,r7,2
   2c270:	6909883a 	add	r4,r13,r4
   2c274:	64002e36 	bltu	r12,r16,2c330 <__mdiff+0x1c8>
   2c278:	39800044 	addi	r6,r7,1
   2c27c:	300c90ba 	slli	r6,r6,2
   2c280:	5997883a 	add	r11,r11,r6
   2c284:	699b883a 	add	r13,r13,r6
   2c288:	5a00152e 	bgeu	r11,r8,2c2e0 <__mdiff+0x178>
   2c28c:	680f883a 	mov	r7,r13
   2c290:	580d883a 	mov	r6,r11
   2c294:	31000017 	ldw	r4,0(r6)
   2c298:	39c00104 	addi	r7,r7,4
   2c29c:	31800104 	addi	r6,r6,4
   2c2a0:	217fffcc 	andi	r5,r4,65535
   2c2a4:	28cb883a 	add	r5,r5,r3
   2c2a8:	2815d43a 	srai	r10,r5,16
   2c2ac:	2006d43a 	srli	r3,r4,16
   2c2b0:	297fffcc 	andi	r5,r5,65535
   2c2b4:	1a87883a 	add	r3,r3,r10
   2c2b8:	1814943a 	slli	r10,r3,16
   2c2bc:	1807d43a 	srai	r3,r3,16
   2c2c0:	514ab03a 	or	r5,r10,r5
   2c2c4:	397fff15 	stw	r5,-4(r7)
   2c2c8:	323ff236 	bltu	r6,r8,2c294 <__mdiff+0x12c>
   2c2cc:	413fffc4 	addi	r4,r8,-1
   2c2d0:	22c9c83a 	sub	r4,r4,r11
   2c2d4:	2008d0ba 	srli	r4,r4,2
   2c2d8:	200890ba 	slli	r4,r4,2
   2c2dc:	6909883a 	add	r4,r13,r4
   2c2e0:	2800041e 	bne	r5,zero,2c2f4 <__mdiff+0x18c>
   2c2e4:	20ffff17 	ldw	r3,-4(r4)
   2c2e8:	4a7fffc4 	addi	r9,r9,-1
   2c2ec:	213fff04 	addi	r4,r4,-4
   2c2f0:	183ffc26 	beq	r3,zero,2c2e4 <__mdiff+0x17c>
   2c2f4:	12400415 	stw	r9,16(r2)
   2c2f8:	dfc00317 	ldw	ra,12(sp)
   2c2fc:	dc800217 	ldw	r18,8(sp)
   2c300:	dc400117 	ldw	r17,4(sp)
   2c304:	dc000017 	ldw	r16,0(sp)
   2c308:	dec00404 	addi	sp,sp,16
   2c30c:	f800283a 	ret
   2c310:	8805883a 	mov	r2,r17
   2c314:	04800044 	movi	r18,1
   2c318:	8023883a 	mov	r17,r16
   2c31c:	1021883a 	mov	r16,r2
   2c320:	003fa906 	br	2c1c8 <__mdiff+0x60>
   2c324:	903ffa16 	blt	r18,zero,2c310 <__mdiff+0x1a8>
   2c328:	0025883a 	mov	r18,zero
   2c32c:	003fa606 	br	2c1c8 <__mdiff+0x60>
   2c330:	01800104 	movi	r6,4
   2c334:	003fd206 	br	2c280 <__mdiff+0x118>
   2c338:	0009883a 	mov	r4,zero
   2c33c:	003fcc06 	br	2c270 <__mdiff+0x108>
   2c340:	000b883a 	mov	r5,zero
   2c344:	002b7a00 	call	2b7a0 <_Balloc>
   2c348:	10000b26 	beq	r2,zero,2c378 <__mdiff+0x210>
   2c34c:	00c00044 	movi	r3,1
   2c350:	10c00415 	stw	r3,16(r2)
   2c354:	10000515 	stw	zero,20(r2)
   2c358:	003fe706 	br	2c2f8 <__mdiff+0x190>
   2c35c:	01c000f4 	movhi	r7,3
   2c360:	010000f4 	movhi	r4,3
   2c364:	39d27604 	addi	r7,r7,18904
   2c368:	000d883a 	mov	r6,zero
   2c36c:	01409004 	movi	r5,576
   2c370:	2112e204 	addi	r4,r4,19336
   2c374:	002e5400 	call	2e540 <__assert_func>
   2c378:	01c000f4 	movhi	r7,3
   2c37c:	010000f4 	movhi	r4,3
   2c380:	39d27604 	addi	r7,r7,18904
   2c384:	000d883a 	mov	r6,zero
   2c388:	01408c84 	movi	r5,562
   2c38c:	2112e204 	addi	r4,r4,19336
   2c390:	002e5400 	call	2e540 <__assert_func>

0002c394 <__ulp>:
   2c394:	28dffc2c 	andhi	r3,r5,32752
   2c398:	017f3034 	movhi	r5,64704
   2c39c:	1947883a 	add	r3,r3,r5
   2c3a0:	00c0020e 	bge	zero,r3,2c3ac <__ulp+0x18>
   2c3a4:	0005883a 	mov	r2,zero
   2c3a8:	f800283a 	ret
   2c3ac:	00c7c83a 	sub	r3,zero,r3
   2c3b0:	1807d53a 	srai	r3,r3,20
   2c3b4:	18800508 	cmpgei	r2,r3,20
   2c3b8:	1000041e 	bne	r2,zero,2c3cc <__ulp+0x38>
   2c3bc:	00800234 	movhi	r2,8
   2c3c0:	10c7d83a 	sra	r3,r2,r3
   2c3c4:	0005883a 	mov	r2,zero
   2c3c8:	f800283a 	ret
   2c3cc:	193ffb04 	addi	r4,r3,-20
   2c3d0:	208007c8 	cmpgei	r2,r4,31
   2c3d4:	0007883a 	mov	r3,zero
   2c3d8:	1000031e 	bne	r2,zero,2c3e8 <__ulp+0x54>
   2c3dc:	00a00034 	movhi	r2,32768
   2c3e0:	1104d83a 	srl	r2,r2,r4
   2c3e4:	f800283a 	ret
   2c3e8:	00800044 	movi	r2,1
   2c3ec:	f800283a 	ret

0002c3f0 <__b2d>:
   2c3f0:	defffa04 	addi	sp,sp,-24
   2c3f4:	dc400115 	stw	r17,4(sp)
   2c3f8:	24400417 	ldw	r17,16(r4)
   2c3fc:	dc000015 	stw	r16,0(sp)
   2c400:	24000504 	addi	r16,r4,20
   2c404:	882290ba 	slli	r17,r17,2
   2c408:	dc800215 	stw	r18,8(sp)
   2c40c:	dd000415 	stw	r20,16(sp)
   2c410:	8463883a 	add	r17,r16,r17
   2c414:	8cbfff17 	ldw	r18,-4(r17)
   2c418:	dcc00315 	stw	r19,12(sp)
   2c41c:	dfc00515 	stw	ra,20(sp)
   2c420:	9009883a 	mov	r4,r18
   2c424:	2827883a 	mov	r19,r5
   2c428:	002bad80 	call	2bad8 <__hi0bits>
   2c42c:	01000804 	movi	r4,32
   2c430:	2087c83a 	sub	r3,r4,r2
   2c434:	98c00015 	stw	r3,0(r19)
   2c438:	10c002c8 	cmpgei	r3,r2,11
   2c43c:	8d3fff04 	addi	r20,r17,-4
   2c440:	18001f26 	beq	r3,zero,2c4c0 <__b2d+0xd0>
   2c444:	10fffd44 	addi	r3,r2,-11
   2c448:	85000e2e 	bgeu	r16,r20,2c484 <__b2d+0x94>
   2c44c:	88bffe17 	ldw	r2,-8(r17)
   2c450:	18001226 	beq	r3,zero,2c49c <__b2d+0xac>
   2c454:	20c9c83a 	sub	r4,r4,r3
   2c458:	110cd83a 	srl	r6,r2,r4
   2c45c:	90e4983a 	sll	r18,r18,r3
   2c460:	10c4983a 	sll	r2,r2,r3
   2c464:	897ffe04 	addi	r5,r17,-8
   2c468:	9186b03a 	or	r3,r18,r6
   2c46c:	18cffc34 	orhi	r3,r3,16368
   2c470:	81400b2e 	bgeu	r16,r5,2c4a0 <__b2d+0xb0>
   2c474:	897ffd17 	ldw	r5,-12(r17)
   2c478:	2908d83a 	srl	r4,r5,r4
   2c47c:	1104b03a 	or	r2,r2,r4
   2c480:	00000706 	br	2c4a0 <__b2d+0xb0>
   2c484:	18000426 	beq	r3,zero,2c498 <__b2d+0xa8>
   2c488:	90c6983a 	sll	r3,r18,r3
   2c48c:	0005883a 	mov	r2,zero
   2c490:	18cffc34 	orhi	r3,r3,16368
   2c494:	00000206 	br	2c4a0 <__b2d+0xb0>
   2c498:	0005883a 	mov	r2,zero
   2c49c:	90cffc34 	orhi	r3,r18,16368
   2c4a0:	dfc00517 	ldw	ra,20(sp)
   2c4a4:	dd000417 	ldw	r20,16(sp)
   2c4a8:	dcc00317 	ldw	r19,12(sp)
   2c4ac:	dc800217 	ldw	r18,8(sp)
   2c4b0:	dc400117 	ldw	r17,4(sp)
   2c4b4:	dc000017 	ldw	r16,0(sp)
   2c4b8:	dec00604 	addi	sp,sp,24
   2c4bc:	f800283a 	ret
   2c4c0:	014002c4 	movi	r5,11
   2c4c4:	2889c83a 	sub	r4,r5,r2
   2c4c8:	9106d83a 	srl	r3,r18,r4
   2c4cc:	18cffc34 	orhi	r3,r3,16368
   2c4d0:	85000536 	bltu	r16,r20,2c4e8 <__b2d+0xf8>
   2c4d4:	000b883a 	mov	r5,zero
   2c4d8:	10800544 	addi	r2,r2,21
   2c4dc:	9084983a 	sll	r2,r18,r2
   2c4e0:	1144b03a 	or	r2,r2,r5
   2c4e4:	003fee06 	br	2c4a0 <__b2d+0xb0>
   2c4e8:	897ffe17 	ldw	r5,-8(r17)
   2c4ec:	290ad83a 	srl	r5,r5,r4
   2c4f0:	003ff906 	br	2c4d8 <__b2d+0xe8>

0002c4f4 <__d2b>:
   2c4f4:	defff804 	addi	sp,sp,-32
   2c4f8:	dd000615 	stw	r20,24(sp)
   2c4fc:	2829883a 	mov	r20,r5
   2c500:	01400044 	movi	r5,1
   2c504:	dcc00515 	stw	r19,20(sp)
   2c508:	dc000215 	stw	r16,8(sp)
   2c50c:	dfc00715 	stw	ra,28(sp)
   2c510:	dc800415 	stw	r18,16(sp)
   2c514:	dc400315 	stw	r17,12(sp)
   2c518:	3021883a 	mov	r16,r6
   2c51c:	3827883a 	mov	r19,r7
   2c520:	002b7a00 	call	2b7a0 <_Balloc>
   2c524:	10004526 	beq	r2,zero,2c63c <__d2b+0x148>
   2c528:	8024d53a 	srli	r18,r16,20
   2c52c:	01800434 	movhi	r6,16
   2c530:	31bfffc4 	addi	r6,r6,-1
   2c534:	9481ffcc 	andi	r18,r18,2047
   2c538:	1023883a 	mov	r17,r2
   2c53c:	81a0703a 	and	r16,r16,r6
   2c540:	90000126 	beq	r18,zero,2c548 <__d2b+0x54>
   2c544:	84000434 	orhi	r16,r16,16
   2c548:	dc000115 	stw	r16,4(sp)
   2c54c:	a0002226 	beq	r20,zero,2c5d8 <__d2b+0xe4>
   2c550:	d809883a 	mov	r4,sp
   2c554:	dd000015 	stw	r20,0(sp)
   2c558:	002bb3c0 	call	2bb3c <__lo0bits>
   2c55c:	d8c00117 	ldw	r3,4(sp)
   2c560:	10003326 	beq	r2,zero,2c630 <__d2b+0x13c>
   2c564:	01000804 	movi	r4,32
   2c568:	2089c83a 	sub	r4,r4,r2
   2c56c:	1908983a 	sll	r4,r3,r4
   2c570:	d9400017 	ldw	r5,0(sp)
   2c574:	1886d83a 	srl	r3,r3,r2
   2c578:	2148b03a 	or	r4,r4,r5
   2c57c:	89000515 	stw	r4,20(r17)
   2c580:	d8c00115 	stw	r3,4(sp)
   2c584:	88c00615 	stw	r3,24(r17)
   2c588:	1800271e 	bne	r3,zero,2c628 <__d2b+0x134>
   2c58c:	04000044 	movi	r16,1
   2c590:	8c000415 	stw	r16,16(r17)
   2c594:	90001926 	beq	r18,zero,2c5fc <__d2b+0x108>
   2c598:	00c00d44 	movi	r3,53
   2c59c:	94bef344 	addi	r18,r18,-1075
   2c5a0:	90a5883a 	add	r18,r18,r2
   2c5a4:	1885c83a 	sub	r2,r3,r2
   2c5a8:	d8c00817 	ldw	r3,32(sp)
   2c5ac:	9c800015 	stw	r18,0(r19)
   2c5b0:	18800015 	stw	r2,0(r3)
   2c5b4:	8805883a 	mov	r2,r17
   2c5b8:	dfc00717 	ldw	ra,28(sp)
   2c5bc:	dd000617 	ldw	r20,24(sp)
   2c5c0:	dcc00517 	ldw	r19,20(sp)
   2c5c4:	dc800417 	ldw	r18,16(sp)
   2c5c8:	dc400317 	ldw	r17,12(sp)
   2c5cc:	dc000217 	ldw	r16,8(sp)
   2c5d0:	dec00804 	addi	sp,sp,32
   2c5d4:	f800283a 	ret
   2c5d8:	d9000104 	addi	r4,sp,4
   2c5dc:	002bb3c0 	call	2bb3c <__lo0bits>
   2c5e0:	00c00044 	movi	r3,1
   2c5e4:	88c00415 	stw	r3,16(r17)
   2c5e8:	d8c00117 	ldw	r3,4(sp)
   2c5ec:	10800804 	addi	r2,r2,32
   2c5f0:	04000044 	movi	r16,1
   2c5f4:	88c00515 	stw	r3,20(r17)
   2c5f8:	903fe71e 	bne	r18,zero,2c598 <__d2b+0xa4>
   2c5fc:	800690ba 	slli	r3,r16,2
   2c600:	10bef384 	addi	r2,r2,-1074
   2c604:	98800015 	stw	r2,0(r19)
   2c608:	88c5883a 	add	r2,r17,r3
   2c60c:	11000417 	ldw	r4,16(r2)
   2c610:	8020917a 	slli	r16,r16,5
   2c614:	002bad80 	call	2bad8 <__hi0bits>
   2c618:	80a1c83a 	sub	r16,r16,r2
   2c61c:	d8800817 	ldw	r2,32(sp)
   2c620:	14000015 	stw	r16,0(r2)
   2c624:	003fe306 	br	2c5b4 <__d2b+0xc0>
   2c628:	04000084 	movi	r16,2
   2c62c:	003fd806 	br	2c590 <__d2b+0x9c>
   2c630:	d9000017 	ldw	r4,0(sp)
   2c634:	89000515 	stw	r4,20(r17)
   2c638:	003fd206 	br	2c584 <__d2b+0x90>
   2c63c:	01c000f4 	movhi	r7,3
   2c640:	010000f4 	movhi	r4,3
   2c644:	39d27604 	addi	r7,r7,18904
   2c648:	000d883a 	mov	r6,zero
   2c64c:	0140c284 	movi	r5,778
   2c650:	2112e204 	addi	r4,r4,19336
   2c654:	002e5400 	call	2e540 <__assert_func>

0002c658 <__ratio>:
   2c658:	defff904 	addi	sp,sp,-28
   2c65c:	dc400315 	stw	r17,12(sp)
   2c660:	2823883a 	mov	r17,r5
   2c664:	d80b883a 	mov	r5,sp
   2c668:	dfc00615 	stw	ra,24(sp)
   2c66c:	dcc00515 	stw	r19,20(sp)
   2c670:	dc800415 	stw	r18,16(sp)
   2c674:	2027883a 	mov	r19,r4
   2c678:	dc000215 	stw	r16,8(sp)
   2c67c:	002c3f00 	call	2c3f0 <__b2d>
   2c680:	d9400104 	addi	r5,sp,4
   2c684:	8809883a 	mov	r4,r17
   2c688:	1025883a 	mov	r18,r2
   2c68c:	1821883a 	mov	r16,r3
   2c690:	002c3f00 	call	2c3f0 <__b2d>
   2c694:	89400417 	ldw	r5,16(r17)
   2c698:	99000417 	ldw	r4,16(r19)
   2c69c:	d9800117 	ldw	r6,4(sp)
   2c6a0:	180f883a 	mov	r7,r3
   2c6a4:	2149c83a 	sub	r4,r4,r5
   2c6a8:	d9400017 	ldw	r5,0(sp)
   2c6ac:	2008917a 	slli	r4,r4,5
   2c6b0:	298bc83a 	sub	r5,r5,r6
   2c6b4:	2149883a 	add	r4,r4,r5
   2c6b8:	100d883a 	mov	r6,r2
   2c6bc:	01000c0e 	bge	zero,r4,2c6f0 <__ratio+0x98>
   2c6c0:	2008953a 	slli	r4,r4,20
   2c6c4:	2421883a 	add	r16,r4,r16
   2c6c8:	9009883a 	mov	r4,r18
   2c6cc:	800b883a 	mov	r5,r16
   2c6d0:	002fbc80 	call	2fbc8 <__divdf3>
   2c6d4:	dfc00617 	ldw	ra,24(sp)
   2c6d8:	dcc00517 	ldw	r19,20(sp)
   2c6dc:	dc800417 	ldw	r18,16(sp)
   2c6e0:	dc400317 	ldw	r17,12(sp)
   2c6e4:	dc000217 	ldw	r16,8(sp)
   2c6e8:	dec00704 	addi	sp,sp,28
   2c6ec:	f800283a 	ret
   2c6f0:	00bffc34 	movhi	r2,65520
   2c6f4:	2089383a 	mul	r4,r4,r2
   2c6f8:	20cf883a 	add	r7,r4,r3
   2c6fc:	003ff206 	br	2c6c8 <__ratio+0x70>

0002c700 <_mprec_log10>:
   2c700:	defffe04 	addi	sp,sp,-8
   2c704:	dc000015 	stw	r16,0(sp)
   2c708:	dfc00115 	stw	ra,4(sp)
   2c70c:	20800608 	cmpgei	r2,r4,24
   2c710:	2021883a 	mov	r16,r4
   2c714:	10000f26 	beq	r2,zero,2c754 <_mprec_log10+0x54>
   2c718:	0009883a 	mov	r4,zero
   2c71c:	014ffc34 	movhi	r5,16368
   2c720:	000d883a 	mov	r6,zero
   2c724:	01d00934 	movhi	r7,16420
   2c728:	00306880 	call	30688 <__muldf3>
   2c72c:	843fffc4 	addi	r16,r16,-1
   2c730:	1009883a 	mov	r4,r2
   2c734:	180b883a 	mov	r5,r3
   2c738:	803ff91e 	bne	r16,zero,2c720 <_mprec_log10+0x20>
   2c73c:	2005883a 	mov	r2,r4
   2c740:	2807883a 	mov	r3,r5
   2c744:	dfc00117 	ldw	ra,4(sp)
   2c748:	dc000017 	ldw	r16,0(sp)
   2c74c:	dec00204 	addi	sp,sp,8
   2c750:	f800283a 	ret
   2c754:	202090fa 	slli	r16,r4,3
   2c758:	008000f4 	movhi	r2,3
   2c75c:	10930804 	addi	r2,r2,19488
   2c760:	1421883a 	add	r16,r2,r16
   2c764:	81000017 	ldw	r4,0(r16)
   2c768:	81400117 	ldw	r5,4(r16)
   2c76c:	003ff306 	br	2c73c <_mprec_log10+0x3c>

0002c770 <__copybits>:
   2c770:	297fffc4 	addi	r5,r5,-1
   2c774:	280fd17a 	srai	r7,r5,5
   2c778:	31400417 	ldw	r5,16(r6)
   2c77c:	30800504 	addi	r2,r6,20
   2c780:	39c00044 	addi	r7,r7,1
   2c784:	280a90ba 	slli	r5,r5,2
   2c788:	380e90ba 	slli	r7,r7,2
   2c78c:	114b883a 	add	r5,r2,r5
   2c790:	21cf883a 	add	r7,r4,r7
   2c794:	11400c2e 	bgeu	r2,r5,2c7c8 <__copybits+0x58>
   2c798:	2007883a 	mov	r3,r4
   2c79c:	12000017 	ldw	r8,0(r2)
   2c7a0:	10800104 	addi	r2,r2,4
   2c7a4:	18c00104 	addi	r3,r3,4
   2c7a8:	1a3fff15 	stw	r8,-4(r3)
   2c7ac:	117ffb36 	bltu	r2,r5,2c79c <__copybits+0x2c>
   2c7b0:	2985c83a 	sub	r2,r5,r6
   2c7b4:	10bffac4 	addi	r2,r2,-21
   2c7b8:	1004d0ba 	srli	r2,r2,2
   2c7bc:	10800044 	addi	r2,r2,1
   2c7c0:	100490ba 	slli	r2,r2,2
   2c7c4:	2089883a 	add	r4,r4,r2
   2c7c8:	21c0032e 	bgeu	r4,r7,2c7d8 <__copybits+0x68>
   2c7cc:	21000104 	addi	r4,r4,4
   2c7d0:	203fff15 	stw	zero,-4(r4)
   2c7d4:	21fffd36 	bltu	r4,r7,2c7cc <__copybits+0x5c>
   2c7d8:	f800283a 	ret

0002c7dc <__any_on>:
   2c7dc:	20c00417 	ldw	r3,16(r4)
   2c7e0:	280dd17a 	srai	r6,r5,5
   2c7e4:	21000504 	addi	r4,r4,20
   2c7e8:	1980080e 	bge	r3,r6,2c80c <__any_on+0x30>
   2c7ec:	180490ba 	slli	r2,r3,2
   2c7f0:	2085883a 	add	r2,r4,r2
   2c7f4:	20800f2e 	bgeu	r4,r2,2c834 <__any_on+0x58>
   2c7f8:	10ffff17 	ldw	r3,-4(r2)
   2c7fc:	10bfff04 	addi	r2,r2,-4
   2c800:	183ffc26 	beq	r3,zero,2c7f4 <__any_on+0x18>
   2c804:	00800044 	movi	r2,1
   2c808:	f800283a 	ret
   2c80c:	300490ba 	slli	r2,r6,2
   2c810:	2085883a 	add	r2,r4,r2
   2c814:	30fff70e 	bge	r6,r3,2c7f4 <__any_on+0x18>
   2c818:	294007cc 	andi	r5,r5,31
   2c81c:	283ff526 	beq	r5,zero,2c7f4 <__any_on+0x18>
   2c820:	11800017 	ldw	r6,0(r2)
   2c824:	3146d83a 	srl	r3,r6,r5
   2c828:	194a983a 	sll	r5,r3,r5
   2c82c:	317ff51e 	bne	r6,r5,2c804 <__any_on+0x28>
   2c830:	003ff006 	br	2c7f4 <__any_on+0x18>
   2c834:	0005883a 	mov	r2,zero
   2c838:	f800283a 	ret

0002c83c <_read_r>:
   2c83c:	2807883a 	mov	r3,r5
   2c840:	defffe04 	addi	sp,sp,-8
   2c844:	dc000015 	stw	r16,0(sp)
   2c848:	300b883a 	mov	r5,r6
   2c84c:	00800134 	movhi	r2,4
   2c850:	380d883a 	mov	r6,r7
   2c854:	2021883a 	mov	r16,r4
   2c858:	1809883a 	mov	r4,r3
   2c85c:	dfc00115 	stw	ra,4(sp)
   2c860:	10220b15 	stw	zero,-30676(r2)
   2c864:	00324f40 	call	324f4 <read>
   2c868:	10ffffd8 	cmpnei	r3,r2,-1
   2c86c:	18000426 	beq	r3,zero,2c880 <_read_r+0x44>
   2c870:	dfc00117 	ldw	ra,4(sp)
   2c874:	dc000017 	ldw	r16,0(sp)
   2c878:	dec00204 	addi	sp,sp,8
   2c87c:	f800283a 	ret
   2c880:	00c00134 	movhi	r3,4
   2c884:	18e20b17 	ldw	r3,-30676(r3)
   2c888:	183ff926 	beq	r3,zero,2c870 <_read_r+0x34>
   2c88c:	80c00015 	stw	r3,0(r16)
   2c890:	dfc00117 	ldw	ra,4(sp)
   2c894:	dc000017 	ldw	r16,0(sp)
   2c898:	dec00204 	addi	sp,sp,8
   2c89c:	f800283a 	ret

0002c8a0 <_realloc_r>:
   2c8a0:	defff504 	addi	sp,sp,-44
   2c8a4:	dc800315 	stw	r18,12(sp)
   2c8a8:	dfc00a15 	stw	ra,40(sp)
   2c8ac:	df000915 	stw	fp,36(sp)
   2c8b0:	ddc00815 	stw	r23,32(sp)
   2c8b4:	dd800715 	stw	r22,28(sp)
   2c8b8:	dd400615 	stw	r21,24(sp)
   2c8bc:	dd000515 	stw	r20,20(sp)
   2c8c0:	dcc00415 	stw	r19,16(sp)
   2c8c4:	dc400215 	stw	r17,8(sp)
   2c8c8:	dc000115 	stw	r16,4(sp)
   2c8cc:	3025883a 	mov	r18,r6
   2c8d0:	28008b26 	beq	r5,zero,2cb00 <_realloc_r+0x260>
   2c8d4:	2821883a 	mov	r16,r5
   2c8d8:	2027883a 	mov	r19,r4
   2c8dc:	944002c4 	addi	r17,r18,11
   2c8e0:	0031fcc0 	call	31fcc <__malloc_lock>
   2c8e4:	888005f0 	cmpltui	r2,r17,23
   2c8e8:	1000521e 	bne	r2,zero,2ca34 <_realloc_r+0x194>
   2c8ec:	017ffe04 	movi	r5,-8
   2c8f0:	8962703a 	and	r17,r17,r5
   2c8f4:	8807883a 	mov	r3,r17
   2c8f8:	88005116 	blt	r17,zero,2ca40 <_realloc_r+0x1a0>
   2c8fc:	8c805036 	bltu	r17,r18,2ca40 <_realloc_r+0x1a0>
   2c900:	80bfff17 	ldw	r2,-4(r16)
   2c904:	017fff04 	movi	r5,-4
   2c908:	857ffe04 	addi	r21,r16,-8
   2c90c:	1168703a 	and	r20,r2,r5
   2c910:	ad2d883a 	add	r22,r21,r20
   2c914:	a0c0390e 	bge	r20,r3,2c9fc <_realloc_r+0x15c>
   2c918:	070000f4 	movhi	fp,3
   2c91c:	e7150d04 	addi	fp,fp,21556
   2c920:	e2000217 	ldw	r8,8(fp)
   2c924:	b1000117 	ldw	r4,4(r22)
   2c928:	45808e26 	beq	r8,r22,2cb64 <_realloc_r+0x2c4>
   2c92c:	01bfff84 	movi	r6,-2
   2c930:	218c703a 	and	r6,r4,r6
   2c934:	b18d883a 	add	r6,r22,r6
   2c938:	31800117 	ldw	r6,4(r6)
   2c93c:	3180004c 	andi	r6,r6,1
   2c940:	30004f1e 	bne	r6,zero,2ca80 <_realloc_r+0x1e0>
   2c944:	2148703a 	and	r4,r4,r5
   2c948:	a10b883a 	add	r5,r20,r4
   2c94c:	28c0bf0e 	bge	r5,r3,2cc4c <_realloc_r+0x3ac>
   2c950:	1080004c 	andi	r2,r2,1
   2c954:	10004c1e 	bne	r2,zero,2ca88 <_realloc_r+0x1e8>
   2c958:	81fffe17 	ldw	r7,-8(r16)
   2c95c:	00bfff04 	movi	r2,-4
   2c960:	a9cfc83a 	sub	r7,r21,r7
   2c964:	39400117 	ldw	r5,4(r7)
   2c968:	288a703a 	and	r5,r5,r2
   2c96c:	b0000426 	beq	r22,zero,2c980 <_realloc_r+0xe0>
   2c970:	a16f883a 	add	r23,r20,r5
   2c974:	b92f883a 	add	r23,r23,r4
   2c978:	4580bf26 	beq	r8,r22,2cc78 <_realloc_r+0x3d8>
   2c97c:	b8c0930e 	bge	r23,r3,2cbcc <_realloc_r+0x32c>
   2c980:	38004126 	beq	r7,zero,2ca88 <_realloc_r+0x1e8>
   2c984:	a16f883a 	add	r23,r20,r5
   2c988:	b8c03f16 	blt	r23,r3,2ca88 <_realloc_r+0x1e8>
   2c98c:	38800317 	ldw	r2,12(r7)
   2c990:	38c00217 	ldw	r3,8(r7)
   2c994:	a1bfff04 	addi	r6,r20,-4
   2c998:	31400968 	cmpgeui	r5,r6,37
   2c99c:	18800315 	stw	r2,12(r3)
   2c9a0:	10c00215 	stw	r3,8(r2)
   2c9a4:	39000204 	addi	r4,r7,8
   2c9a8:	3ded883a 	add	r22,r7,r23
   2c9ac:	2800941e 	bne	r5,zero,2cc00 <_realloc_r+0x360>
   2c9b0:	30800530 	cmpltui	r2,r6,20
   2c9b4:	80c00017 	ldw	r3,0(r16)
   2c9b8:	1000df1e 	bne	r2,zero,2cd38 <_realloc_r+0x498>
   2c9bc:	38c00215 	stw	r3,8(r7)
   2c9c0:	80c00117 	ldw	r3,4(r16)
   2c9c4:	30800728 	cmpgeui	r2,r6,28
   2c9c8:	38c00315 	stw	r3,12(r7)
   2c9cc:	1000dc1e 	bne	r2,zero,2cd40 <_realloc_r+0x4a0>
   2c9d0:	80c00217 	ldw	r3,8(r16)
   2c9d4:	38800404 	addi	r2,r7,16
   2c9d8:	84000204 	addi	r16,r16,8
   2c9dc:	10c00015 	stw	r3,0(r2)
   2c9e0:	80c00117 	ldw	r3,4(r16)
   2c9e4:	b829883a 	mov	r20,r23
   2c9e8:	382b883a 	mov	r21,r7
   2c9ec:	10c00115 	stw	r3,4(r2)
   2c9f0:	80c00217 	ldw	r3,8(r16)
   2c9f4:	2021883a 	mov	r16,r4
   2c9f8:	10c00215 	stw	r3,8(r2)
   2c9fc:	a9800117 	ldw	r6,4(r21)
   2ca00:	a445c83a 	sub	r2,r20,r17
   2ca04:	10c00430 	cmpltui	r3,r2,16
   2ca08:	3180004c 	andi	r6,r6,1
   2ca0c:	18004926 	beq	r3,zero,2cb34 <_realloc_r+0x294>
   2ca10:	a18cb03a 	or	r6,r20,r6
   2ca14:	a9800115 	stw	r6,4(r21)
   2ca18:	b0800117 	ldw	r2,4(r22)
   2ca1c:	10800054 	ori	r2,r2,1
   2ca20:	b0800115 	stw	r2,4(r22)
   2ca24:	9809883a 	mov	r4,r19
   2ca28:	0031ff00 	call	31ff0 <__malloc_unlock>
   2ca2c:	8025883a 	mov	r18,r16
   2ca30:	00000606 	br	2ca4c <_realloc_r+0x1ac>
   2ca34:	04400404 	movi	r17,16
   2ca38:	00c00404 	movi	r3,16
   2ca3c:	8cbfb02e 	bgeu	r17,r18,2c900 <_realloc_r+0x60>
   2ca40:	00800304 	movi	r2,12
   2ca44:	98800015 	stw	r2,0(r19)
   2ca48:	0025883a 	mov	r18,zero
   2ca4c:	9005883a 	mov	r2,r18
   2ca50:	dfc00a17 	ldw	ra,40(sp)
   2ca54:	df000917 	ldw	fp,36(sp)
   2ca58:	ddc00817 	ldw	r23,32(sp)
   2ca5c:	dd800717 	ldw	r22,28(sp)
   2ca60:	dd400617 	ldw	r21,24(sp)
   2ca64:	dd000517 	ldw	r20,20(sp)
   2ca68:	dcc00417 	ldw	r19,16(sp)
   2ca6c:	dc800317 	ldw	r18,12(sp)
   2ca70:	dc400217 	ldw	r17,8(sp)
   2ca74:	dc000117 	ldw	r16,4(sp)
   2ca78:	dec00b04 	addi	sp,sp,44
   2ca7c:	f800283a 	ret
   2ca80:	1080004c 	andi	r2,r2,1
   2ca84:	10006c26 	beq	r2,zero,2cc38 <_realloc_r+0x398>
   2ca88:	900b883a 	mov	r5,r18
   2ca8c:	9809883a 	mov	r4,r19
   2ca90:	0023dc40 	call	23dc4 <_malloc_r>
   2ca94:	1025883a 	mov	r18,r2
   2ca98:	10001626 	beq	r2,zero,2caf4 <_realloc_r+0x254>
   2ca9c:	80bfff17 	ldw	r2,-4(r16)
   2caa0:	013fff84 	movi	r4,-2
   2caa4:	90fffe04 	addi	r3,r18,-8
   2caa8:	1104703a 	and	r2,r2,r4
   2caac:	a885883a 	add	r2,r21,r2
   2cab0:	10c05b26 	beq	r2,r3,2cc20 <_realloc_r+0x380>
   2cab4:	a1bfff04 	addi	r6,r20,-4
   2cab8:	30800968 	cmpgeui	r2,r6,37
   2cabc:	10006a1e 	bne	r2,zero,2cc68 <_realloc_r+0x3c8>
   2cac0:	30800530 	cmpltui	r2,r6,20
   2cac4:	81000017 	ldw	r4,0(r16)
   2cac8:	10003726 	beq	r2,zero,2cba8 <_realloc_r+0x308>
   2cacc:	9005883a 	mov	r2,r18
   2cad0:	8007883a 	mov	r3,r16
   2cad4:	11000015 	stw	r4,0(r2)
   2cad8:	19000117 	ldw	r4,4(r3)
   2cadc:	11000115 	stw	r4,4(r2)
   2cae0:	18c00217 	ldw	r3,8(r3)
   2cae4:	10c00215 	stw	r3,8(r2)
   2cae8:	800b883a 	mov	r5,r16
   2caec:	9809883a 	mov	r4,r19
   2caf0:	002309c0 	call	2309c <_free_r>
   2caf4:	9809883a 	mov	r4,r19
   2caf8:	0031ff00 	call	31ff0 <__malloc_unlock>
   2cafc:	003fd306 	br	2ca4c <_realloc_r+0x1ac>
   2cb00:	300b883a 	mov	r5,r6
   2cb04:	dfc00a17 	ldw	ra,40(sp)
   2cb08:	df000917 	ldw	fp,36(sp)
   2cb0c:	ddc00817 	ldw	r23,32(sp)
   2cb10:	dd800717 	ldw	r22,28(sp)
   2cb14:	dd400617 	ldw	r21,24(sp)
   2cb18:	dd000517 	ldw	r20,20(sp)
   2cb1c:	dcc00417 	ldw	r19,16(sp)
   2cb20:	dc800317 	ldw	r18,12(sp)
   2cb24:	dc400217 	ldw	r17,8(sp)
   2cb28:	dc000117 	ldw	r16,4(sp)
   2cb2c:	dec00b04 	addi	sp,sp,44
   2cb30:	0023dc41 	jmpi	23dc4 <_malloc_r>
   2cb34:	344cb03a 	or	r6,r6,r17
   2cb38:	a9800115 	stw	r6,4(r21)
   2cb3c:	ac4b883a 	add	r5,r21,r17
   2cb40:	10800054 	ori	r2,r2,1
   2cb44:	28800115 	stw	r2,4(r5)
   2cb48:	b0800117 	ldw	r2,4(r22)
   2cb4c:	29400204 	addi	r5,r5,8
   2cb50:	9809883a 	mov	r4,r19
   2cb54:	10800054 	ori	r2,r2,1
   2cb58:	b0800115 	stw	r2,4(r22)
   2cb5c:	002309c0 	call	2309c <_free_r>
   2cb60:	003fb006 	br	2ca24 <_realloc_r+0x184>
   2cb64:	2148703a 	and	r4,r4,r5
   2cb68:	a10b883a 	add	r5,r20,r4
   2cb6c:	89800404 	addi	r6,r17,16
   2cb70:	29bf7716 	blt	r5,r6,2c950 <_realloc_r+0xb0>
   2cb74:	ac6b883a 	add	r21,r21,r17
   2cb78:	2c45c83a 	sub	r2,r5,r17
   2cb7c:	e5400215 	stw	r21,8(fp)
   2cb80:	10800054 	ori	r2,r2,1
   2cb84:	a8800115 	stw	r2,4(r21)
   2cb88:	80bfff17 	ldw	r2,-4(r16)
   2cb8c:	9809883a 	mov	r4,r19
   2cb90:	8025883a 	mov	r18,r16
   2cb94:	1080004c 	andi	r2,r2,1
   2cb98:	1462b03a 	or	r17,r2,r17
   2cb9c:	847fff15 	stw	r17,-4(r16)
   2cba0:	0031ff00 	call	31ff0 <__malloc_unlock>
   2cba4:	003fa906 	br	2ca4c <_realloc_r+0x1ac>
   2cba8:	91000015 	stw	r4,0(r18)
   2cbac:	80c00117 	ldw	r3,4(r16)
   2cbb0:	30800728 	cmpgeui	r2,r6,28
   2cbb4:	90c00115 	stw	r3,4(r18)
   2cbb8:	1000551e 	bne	r2,zero,2cd10 <_realloc_r+0x470>
   2cbbc:	81000217 	ldw	r4,8(r16)
   2cbc0:	80c00204 	addi	r3,r16,8
   2cbc4:	90800204 	addi	r2,r18,8
   2cbc8:	003fc206 	br	2cad4 <_realloc_r+0x234>
   2cbcc:	b0800317 	ldw	r2,12(r22)
   2cbd0:	b0c00217 	ldw	r3,8(r22)
   2cbd4:	a1bfff04 	addi	r6,r20,-4
   2cbd8:	31400968 	cmpgeui	r5,r6,37
   2cbdc:	18800315 	stw	r2,12(r3)
   2cbe0:	10c00215 	stw	r3,8(r2)
   2cbe4:	38c00217 	ldw	r3,8(r7)
   2cbe8:	38800317 	ldw	r2,12(r7)
   2cbec:	39000204 	addi	r4,r7,8
   2cbf0:	3ded883a 	add	r22,r7,r23
   2cbf4:	18800315 	stw	r2,12(r3)
   2cbf8:	10c00215 	stw	r3,8(r2)
   2cbfc:	283f6c26 	beq	r5,zero,2c9b0 <_realloc_r+0x110>
   2cc00:	800b883a 	mov	r5,r16
   2cc04:	d9c00015 	stw	r7,0(sp)
   2cc08:	002b6740 	call	2b674 <memmove>
   2cc0c:	d9c00017 	ldw	r7,0(sp)
   2cc10:	1021883a 	mov	r16,r2
   2cc14:	b829883a 	mov	r20,r23
   2cc18:	382b883a 	mov	r21,r7
   2cc1c:	003f7706 	br	2c9fc <_realloc_r+0x15c>
   2cc20:	90bfff17 	ldw	r2,-4(r18)
   2cc24:	00ffff04 	movi	r3,-4
   2cc28:	10c4703a 	and	r2,r2,r3
   2cc2c:	a0a9883a 	add	r20,r20,r2
   2cc30:	ad2d883a 	add	r22,r21,r20
   2cc34:	003f7106 	br	2c9fc <_realloc_r+0x15c>
   2cc38:	81fffe17 	ldw	r7,-8(r16)
   2cc3c:	a9cfc83a 	sub	r7,r21,r7
   2cc40:	39000117 	ldw	r4,4(r7)
   2cc44:	214a703a 	and	r5,r4,r5
   2cc48:	003f4d06 	br	2c980 <_realloc_r+0xe0>
   2cc4c:	b0800317 	ldw	r2,12(r22)
   2cc50:	b0c00217 	ldw	r3,8(r22)
   2cc54:	2829883a 	mov	r20,r5
   2cc58:	a96d883a 	add	r22,r21,r5
   2cc5c:	18800315 	stw	r2,12(r3)
   2cc60:	10c00215 	stw	r3,8(r2)
   2cc64:	003f6506 	br	2c9fc <_realloc_r+0x15c>
   2cc68:	800b883a 	mov	r5,r16
   2cc6c:	9009883a 	mov	r4,r18
   2cc70:	002b6740 	call	2b674 <memmove>
   2cc74:	003f9c06 	br	2cae8 <_realloc_r+0x248>
   2cc78:	88800404 	addi	r2,r17,16
   2cc7c:	b8bf4016 	blt	r23,r2,2c980 <_realloc_r+0xe0>
   2cc80:	38800317 	ldw	r2,12(r7)
   2cc84:	38c00217 	ldw	r3,8(r7)
   2cc88:	a1bfff04 	addi	r6,r20,-4
   2cc8c:	31000968 	cmpgeui	r4,r6,37
   2cc90:	18800315 	stw	r2,12(r3)
   2cc94:	10c00215 	stw	r3,8(r2)
   2cc98:	3c800204 	addi	r18,r7,8
   2cc9c:	20003b1e 	bne	r4,zero,2cd8c <_realloc_r+0x4ec>
   2cca0:	30800530 	cmpltui	r2,r6,20
   2cca4:	80c00017 	ldw	r3,0(r16)
   2cca8:	1000361e 	bne	r2,zero,2cd84 <_realloc_r+0x4e4>
   2ccac:	38c00215 	stw	r3,8(r7)
   2ccb0:	80c00117 	ldw	r3,4(r16)
   2ccb4:	30800728 	cmpgeui	r2,r6,28
   2ccb8:	38c00315 	stw	r3,12(r7)
   2ccbc:	1000401e 	bne	r2,zero,2cdc0 <_realloc_r+0x520>
   2ccc0:	80c00217 	ldw	r3,8(r16)
   2ccc4:	38800404 	addi	r2,r7,16
   2ccc8:	84000204 	addi	r16,r16,8
   2cccc:	10c00015 	stw	r3,0(r2)
   2ccd0:	80c00117 	ldw	r3,4(r16)
   2ccd4:	10c00115 	stw	r3,4(r2)
   2ccd8:	80c00217 	ldw	r3,8(r16)
   2ccdc:	10c00215 	stw	r3,8(r2)
   2cce0:	3c47883a 	add	r3,r7,r17
   2cce4:	bc45c83a 	sub	r2,r23,r17
   2cce8:	e0c00215 	stw	r3,8(fp)
   2ccec:	10800054 	ori	r2,r2,1
   2ccf0:	18800115 	stw	r2,4(r3)
   2ccf4:	38800117 	ldw	r2,4(r7)
   2ccf8:	9809883a 	mov	r4,r19
   2ccfc:	1080004c 	andi	r2,r2,1
   2cd00:	1462b03a 	or	r17,r2,r17
   2cd04:	3c400115 	stw	r17,4(r7)
   2cd08:	0031ff00 	call	31ff0 <__malloc_unlock>
   2cd0c:	003f4f06 	br	2ca4c <_realloc_r+0x1ac>
   2cd10:	80800217 	ldw	r2,8(r16)
   2cd14:	31800920 	cmpeqi	r6,r6,36
   2cd18:	90800215 	stw	r2,8(r18)
   2cd1c:	80800317 	ldw	r2,12(r16)
   2cd20:	90800315 	stw	r2,12(r18)
   2cd24:	81000417 	ldw	r4,16(r16)
   2cd28:	30000f1e 	bne	r6,zero,2cd68 <_realloc_r+0x4c8>
   2cd2c:	80c00404 	addi	r3,r16,16
   2cd30:	90800404 	addi	r2,r18,16
   2cd34:	003f6706 	br	2cad4 <_realloc_r+0x234>
   2cd38:	2005883a 	mov	r2,r4
   2cd3c:	003f2706 	br	2c9dc <_realloc_r+0x13c>
   2cd40:	80800217 	ldw	r2,8(r16)
   2cd44:	31800920 	cmpeqi	r6,r6,36
   2cd48:	38800415 	stw	r2,16(r7)
   2cd4c:	80800317 	ldw	r2,12(r16)
   2cd50:	38800515 	stw	r2,20(r7)
   2cd54:	80c00417 	ldw	r3,16(r16)
   2cd58:	3000121e 	bne	r6,zero,2cda4 <_realloc_r+0x504>
   2cd5c:	38800604 	addi	r2,r7,24
   2cd60:	84000404 	addi	r16,r16,16
   2cd64:	003f1d06 	br	2c9dc <_realloc_r+0x13c>
   2cd68:	91000415 	stw	r4,16(r18)
   2cd6c:	81000517 	ldw	r4,20(r16)
   2cd70:	80c00604 	addi	r3,r16,24
   2cd74:	90800604 	addi	r2,r18,24
   2cd78:	91000515 	stw	r4,20(r18)
   2cd7c:	81000617 	ldw	r4,24(r16)
   2cd80:	003f5406 	br	2cad4 <_realloc_r+0x234>
   2cd84:	9005883a 	mov	r2,r18
   2cd88:	003fd006 	br	2cccc <_realloc_r+0x42c>
   2cd8c:	800b883a 	mov	r5,r16
   2cd90:	9009883a 	mov	r4,r18
   2cd94:	d9c00015 	stw	r7,0(sp)
   2cd98:	002b6740 	call	2b674 <memmove>
   2cd9c:	d9c00017 	ldw	r7,0(sp)
   2cda0:	003fcf06 	br	2cce0 <_realloc_r+0x440>
   2cda4:	84000604 	addi	r16,r16,24
   2cda8:	38c00615 	stw	r3,24(r7)
   2cdac:	80ffff17 	ldw	r3,-4(r16)
   2cdb0:	38800804 	addi	r2,r7,32
   2cdb4:	38c00715 	stw	r3,28(r7)
   2cdb8:	80c00017 	ldw	r3,0(r16)
   2cdbc:	003f0706 	br	2c9dc <_realloc_r+0x13c>
   2cdc0:	80800217 	ldw	r2,8(r16)
   2cdc4:	31800920 	cmpeqi	r6,r6,36
   2cdc8:	38800415 	stw	r2,16(r7)
   2cdcc:	80800317 	ldw	r2,12(r16)
   2cdd0:	38800515 	stw	r2,20(r7)
   2cdd4:	80c00417 	ldw	r3,16(r16)
   2cdd8:	3000031e 	bne	r6,zero,2cde8 <_realloc_r+0x548>
   2cddc:	38800604 	addi	r2,r7,24
   2cde0:	84000404 	addi	r16,r16,16
   2cde4:	003fb906 	br	2cccc <_realloc_r+0x42c>
   2cde8:	84000604 	addi	r16,r16,24
   2cdec:	38c00615 	stw	r3,24(r7)
   2cdf0:	80ffff17 	ldw	r3,-4(r16)
   2cdf4:	38800804 	addi	r2,r7,32
   2cdf8:	38c00715 	stw	r3,28(r7)
   2cdfc:	80c00017 	ldw	r3,0(r16)
   2ce00:	003fb206 	br	2cccc <_realloc_r+0x42c>

0002ce04 <strcmp>:
   2ce04:	2144b03a 	or	r2,r4,r5
   2ce08:	108000cc 	andi	r2,r2,3
   2ce0c:	1000141e 	bne	r2,zero,2ce60 <strcmp+0x5c>
   2ce10:	20800017 	ldw	r2,0(r4)
   2ce14:	28c00017 	ldw	r3,0(r5)
   2ce18:	10c0111e 	bne	r2,r3,2ce60 <strcmp+0x5c>
   2ce1c:	01ffbff4 	movhi	r7,65279
   2ce20:	01a02074 	movhi	r6,32897
   2ce24:	39ffbfc4 	addi	r7,r7,-257
   2ce28:	31a02004 	addi	r6,r6,-32640
   2ce2c:	00000306 	br	2ce3c <strcmp+0x38>
   2ce30:	20800017 	ldw	r2,0(r4)
   2ce34:	28c00017 	ldw	r3,0(r5)
   2ce38:	10c0091e 	bne	r2,r3,2ce60 <strcmp+0x5c>
   2ce3c:	11c7883a 	add	r3,r2,r7
   2ce40:	0084303a 	nor	r2,zero,r2
   2ce44:	1884703a 	and	r2,r3,r2
   2ce48:	1184703a 	and	r2,r2,r6
   2ce4c:	21000104 	addi	r4,r4,4
   2ce50:	29400104 	addi	r5,r5,4
   2ce54:	103ff626 	beq	r2,zero,2ce30 <strcmp+0x2c>
   2ce58:	0005883a 	mov	r2,zero
   2ce5c:	f800283a 	ret
   2ce60:	20c00003 	ldbu	r3,0(r4)
   2ce64:	18803fcc 	andi	r2,r3,255
   2ce68:	1080201c 	xori	r2,r2,128
   2ce6c:	10bfe004 	addi	r2,r2,-128
   2ce70:	1000071e 	bne	r2,zero,2ce90 <strcmp+0x8c>
   2ce74:	00000a06 	br	2cea0 <strcmp+0x9c>
   2ce78:	20c00003 	ldbu	r3,0(r4)
   2ce7c:	29400044 	addi	r5,r5,1
   2ce80:	18803fcc 	andi	r2,r3,255
   2ce84:	1080201c 	xori	r2,r2,128
   2ce88:	10bfe004 	addi	r2,r2,-128
   2ce8c:	10000726 	beq	r2,zero,2ceac <strcmp+0xa8>
   2ce90:	29800007 	ldb	r6,0(r5)
   2ce94:	21000044 	addi	r4,r4,1
   2ce98:	30bff726 	beq	r6,r2,2ce78 <strcmp+0x74>
   2ce9c:	18803fcc 	andi	r2,r3,255
   2cea0:	28c00003 	ldbu	r3,0(r5)
   2cea4:	10c5c83a 	sub	r2,r2,r3
   2cea8:	f800283a 	ret
   2ceac:	28c00003 	ldbu	r3,0(r5)
   2ceb0:	0005883a 	mov	r2,zero
   2ceb4:	10c5c83a 	sub	r2,r2,r3
   2ceb8:	f800283a 	ret

0002cebc <strlen>:
   2cebc:	208000cc 	andi	r2,r4,3
   2cec0:	10000926 	beq	r2,zero,2cee8 <strlen+0x2c>
   2cec4:	2005883a 	mov	r2,r4
   2cec8:	00000306 	br	2ced8 <strlen+0x1c>
   2cecc:	10800044 	addi	r2,r2,1
   2ced0:	10c000cc 	andi	r3,r2,3
   2ced4:	18000526 	beq	r3,zero,2ceec <strlen+0x30>
   2ced8:	10c00007 	ldb	r3,0(r2)
   2cedc:	183ffb1e 	bne	r3,zero,2cecc <strlen+0x10>
   2cee0:	1105c83a 	sub	r2,r2,r4
   2cee4:	f800283a 	ret
   2cee8:	2005883a 	mov	r2,r4
   2ceec:	11400017 	ldw	r5,0(r2)
   2cef0:	01ffbff4 	movhi	r7,65279
   2cef4:	39ffbfc4 	addi	r7,r7,-257
   2cef8:	29c7883a 	add	r3,r5,r7
   2cefc:	01a02074 	movhi	r6,32897
   2cf00:	014a303a 	nor	r5,zero,r5
   2cf04:	1946703a 	and	r3,r3,r5
   2cf08:	31a02004 	addi	r6,r6,-32640
   2cf0c:	1986703a 	and	r3,r3,r6
   2cf10:	1800071e 	bne	r3,zero,2cf30 <strlen+0x74>
   2cf14:	11400117 	ldw	r5,4(r2)
   2cf18:	10800104 	addi	r2,r2,4
   2cf1c:	29c7883a 	add	r3,r5,r7
   2cf20:	014a303a 	nor	r5,zero,r5
   2cf24:	1946703a 	and	r3,r3,r5
   2cf28:	1986703a 	and	r3,r3,r6
   2cf2c:	183ff926 	beq	r3,zero,2cf14 <strlen+0x58>
   2cf30:	10c00007 	ldb	r3,0(r2)
   2cf34:	183fea26 	beq	r3,zero,2cee0 <strlen+0x24>
   2cf38:	10c00047 	ldb	r3,1(r2)
   2cf3c:	10800044 	addi	r2,r2,1
   2cf40:	183fe726 	beq	r3,zero,2cee0 <strlen+0x24>
   2cf44:	10c00047 	ldb	r3,1(r2)
   2cf48:	10800044 	addi	r2,r2,1
   2cf4c:	183ffa1e 	bne	r3,zero,2cf38 <strlen+0x7c>
   2cf50:	003fe306 	br	2cee0 <strlen+0x24>

0002cf54 <strncmp>:
   2cf54:	30002926 	beq	r6,zero,2cffc <strncmp+0xa8>
   2cf58:	2144b03a 	or	r2,r4,r5
   2cf5c:	108000cc 	andi	r2,r2,3
   2cf60:	1000151e 	bne	r2,zero,2cfb8 <strncmp+0x64>
   2cf64:	30800128 	cmpgeui	r2,r6,4
   2cf68:	10001326 	beq	r2,zero,2cfb8 <strncmp+0x64>
   2cf6c:	02bfbff4 	movhi	r10,65279
   2cf70:	02602074 	movhi	r9,32897
   2cf74:	52bfbfc4 	addi	r10,r10,-257
   2cf78:	4a602004 	addi	r9,r9,-32640
   2cf7c:	00000706 	br	2cf9c <strncmp+0x48>
   2cf80:	31bfff04 	addi	r6,r6,-4
   2cf84:	30c00130 	cmpltui	r3,r6,4
   2cf88:	30001c26 	beq	r6,zero,2cffc <strncmp+0xa8>
   2cf8c:	10001b1e 	bne	r2,zero,2cffc <strncmp+0xa8>
   2cf90:	21000104 	addi	r4,r4,4
   2cf94:	29400104 	addi	r5,r5,4
   2cf98:	1800071e 	bne	r3,zero,2cfb8 <strncmp+0x64>
   2cf9c:	20c00017 	ldw	r3,0(r4)
   2cfa0:	29c00017 	ldw	r7,0(r5)
   2cfa4:	1a85883a 	add	r2,r3,r10
   2cfa8:	00d0303a 	nor	r8,zero,r3
   2cfac:	1204703a 	and	r2,r2,r8
   2cfb0:	1244703a 	and	r2,r2,r9
   2cfb4:	19fff226 	beq	r3,r7,2cf80 <strncmp+0x2c>
   2cfb8:	21c00007 	ldb	r7,0(r4)
   2cfbc:	28800007 	ldb	r2,0(r5)
   2cfc0:	3880101e 	bne	r7,r2,2d004 <strncmp+0xb0>
   2cfc4:	30800060 	cmpeqi	r2,r6,1
   2cfc8:	10000c1e 	bne	r2,zero,2cffc <strncmp+0xa8>
   2cfcc:	2807883a 	mov	r3,r5
   2cfd0:	00000406 	br	2cfe4 <strncmp+0x90>
   2cfd4:	21c00007 	ldb	r7,0(r4)
   2cfd8:	1a000007 	ldb	r8,0(r3)
   2cfdc:	3a000a1e 	bne	r7,r8,2d008 <strncmp+0xb4>
   2cfe0:	10000626 	beq	r2,zero,2cffc <strncmp+0xa8>
   2cfe4:	18c00044 	addi	r3,r3,1
   2cfe8:	00c4303a 	nor	r2,zero,r3
   2cfec:	1185883a 	add	r2,r2,r6
   2cff0:	21000044 	addi	r4,r4,1
   2cff4:	2885883a 	add	r2,r5,r2
   2cff8:	383ff61e 	bne	r7,zero,2cfd4 <strncmp+0x80>
   2cffc:	0005883a 	mov	r2,zero
   2d000:	f800283a 	ret
   2d004:	2807883a 	mov	r3,r5
   2d008:	20800003 	ldbu	r2,0(r4)
   2d00c:	18c00003 	ldbu	r3,0(r3)
   2d010:	10c5c83a 	sub	r2,r2,r3
   2d014:	f800283a 	ret

0002d018 <__sprint_r.part.0>:
   2d018:	28801917 	ldw	r2,100(r5)
   2d01c:	defff604 	addi	sp,sp,-40
   2d020:	dcc00315 	stw	r19,12(sp)
   2d024:	dfc00915 	stw	ra,36(sp)
   2d028:	df000815 	stw	fp,32(sp)
   2d02c:	ddc00715 	stw	r23,28(sp)
   2d030:	dd800615 	stw	r22,24(sp)
   2d034:	dd400515 	stw	r21,20(sp)
   2d038:	dd000415 	stw	r20,16(sp)
   2d03c:	dc800215 	stw	r18,8(sp)
   2d040:	dc400115 	stw	r17,4(sp)
   2d044:	dc000015 	stw	r16,0(sp)
   2d048:	1088000c 	andi	r2,r2,8192
   2d04c:	3027883a 	mov	r19,r6
   2d050:	10002c26 	beq	r2,zero,2d104 <__sprint_r.part.0+0xec>
   2d054:	30800217 	ldw	r2,8(r6)
   2d058:	35000017 	ldw	r20,0(r6)
   2d05c:	2821883a 	mov	r16,r5
   2d060:	2023883a 	mov	r17,r4
   2d064:	05bfff04 	movi	r22,-4
   2d068:	10002426 	beq	r2,zero,2d0fc <__sprint_r.part.0+0xe4>
   2d06c:	a5400117 	ldw	r21,4(r20)
   2d070:	a5c00017 	ldw	r23,0(r20)
   2d074:	a824d0ba 	srli	r18,r21,2
   2d078:	90001b26 	beq	r18,zero,2d0e8 <__sprint_r.part.0+0xd0>
   2d07c:	0039883a 	mov	fp,zero
   2d080:	00000206 	br	2d08c <__sprint_r.part.0+0x74>
   2d084:	bdc00104 	addi	r23,r23,4
   2d088:	97001626 	beq	r18,fp,2d0e4 <__sprint_r.part.0+0xcc>
   2d08c:	b9400017 	ldw	r5,0(r23)
   2d090:	800d883a 	mov	r6,r16
   2d094:	8809883a 	mov	r4,r17
   2d098:	002e7740 	call	2e774 <_fputwc_r>
   2d09c:	10bfffe0 	cmpeqi	r2,r2,-1
   2d0a0:	e7000044 	addi	fp,fp,1
   2d0a4:	103ff726 	beq	r2,zero,2d084 <__sprint_r.part.0+0x6c>
   2d0a8:	00bfffc4 	movi	r2,-1
   2d0ac:	98000215 	stw	zero,8(r19)
   2d0b0:	98000115 	stw	zero,4(r19)
   2d0b4:	dfc00917 	ldw	ra,36(sp)
   2d0b8:	df000817 	ldw	fp,32(sp)
   2d0bc:	ddc00717 	ldw	r23,28(sp)
   2d0c0:	dd800617 	ldw	r22,24(sp)
   2d0c4:	dd400517 	ldw	r21,20(sp)
   2d0c8:	dd000417 	ldw	r20,16(sp)
   2d0cc:	dcc00317 	ldw	r19,12(sp)
   2d0d0:	dc800217 	ldw	r18,8(sp)
   2d0d4:	dc400117 	ldw	r17,4(sp)
   2d0d8:	dc000017 	ldw	r16,0(sp)
   2d0dc:	dec00a04 	addi	sp,sp,40
   2d0e0:	f800283a 	ret
   2d0e4:	98800217 	ldw	r2,8(r19)
   2d0e8:	adaa703a 	and	r21,r21,r22
   2d0ec:	1545c83a 	sub	r2,r2,r21
   2d0f0:	98800215 	stw	r2,8(r19)
   2d0f4:	a5000204 	addi	r20,r20,8
   2d0f8:	103fdc1e 	bne	r2,zero,2d06c <__sprint_r.part.0+0x54>
   2d0fc:	0005883a 	mov	r2,zero
   2d100:	003fea06 	br	2d0ac <__sprint_r.part.0+0x94>
   2d104:	002a3480 	call	2a348 <__sfvwrite_r>
   2d108:	003fe806 	br	2d0ac <__sprint_r.part.0+0x94>

0002d10c <__sprint_r>:
   2d10c:	30c00217 	ldw	r3,8(r6)
   2d110:	18000126 	beq	r3,zero,2d118 <__sprint_r+0xc>
   2d114:	002d0181 	jmpi	2d018 <__sprint_r.part.0>
   2d118:	30000115 	stw	zero,4(r6)
   2d11c:	0005883a 	mov	r2,zero
   2d120:	f800283a 	ret

0002d124 <___vfiprintf_internal_r>:
   2d124:	deffcf04 	addi	sp,sp,-196
   2d128:	dd802d15 	stw	r22,180(sp)
   2d12c:	dd402c15 	stw	r21,176(sp)
   2d130:	dd002b15 	stw	r20,172(sp)
   2d134:	dfc03015 	stw	ra,192(sp)
   2d138:	df002f15 	stw	fp,188(sp)
   2d13c:	ddc02e15 	stw	r23,184(sp)
   2d140:	dcc02a15 	stw	r19,168(sp)
   2d144:	dc802915 	stw	r18,164(sp)
   2d148:	dc402815 	stw	r17,160(sp)
   2d14c:	dc002715 	stw	r16,156(sp)
   2d150:	d9c00415 	stw	r7,16(sp)
   2d154:	202d883a 	mov	r22,r4
   2d158:	282b883a 	mov	r21,r5
   2d15c:	3029883a 	mov	r20,r6
   2d160:	20000226 	beq	r4,zero,2d16c <___vfiprintf_internal_r+0x48>
   2d164:	20800e17 	ldw	r2,56(r4)
   2d168:	1001b226 	beq	r2,zero,2d834 <___vfiprintf_internal_r+0x710>
   2d16c:	a880030b 	ldhu	r2,12(r21)
   2d170:	10c8000c 	andi	r3,r2,8192
   2d174:	1800061e 	bne	r3,zero,2d190 <___vfiprintf_internal_r+0x6c>
   2d178:	a8c01917 	ldw	r3,100(r21)
   2d17c:	0137ffc4 	movi	r4,-8193
   2d180:	10880014 	ori	r2,r2,8192
   2d184:	1906703a 	and	r3,r3,r4
   2d188:	a880030d 	sth	r2,12(r21)
   2d18c:	a8c01915 	stw	r3,100(r21)
   2d190:	10c0020c 	andi	r3,r2,8
   2d194:	18010626 	beq	r3,zero,2d5b0 <___vfiprintf_internal_r+0x48c>
   2d198:	a8c00417 	ldw	r3,16(r21)
   2d19c:	18010426 	beq	r3,zero,2d5b0 <___vfiprintf_internal_r+0x48c>
   2d1a0:	1080068c 	andi	r2,r2,26
   2d1a4:	10800298 	cmpnei	r2,r2,10
   2d1a8:	10010926 	beq	r2,zero,2d5d0 <___vfiprintf_internal_r+0x4ac>
   2d1ac:	dc801704 	addi	r18,sp,92
   2d1b0:	dc800a15 	stw	r18,40(sp)
   2d1b4:	d8000c15 	stw	zero,48(sp)
   2d1b8:	d8000b15 	stw	zero,44(sp)
   2d1bc:	9021883a 	mov	r16,r18
   2d1c0:	d8000515 	stw	zero,20(sp)
   2d1c4:	d8000115 	stw	zero,4(sp)
   2d1c8:	a0c00007 	ldb	r3,0(r20)
   2d1cc:	1800e626 	beq	r3,zero,2d568 <___vfiprintf_internal_r+0x444>
   2d1d0:	a023883a 	mov	r17,r20
   2d1d4:	00000306 	br	2d1e4 <___vfiprintf_internal_r+0xc0>
   2d1d8:	88c00047 	ldb	r3,1(r17)
   2d1dc:	8c400044 	addi	r17,r17,1
   2d1e0:	18012826 	beq	r3,zero,2d684 <___vfiprintf_internal_r+0x560>
   2d1e4:	18c00958 	cmpnei	r3,r3,37
   2d1e8:	183ffb1e 	bne	r3,zero,2d1d8 <___vfiprintf_internal_r+0xb4>
   2d1ec:	8d27c83a 	sub	r19,r17,r20
   2d1f0:	8d01261e 	bne	r17,r20,2d68c <___vfiprintf_internal_r+0x568>
   2d1f4:	88800003 	ldbu	r2,0(r17)
   2d1f8:	10803fcc 	andi	r2,r2,255
   2d1fc:	1080201c 	xori	r2,r2,128
   2d200:	10bfe004 	addi	r2,r2,-128
   2d204:	1000d826 	beq	r2,zero,2d568 <___vfiprintf_internal_r+0x444>
   2d208:	88800047 	ldb	r2,1(r17)
   2d20c:	8d000044 	addi	r20,r17,1
   2d210:	d8000945 	stb	zero,37(sp)
   2d214:	000b883a 	mov	r5,zero
   2d218:	000d883a 	mov	r6,zero
   2d21c:	023fffc4 	movi	r8,-1
   2d220:	0023883a 	mov	r17,zero
   2d224:	001b883a 	mov	r13,zero
   2d228:	a5000044 	addi	r20,r20,1
   2d22c:	10fff804 	addi	r3,r2,-32
   2d230:	19001668 	cmpgeui	r4,r3,89
   2d234:	20006a1e 	bne	r4,zero,2d3e0 <___vfiprintf_internal_r+0x2bc>
   2d238:	180690ba 	slli	r3,r3,2
   2d23c:	010000f4 	movhi	r4,3
   2d240:	1909883a 	add	r4,r3,r4
   2d244:	20f49317 	ldw	r3,-11700(r4)
   2d248:	1800683a 	jmp	r3
   2d24c:	0002db3c 	xorhi	zero,zero,2924
   2d250:	0002d3e0 	cmpeqi	zero,zero,2895
   2d254:	0002d3e0 	cmpeqi	zero,zero,2895
   2d258:	0002db30 	cmpltui	zero,zero,2924
   2d25c:	0002d3e0 	cmpeqi	zero,zero,2895
   2d260:	0002d3e0 	cmpeqi	zero,zero,2895
   2d264:	0002d3e0 	cmpeqi	zero,zero,2895
   2d268:	0002d3e0 	cmpeqi	zero,zero,2895
   2d26c:	0002d3e0 	cmpeqi	zero,zero,2895
   2d270:	0002d3e0 	cmpeqi	zero,zero,2895
   2d274:	0002db08 	cmpgei	zero,zero,2924
   2d278:	0002daf8 	rdprs	zero,zero,2923
   2d27c:	0002d3e0 	cmpeqi	zero,zero,2895
   2d280:	0002dae0 	cmpeqi	zero,zero,2923
   2d284:	0002da9c 	xori	zero,zero,2922
   2d288:	0002d3e0 	cmpeqi	zero,zero,2895
   2d28c:	0002da90 	cmplti	zero,zero,2922
   2d290:	0002d3b0 	cmpltui	zero,zero,2894
   2d294:	0002d3b0 	cmpltui	zero,zero,2894
   2d298:	0002d3b0 	cmpltui	zero,zero,2894
   2d29c:	0002d3b0 	cmpltui	zero,zero,2894
   2d2a0:	0002d3b0 	cmpltui	zero,zero,2894
   2d2a4:	0002d3b0 	cmpltui	zero,zero,2894
   2d2a8:	0002d3b0 	cmpltui	zero,zero,2894
   2d2ac:	0002d3b0 	cmpltui	zero,zero,2894
   2d2b0:	0002d3b0 	cmpltui	zero,zero,2894
   2d2b4:	0002d3e0 	cmpeqi	zero,zero,2895
   2d2b8:	0002d3e0 	cmpeqi	zero,zero,2895
   2d2bc:	0002d3e0 	cmpeqi	zero,zero,2895
   2d2c0:	0002d3e0 	cmpeqi	zero,zero,2895
   2d2c4:	0002d3e0 	cmpeqi	zero,zero,2895
   2d2c8:	0002d3e0 	cmpeqi	zero,zero,2895
   2d2cc:	0002d3e0 	cmpeqi	zero,zero,2895
   2d2d0:	0002d3e0 	cmpeqi	zero,zero,2895
   2d2d4:	0002d3e0 	cmpeqi	zero,zero,2895
   2d2d8:	0002d3e0 	cmpeqi	zero,zero,2895
   2d2dc:	0002d9ac 	andhi	zero,zero,2918
   2d2e0:	0002d3e0 	cmpeqi	zero,zero,2895
   2d2e4:	0002d3e0 	cmpeqi	zero,zero,2895
   2d2e8:	0002d3e0 	cmpeqi	zero,zero,2895
   2d2ec:	0002d3e0 	cmpeqi	zero,zero,2895
   2d2f0:	0002d3e0 	cmpeqi	zero,zero,2895
   2d2f4:	0002d3e0 	cmpeqi	zero,zero,2895
   2d2f8:	0002d3e0 	cmpeqi	zero,zero,2895
   2d2fc:	0002d3e0 	cmpeqi	zero,zero,2895
   2d300:	0002d3e0 	cmpeqi	zero,zero,2895
   2d304:	0002d3e0 	cmpeqi	zero,zero,2895
   2d308:	0002d61c 	xori	zero,zero,2904
   2d30c:	0002d3e0 	cmpeqi	zero,zero,2895
   2d310:	0002d3e0 	cmpeqi	zero,zero,2895
   2d314:	0002d3e0 	cmpeqi	zero,zero,2895
   2d318:	0002d3e0 	cmpeqi	zero,zero,2895
   2d31c:	0002d3e0 	cmpeqi	zero,zero,2895
   2d320:	0002d5f4 	movhi	zero,2903
   2d324:	0002d3e0 	cmpeqi	zero,zero,2895
   2d328:	0002d3e0 	cmpeqi	zero,zero,2895
   2d32c:	0002d964 	muli	zero,zero,2917
   2d330:	0002d3e0 	cmpeqi	zero,zero,2895
   2d334:	0002d3e0 	cmpeqi	zero,zero,2895
   2d338:	0002d3e0 	cmpeqi	zero,zero,2895
   2d33c:	0002d3e0 	cmpeqi	zero,zero,2895
   2d340:	0002d3e0 	cmpeqi	zero,zero,2895
   2d344:	0002d3e0 	cmpeqi	zero,zero,2895
   2d348:	0002d3e0 	cmpeqi	zero,zero,2895
   2d34c:	0002d3e0 	cmpeqi	zero,zero,2895
   2d350:	0002d3e0 	cmpeqi	zero,zero,2895
   2d354:	0002d3e0 	cmpeqi	zero,zero,2895
   2d358:	0002d93c 	xorhi	zero,zero,2916
   2d35c:	0002d83c 	xorhi	zero,zero,2912
   2d360:	0002d3e0 	cmpeqi	zero,zero,2895
   2d364:	0002d3e0 	cmpeqi	zero,zero,2895
   2d368:	0002d3e0 	cmpeqi	zero,zero,2895
   2d36c:	0002d8e0 	cmpeqi	zero,zero,2915
   2d370:	0002d83c 	xorhi	zero,zero,2912
   2d374:	0002d3e0 	cmpeqi	zero,zero,2895
   2d378:	0002d3e0 	cmpeqi	zero,zero,2895
   2d37c:	0002d928 	cmpgeui	zero,zero,2916
   2d380:	0002d3e0 	cmpeqi	zero,zero,2895
   2d384:	0002d8ec 	andhi	zero,zero,2915
   2d388:	0002d620 	cmpeqi	zero,zero,2904
   2d38c:	0002dc14 	movui	zero,2928
   2d390:	0002dc08 	cmpgei	zero,zero,2928
   2d394:	0002d3e0 	cmpeqi	zero,zero,2895
   2d398:	0002dbb0 	cmpltui	zero,zero,2926
   2d39c:	0002d3e0 	cmpeqi	zero,zero,2895
   2d3a0:	0002d5f8 	rdprs	zero,zero,2903
   2d3a4:	0002d3e0 	cmpeqi	zero,zero,2895
   2d3a8:	0002d3e0 	cmpeqi	zero,zero,2895
   2d3ac:	0002db68 	cmpgeui	zero,zero,2925
   2d3b0:	0023883a 	mov	r17,zero
   2d3b4:	10fff404 	addi	r3,r2,-48
   2d3b8:	a0800007 	ldb	r2,0(r20)
   2d3bc:	8c4002a4 	muli	r17,r17,10
   2d3c0:	a5000044 	addi	r20,r20,1
   2d3c4:	1c63883a 	add	r17,r3,r17
   2d3c8:	10fff404 	addi	r3,r2,-48
   2d3cc:	190002b0 	cmpltui	r4,r3,10
   2d3d0:	203ff91e 	bne	r4,zero,2d3b8 <___vfiprintf_internal_r+0x294>
   2d3d4:	10fff804 	addi	r3,r2,-32
   2d3d8:	19001668 	cmpgeui	r4,r3,89
   2d3dc:	203f9626 	beq	r4,zero,2d238 <___vfiprintf_internal_r+0x114>
   2d3e0:	29403fcc 	andi	r5,r5,255
   2d3e4:	2803e11e 	bne	r5,zero,2e36c <___vfiprintf_internal_r+0x1248>
   2d3e8:	10005f26 	beq	r2,zero,2d568 <___vfiprintf_internal_r+0x444>
   2d3ec:	d8800d05 	stb	r2,52(sp)
   2d3f0:	d8000945 	stb	zero,37(sp)
   2d3f4:	05c00044 	movi	r23,1
   2d3f8:	07000044 	movi	fp,1
   2d3fc:	dcc00d04 	addi	r19,sp,52
   2d400:	db400015 	stw	r13,0(sp)
   2d404:	0011883a 	mov	r8,zero
   2d408:	d8800017 	ldw	r2,0(sp)
   2d40c:	1380008c 	andi	r14,r2,2
   2d410:	70000126 	beq	r14,zero,2d418 <___vfiprintf_internal_r+0x2f4>
   2d414:	bdc00084 	addi	r23,r23,2
   2d418:	d8800017 	ldw	r2,0(sp)
   2d41c:	d9000b17 	ldw	r4,44(sp)
   2d420:	1340210c 	andi	r13,r2,132
   2d424:	21800044 	addi	r6,r4,1
   2d428:	d8800c17 	ldw	r2,48(sp)
   2d42c:	300b883a 	mov	r5,r6
   2d430:	6800021e 	bne	r13,zero,2d43c <___vfiprintf_internal_r+0x318>
   2d434:	8dc7c83a 	sub	r3,r17,r23
   2d438:	00c2d516 	blt	zero,r3,2df90 <___vfiprintf_internal_r+0xe6c>
   2d43c:	d8c00947 	ldb	r3,37(sp)
   2d440:	81800204 	addi	r6,r16,8
   2d444:	18000d26 	beq	r3,zero,2d47c <___vfiprintf_internal_r+0x358>
   2d448:	d8c00944 	addi	r3,sp,37
   2d44c:	10800044 	addi	r2,r2,1
   2d450:	80c00015 	stw	r3,0(r16)
   2d454:	00c00044 	movi	r3,1
   2d458:	80c00115 	stw	r3,4(r16)
   2d45c:	d8800c15 	stw	r2,48(sp)
   2d460:	d9400b15 	stw	r5,44(sp)
   2d464:	28c00208 	cmpgei	r3,r5,8
   2d468:	1802aa1e 	bne	r3,zero,2df14 <___vfiprintf_internal_r+0xdf0>
   2d46c:	2809883a 	mov	r4,r5
   2d470:	3021883a 	mov	r16,r6
   2d474:	29400044 	addi	r5,r5,1
   2d478:	31800204 	addi	r6,r6,8
   2d47c:	70001826 	beq	r14,zero,2d4e0 <___vfiprintf_internal_r+0x3bc>
   2d480:	d8c00984 	addi	r3,sp,38
   2d484:	10800084 	addi	r2,r2,2
   2d488:	80c00015 	stw	r3,0(r16)
   2d48c:	00c00084 	movi	r3,2
   2d490:	80c00115 	stw	r3,4(r16)
   2d494:	d8800c15 	stw	r2,48(sp)
   2d498:	d9400b15 	stw	r5,44(sp)
   2d49c:	28c00208 	cmpgei	r3,r5,8
   2d4a0:	1802b426 	beq	r3,zero,2df74 <___vfiprintf_internal_r+0xe50>
   2d4a4:	10031026 	beq	r2,zero,2e0e8 <___vfiprintf_internal_r+0xfc4>
   2d4a8:	d9800a04 	addi	r6,sp,40
   2d4ac:	a80b883a 	mov	r5,r21
   2d4b0:	b009883a 	mov	r4,r22
   2d4b4:	da000315 	stw	r8,12(sp)
   2d4b8:	db400215 	stw	r13,8(sp)
   2d4bc:	002d0180 	call	2d018 <__sprint_r.part.0>
   2d4c0:	10002b1e 	bne	r2,zero,2d570 <___vfiprintf_internal_r+0x44c>
   2d4c4:	d9000b17 	ldw	r4,44(sp)
   2d4c8:	d8800c17 	ldw	r2,48(sp)
   2d4cc:	da000317 	ldw	r8,12(sp)
   2d4d0:	db400217 	ldw	r13,8(sp)
   2d4d4:	d9801904 	addi	r6,sp,100
   2d4d8:	21400044 	addi	r5,r4,1
   2d4dc:	9021883a 	mov	r16,r18
   2d4e0:	6b402018 	cmpnei	r13,r13,128
   2d4e4:	68020a26 	beq	r13,zero,2dd10 <___vfiprintf_internal_r+0xbec>
   2d4e8:	4711c83a 	sub	r8,r8,fp
   2d4ec:	02024916 	blt	zero,r8,2de14 <___vfiprintf_internal_r+0xcf0>
   2d4f0:	e085883a 	add	r2,fp,r2
   2d4f4:	d9400b15 	stw	r5,44(sp)
   2d4f8:	84c00015 	stw	r19,0(r16)
   2d4fc:	87000115 	stw	fp,4(r16)
   2d500:	d8800c15 	stw	r2,48(sp)
   2d504:	29400210 	cmplti	r5,r5,8
   2d508:	2800081e 	bne	r5,zero,2d52c <___vfiprintf_internal_r+0x408>
   2d50c:	10008f26 	beq	r2,zero,2d74c <___vfiprintf_internal_r+0x628>
   2d510:	d9800a04 	addi	r6,sp,40
   2d514:	a80b883a 	mov	r5,r21
   2d518:	b009883a 	mov	r4,r22
   2d51c:	002d0180 	call	2d018 <__sprint_r.part.0>
   2d520:	1000131e 	bne	r2,zero,2d570 <___vfiprintf_internal_r+0x44c>
   2d524:	d8800c17 	ldw	r2,48(sp)
   2d528:	900d883a 	mov	r6,r18
   2d52c:	d8c00017 	ldw	r3,0(sp)
   2d530:	1cc0010c 	andi	r19,r3,4
   2d534:	98000226 	beq	r19,zero,2d540 <___vfiprintf_internal_r+0x41c>
   2d538:	8de1c83a 	sub	r16,r17,r23
   2d53c:	04008a16 	blt	zero,r16,2d768 <___vfiprintf_internal_r+0x644>
   2d540:	8dc0010e 	bge	r17,r23,2d548 <___vfiprintf_internal_r+0x424>
   2d544:	b823883a 	mov	r17,r23
   2d548:	d8c00117 	ldw	r3,4(sp)
   2d54c:	1c47883a 	add	r3,r3,r17
   2d550:	d8c00115 	stw	r3,4(sp)
   2d554:	1002651e 	bne	r2,zero,2deec <___vfiprintf_internal_r+0xdc8>
   2d558:	a0c00007 	ldb	r3,0(r20)
   2d55c:	d8000b15 	stw	zero,44(sp)
   2d560:	9021883a 	mov	r16,r18
   2d564:	183f1a1e 	bne	r3,zero,2d1d0 <___vfiprintf_internal_r+0xac>
   2d568:	d8800c17 	ldw	r2,48(sp)
   2d56c:	1003811e 	bne	r2,zero,2e374 <___vfiprintf_internal_r+0x1250>
   2d570:	a880030b 	ldhu	r2,12(r21)
   2d574:	1080100c 	andi	r2,r2,64
   2d578:	10039c1e 	bne	r2,zero,2e3ec <___vfiprintf_internal_r+0x12c8>
   2d57c:	d8800117 	ldw	r2,4(sp)
   2d580:	dfc03017 	ldw	ra,192(sp)
   2d584:	df002f17 	ldw	fp,188(sp)
   2d588:	ddc02e17 	ldw	r23,184(sp)
   2d58c:	dd802d17 	ldw	r22,180(sp)
   2d590:	dd402c17 	ldw	r21,176(sp)
   2d594:	dd002b17 	ldw	r20,172(sp)
   2d598:	dcc02a17 	ldw	r19,168(sp)
   2d59c:	dc802917 	ldw	r18,164(sp)
   2d5a0:	dc402817 	ldw	r17,160(sp)
   2d5a4:	dc002717 	ldw	r16,156(sp)
   2d5a8:	dec03104 	addi	sp,sp,196
   2d5ac:	f800283a 	ret
   2d5b0:	a80b883a 	mov	r5,r21
   2d5b4:	b009883a 	mov	r4,r22
   2d5b8:	00286880 	call	28688 <__swsetup_r>
   2d5bc:	10038b1e 	bne	r2,zero,2e3ec <___vfiprintf_internal_r+0x12c8>
   2d5c0:	a880030b 	ldhu	r2,12(r21)
   2d5c4:	1080068c 	andi	r2,r2,26
   2d5c8:	10800298 	cmpnei	r2,r2,10
   2d5cc:	103ef71e 	bne	r2,zero,2d1ac <___vfiprintf_internal_r+0x88>
   2d5d0:	a880038f 	ldh	r2,14(r21)
   2d5d4:	103ef516 	blt	r2,zero,2d1ac <___vfiprintf_internal_r+0x88>
   2d5d8:	d9c00417 	ldw	r7,16(sp)
   2d5dc:	a00d883a 	mov	r6,r20
   2d5e0:	a80b883a 	mov	r5,r21
   2d5e4:	b009883a 	mov	r4,r22
   2d5e8:	002e4440 	call	2e444 <__sbprintf>
   2d5ec:	d8800115 	stw	r2,4(sp)
   2d5f0:	003fe206 	br	2d57c <___vfiprintf_internal_r+0x458>
   2d5f4:	6b400414 	ori	r13,r13,16
   2d5f8:	6880080c 	andi	r2,r13,32
   2d5fc:	10004726 	beq	r2,zero,2d71c <___vfiprintf_internal_r+0x5f8>
   2d600:	d8c00417 	ldw	r3,16(sp)
   2d604:	00800044 	movi	r2,1
   2d608:	1dc00017 	ldw	r23,0(r3)
   2d60c:	1f000117 	ldw	fp,4(r3)
   2d610:	18c00204 	addi	r3,r3,8
   2d614:	d8c00415 	stw	r3,16(sp)
   2d618:	00000906 	br	2d640 <___vfiprintf_internal_r+0x51c>
   2d61c:	6b400414 	ori	r13,r13,16
   2d620:	6880080c 	andi	r2,r13,32
   2d624:	10003126 	beq	r2,zero,2d6ec <___vfiprintf_internal_r+0x5c8>
   2d628:	d8c00417 	ldw	r3,16(sp)
   2d62c:	0005883a 	mov	r2,zero
   2d630:	1dc00017 	ldw	r23,0(r3)
   2d634:	1f000117 	ldw	fp,4(r3)
   2d638:	18c00204 	addi	r3,r3,8
   2d63c:	d8c00415 	stw	r3,16(sp)
   2d640:	d8000945 	stb	zero,37(sp)
   2d644:	40ffffe0 	cmpeqi	r3,r8,-1
   2d648:	001d883a 	mov	r14,zero
   2d64c:	1800f21e 	bne	r3,zero,2da18 <___vfiprintf_internal_r+0x8f4>
   2d650:	04ffdfc4 	movi	r19,-129
   2d654:	6cc8703a 	and	r4,r13,r19
   2d658:	bf06b03a 	or	r3,r23,fp
   2d65c:	d9000015 	stw	r4,0(sp)
   2d660:	1802491e 	bne	r3,zero,2df88 <___vfiprintf_internal_r+0xe64>
   2d664:	4003071e 	bne	r8,zero,2e284 <___vfiprintf_internal_r+0x1160>
   2d668:	1002a41e 	bne	r2,zero,2e0fc <___vfiprintf_internal_r+0xfd8>
   2d66c:	6f00004c 	andi	fp,r13,1
   2d670:	e002b626 	beq	fp,zero,2e14c <___vfiprintf_internal_r+0x1028>
   2d674:	00800c04 	movi	r2,48
   2d678:	d88016c5 	stb	r2,91(sp)
   2d67c:	dcc016c4 	addi	r19,sp,91
   2d680:	00008e06 	br	2d8bc <___vfiprintf_internal_r+0x798>
   2d684:	8d27c83a 	sub	r19,r17,r20
   2d688:	8d3fb726 	beq	r17,r20,2d568 <___vfiprintf_internal_r+0x444>
   2d68c:	d8c00c17 	ldw	r3,48(sp)
   2d690:	d8800b17 	ldw	r2,44(sp)
   2d694:	85000015 	stw	r20,0(r16)
   2d698:	98c7883a 	add	r3,r19,r3
   2d69c:	10800044 	addi	r2,r2,1
   2d6a0:	d8800b15 	stw	r2,44(sp)
   2d6a4:	84c00115 	stw	r19,4(r16)
   2d6a8:	d8c00c15 	stw	r3,48(sp)
   2d6ac:	10800208 	cmpgei	r2,r2,8
   2d6b0:	1000061e 	bne	r2,zero,2d6cc <___vfiprintf_internal_r+0x5a8>
   2d6b4:	84000204 	addi	r16,r16,8
   2d6b8:	d8c00117 	ldw	r3,4(sp)
   2d6bc:	88800003 	ldbu	r2,0(r17)
   2d6c0:	1cc7883a 	add	r3,r3,r19
   2d6c4:	d8c00115 	stw	r3,4(sp)
   2d6c8:	003ecb06 	br	2d1f8 <___vfiprintf_internal_r+0xd4>
   2d6cc:	18027d26 	beq	r3,zero,2e0c4 <___vfiprintf_internal_r+0xfa0>
   2d6d0:	d9800a04 	addi	r6,sp,40
   2d6d4:	a80b883a 	mov	r5,r21
   2d6d8:	b009883a 	mov	r4,r22
   2d6dc:	002d0180 	call	2d018 <__sprint_r.part.0>
   2d6e0:	103fa31e 	bne	r2,zero,2d570 <___vfiprintf_internal_r+0x44c>
   2d6e4:	9021883a 	mov	r16,r18
   2d6e8:	003ff306 	br	2d6b8 <___vfiprintf_internal_r+0x594>
   2d6ec:	d9000417 	ldw	r4,16(sp)
   2d6f0:	6880040c 	andi	r2,r13,16
   2d6f4:	20c00104 	addi	r3,r4,4
   2d6f8:	1002a11e 	bne	r2,zero,2e180 <___vfiprintf_internal_r+0x105c>
   2d6fc:	6880100c 	andi	r2,r13,64
   2d700:	1002f426 	beq	r2,zero,2e2d4 <___vfiprintf_internal_r+0x11b0>
   2d704:	d8800417 	ldw	r2,16(sp)
   2d708:	0039883a 	mov	fp,zero
   2d70c:	d8c00415 	stw	r3,16(sp)
   2d710:	15c0000b 	ldhu	r23,0(r2)
   2d714:	0005883a 	mov	r2,zero
   2d718:	003fc906 	br	2d640 <___vfiprintf_internal_r+0x51c>
   2d71c:	d9000417 	ldw	r4,16(sp)
   2d720:	6880040c 	andi	r2,r13,16
   2d724:	20c00104 	addi	r3,r4,4
   2d728:	1002a91e 	bne	r2,zero,2e1d0 <___vfiprintf_internal_r+0x10ac>
   2d72c:	6880100c 	andi	r2,r13,64
   2d730:	1002ee26 	beq	r2,zero,2e2ec <___vfiprintf_internal_r+0x11c8>
   2d734:	d8800417 	ldw	r2,16(sp)
   2d738:	0039883a 	mov	fp,zero
   2d73c:	d8c00415 	stw	r3,16(sp)
   2d740:	15c0000b 	ldhu	r23,0(r2)
   2d744:	00800044 	movi	r2,1
   2d748:	003fbd06 	br	2d640 <___vfiprintf_internal_r+0x51c>
   2d74c:	d8c00017 	ldw	r3,0(sp)
   2d750:	d8000b15 	stw	zero,44(sp)
   2d754:	1cc0010c 	andi	r19,r3,4
   2d758:	98024826 	beq	r19,zero,2e07c <___vfiprintf_internal_r+0xf58>
   2d75c:	8de1c83a 	sub	r16,r17,r23
   2d760:	0402460e 	bge	zero,r16,2e07c <___vfiprintf_internal_r+0xf58>
   2d764:	900d883a 	mov	r6,r18
   2d768:	80c00450 	cmplti	r3,r16,17
   2d76c:	d9000b17 	ldw	r4,44(sp)
   2d770:	01c000f4 	movhi	r7,3
   2d774:	1803151e 	bne	r3,zero,2e3cc <___vfiprintf_internal_r+0x12a8>
   2d778:	39d33e04 	addi	r7,r7,19704
   2d77c:	04c00404 	movi	r19,16
   2d780:	00000606 	br	2d79c <___vfiprintf_internal_r+0x678>
   2d784:	21400084 	addi	r5,r4,2
   2d788:	31800204 	addi	r6,r6,8
   2d78c:	1809883a 	mov	r4,r3
   2d790:	843ffc04 	addi	r16,r16,-16
   2d794:	80c00448 	cmpgei	r3,r16,17
   2d798:	18001726 	beq	r3,zero,2d7f8 <___vfiprintf_internal_r+0x6d4>
   2d79c:	20c00044 	addi	r3,r4,1
   2d7a0:	10800404 	addi	r2,r2,16
   2d7a4:	31c00015 	stw	r7,0(r6)
   2d7a8:	34c00115 	stw	r19,4(r6)
   2d7ac:	d8800c15 	stw	r2,48(sp)
   2d7b0:	d8c00b15 	stw	r3,44(sp)
   2d7b4:	19400208 	cmpgei	r5,r3,8
   2d7b8:	283ff226 	beq	r5,zero,2d784 <___vfiprintf_internal_r+0x660>
   2d7bc:	d9800a04 	addi	r6,sp,40
   2d7c0:	a80b883a 	mov	r5,r21
   2d7c4:	b009883a 	mov	r4,r22
   2d7c8:	10014d26 	beq	r2,zero,2dd00 <___vfiprintf_internal_r+0xbdc>
   2d7cc:	d9c00015 	stw	r7,0(sp)
   2d7d0:	002d0180 	call	2d018 <__sprint_r.part.0>
   2d7d4:	103f661e 	bne	r2,zero,2d570 <___vfiprintf_internal_r+0x44c>
   2d7d8:	d9000b17 	ldw	r4,44(sp)
   2d7dc:	843ffc04 	addi	r16,r16,-16
   2d7e0:	80c00448 	cmpgei	r3,r16,17
   2d7e4:	d8800c17 	ldw	r2,48(sp)
   2d7e8:	d9c00017 	ldw	r7,0(sp)
   2d7ec:	900d883a 	mov	r6,r18
   2d7f0:	21400044 	addi	r5,r4,1
   2d7f4:	183fe91e 	bne	r3,zero,2d79c <___vfiprintf_internal_r+0x678>
   2d7f8:	1405883a 	add	r2,r2,r16
   2d7fc:	d9400b15 	stw	r5,44(sp)
   2d800:	31c00015 	stw	r7,0(r6)
   2d804:	34000115 	stw	r16,4(r6)
   2d808:	d8800c15 	stw	r2,48(sp)
   2d80c:	29400210 	cmplti	r5,r5,8
   2d810:	283f4b1e 	bne	r5,zero,2d540 <___vfiprintf_internal_r+0x41c>
   2d814:	10021926 	beq	r2,zero,2e07c <___vfiprintf_internal_r+0xf58>
   2d818:	d9800a04 	addi	r6,sp,40
   2d81c:	a80b883a 	mov	r5,r21
   2d820:	b009883a 	mov	r4,r22
   2d824:	002d0180 	call	2d018 <__sprint_r.part.0>
   2d828:	103f511e 	bne	r2,zero,2d570 <___vfiprintf_internal_r+0x44c>
   2d82c:	d8800c17 	ldw	r2,48(sp)
   2d830:	003f4306 	br	2d540 <___vfiprintf_internal_r+0x41c>
   2d834:	0022de40 	call	22de4 <__sinit>
   2d838:	003e4c06 	br	2d16c <___vfiprintf_internal_r+0x48>
   2d83c:	29403fcc 	andi	r5,r5,255
   2d840:	2802de1e 	bne	r5,zero,2e3bc <___vfiprintf_internal_r+0x1298>
   2d844:	6880080c 	andi	r2,r13,32
   2d848:	10005d26 	beq	r2,zero,2d9c0 <___vfiprintf_internal_r+0x89c>
   2d84c:	d8c00417 	ldw	r3,16(sp)
   2d850:	18800117 	ldw	r2,4(r3)
   2d854:	1dc00017 	ldw	r23,0(r3)
   2d858:	18c00204 	addi	r3,r3,8
   2d85c:	d8c00415 	stw	r3,16(sp)
   2d860:	1039883a 	mov	fp,r2
   2d864:	10006216 	blt	r2,zero,2d9f0 <___vfiprintf_internal_r+0x8cc>
   2d868:	40bfffd8 	cmpnei	r2,r8,-1
   2d86c:	10000a26 	beq	r2,zero,2d898 <___vfiprintf_internal_r+0x774>
   2d870:	00ffdfc4 	movi	r3,-129
   2d874:	bf04b03a 	or	r2,r23,fp
   2d878:	db800943 	ldbu	r14,37(sp)
   2d87c:	68da703a 	and	r13,r13,r3
   2d880:	1000061e 	bne	r2,zero,2d89c <___vfiprintf_internal_r+0x778>
   2d884:	4000081e 	bne	r8,zero,2d8a8 <___vfiprintf_internal_r+0x784>
   2d888:	0039883a 	mov	fp,zero
   2d88c:	db400015 	stw	r13,0(sp)
   2d890:	9027883a 	mov	r19,r18
   2d894:	00000906 	br	2d8bc <___vfiprintf_internal_r+0x798>
   2d898:	db800943 	ldbu	r14,37(sp)
   2d89c:	e000ec1e 	bne	fp,zero,2dc50 <___vfiprintf_internal_r+0xb2c>
   2d8a0:	b88002a8 	cmpgeui	r2,r23,10
   2d8a4:	1000ea1e 	bne	r2,zero,2dc50 <___vfiprintf_internal_r+0xb2c>
   2d8a8:	bdc00c04 	addi	r23,r23,48
   2d8ac:	ddc016c5 	stb	r23,91(sp)
   2d8b0:	db400015 	stw	r13,0(sp)
   2d8b4:	07000044 	movi	fp,1
   2d8b8:	dcc016c4 	addi	r19,sp,91
   2d8bc:	402f883a 	mov	r23,r8
   2d8c0:	4700010e 	bge	r8,fp,2d8c8 <___vfiprintf_internal_r+0x7a4>
   2d8c4:	e02f883a 	mov	r23,fp
   2d8c8:	73803fcc 	andi	r14,r14,255
   2d8cc:	7380201c 	xori	r14,r14,128
   2d8d0:	73bfe004 	addi	r14,r14,-128
   2d8d4:	703ecc26 	beq	r14,zero,2d408 <___vfiprintf_internal_r+0x2e4>
   2d8d8:	bdc00044 	addi	r23,r23,1
   2d8dc:	003eca06 	br	2d408 <___vfiprintf_internal_r+0x2e4>
   2d8e0:	a0800007 	ldb	r2,0(r20)
   2d8e4:	6b401014 	ori	r13,r13,64
   2d8e8:	003e4f06 	br	2d228 <___vfiprintf_internal_r+0x104>
   2d8ec:	29403fcc 	andi	r5,r5,255
   2d8f0:	2802b01e 	bne	r5,zero,2e3b4 <___vfiprintf_internal_r+0x1290>
   2d8f4:	d9000417 	ldw	r4,16(sp)
   2d8f8:	6880080c 	andi	r2,r13,32
   2d8fc:	20c00017 	ldw	r3,0(r4)
   2d900:	21000104 	addi	r4,r4,4
   2d904:	1002231e 	bne	r2,zero,2e194 <___vfiprintf_internal_r+0x1070>
   2d908:	6880040c 	andi	r2,r13,16
   2d90c:	1002511e 	bne	r2,zero,2e254 <___vfiprintf_internal_r+0x1130>
   2d910:	6b40100c 	andi	r13,r13,64
   2d914:	68024f26 	beq	r13,zero,2e254 <___vfiprintf_internal_r+0x1130>
   2d918:	d8800117 	ldw	r2,4(sp)
   2d91c:	d9000415 	stw	r4,16(sp)
   2d920:	1880000d 	sth	r2,0(r3)
   2d924:	003e2806 	br	2d1c8 <___vfiprintf_internal_r+0xa4>
   2d928:	a0800007 	ldb	r2,0(r20)
   2d92c:	10c01b18 	cmpnei	r3,r2,108
   2d930:	18025826 	beq	r3,zero,2e294 <___vfiprintf_internal_r+0x1170>
   2d934:	6b400414 	ori	r13,r13,16
   2d938:	003e3b06 	br	2d228 <___vfiprintf_internal_r+0x104>
   2d93c:	d8c00417 	ldw	r3,16(sp)
   2d940:	d8000945 	stb	zero,37(sp)
   2d944:	05c00044 	movi	r23,1
   2d948:	18800017 	ldw	r2,0(r3)
   2d94c:	18c00104 	addi	r3,r3,4
   2d950:	d8c00415 	stw	r3,16(sp)
   2d954:	d8800d05 	stb	r2,52(sp)
   2d958:	07000044 	movi	fp,1
   2d95c:	dcc00d04 	addi	r19,sp,52
   2d960:	003ea706 	br	2d400 <___vfiprintf_internal_r+0x2dc>
   2d964:	29403fcc 	andi	r5,r5,255
   2d968:	2802961e 	bne	r5,zero,2e3c4 <___vfiprintf_internal_r+0x12a0>
   2d96c:	00c000f4 	movhi	r3,3
   2d970:	18d25d04 	addi	r3,r3,18804
   2d974:	d8c00515 	stw	r3,20(sp)
   2d978:	68c0080c 	andi	r3,r13,32
   2d97c:	18008126 	beq	r3,zero,2db84 <___vfiprintf_internal_r+0xa60>
   2d980:	d8c00417 	ldw	r3,16(sp)
   2d984:	1dc00017 	ldw	r23,0(r3)
   2d988:	1f000117 	ldw	fp,4(r3)
   2d98c:	18c00204 	addi	r3,r3,8
   2d990:	d8c00415 	stw	r3,16(sp)
   2d994:	68c0004c 	andi	r3,r13,1
   2d998:	18000226 	beq	r3,zero,2d9a4 <___vfiprintf_internal_r+0x880>
   2d99c:	bf06b03a 	or	r3,r23,fp
   2d9a0:	1801f11e 	bne	r3,zero,2e168 <___vfiprintf_internal_r+0x1044>
   2d9a4:	00800084 	movi	r2,2
   2d9a8:	003f2506 	br	2d640 <___vfiprintf_internal_r+0x51c>
   2d9ac:	29403fcc 	andi	r5,r5,255
   2d9b0:	28027e1e 	bne	r5,zero,2e3ac <___vfiprintf_internal_r+0x1288>
   2d9b4:	6b400414 	ori	r13,r13,16
   2d9b8:	6880080c 	andi	r2,r13,32
   2d9bc:	103fa31e 	bne	r2,zero,2d84c <___vfiprintf_internal_r+0x728>
   2d9c0:	d9000417 	ldw	r4,16(sp)
   2d9c4:	6880040c 	andi	r2,r13,16
   2d9c8:	20c00104 	addi	r3,r4,4
   2d9cc:	1001f71e 	bne	r2,zero,2e1ac <___vfiprintf_internal_r+0x1088>
   2d9d0:	6880100c 	andi	r2,r13,64
   2d9d4:	10025026 	beq	r2,zero,2e318 <___vfiprintf_internal_r+0x11f4>
   2d9d8:	d8800417 	ldw	r2,16(sp)
   2d9dc:	d8c00415 	stw	r3,16(sp)
   2d9e0:	15c0000f 	ldh	r23,0(r2)
   2d9e4:	b839d7fa 	srai	fp,r23,31
   2d9e8:	e005883a 	mov	r2,fp
   2d9ec:	103f9e0e 	bge	r2,zero,2d868 <___vfiprintf_internal_r+0x744>
   2d9f0:	b804c03a 	cmpne	r2,r23,zero
   2d9f4:	0739c83a 	sub	fp,zero,fp
   2d9f8:	e0b9c83a 	sub	fp,fp,r2
   2d9fc:	00800b44 	movi	r2,45
   2da00:	d8800945 	stb	r2,37(sp)
   2da04:	40ffffe0 	cmpeqi	r3,r8,-1
   2da08:	05efc83a 	sub	r23,zero,r23
   2da0c:	03800b44 	movi	r14,45
   2da10:	00800044 	movi	r2,1
   2da14:	183f0e26 	beq	r3,zero,2d650 <___vfiprintf_internal_r+0x52c>
   2da18:	10c00060 	cmpeqi	r3,r2,1
   2da1c:	183f9f1e 	bne	r3,zero,2d89c <___vfiprintf_internal_r+0x778>
   2da20:	108000a0 	cmpeqi	r2,r2,2
   2da24:	9027883a 	mov	r19,r18
   2da28:	1000a61e 	bne	r2,zero,2dcc4 <___vfiprintf_internal_r+0xba0>
   2da2c:	e006977a 	slli	r3,fp,29
   2da30:	b804d0fa 	srli	r2,r23,3
   2da34:	e038d0fa 	srli	fp,fp,3
   2da38:	b90001cc 	andi	r4,r23,7
   2da3c:	21000c04 	addi	r4,r4,48
   2da40:	18aeb03a 	or	r23,r3,r2
   2da44:	993fffc5 	stb	r4,-1(r19)
   2da48:	bf04b03a 	or	r2,r23,fp
   2da4c:	980b883a 	mov	r5,r19
   2da50:	9cffffc4 	addi	r19,r19,-1
   2da54:	103ff51e 	bne	r2,zero,2da2c <___vfiprintf_internal_r+0x908>
   2da58:	6880004c 	andi	r2,r13,1
   2da5c:	1000a526 	beq	r2,zero,2dcf4 <___vfiprintf_internal_r+0xbd0>
   2da60:	21003fcc 	andi	r4,r4,255
   2da64:	2100201c 	xori	r4,r4,128
   2da68:	213fe004 	addi	r4,r4,-128
   2da6c:	20800c18 	cmpnei	r2,r4,48
   2da70:	1000a026 	beq	r2,zero,2dcf4 <___vfiprintf_internal_r+0xbd0>
   2da74:	297fff84 	addi	r5,r5,-2
   2da78:	00800c04 	movi	r2,48
   2da7c:	98bfffc5 	stb	r2,-1(r19)
   2da80:	9179c83a 	sub	fp,r18,r5
   2da84:	db400015 	stw	r13,0(sp)
   2da88:	2827883a 	mov	r19,r5
   2da8c:	003f8b06 	br	2d8bc <___vfiprintf_internal_r+0x798>
   2da90:	a0800007 	ldb	r2,0(r20)
   2da94:	6b402014 	ori	r13,r13,128
   2da98:	003de306 	br	2d228 <___vfiprintf_internal_r+0x104>
   2da9c:	a0800007 	ldb	r2,0(r20)
   2daa0:	a1000044 	addi	r4,r20,1
   2daa4:	10c00aa0 	cmpeqi	r3,r2,42
   2daa8:	1802531e 	bne	r3,zero,2e3f8 <___vfiprintf_internal_r+0x12d4>
   2daac:	10fff404 	addi	r3,r2,-48
   2dab0:	19c002b0 	cmpltui	r7,r3,10
   2dab4:	2029883a 	mov	r20,r4
   2dab8:	0011883a 	mov	r8,zero
   2dabc:	383ddb26 	beq	r7,zero,2d22c <___vfiprintf_internal_r+0x108>
   2dac0:	a0800007 	ldb	r2,0(r20)
   2dac4:	420002a4 	muli	r8,r8,10
   2dac8:	a5000044 	addi	r20,r20,1
   2dacc:	40d1883a 	add	r8,r8,r3
   2dad0:	10fff404 	addi	r3,r2,-48
   2dad4:	190002b0 	cmpltui	r4,r3,10
   2dad8:	203ff91e 	bne	r4,zero,2dac0 <___vfiprintf_internal_r+0x99c>
   2dadc:	003dd306 	br	2d22c <___vfiprintf_internal_r+0x108>
   2dae0:	a0800003 	ldbu	r2,0(r20)
   2dae4:	10803fcc 	andi	r2,r2,255
   2dae8:	1080201c 	xori	r2,r2,128
   2daec:	6b400114 	ori	r13,r13,4
   2daf0:	10bfe004 	addi	r2,r2,-128
   2daf4:	003dcc06 	br	2d228 <___vfiprintf_internal_r+0x104>
   2daf8:	a0800007 	ldb	r2,0(r20)
   2dafc:	01400044 	movi	r5,1
   2db00:	01800ac4 	movi	r6,43
   2db04:	003dc806 	br	2d228 <___vfiprintf_internal_r+0x104>
   2db08:	d8c00417 	ldw	r3,16(sp)
   2db0c:	a0800003 	ldbu	r2,0(r20)
   2db10:	1c400017 	ldw	r17,0(r3)
   2db14:	18c00104 	addi	r3,r3,4
   2db18:	8801b916 	blt	r17,zero,2e200 <___vfiprintf_internal_r+0x10dc>
   2db1c:	d8c00415 	stw	r3,16(sp)
   2db20:	10803fcc 	andi	r2,r2,255
   2db24:	1080201c 	xori	r2,r2,128
   2db28:	10bfe004 	addi	r2,r2,-128
   2db2c:	003dbe06 	br	2d228 <___vfiprintf_internal_r+0x104>
   2db30:	a0800007 	ldb	r2,0(r20)
   2db34:	6b400054 	ori	r13,r13,1
   2db38:	003dbb06 	br	2d228 <___vfiprintf_internal_r+0x104>
   2db3c:	30c03fcc 	andi	r3,r6,255
   2db40:	18c0201c 	xori	r3,r3,128
   2db44:	18ffe004 	addi	r3,r3,-128
   2db48:	a0800003 	ldbu	r2,0(r20)
   2db4c:	183ff41e 	bne	r3,zero,2db20 <___vfiprintf_internal_r+0x9fc>
   2db50:	10803fcc 	andi	r2,r2,255
   2db54:	1080201c 	xori	r2,r2,128
   2db58:	01400044 	movi	r5,1
   2db5c:	01800804 	movi	r6,32
   2db60:	10bfe004 	addi	r2,r2,-128
   2db64:	003db006 	br	2d228 <___vfiprintf_internal_r+0x104>
   2db68:	29403fcc 	andi	r5,r5,255
   2db6c:	28020a1e 	bne	r5,zero,2e398 <___vfiprintf_internal_r+0x1274>
   2db70:	00c000f4 	movhi	r3,3
   2db74:	18d26204 	addi	r3,r3,18824
   2db78:	d8c00515 	stw	r3,20(sp)
   2db7c:	68c0080c 	andi	r3,r13,32
   2db80:	183f7f1e 	bne	r3,zero,2d980 <___vfiprintf_internal_r+0x85c>
   2db84:	d9400417 	ldw	r5,16(sp)
   2db88:	68c0040c 	andi	r3,r13,16
   2db8c:	29000104 	addi	r4,r5,4
   2db90:	18018b1e 	bne	r3,zero,2e1c0 <___vfiprintf_internal_r+0x109c>
   2db94:	68c0100c 	andi	r3,r13,64
   2db98:	1801da26 	beq	r3,zero,2e304 <___vfiprintf_internal_r+0x11e0>
   2db9c:	d8c00417 	ldw	r3,16(sp)
   2dba0:	0039883a 	mov	fp,zero
   2dba4:	d9000415 	stw	r4,16(sp)
   2dba8:	1dc0000b 	ldhu	r23,0(r3)
   2dbac:	003f7906 	br	2d994 <___vfiprintf_internal_r+0x870>
   2dbb0:	d8800417 	ldw	r2,16(sp)
   2dbb4:	d8000945 	stb	zero,37(sp)
   2dbb8:	14c00017 	ldw	r19,0(r2)
   2dbbc:	10c00104 	addi	r3,r2,4
   2dbc0:	9801bb26 	beq	r19,zero,2e2b0 <___vfiprintf_internal_r+0x118c>
   2dbc4:	40bfffe0 	cmpeqi	r2,r8,-1
   2dbc8:	1001901e 	bne	r2,zero,2e20c <___vfiprintf_internal_r+0x10e8>
   2dbcc:	400d883a 	mov	r6,r8
   2dbd0:	000b883a 	mov	r5,zero
   2dbd4:	9809883a 	mov	r4,r19
   2dbd8:	d8c00315 	stw	r3,12(sp)
   2dbdc:	db400215 	stw	r13,8(sp)
   2dbe0:	da000015 	stw	r8,0(sp)
   2dbe4:	002b5a00 	call	2b5a0 <memchr>
   2dbe8:	da000017 	ldw	r8,0(sp)
   2dbec:	db400217 	ldw	r13,8(sp)
   2dbf0:	d8c00317 	ldw	r3,12(sp)
   2dbf4:	1001e426 	beq	r2,zero,2e388 <___vfiprintf_internal_r+0x1264>
   2dbf8:	14f9c83a 	sub	fp,r2,r19
   2dbfc:	e02f883a 	mov	r23,fp
   2dc00:	d8c00415 	stw	r3,16(sp)
   2dc04:	003dfe06 	br	2d400 <___vfiprintf_internal_r+0x2dc>
   2dc08:	a0800007 	ldb	r2,0(r20)
   2dc0c:	6b400814 	ori	r13,r13,32
   2dc10:	003d8506 	br	2d228 <___vfiprintf_internal_r+0x104>
   2dc14:	d8c00417 	ldw	r3,16(sp)
   2dc18:	00800c04 	movi	r2,48
   2dc1c:	d8800985 	stb	r2,38(sp)
   2dc20:	00801e04 	movi	r2,120
   2dc24:	010000f4 	movhi	r4,3
   2dc28:	d88009c5 	stb	r2,39(sp)
   2dc2c:	18800104 	addi	r2,r3,4
   2dc30:	d8800415 	stw	r2,16(sp)
   2dc34:	20926204 	addi	r2,r4,18824
   2dc38:	d8800515 	stw	r2,20(sp)
   2dc3c:	1dc00017 	ldw	r23,0(r3)
   2dc40:	0039883a 	mov	fp,zero
   2dc44:	6b400094 	ori	r13,r13,2
   2dc48:	00800084 	movi	r2,2
   2dc4c:	003e7c06 	br	2d640 <___vfiprintf_internal_r+0x51c>
   2dc50:	9027883a 	mov	r19,r18
   2dc54:	b809883a 	mov	r4,r23
   2dc58:	e00b883a 	mov	r5,fp
   2dc5c:	01800284 	movi	r6,10
   2dc60:	000f883a 	mov	r7,zero
   2dc64:	db800315 	stw	r14,12(sp)
   2dc68:	da000215 	stw	r8,8(sp)
   2dc6c:	db400015 	stw	r13,0(sp)
   2dc70:	002f5100 	call	2f510 <__umoddi3>
   2dc74:	10800c04 	addi	r2,r2,48
   2dc78:	b809883a 	mov	r4,r23
   2dc7c:	e00b883a 	mov	r5,fp
   2dc80:	98bfffc5 	stb	r2,-1(r19)
   2dc84:	01800284 	movi	r6,10
   2dc88:	000f883a 	mov	r7,zero
   2dc8c:	002ef800 	call	2ef80 <__udivdi3>
   2dc90:	e009883a 	mov	r4,fp
   2dc94:	b80b883a 	mov	r5,r23
   2dc98:	db400017 	ldw	r13,0(sp)
   2dc9c:	da000217 	ldw	r8,8(sp)
   2dca0:	db800317 	ldw	r14,12(sp)
   2dca4:	9cffffc4 	addi	r19,r19,-1
   2dca8:	102f883a 	mov	r23,r2
   2dcac:	1839883a 	mov	fp,r3
   2dcb0:	203fe81e 	bne	r4,zero,2dc54 <___vfiprintf_internal_r+0xb30>
   2dcb4:	294002a8 	cmpgeui	r5,r5,10
   2dcb8:	283fe61e 	bne	r5,zero,2dc54 <___vfiprintf_internal_r+0xb30>
   2dcbc:	94f9c83a 	sub	fp,r18,r19
   2dcc0:	003efe06 	br	2d8bc <___vfiprintf_internal_r+0x798>
   2dcc4:	d9000517 	ldw	r4,20(sp)
   2dcc8:	b88003cc 	andi	r2,r23,15
   2dccc:	e006973a 	slli	r3,fp,28
   2dcd0:	b82ed13a 	srli	r23,r23,4
   2dcd4:	2085883a 	add	r2,r4,r2
   2dcd8:	10800003 	ldbu	r2,0(r2)
   2dcdc:	e038d13a 	srli	fp,fp,4
   2dce0:	1deeb03a 	or	r23,r3,r23
   2dce4:	98bfffc5 	stb	r2,-1(r19)
   2dce8:	bf04b03a 	or	r2,r23,fp
   2dcec:	9cffffc4 	addi	r19,r19,-1
   2dcf0:	103ff41e 	bne	r2,zero,2dcc4 <___vfiprintf_internal_r+0xba0>
   2dcf4:	94f9c83a 	sub	fp,r18,r19
   2dcf8:	db400015 	stw	r13,0(sp)
   2dcfc:	003eef06 	br	2d8bc <___vfiprintf_internal_r+0x798>
   2dd00:	01400044 	movi	r5,1
   2dd04:	0009883a 	mov	r4,zero
   2dd08:	900d883a 	mov	r6,r18
   2dd0c:	003ea006 	br	2d790 <___vfiprintf_internal_r+0x66c>
   2dd10:	8dc7c83a 	sub	r3,r17,r23
   2dd14:	00fdf40e 	bge	zero,r3,2d4e8 <___vfiprintf_internal_r+0x3c4>
   2dd18:	19c00450 	cmplti	r7,r3,17
   2dd1c:	3801ae1e 	bne	r7,zero,2e3d8 <___vfiprintf_internal_r+0x12b4>
   2dd20:	01c000f4 	movhi	r7,3
   2dd24:	39d33a04 	addi	r7,r7,19688
   2dd28:	03400404 	movi	r13,16
   2dd2c:	00000606 	br	2dd48 <___vfiprintf_internal_r+0xc24>
   2dd30:	23800084 	addi	r14,r4,2
   2dd34:	84000204 	addi	r16,r16,8
   2dd38:	2809883a 	mov	r4,r5
   2dd3c:	18fffc04 	addi	r3,r3,-16
   2dd40:	19400448 	cmpgei	r5,r3,17
   2dd44:	28001c26 	beq	r5,zero,2ddb8 <___vfiprintf_internal_r+0xc94>
   2dd48:	21400044 	addi	r5,r4,1
   2dd4c:	10800404 	addi	r2,r2,16
   2dd50:	81c00015 	stw	r7,0(r16)
   2dd54:	83400115 	stw	r13,4(r16)
   2dd58:	d8800c15 	stw	r2,48(sp)
   2dd5c:	d9400b15 	stw	r5,44(sp)
   2dd60:	29800208 	cmpgei	r6,r5,8
   2dd64:	303ff226 	beq	r6,zero,2dd30 <___vfiprintf_internal_r+0xc0c>
   2dd68:	d9800a04 	addi	r6,sp,40
   2dd6c:	a80b883a 	mov	r5,r21
   2dd70:	b009883a 	mov	r4,r22
   2dd74:	10006326 	beq	r2,zero,2df04 <___vfiprintf_internal_r+0xde0>
   2dd78:	d9c00615 	stw	r7,24(sp)
   2dd7c:	d8c00315 	stw	r3,12(sp)
   2dd80:	da000215 	stw	r8,8(sp)
   2dd84:	002d0180 	call	2d018 <__sprint_r.part.0>
   2dd88:	103df91e 	bne	r2,zero,2d570 <___vfiprintf_internal_r+0x44c>
   2dd8c:	d8c00317 	ldw	r3,12(sp)
   2dd90:	d9000b17 	ldw	r4,44(sp)
   2dd94:	d8800c17 	ldw	r2,48(sp)
   2dd98:	18fffc04 	addi	r3,r3,-16
   2dd9c:	19400448 	cmpgei	r5,r3,17
   2dda0:	d9c00617 	ldw	r7,24(sp)
   2dda4:	da000217 	ldw	r8,8(sp)
   2dda8:	9021883a 	mov	r16,r18
   2ddac:	23800044 	addi	r14,r4,1
   2ddb0:	03400404 	movi	r13,16
   2ddb4:	283fe41e 	bne	r5,zero,2dd48 <___vfiprintf_internal_r+0xc24>
   2ddb8:	83400204 	addi	r13,r16,8
   2ddbc:	10c5883a 	add	r2,r2,r3
   2ddc0:	80c00115 	stw	r3,4(r16)
   2ddc4:	81c00015 	stw	r7,0(r16)
   2ddc8:	d8800c15 	stw	r2,48(sp)
   2ddcc:	db800b15 	stw	r14,44(sp)
   2ddd0:	70c00208 	cmpgei	r3,r14,8
   2ddd4:	1800df26 	beq	r3,zero,2e154 <___vfiprintf_internal_r+0x1030>
   2ddd8:	10015826 	beq	r2,zero,2e33c <___vfiprintf_internal_r+0x1218>
   2dddc:	d9800a04 	addi	r6,sp,40
   2dde0:	a80b883a 	mov	r5,r21
   2dde4:	b009883a 	mov	r4,r22
   2dde8:	da000215 	stw	r8,8(sp)
   2ddec:	002d0180 	call	2d018 <__sprint_r.part.0>
   2ddf0:	103ddf1e 	bne	r2,zero,2d570 <___vfiprintf_internal_r+0x44c>
   2ddf4:	da000217 	ldw	r8,8(sp)
   2ddf8:	d9000b17 	ldw	r4,44(sp)
   2ddfc:	d8800c17 	ldw	r2,48(sp)
   2de00:	4711c83a 	sub	r8,r8,fp
   2de04:	d9801904 	addi	r6,sp,100
   2de08:	21400044 	addi	r5,r4,1
   2de0c:	9021883a 	mov	r16,r18
   2de10:	023db70e 	bge	zero,r8,2d4f0 <___vfiprintf_internal_r+0x3cc>
   2de14:	40c00450 	cmplti	r3,r8,17
   2de18:	01c000f4 	movhi	r7,3
   2de1c:	1801441e 	bne	r3,zero,2e330 <___vfiprintf_internal_r+0x120c>
   2de20:	39d33a04 	addi	r7,r7,19688
   2de24:	03400404 	movi	r13,16
   2de28:	00000606 	br	2de44 <___vfiprintf_internal_r+0xd20>
   2de2c:	21400084 	addi	r5,r4,2
   2de30:	84000204 	addi	r16,r16,8
   2de34:	1809883a 	mov	r4,r3
   2de38:	423ffc04 	addi	r8,r8,-16
   2de3c:	40c00448 	cmpgei	r3,r8,17
   2de40:	18001a26 	beq	r3,zero,2deac <___vfiprintf_internal_r+0xd88>
   2de44:	20c00044 	addi	r3,r4,1
   2de48:	10800404 	addi	r2,r2,16
   2de4c:	81c00015 	stw	r7,0(r16)
   2de50:	83400115 	stw	r13,4(r16)
   2de54:	d8800c15 	stw	r2,48(sp)
   2de58:	d8c00b15 	stw	r3,44(sp)
   2de5c:	19400208 	cmpgei	r5,r3,8
   2de60:	283ff226 	beq	r5,zero,2de2c <___vfiprintf_internal_r+0xd08>
   2de64:	d9800a04 	addi	r6,sp,40
   2de68:	a80b883a 	mov	r5,r21
   2de6c:	b009883a 	mov	r4,r22
   2de70:	10001a26 	beq	r2,zero,2dedc <___vfiprintf_internal_r+0xdb8>
   2de74:	d9c00315 	stw	r7,12(sp)
   2de78:	da000215 	stw	r8,8(sp)
   2de7c:	002d0180 	call	2d018 <__sprint_r.part.0>
   2de80:	103dbb1e 	bne	r2,zero,2d570 <___vfiprintf_internal_r+0x44c>
   2de84:	da000217 	ldw	r8,8(sp)
   2de88:	d9000b17 	ldw	r4,44(sp)
   2de8c:	d8800c17 	ldw	r2,48(sp)
   2de90:	423ffc04 	addi	r8,r8,-16
   2de94:	40c00448 	cmpgei	r3,r8,17
   2de98:	d9c00317 	ldw	r7,12(sp)
   2de9c:	9021883a 	mov	r16,r18
   2dea0:	21400044 	addi	r5,r4,1
   2dea4:	03400404 	movi	r13,16
   2dea8:	183fe61e 	bne	r3,zero,2de44 <___vfiprintf_internal_r+0xd20>
   2deac:	81000204 	addi	r4,r16,8
   2deb0:	1205883a 	add	r2,r2,r8
   2deb4:	81c00015 	stw	r7,0(r16)
   2deb8:	82000115 	stw	r8,4(r16)
   2debc:	d8800c15 	stw	r2,48(sp)
   2dec0:	d9400b15 	stw	r5,44(sp)
   2dec4:	28c00208 	cmpgei	r3,r5,8
   2dec8:	1800721e 	bne	r3,zero,2e094 <___vfiprintf_internal_r+0xf70>
   2decc:	29400044 	addi	r5,r5,1
   2ded0:	21800204 	addi	r6,r4,8
   2ded4:	2021883a 	mov	r16,r4
   2ded8:	003d8506 	br	2d4f0 <___vfiprintf_internal_r+0x3cc>
   2dedc:	01400044 	movi	r5,1
   2dee0:	0009883a 	mov	r4,zero
   2dee4:	9021883a 	mov	r16,r18
   2dee8:	003fd306 	br	2de38 <___vfiprintf_internal_r+0xd14>
   2deec:	d9800a04 	addi	r6,sp,40
   2def0:	a80b883a 	mov	r5,r21
   2def4:	b009883a 	mov	r4,r22
   2def8:	002d0180 	call	2d018 <__sprint_r.part.0>
   2defc:	103d9626 	beq	r2,zero,2d558 <___vfiprintf_internal_r+0x434>
   2df00:	003d9b06 	br	2d570 <___vfiprintf_internal_r+0x44c>
   2df04:	03800044 	movi	r14,1
   2df08:	0009883a 	mov	r4,zero
   2df0c:	9021883a 	mov	r16,r18
   2df10:	003f8a06 	br	2dd3c <___vfiprintf_internal_r+0xc18>
   2df14:	10006e26 	beq	r2,zero,2e0d0 <___vfiprintf_internal_r+0xfac>
   2df18:	d9800a04 	addi	r6,sp,40
   2df1c:	a80b883a 	mov	r5,r21
   2df20:	b009883a 	mov	r4,r22
   2df24:	da000615 	stw	r8,24(sp)
   2df28:	db400315 	stw	r13,12(sp)
   2df2c:	db800215 	stw	r14,8(sp)
   2df30:	002d0180 	call	2d018 <__sprint_r.part.0>
   2df34:	103d8e1e 	bne	r2,zero,2d570 <___vfiprintf_internal_r+0x44c>
   2df38:	d9000b17 	ldw	r4,44(sp)
   2df3c:	d8800c17 	ldw	r2,48(sp)
   2df40:	da000617 	ldw	r8,24(sp)
   2df44:	db400317 	ldw	r13,12(sp)
   2df48:	db800217 	ldw	r14,8(sp)
   2df4c:	d9801904 	addi	r6,sp,100
   2df50:	21400044 	addi	r5,r4,1
   2df54:	9021883a 	mov	r16,r18
   2df58:	003d4806 	br	2d47c <___vfiprintf_internal_r+0x358>
   2df5c:	d8800984 	addi	r2,sp,38
   2df60:	d8801715 	stw	r2,92(sp)
   2df64:	00800084 	movi	r2,2
   2df68:	d8801815 	stw	r2,96(sp)
   2df6c:	d9801904 	addi	r6,sp,100
   2df70:	01400044 	movi	r5,1
   2df74:	3021883a 	mov	r16,r6
   2df78:	2809883a 	mov	r4,r5
   2df7c:	21400044 	addi	r5,r4,1
   2df80:	81800204 	addi	r6,r16,8
   2df84:	003d5606 	br	2d4e0 <___vfiprintf_internal_r+0x3bc>
   2df88:	db400017 	ldw	r13,0(sp)
   2df8c:	003ea206 	br	2da18 <___vfiprintf_internal_r+0x8f4>
   2df90:	19400450 	cmplti	r5,r3,17
   2df94:	01c000f4 	movhi	r7,3
   2df98:	2801011e 	bne	r5,zero,2e3a0 <___vfiprintf_internal_r+0x127c>
   2df9c:	39d33e04 	addi	r7,r7,19704
   2dfa0:	03c00404 	movi	r15,16
   2dfa4:	00000706 	br	2dfc4 <___vfiprintf_internal_r+0xea0>
   2dfa8:	27c00084 	addi	ra,r4,2
   2dfac:	84000204 	addi	r16,r16,8
   2dfb0:	3009883a 	mov	r4,r6
   2dfb4:	18fffc04 	addi	r3,r3,-16
   2dfb8:	19400448 	cmpgei	r5,r3,17
   2dfbc:	28002026 	beq	r5,zero,2e040 <___vfiprintf_internal_r+0xf1c>
   2dfc0:	21800044 	addi	r6,r4,1
   2dfc4:	10800404 	addi	r2,r2,16
   2dfc8:	81c00015 	stw	r7,0(r16)
   2dfcc:	83c00115 	stw	r15,4(r16)
   2dfd0:	d8800c15 	stw	r2,48(sp)
   2dfd4:	d9800b15 	stw	r6,44(sp)
   2dfd8:	31400208 	cmpgei	r5,r6,8
   2dfdc:	283ff226 	beq	r5,zero,2dfa8 <___vfiprintf_internal_r+0xe84>
   2dfe0:	d9800a04 	addi	r6,sp,40
   2dfe4:	a80b883a 	mov	r5,r21
   2dfe8:	b009883a 	mov	r4,r22
   2dfec:	10001f26 	beq	r2,zero,2e06c <___vfiprintf_internal_r+0xf48>
   2dff0:	d9c00815 	stw	r7,32(sp)
   2dff4:	d8c00715 	stw	r3,28(sp)
   2dff8:	da000615 	stw	r8,24(sp)
   2dffc:	db400315 	stw	r13,12(sp)
   2e000:	db800215 	stw	r14,8(sp)
   2e004:	002d0180 	call	2d018 <__sprint_r.part.0>
   2e008:	103d591e 	bne	r2,zero,2d570 <___vfiprintf_internal_r+0x44c>
   2e00c:	d8c00717 	ldw	r3,28(sp)
   2e010:	d9000b17 	ldw	r4,44(sp)
   2e014:	d8800c17 	ldw	r2,48(sp)
   2e018:	18fffc04 	addi	r3,r3,-16
   2e01c:	19400448 	cmpgei	r5,r3,17
   2e020:	d9c00817 	ldw	r7,32(sp)
   2e024:	da000617 	ldw	r8,24(sp)
   2e028:	db400317 	ldw	r13,12(sp)
   2e02c:	db800217 	ldw	r14,8(sp)
   2e030:	9021883a 	mov	r16,r18
   2e034:	27c00044 	addi	ra,r4,1
   2e038:	03c00404 	movi	r15,16
   2e03c:	283fe01e 	bne	r5,zero,2dfc0 <___vfiprintf_internal_r+0xe9c>
   2e040:	10c5883a 	add	r2,r2,r3
   2e044:	80c00115 	stw	r3,4(r16)
   2e048:	81c00015 	stw	r7,0(r16)
   2e04c:	d8800c15 	stw	r2,48(sp)
   2e050:	dfc00b15 	stw	ra,44(sp)
   2e054:	f8c00208 	cmpgei	r3,ra,8
   2e058:	18002b1e 	bne	r3,zero,2e108 <___vfiprintf_internal_r+0xfe4>
   2e05c:	84000204 	addi	r16,r16,8
   2e060:	f9400044 	addi	r5,ra,1
   2e064:	f809883a 	mov	r4,ra
   2e068:	003cf406 	br	2d43c <___vfiprintf_internal_r+0x318>
   2e06c:	0009883a 	mov	r4,zero
   2e070:	07c00044 	movi	ra,1
   2e074:	9021883a 	mov	r16,r18
   2e078:	003fce06 	br	2dfb4 <___vfiprintf_internal_r+0xe90>
   2e07c:	8dc0010e 	bge	r17,r23,2e084 <___vfiprintf_internal_r+0xf60>
   2e080:	b823883a 	mov	r17,r23
   2e084:	d8800117 	ldw	r2,4(sp)
   2e088:	1445883a 	add	r2,r2,r17
   2e08c:	d8800115 	stw	r2,4(sp)
   2e090:	003d3106 	br	2d558 <___vfiprintf_internal_r+0x434>
   2e094:	10007326 	beq	r2,zero,2e264 <___vfiprintf_internal_r+0x1140>
   2e098:	d9800a04 	addi	r6,sp,40
   2e09c:	a80b883a 	mov	r5,r21
   2e0a0:	b009883a 	mov	r4,r22
   2e0a4:	002d0180 	call	2d018 <__sprint_r.part.0>
   2e0a8:	103d311e 	bne	r2,zero,2d570 <___vfiprintf_internal_r+0x44c>
   2e0ac:	d9400b17 	ldw	r5,44(sp)
   2e0b0:	d8800c17 	ldw	r2,48(sp)
   2e0b4:	d9801904 	addi	r6,sp,100
   2e0b8:	29400044 	addi	r5,r5,1
   2e0bc:	9021883a 	mov	r16,r18
   2e0c0:	003d0b06 	br	2d4f0 <___vfiprintf_internal_r+0x3cc>
   2e0c4:	d8000b15 	stw	zero,44(sp)
   2e0c8:	9021883a 	mov	r16,r18
   2e0cc:	003d7a06 	br	2d6b8 <___vfiprintf_internal_r+0x594>
   2e0d0:	7000441e 	bne	r14,zero,2e1e4 <___vfiprintf_internal_r+0x10c0>
   2e0d4:	0009883a 	mov	r4,zero
   2e0d8:	d9801904 	addi	r6,sp,100
   2e0dc:	01400044 	movi	r5,1
   2e0e0:	9021883a 	mov	r16,r18
   2e0e4:	003cfe06 	br	2d4e0 <___vfiprintf_internal_r+0x3bc>
   2e0e8:	d9801904 	addi	r6,sp,100
   2e0ec:	01400044 	movi	r5,1
   2e0f0:	0009883a 	mov	r4,zero
   2e0f4:	9021883a 	mov	r16,r18
   2e0f8:	003cf906 	br	2d4e0 <___vfiprintf_internal_r+0x3bc>
   2e0fc:	0039883a 	mov	fp,zero
   2e100:	9027883a 	mov	r19,r18
   2e104:	003ded06 	br	2d8bc <___vfiprintf_internal_r+0x798>
   2e108:	10004a26 	beq	r2,zero,2e234 <___vfiprintf_internal_r+0x1110>
   2e10c:	d9800a04 	addi	r6,sp,40
   2e110:	a80b883a 	mov	r5,r21
   2e114:	b009883a 	mov	r4,r22
   2e118:	da000615 	stw	r8,24(sp)
   2e11c:	db400315 	stw	r13,12(sp)
   2e120:	db800215 	stw	r14,8(sp)
   2e124:	002d0180 	call	2d018 <__sprint_r.part.0>
   2e128:	103d111e 	bne	r2,zero,2d570 <___vfiprintf_internal_r+0x44c>
   2e12c:	d9000b17 	ldw	r4,44(sp)
   2e130:	d8800c17 	ldw	r2,48(sp)
   2e134:	da000617 	ldw	r8,24(sp)
   2e138:	db400317 	ldw	r13,12(sp)
   2e13c:	db800217 	ldw	r14,8(sp)
   2e140:	9021883a 	mov	r16,r18
   2e144:	21400044 	addi	r5,r4,1
   2e148:	003cbc06 	br	2d43c <___vfiprintf_internal_r+0x318>
   2e14c:	9027883a 	mov	r19,r18
   2e150:	003dda06 	br	2d8bc <___vfiprintf_internal_r+0x798>
   2e154:	71400044 	addi	r5,r14,1
   2e158:	69800204 	addi	r6,r13,8
   2e15c:	7009883a 	mov	r4,r14
   2e160:	6821883a 	mov	r16,r13
   2e164:	003ce006 	br	2d4e8 <___vfiprintf_internal_r+0x3c4>
   2e168:	00c00c04 	movi	r3,48
   2e16c:	d88009c5 	stb	r2,39(sp)
   2e170:	d8c00985 	stb	r3,38(sp)
   2e174:	6b400094 	ori	r13,r13,2
   2e178:	00800084 	movi	r2,2
   2e17c:	003d3006 	br	2d640 <___vfiprintf_internal_r+0x51c>
   2e180:	25c00017 	ldw	r23,0(r4)
   2e184:	0039883a 	mov	fp,zero
   2e188:	d8c00415 	stw	r3,16(sp)
   2e18c:	0005883a 	mov	r2,zero
   2e190:	003d2b06 	br	2d640 <___vfiprintf_internal_r+0x51c>
   2e194:	d9400117 	ldw	r5,4(sp)
   2e198:	d9000415 	stw	r4,16(sp)
   2e19c:	2805d7fa 	srai	r2,r5,31
   2e1a0:	19400015 	stw	r5,0(r3)
   2e1a4:	18800115 	stw	r2,4(r3)
   2e1a8:	003c0706 	br	2d1c8 <___vfiprintf_internal_r+0xa4>
   2e1ac:	25c00017 	ldw	r23,0(r4)
   2e1b0:	d8c00415 	stw	r3,16(sp)
   2e1b4:	b839d7fa 	srai	fp,r23,31
   2e1b8:	e005883a 	mov	r2,fp
   2e1bc:	003da906 	br	2d864 <___vfiprintf_internal_r+0x740>
   2e1c0:	2dc00017 	ldw	r23,0(r5)
   2e1c4:	0039883a 	mov	fp,zero
   2e1c8:	d9000415 	stw	r4,16(sp)
   2e1cc:	003df106 	br	2d994 <___vfiprintf_internal_r+0x870>
   2e1d0:	25c00017 	ldw	r23,0(r4)
   2e1d4:	0039883a 	mov	fp,zero
   2e1d8:	d8c00415 	stw	r3,16(sp)
   2e1dc:	00800044 	movi	r2,1
   2e1e0:	003d1706 	br	2d640 <___vfiprintf_internal_r+0x51c>
   2e1e4:	d8800984 	addi	r2,sp,38
   2e1e8:	d8801715 	stw	r2,92(sp)
   2e1ec:	00800084 	movi	r2,2
   2e1f0:	d8801815 	stw	r2,96(sp)
   2e1f4:	dc001904 	addi	r16,sp,100
   2e1f8:	01000044 	movi	r4,1
   2e1fc:	003f5f06 	br	2df7c <___vfiprintf_internal_r+0xe58>
   2e200:	0463c83a 	sub	r17,zero,r17
   2e204:	d8c00415 	stw	r3,16(sp)
   2e208:	003e3606 	br	2dae4 <___vfiprintf_internal_r+0x9c0>
   2e20c:	9809883a 	mov	r4,r19
   2e210:	d8c00215 	stw	r3,8(sp)
   2e214:	db400015 	stw	r13,0(sp)
   2e218:	002cebc0 	call	2cebc <strlen>
   2e21c:	d8c00217 	ldw	r3,8(sp)
   2e220:	db400017 	ldw	r13,0(sp)
   2e224:	1039883a 	mov	fp,r2
   2e228:	102f883a 	mov	r23,r2
   2e22c:	d8c00415 	stw	r3,16(sp)
   2e230:	003c7306 	br	2d400 <___vfiprintf_internal_r+0x2dc>
   2e234:	d8c00947 	ldb	r3,37(sp)
   2e238:	1800451e 	bne	r3,zero,2e350 <___vfiprintf_internal_r+0x122c>
   2e23c:	703f471e 	bne	r14,zero,2df5c <___vfiprintf_internal_r+0xe38>
   2e240:	0009883a 	mov	r4,zero
   2e244:	d9801904 	addi	r6,sp,100
   2e248:	01400044 	movi	r5,1
   2e24c:	9021883a 	mov	r16,r18
   2e250:	003ca506 	br	2d4e8 <___vfiprintf_internal_r+0x3c4>
   2e254:	d8800117 	ldw	r2,4(sp)
   2e258:	18800015 	stw	r2,0(r3)
   2e25c:	d9000415 	stw	r4,16(sp)
   2e260:	003bd906 	br	2d1c8 <___vfiprintf_internal_r+0xa4>
   2e264:	00c00044 	movi	r3,1
   2e268:	e005883a 	mov	r2,fp
   2e26c:	dcc01715 	stw	r19,92(sp)
   2e270:	df001815 	stw	fp,96(sp)
   2e274:	df000c15 	stw	fp,48(sp)
   2e278:	d8c00b15 	stw	r3,44(sp)
   2e27c:	d9801904 	addi	r6,sp,100
   2e280:	003caa06 	br	2d52c <___vfiprintf_internal_r+0x408>
   2e284:	10c00060 	cmpeqi	r3,r2,1
   2e288:	db400017 	ldw	r13,0(sp)
   2e28c:	183de426 	beq	r3,zero,2da20 <___vfiprintf_internal_r+0x8fc>
   2e290:	003d8506 	br	2d8a8 <___vfiprintf_internal_r+0x784>
   2e294:	a0800043 	ldbu	r2,1(r20)
   2e298:	6b400814 	ori	r13,r13,32
   2e29c:	a5000044 	addi	r20,r20,1
   2e2a0:	10803fcc 	andi	r2,r2,255
   2e2a4:	1080201c 	xori	r2,r2,128
   2e2a8:	10bfe004 	addi	r2,r2,-128
   2e2ac:	003bde06 	br	2d228 <___vfiprintf_internal_r+0x104>
   2e2b0:	408001f0 	cmpltui	r2,r8,7
   2e2b4:	4039883a 	mov	fp,r8
   2e2b8:	1000011e 	bne	r2,zero,2e2c0 <___vfiprintf_internal_r+0x119c>
   2e2bc:	07000184 	movi	fp,6
   2e2c0:	04c000f4 	movhi	r19,3
   2e2c4:	e02f883a 	mov	r23,fp
   2e2c8:	d8c00415 	stw	r3,16(sp)
   2e2cc:	9cd26704 	addi	r19,r19,18844
   2e2d0:	003c4b06 	br	2d400 <___vfiprintf_internal_r+0x2dc>
   2e2d4:	d8800417 	ldw	r2,16(sp)
   2e2d8:	0039883a 	mov	fp,zero
   2e2dc:	d8c00415 	stw	r3,16(sp)
   2e2e0:	15c00017 	ldw	r23,0(r2)
   2e2e4:	0005883a 	mov	r2,zero
   2e2e8:	003cd506 	br	2d640 <___vfiprintf_internal_r+0x51c>
   2e2ec:	d8800417 	ldw	r2,16(sp)
   2e2f0:	0039883a 	mov	fp,zero
   2e2f4:	d8c00415 	stw	r3,16(sp)
   2e2f8:	15c00017 	ldw	r23,0(r2)
   2e2fc:	00800044 	movi	r2,1
   2e300:	003ccf06 	br	2d640 <___vfiprintf_internal_r+0x51c>
   2e304:	d8c00417 	ldw	r3,16(sp)
   2e308:	0039883a 	mov	fp,zero
   2e30c:	d9000415 	stw	r4,16(sp)
   2e310:	1dc00017 	ldw	r23,0(r3)
   2e314:	003d9f06 	br	2d994 <___vfiprintf_internal_r+0x870>
   2e318:	d8800417 	ldw	r2,16(sp)
   2e31c:	d8c00415 	stw	r3,16(sp)
   2e320:	15c00017 	ldw	r23,0(r2)
   2e324:	b839d7fa 	srai	fp,r23,31
   2e328:	e005883a 	mov	r2,fp
   2e32c:	003d4d06 	br	2d864 <___vfiprintf_internal_r+0x740>
   2e330:	3009883a 	mov	r4,r6
   2e334:	39d33a04 	addi	r7,r7,19688
   2e338:	003edd06 	br	2deb0 <___vfiprintf_internal_r+0xd8c>
   2e33c:	d9801904 	addi	r6,sp,100
   2e340:	01400044 	movi	r5,1
   2e344:	0009883a 	mov	r4,zero
   2e348:	9021883a 	mov	r16,r18
   2e34c:	003c6606 	br	2d4e8 <___vfiprintf_internal_r+0x3c4>
   2e350:	d8800944 	addi	r2,sp,37
   2e354:	d8801715 	stw	r2,92(sp)
   2e358:	00800044 	movi	r2,1
   2e35c:	d8801815 	stw	r2,96(sp)
   2e360:	d9801904 	addi	r6,sp,100
   2e364:	01400044 	movi	r5,1
   2e368:	003c4006 	br	2d46c <___vfiprintf_internal_r+0x348>
   2e36c:	d9800945 	stb	r6,37(sp)
   2e370:	003c1d06 	br	2d3e8 <___vfiprintf_internal_r+0x2c4>
   2e374:	d9800a04 	addi	r6,sp,40
   2e378:	a80b883a 	mov	r5,r21
   2e37c:	b009883a 	mov	r4,r22
   2e380:	002d0180 	call	2d018 <__sprint_r.part.0>
   2e384:	003c7a06 	br	2d570 <___vfiprintf_internal_r+0x44c>
   2e388:	402f883a 	mov	r23,r8
   2e38c:	d8c00415 	stw	r3,16(sp)
   2e390:	4039883a 	mov	fp,r8
   2e394:	003c1a06 	br	2d400 <___vfiprintf_internal_r+0x2dc>
   2e398:	d9800945 	stb	r6,37(sp)
   2e39c:	003df406 	br	2db70 <___vfiprintf_internal_r+0xa4c>
   2e3a0:	303f883a 	mov	ra,r6
   2e3a4:	39d33e04 	addi	r7,r7,19704
   2e3a8:	003f2506 	br	2e040 <___vfiprintf_internal_r+0xf1c>
   2e3ac:	d9800945 	stb	r6,37(sp)
   2e3b0:	003d8006 	br	2d9b4 <___vfiprintf_internal_r+0x890>
   2e3b4:	d9800945 	stb	r6,37(sp)
   2e3b8:	003d4e06 	br	2d8f4 <___vfiprintf_internal_r+0x7d0>
   2e3bc:	d9800945 	stb	r6,37(sp)
   2e3c0:	003d2006 	br	2d844 <___vfiprintf_internal_r+0x720>
   2e3c4:	d9800945 	stb	r6,37(sp)
   2e3c8:	003d6806 	br	2d96c <___vfiprintf_internal_r+0x848>
   2e3cc:	21400044 	addi	r5,r4,1
   2e3d0:	39d33e04 	addi	r7,r7,19704
   2e3d4:	003d0806 	br	2d7f8 <___vfiprintf_internal_r+0x6d4>
   2e3d8:	01c000f4 	movhi	r7,3
   2e3dc:	301b883a 	mov	r13,r6
   2e3e0:	281d883a 	mov	r14,r5
   2e3e4:	39d33a04 	addi	r7,r7,19688
   2e3e8:	003e7406 	br	2ddbc <___vfiprintf_internal_r+0xc98>
   2e3ec:	00bfffc4 	movi	r2,-1
   2e3f0:	d8800115 	stw	r2,4(sp)
   2e3f4:	003c6106 	br	2d57c <___vfiprintf_internal_r+0x458>
   2e3f8:	d8800417 	ldw	r2,16(sp)
   2e3fc:	12000017 	ldw	r8,0(r2)
   2e400:	10c00104 	addi	r3,r2,4
   2e404:	4000010e 	bge	r8,zero,2e40c <___vfiprintf_internal_r+0x12e8>
   2e408:	023fffc4 	movi	r8,-1
   2e40c:	a0800043 	ldbu	r2,1(r20)
   2e410:	d8c00415 	stw	r3,16(sp)
   2e414:	2029883a 	mov	r20,r4
   2e418:	10803fcc 	andi	r2,r2,255
   2e41c:	1080201c 	xori	r2,r2,128
   2e420:	10bfe004 	addi	r2,r2,-128
   2e424:	003b8006 	br	2d228 <___vfiprintf_internal_r+0x104>

0002e428 <__vfiprintf_internal>:
   2e428:	00c000f4 	movhi	r3,3
   2e42c:	2005883a 	mov	r2,r4
   2e430:	191af817 	ldw	r4,27616(r3)
   2e434:	300f883a 	mov	r7,r6
   2e438:	280d883a 	mov	r6,r5
   2e43c:	100b883a 	mov	r5,r2
   2e440:	002d1241 	jmpi	2d124 <___vfiprintf_internal_r>

0002e444 <__sbprintf>:
   2e444:	2880030b 	ldhu	r2,12(r5)
   2e448:	2b001917 	ldw	r12,100(r5)
   2e44c:	2ac0038b 	ldhu	r11,14(r5)
   2e450:	2a800717 	ldw	r10,28(r5)
   2e454:	2a400917 	ldw	r9,36(r5)
   2e458:	defee204 	addi	sp,sp,-1144
   2e45c:	da001a04 	addi	r8,sp,104
   2e460:	00c10004 	movi	r3,1024
   2e464:	dc011a15 	stw	r16,1128(sp)
   2e468:	10bfff4c 	andi	r2,r2,65533
   2e46c:	2821883a 	mov	r16,r5
   2e470:	d80b883a 	mov	r5,sp
   2e474:	dc811c15 	stw	r18,1136(sp)
   2e478:	dc411b15 	stw	r17,1132(sp)
   2e47c:	dfc11d15 	stw	ra,1140(sp)
   2e480:	2025883a 	mov	r18,r4
   2e484:	d880030d 	sth	r2,12(sp)
   2e488:	db001915 	stw	r12,100(sp)
   2e48c:	dac0038d 	sth	r11,14(sp)
   2e490:	da800715 	stw	r10,28(sp)
   2e494:	da400915 	stw	r9,36(sp)
   2e498:	da000015 	stw	r8,0(sp)
   2e49c:	da000415 	stw	r8,16(sp)
   2e4a0:	d8c00215 	stw	r3,8(sp)
   2e4a4:	d8c00515 	stw	r3,20(sp)
   2e4a8:	d8000615 	stw	zero,24(sp)
   2e4ac:	002d1240 	call	2d124 <___vfiprintf_internal_r>
   2e4b0:	1023883a 	mov	r17,r2
   2e4b4:	10000d0e 	bge	r2,zero,2e4ec <__sbprintf+0xa8>
   2e4b8:	d880030b 	ldhu	r2,12(sp)
   2e4bc:	1080100c 	andi	r2,r2,64
   2e4c0:	10000326 	beq	r2,zero,2e4d0 <__sbprintf+0x8c>
   2e4c4:	8080030b 	ldhu	r2,12(r16)
   2e4c8:	10801014 	ori	r2,r2,64
   2e4cc:	8080030d 	sth	r2,12(r16)
   2e4d0:	8805883a 	mov	r2,r17
   2e4d4:	dfc11d17 	ldw	ra,1140(sp)
   2e4d8:	dc811c17 	ldw	r18,1136(sp)
   2e4dc:	dc411b17 	ldw	r17,1132(sp)
   2e4e0:	dc011a17 	ldw	r16,1128(sp)
   2e4e4:	dec11e04 	addi	sp,sp,1144
   2e4e8:	f800283a 	ret
   2e4ec:	d80b883a 	mov	r5,sp
   2e4f0:	9009883a 	mov	r4,r18
   2e4f4:	0022a600 	call	22a60 <_fflush_r>
   2e4f8:	103fef26 	beq	r2,zero,2e4b8 <__sbprintf+0x74>
   2e4fc:	047fffc4 	movi	r17,-1
   2e500:	003fed06 	br	2e4b8 <__sbprintf+0x74>

0002e504 <_wctomb_r>:
   2e504:	008000f4 	movhi	r2,3
   2e508:	10964717 	ldw	r2,22812(r2)
   2e50c:	1000683a 	jmp	r2

0002e510 <__ascii_wctomb>:
   2e510:	28000926 	beq	r5,zero,2e538 <__ascii_wctomb+0x28>
   2e514:	30804030 	cmpltui	r2,r6,256
   2e518:	10000326 	beq	r2,zero,2e528 <__ascii_wctomb+0x18>
   2e51c:	29800005 	stb	r6,0(r5)
   2e520:	00800044 	movi	r2,1
   2e524:	f800283a 	ret
   2e528:	00802284 	movi	r2,138
   2e52c:	20800015 	stw	r2,0(r4)
   2e530:	00bfffc4 	movi	r2,-1
   2e534:	f800283a 	ret
   2e538:	0005883a 	mov	r2,zero
   2e53c:	f800283a 	ret

0002e540 <__assert_func>:
   2e540:	008000f4 	movhi	r2,3
   2e544:	121af817 	ldw	r8,27616(r2)
   2e548:	defffc04 	addi	sp,sp,-16
   2e54c:	3807883a 	mov	r3,r7
   2e550:	3005883a 	mov	r2,r6
   2e554:	dfc00315 	stw	ra,12(sp)
   2e558:	42400317 	ldw	r9,12(r8)
   2e55c:	200f883a 	mov	r7,r4
   2e560:	2811883a 	mov	r8,r5
   2e564:	180d883a 	mov	r6,r3
   2e568:	10000a26 	beq	r2,zero,2e594 <__assert_func+0x54>
   2e56c:	00c000f4 	movhi	r3,3
   2e570:	18d34204 	addi	r3,r3,19720
   2e574:	014000f4 	movhi	r5,3
   2e578:	29534604 	addi	r5,r5,19736
   2e57c:	4809883a 	mov	r4,r9
   2e580:	d8c00115 	stw	r3,4(sp)
   2e584:	da000015 	stw	r8,0(sp)
   2e588:	d8800215 	stw	r2,8(sp)
   2e58c:	002e5d80 	call	2e5d8 <fiprintf>
   2e590:	002ea680 	call	2ea68 <abort>
   2e594:	00c000f4 	movhi	r3,3
   2e598:	18d34504 	addi	r3,r3,19732
   2e59c:	1805883a 	mov	r2,r3
   2e5a0:	003ff406 	br	2e574 <__assert_func+0x34>

0002e5a4 <__assert>:
   2e5a4:	deffff04 	addi	sp,sp,-4
   2e5a8:	300f883a 	mov	r7,r6
   2e5ac:	000d883a 	mov	r6,zero
   2e5b0:	dfc00015 	stw	ra,0(sp)
   2e5b4:	002e5400 	call	2e540 <__assert_func>

0002e5b8 <_fiprintf_r>:
   2e5b8:	defffe04 	addi	sp,sp,-8
   2e5bc:	dfc00015 	stw	ra,0(sp)
   2e5c0:	d9c00115 	stw	r7,4(sp)
   2e5c4:	d9c00104 	addi	r7,sp,4
   2e5c8:	002e8100 	call	2e810 <_vfiprintf_r>
   2e5cc:	dfc00017 	ldw	ra,0(sp)
   2e5d0:	dec00204 	addi	sp,sp,8
   2e5d4:	f800283a 	ret

0002e5d8 <fiprintf>:
   2e5d8:	defffd04 	addi	sp,sp,-12
   2e5dc:	2005883a 	mov	r2,r4
   2e5e0:	dfc00015 	stw	ra,0(sp)
   2e5e4:	d9800115 	stw	r6,4(sp)
   2e5e8:	d9c00215 	stw	r7,8(sp)
   2e5ec:	00c000f4 	movhi	r3,3
   2e5f0:	191af817 	ldw	r4,27616(r3)
   2e5f4:	280d883a 	mov	r6,r5
   2e5f8:	d9c00104 	addi	r7,sp,4
   2e5fc:	100b883a 	mov	r5,r2
   2e600:	002e8100 	call	2e810 <_vfiprintf_r>
   2e604:	dfc00017 	ldw	ra,0(sp)
   2e608:	dec00304 	addi	sp,sp,12
   2e60c:	f800283a 	ret

0002e610 <__fputwc>:
   2e610:	defff904 	addi	sp,sp,-28
   2e614:	dcc00415 	stw	r19,16(sp)
   2e618:	dc800315 	stw	r18,12(sp)
   2e61c:	dc000115 	stw	r16,4(sp)
   2e620:	dfc00615 	stw	ra,24(sp)
   2e624:	dd000515 	stw	r20,20(sp)
   2e628:	dc400215 	stw	r17,8(sp)
   2e62c:	2025883a 	mov	r18,r4
   2e630:	2827883a 	mov	r19,r5
   2e634:	3021883a 	mov	r16,r6
   2e638:	002b4a80 	call	2b4a8 <__locale_mb_cur_max>
   2e63c:	10800058 	cmpnei	r2,r2,1
   2e640:	1000071e 	bne	r2,zero,2e660 <__fputwc+0x50>
   2e644:	98bfffc4 	addi	r2,r19,-1
   2e648:	10803fe8 	cmpgeui	r2,r2,255
   2e64c:	1000041e 	bne	r2,zero,2e660 <__fputwc+0x50>
   2e650:	980b883a 	mov	r5,r19
   2e654:	dcc000c5 	stb	r19,3(sp)
   2e658:	05000044 	movi	r20,1
   2e65c:	00000a06 	br	2e688 <__fputwc+0x78>
   2e660:	81c01704 	addi	r7,r16,92
   2e664:	980d883a 	mov	r6,r19
   2e668:	d94000c4 	addi	r5,sp,3
   2e66c:	9009883a 	mov	r4,r18
   2e670:	002e9740 	call	2e974 <_wcrtomb_r>
   2e674:	1029883a 	mov	r20,r2
   2e678:	10bfffd8 	cmpnei	r2,r2,-1
   2e67c:	10003926 	beq	r2,zero,2e764 <__fputwc+0x154>
   2e680:	a0001f26 	beq	r20,zero,2e700 <__fputwc+0xf0>
   2e684:	d94000c3 	ldbu	r5,3(sp)
   2e688:	0023883a 	mov	r17,zero
   2e68c:	00000a06 	br	2e6b8 <__fputwc+0xa8>
   2e690:	80800017 	ldw	r2,0(r16)
   2e694:	11400005 	stb	r5,0(r2)
   2e698:	80c00017 	ldw	r3,0(r16)
   2e69c:	18c00044 	addi	r3,r3,1
   2e6a0:	80c00015 	stw	r3,0(r16)
   2e6a4:	8c400044 	addi	r17,r17,1
   2e6a8:	d88000c4 	addi	r2,sp,3
   2e6ac:	1447883a 	add	r3,r2,r17
   2e6b0:	8d00132e 	bgeu	r17,r20,2e700 <__fputwc+0xf0>
   2e6b4:	19400003 	ldbu	r5,0(r3)
   2e6b8:	80c00217 	ldw	r3,8(r16)
   2e6bc:	18ffffc4 	addi	r3,r3,-1
   2e6c0:	80c00215 	stw	r3,8(r16)
   2e6c4:	183ff20e 	bge	r3,zero,2e690 <__fputwc+0x80>
   2e6c8:	80800617 	ldw	r2,24(r16)
   2e6cc:	18801616 	blt	r3,r2,2e728 <__fputwc+0x118>
   2e6d0:	80800017 	ldw	r2,0(r16)
   2e6d4:	11400005 	stb	r5,0(r2)
   2e6d8:	80800017 	ldw	r2,0(r16)
   2e6dc:	10c00003 	ldbu	r3,0(r2)
   2e6e0:	10800044 	addi	r2,r2,1
   2e6e4:	18c002a0 	cmpeqi	r3,r3,10
   2e6e8:	1800181e 	bne	r3,zero,2e74c <__fputwc+0x13c>
   2e6ec:	80800015 	stw	r2,0(r16)
   2e6f0:	8c400044 	addi	r17,r17,1
   2e6f4:	d88000c4 	addi	r2,sp,3
   2e6f8:	1447883a 	add	r3,r2,r17
   2e6fc:	8d3fed36 	bltu	r17,r20,2e6b4 <__fputwc+0xa4>
   2e700:	9829883a 	mov	r20,r19
   2e704:	a005883a 	mov	r2,r20
   2e708:	dfc00617 	ldw	ra,24(sp)
   2e70c:	dd000517 	ldw	r20,20(sp)
   2e710:	dcc00417 	ldw	r19,16(sp)
   2e714:	dc800317 	ldw	r18,12(sp)
   2e718:	dc400217 	ldw	r17,8(sp)
   2e71c:	dc000117 	ldw	r16,4(sp)
   2e720:	dec00704 	addi	sp,sp,28
   2e724:	f800283a 	ret
   2e728:	29403fcc 	andi	r5,r5,255
   2e72c:	800d883a 	mov	r6,r16
   2e730:	9009883a 	mov	r4,r18
   2e734:	002e8140 	call	2e814 <__swbuf_r>
   2e738:	10ffffe0 	cmpeqi	r3,r2,-1
   2e73c:	18c03fcc 	andi	r3,r3,255
   2e740:	183fd826 	beq	r3,zero,2e6a4 <__fputwc+0x94>
   2e744:	053fffc4 	movi	r20,-1
   2e748:	003fee06 	br	2e704 <__fputwc+0xf4>
   2e74c:	800d883a 	mov	r6,r16
   2e750:	01400284 	movi	r5,10
   2e754:	9009883a 	mov	r4,r18
   2e758:	002e8140 	call	2e814 <__swbuf_r>
   2e75c:	10ffffe0 	cmpeqi	r3,r2,-1
   2e760:	003ff606 	br	2e73c <__fputwc+0x12c>
   2e764:	8080030b 	ldhu	r2,12(r16)
   2e768:	10801014 	ori	r2,r2,64
   2e76c:	8080030d 	sth	r2,12(r16)
   2e770:	003fe406 	br	2e704 <__fputwc+0xf4>

0002e774 <_fputwc_r>:
   2e774:	3080030b 	ldhu	r2,12(r6)
   2e778:	10c8000c 	andi	r3,r2,8192
   2e77c:	1800051e 	bne	r3,zero,2e794 <_fputwc_r+0x20>
   2e780:	30c01917 	ldw	r3,100(r6)
   2e784:	10880014 	ori	r2,r2,8192
   2e788:	3080030d 	sth	r2,12(r6)
   2e78c:	18880014 	ori	r2,r3,8192
   2e790:	30801915 	stw	r2,100(r6)
   2e794:	002e6101 	jmpi	2e610 <__fputwc>

0002e798 <fputwc>:
   2e798:	defffc04 	addi	sp,sp,-16
   2e79c:	008000f4 	movhi	r2,3
   2e7a0:	dc000215 	stw	r16,8(sp)
   2e7a4:	141af817 	ldw	r16,27616(r2)
   2e7a8:	dfc00315 	stw	ra,12(sp)
   2e7ac:	280d883a 	mov	r6,r5
   2e7b0:	200b883a 	mov	r5,r4
   2e7b4:	80000226 	beq	r16,zero,2e7c0 <fputwc+0x28>
   2e7b8:	80800e17 	ldw	r2,56(r16)
   2e7bc:	10000d26 	beq	r2,zero,2e7f4 <fputwc+0x5c>
   2e7c0:	3080030b 	ldhu	r2,12(r6)
   2e7c4:	10c8000c 	andi	r3,r2,8192
   2e7c8:	1800051e 	bne	r3,zero,2e7e0 <fputwc+0x48>
   2e7cc:	30c01917 	ldw	r3,100(r6)
   2e7d0:	10880014 	ori	r2,r2,8192
   2e7d4:	3080030d 	sth	r2,12(r6)
   2e7d8:	18880014 	ori	r2,r3,8192
   2e7dc:	30801915 	stw	r2,100(r6)
   2e7e0:	8009883a 	mov	r4,r16
   2e7e4:	dfc00317 	ldw	ra,12(sp)
   2e7e8:	dc000217 	ldw	r16,8(sp)
   2e7ec:	dec00404 	addi	sp,sp,16
   2e7f0:	002e6101 	jmpi	2e610 <__fputwc>
   2e7f4:	d9000015 	stw	r4,0(sp)
   2e7f8:	8009883a 	mov	r4,r16
   2e7fc:	d9800115 	stw	r6,4(sp)
   2e800:	0022de40 	call	22de4 <__sinit>
   2e804:	d9800117 	ldw	r6,4(sp)
   2e808:	d9400017 	ldw	r5,0(sp)
   2e80c:	003fec06 	br	2e7c0 <fputwc+0x28>

0002e810 <_vfiprintf_r>:
   2e810:	002d1241 	jmpi	2d124 <___vfiprintf_internal_r>

0002e814 <__swbuf_r>:
   2e814:	defffb04 	addi	sp,sp,-20
   2e818:	dcc00315 	stw	r19,12(sp)
   2e81c:	dc400115 	stw	r17,4(sp)
   2e820:	dc000015 	stw	r16,0(sp)
   2e824:	dfc00415 	stw	ra,16(sp)
   2e828:	dc800215 	stw	r18,8(sp)
   2e82c:	2027883a 	mov	r19,r4
   2e830:	2823883a 	mov	r17,r5
   2e834:	3021883a 	mov	r16,r6
   2e838:	20000226 	beq	r4,zero,2e844 <__swbuf_r+0x30>
   2e83c:	20800e17 	ldw	r2,56(r4)
   2e840:	10003e26 	beq	r2,zero,2e93c <__swbuf_r+0x128>
   2e844:	80800617 	ldw	r2,24(r16)
   2e848:	80c0030b 	ldhu	r3,12(r16)
   2e84c:	80800215 	stw	r2,8(r16)
   2e850:	1880020c 	andi	r2,r3,8
   2e854:	10001f26 	beq	r2,zero,2e8d4 <__swbuf_r+0xc0>
   2e858:	80800417 	ldw	r2,16(r16)
   2e85c:	10001d26 	beq	r2,zero,2e8d4 <__swbuf_r+0xc0>
   2e860:	1948000c 	andi	r5,r3,8192
   2e864:	8c803fcc 	andi	r18,r17,255
   2e868:	28002326 	beq	r5,zero,2e8f8 <__swbuf_r+0xe4>
   2e86c:	80c00017 	ldw	r3,0(r16)
   2e870:	81000517 	ldw	r4,20(r16)
   2e874:	1885c83a 	sub	r2,r3,r2
   2e878:	1100290e 	bge	r2,r4,2e920 <__swbuf_r+0x10c>
   2e87c:	10800044 	addi	r2,r2,1
   2e880:	81400217 	ldw	r5,8(r16)
   2e884:	19000044 	addi	r4,r3,1
   2e888:	81000015 	stw	r4,0(r16)
   2e88c:	297fffc4 	addi	r5,r5,-1
   2e890:	81400215 	stw	r5,8(r16)
   2e894:	1c400005 	stb	r17,0(r3)
   2e898:	80c00517 	ldw	r3,20(r16)
   2e89c:	18802926 	beq	r3,r2,2e944 <__swbuf_r+0x130>
   2e8a0:	8080030b 	ldhu	r2,12(r16)
   2e8a4:	1080004c 	andi	r2,r2,1
   2e8a8:	10000226 	beq	r2,zero,2e8b4 <__swbuf_r+0xa0>
   2e8ac:	90800298 	cmpnei	r2,r18,10
   2e8b0:	10002426 	beq	r2,zero,2e944 <__swbuf_r+0x130>
   2e8b4:	9005883a 	mov	r2,r18
   2e8b8:	dfc00417 	ldw	ra,16(sp)
   2e8bc:	dcc00317 	ldw	r19,12(sp)
   2e8c0:	dc800217 	ldw	r18,8(sp)
   2e8c4:	dc400117 	ldw	r17,4(sp)
   2e8c8:	dc000017 	ldw	r16,0(sp)
   2e8cc:	dec00504 	addi	sp,sp,20
   2e8d0:	f800283a 	ret
   2e8d4:	800b883a 	mov	r5,r16
   2e8d8:	9809883a 	mov	r4,r19
   2e8dc:	00286880 	call	28688 <__swsetup_r>
   2e8e0:	10001c1e 	bne	r2,zero,2e954 <__swbuf_r+0x140>
   2e8e4:	80c0030b 	ldhu	r3,12(r16)
   2e8e8:	80800417 	ldw	r2,16(r16)
   2e8ec:	8c803fcc 	andi	r18,r17,255
   2e8f0:	1948000c 	andi	r5,r3,8192
   2e8f4:	283fdd1e 	bne	r5,zero,2e86c <__swbuf_r+0x58>
   2e8f8:	81001917 	ldw	r4,100(r16)
   2e8fc:	18c80014 	ori	r3,r3,8192
   2e900:	0177ffc4 	movi	r5,-8193
   2e904:	2148703a 	and	r4,r4,r5
   2e908:	80c0030d 	sth	r3,12(r16)
   2e90c:	80c00017 	ldw	r3,0(r16)
   2e910:	81001915 	stw	r4,100(r16)
   2e914:	81000517 	ldw	r4,20(r16)
   2e918:	1885c83a 	sub	r2,r3,r2
   2e91c:	113fd716 	blt	r2,r4,2e87c <__swbuf_r+0x68>
   2e920:	800b883a 	mov	r5,r16
   2e924:	9809883a 	mov	r4,r19
   2e928:	0022a600 	call	22a60 <_fflush_r>
   2e92c:	1000091e 	bne	r2,zero,2e954 <__swbuf_r+0x140>
   2e930:	80c00017 	ldw	r3,0(r16)
   2e934:	00800044 	movi	r2,1
   2e938:	003fd106 	br	2e880 <__swbuf_r+0x6c>
   2e93c:	0022de40 	call	22de4 <__sinit>
   2e940:	003fc006 	br	2e844 <__swbuf_r+0x30>
   2e944:	800b883a 	mov	r5,r16
   2e948:	9809883a 	mov	r4,r19
   2e94c:	0022a600 	call	22a60 <_fflush_r>
   2e950:	103fd826 	beq	r2,zero,2e8b4 <__swbuf_r+0xa0>
   2e954:	04bfffc4 	movi	r18,-1
   2e958:	003fd606 	br	2e8b4 <__swbuf_r+0xa0>

0002e95c <__swbuf>:
   2e95c:	00c000f4 	movhi	r3,3
   2e960:	2005883a 	mov	r2,r4
   2e964:	191af817 	ldw	r4,27616(r3)
   2e968:	280d883a 	mov	r6,r5
   2e96c:	100b883a 	mov	r5,r2
   2e970:	002e8141 	jmpi	2e814 <__swbuf_r>

0002e974 <_wcrtomb_r>:
   2e974:	defffa04 	addi	sp,sp,-24
   2e978:	dc400415 	stw	r17,16(sp)
   2e97c:	dc000315 	stw	r16,12(sp)
   2e980:	008000f4 	movhi	r2,3
   2e984:	dfc00515 	stw	ra,20(sp)
   2e988:	10964717 	ldw	r2,22812(r2)
   2e98c:	2023883a 	mov	r17,r4
   2e990:	3821883a 	mov	r16,r7
   2e994:	28000826 	beq	r5,zero,2e9b8 <_wcrtomb_r+0x44>
   2e998:	103ee83a 	callr	r2
   2e99c:	10ffffd8 	cmpnei	r3,r2,-1
   2e9a0:	18000a26 	beq	r3,zero,2e9cc <_wcrtomb_r+0x58>
   2e9a4:	dfc00517 	ldw	ra,20(sp)
   2e9a8:	dc400417 	ldw	r17,16(sp)
   2e9ac:	dc000317 	ldw	r16,12(sp)
   2e9b0:	dec00604 	addi	sp,sp,24
   2e9b4:	f800283a 	ret
   2e9b8:	000d883a 	mov	r6,zero
   2e9bc:	d9400084 	addi	r5,sp,2
   2e9c0:	103ee83a 	callr	r2
   2e9c4:	10ffffd8 	cmpnei	r3,r2,-1
   2e9c8:	183ff61e 	bne	r3,zero,2e9a4 <_wcrtomb_r+0x30>
   2e9cc:	00802284 	movi	r2,138
   2e9d0:	80000015 	stw	zero,0(r16)
   2e9d4:	88800015 	stw	r2,0(r17)
   2e9d8:	00bfffc4 	movi	r2,-1
   2e9dc:	003ff106 	br	2e9a4 <_wcrtomb_r+0x30>

0002e9e0 <wcrtomb>:
   2e9e0:	defffa04 	addi	sp,sp,-24
   2e9e4:	00c000f4 	movhi	r3,3
   2e9e8:	dc400415 	stw	r17,16(sp)
   2e9ec:	dc000315 	stw	r16,12(sp)
   2e9f0:	1c5af817 	ldw	r17,27616(r3)
   2e9f4:	dfc00515 	stw	ra,20(sp)
   2e9f8:	00c000f4 	movhi	r3,3
   2e9fc:	18d64717 	ldw	r3,22812(r3)
   2ea00:	3021883a 	mov	r16,r6
   2ea04:	20000c26 	beq	r4,zero,2ea38 <wcrtomb+0x58>
   2ea08:	280d883a 	mov	r6,r5
   2ea0c:	800f883a 	mov	r7,r16
   2ea10:	200b883a 	mov	r5,r4
   2ea14:	8809883a 	mov	r4,r17
   2ea18:	183ee83a 	callr	r3
   2ea1c:	10ffffd8 	cmpnei	r3,r2,-1
   2ea20:	18000c26 	beq	r3,zero,2ea54 <wcrtomb+0x74>
   2ea24:	dfc00517 	ldw	ra,20(sp)
   2ea28:	dc400417 	ldw	r17,16(sp)
   2ea2c:	dc000317 	ldw	r16,12(sp)
   2ea30:	dec00604 	addi	sp,sp,24
   2ea34:	f800283a 	ret
   2ea38:	300f883a 	mov	r7,r6
   2ea3c:	d9400084 	addi	r5,sp,2
   2ea40:	000d883a 	mov	r6,zero
   2ea44:	8809883a 	mov	r4,r17
   2ea48:	183ee83a 	callr	r3
   2ea4c:	10ffffd8 	cmpnei	r3,r2,-1
   2ea50:	183ff41e 	bne	r3,zero,2ea24 <wcrtomb+0x44>
   2ea54:	00802284 	movi	r2,138
   2ea58:	80000015 	stw	zero,0(r16)
   2ea5c:	88800015 	stw	r2,0(r17)
   2ea60:	00bfffc4 	movi	r2,-1
   2ea64:	003fef06 	br	2ea24 <wcrtomb+0x44>

0002ea68 <abort>:
   2ea68:	deffff04 	addi	sp,sp,-4
   2ea6c:	01000184 	movi	r4,6
   2ea70:	dfc00015 	stw	ra,0(sp)
   2ea74:	002ece00 	call	2ece0 <raise>
   2ea78:	01000044 	movi	r4,1
   2ea7c:	00318480 	call	31848 <_exit>

0002ea80 <_init_signal_r.part.0>:
   2ea80:	defffe04 	addi	sp,sp,-8
   2ea84:	01402004 	movi	r5,128
   2ea88:	dc000015 	stw	r16,0(sp)
   2ea8c:	dfc00115 	stw	ra,4(sp)
   2ea90:	2021883a 	mov	r16,r4
   2ea94:	0023dc40 	call	23dc4 <_malloc_r>
   2ea98:	8080b715 	stw	r2,732(r16)
   2ea9c:	10000926 	beq	r2,zero,2eac4 <_init_signal_r.part.0+0x44>
   2eaa0:	10c02004 	addi	r3,r2,128
   2eaa4:	10000015 	stw	zero,0(r2)
   2eaa8:	10800104 	addi	r2,r2,4
   2eaac:	10fffd1e 	bne	r2,r3,2eaa4 <_init_signal_r.part.0+0x24>
   2eab0:	0005883a 	mov	r2,zero
   2eab4:	dfc00117 	ldw	ra,4(sp)
   2eab8:	dc000017 	ldw	r16,0(sp)
   2eabc:	dec00204 	addi	sp,sp,8
   2eac0:	f800283a 	ret
   2eac4:	00bfffc4 	movi	r2,-1
   2eac8:	003ffa06 	br	2eab4 <_init_signal_r.part.0+0x34>

0002eacc <_init_signal_r>:
   2eacc:	2080b717 	ldw	r2,732(r4)
   2ead0:	10000226 	beq	r2,zero,2eadc <_init_signal_r+0x10>
   2ead4:	0005883a 	mov	r2,zero
   2ead8:	f800283a 	ret
   2eadc:	002ea801 	jmpi	2ea80 <_init_signal_r.part.0>

0002eae0 <_signal_r>:
   2eae0:	defffc04 	addi	sp,sp,-16
   2eae4:	dc000215 	stw	r16,8(sp)
   2eae8:	dfc00315 	stw	ra,12(sp)
   2eaec:	28800830 	cmpltui	r2,r5,32
   2eaf0:	2021883a 	mov	r16,r4
   2eaf4:	10000a26 	beq	r2,zero,2eb20 <_signal_r+0x40>
   2eaf8:	2080b717 	ldw	r2,732(r4)
   2eafc:	10000f26 	beq	r2,zero,2eb3c <_signal_r+0x5c>
   2eb00:	280a90ba 	slli	r5,r5,2
   2eb04:	114b883a 	add	r5,r2,r5
   2eb08:	28800017 	ldw	r2,0(r5)
   2eb0c:	29800015 	stw	r6,0(r5)
   2eb10:	dfc00317 	ldw	ra,12(sp)
   2eb14:	dc000217 	ldw	r16,8(sp)
   2eb18:	dec00404 	addi	sp,sp,16
   2eb1c:	f800283a 	ret
   2eb20:	00800584 	movi	r2,22
   2eb24:	20800015 	stw	r2,0(r4)
   2eb28:	00bfffc4 	movi	r2,-1
   2eb2c:	dfc00317 	ldw	ra,12(sp)
   2eb30:	dc000217 	ldw	r16,8(sp)
   2eb34:	dec00404 	addi	sp,sp,16
   2eb38:	f800283a 	ret
   2eb3c:	d9800115 	stw	r6,4(sp)
   2eb40:	d9400015 	stw	r5,0(sp)
   2eb44:	002ea800 	call	2ea80 <_init_signal_r.part.0>
   2eb48:	1000041e 	bne	r2,zero,2eb5c <_signal_r+0x7c>
   2eb4c:	8080b717 	ldw	r2,732(r16)
   2eb50:	d9800117 	ldw	r6,4(sp)
   2eb54:	d9400017 	ldw	r5,0(sp)
   2eb58:	003fe906 	br	2eb00 <_signal_r+0x20>
   2eb5c:	00bfffc4 	movi	r2,-1
   2eb60:	003feb06 	br	2eb10 <_signal_r+0x30>

0002eb64 <_raise_r>:
   2eb64:	28800830 	cmpltui	r2,r5,32
   2eb68:	10002b26 	beq	r2,zero,2ec18 <_raise_r+0xb4>
   2eb6c:	2080b717 	ldw	r2,732(r4)
   2eb70:	defffd04 	addi	sp,sp,-12
   2eb74:	dc000115 	stw	r16,4(sp)
   2eb78:	dfc00215 	stw	ra,8(sp)
   2eb7c:	2821883a 	mov	r16,r5
   2eb80:	10001026 	beq	r2,zero,2ebc4 <_raise_r+0x60>
   2eb84:	280690ba 	slli	r3,r5,2
   2eb88:	10c5883a 	add	r2,r2,r3
   2eb8c:	10c00017 	ldw	r3,0(r2)
   2eb90:	18000c26 	beq	r3,zero,2ebc4 <_raise_r+0x60>
   2eb94:	19400060 	cmpeqi	r5,r3,1
   2eb98:	28001a1e 	bne	r5,zero,2ec04 <_raise_r+0xa0>
   2eb9c:	197fffd8 	cmpnei	r5,r3,-1
   2eba0:	28001126 	beq	r5,zero,2ebe8 <_raise_r+0x84>
   2eba4:	10000015 	stw	zero,0(r2)
   2eba8:	8009883a 	mov	r4,r16
   2ebac:	183ee83a 	callr	r3
   2ebb0:	0005883a 	mov	r2,zero
   2ebb4:	dfc00217 	ldw	ra,8(sp)
   2ebb8:	dc000117 	ldw	r16,4(sp)
   2ebbc:	dec00304 	addi	sp,sp,12
   2ebc0:	f800283a 	ret
   2ebc4:	d9000015 	stw	r4,0(sp)
   2ebc8:	002ed940 	call	2ed94 <_getpid_r>
   2ebcc:	d9000017 	ldw	r4,0(sp)
   2ebd0:	800d883a 	mov	r6,r16
   2ebd4:	100b883a 	mov	r5,r2
   2ebd8:	dfc00217 	ldw	ra,8(sp)
   2ebdc:	dc000117 	ldw	r16,4(sp)
   2ebe0:	dec00304 	addi	sp,sp,12
   2ebe4:	002ed341 	jmpi	2ed34 <_kill_r>
   2ebe8:	00800584 	movi	r2,22
   2ebec:	20800015 	stw	r2,0(r4)
   2ebf0:	00800044 	movi	r2,1
   2ebf4:	dfc00217 	ldw	ra,8(sp)
   2ebf8:	dc000117 	ldw	r16,4(sp)
   2ebfc:	dec00304 	addi	sp,sp,12
   2ec00:	f800283a 	ret
   2ec04:	0005883a 	mov	r2,zero
   2ec08:	dfc00217 	ldw	ra,8(sp)
   2ec0c:	dc000117 	ldw	r16,4(sp)
   2ec10:	dec00304 	addi	sp,sp,12
   2ec14:	f800283a 	ret
   2ec18:	00800584 	movi	r2,22
   2ec1c:	20800015 	stw	r2,0(r4)
   2ec20:	00bfffc4 	movi	r2,-1
   2ec24:	f800283a 	ret

0002ec28 <__sigtramp_r>:
   2ec28:	28800830 	cmpltui	r2,r5,32
   2ec2c:	10002a26 	beq	r2,zero,2ecd8 <__sigtramp_r+0xb0>
   2ec30:	2080b717 	ldw	r2,732(r4)
   2ec34:	defffd04 	addi	sp,sp,-12
   2ec38:	dc400115 	stw	r17,4(sp)
   2ec3c:	dfc00215 	stw	ra,8(sp)
   2ec40:	2023883a 	mov	r17,r4
   2ec44:	10001526 	beq	r2,zero,2ec9c <__sigtramp_r+0x74>
   2ec48:	280690ba 	slli	r3,r5,2
   2ec4c:	10c5883a 	add	r2,r2,r3
   2ec50:	10c00017 	ldw	r3,0(r2)
   2ec54:	18000c26 	beq	r3,zero,2ec88 <__sigtramp_r+0x60>
   2ec58:	193fffe0 	cmpeqi	r4,r3,-1
   2ec5c:	20001a1e 	bne	r4,zero,2ecc8 <__sigtramp_r+0xa0>
   2ec60:	19000060 	cmpeqi	r4,r3,1
   2ec64:	2000131e 	bne	r4,zero,2ecb4 <__sigtramp_r+0x8c>
   2ec68:	10000015 	stw	zero,0(r2)
   2ec6c:	2809883a 	mov	r4,r5
   2ec70:	183ee83a 	callr	r3
   2ec74:	0005883a 	mov	r2,zero
   2ec78:	dfc00217 	ldw	ra,8(sp)
   2ec7c:	dc400117 	ldw	r17,4(sp)
   2ec80:	dec00304 	addi	sp,sp,12
   2ec84:	f800283a 	ret
   2ec88:	00800044 	movi	r2,1
   2ec8c:	dfc00217 	ldw	ra,8(sp)
   2ec90:	dc400117 	ldw	r17,4(sp)
   2ec94:	dec00304 	addi	sp,sp,12
   2ec98:	f800283a 	ret
   2ec9c:	d9400015 	stw	r5,0(sp)
   2eca0:	002ea800 	call	2ea80 <_init_signal_r.part.0>
   2eca4:	10000a1e 	bne	r2,zero,2ecd0 <__sigtramp_r+0xa8>
   2eca8:	8880b717 	ldw	r2,732(r17)
   2ecac:	d9400017 	ldw	r5,0(sp)
   2ecb0:	003fe506 	br	2ec48 <__sigtramp_r+0x20>
   2ecb4:	008000c4 	movi	r2,3
   2ecb8:	dfc00217 	ldw	ra,8(sp)
   2ecbc:	dc400117 	ldw	r17,4(sp)
   2ecc0:	dec00304 	addi	sp,sp,12
   2ecc4:	f800283a 	ret
   2ecc8:	00800084 	movi	r2,2
   2eccc:	003fea06 	br	2ec78 <__sigtramp_r+0x50>
   2ecd0:	00bfffc4 	movi	r2,-1
   2ecd4:	003fe806 	br	2ec78 <__sigtramp_r+0x50>
   2ecd8:	00bfffc4 	movi	r2,-1
   2ecdc:	f800283a 	ret

0002ece0 <raise>:
   2ece0:	008000f4 	movhi	r2,3
   2ece4:	200b883a 	mov	r5,r4
   2ece8:	111af817 	ldw	r4,27616(r2)
   2ecec:	002eb641 	jmpi	2eb64 <_raise_r>

0002ecf0 <signal>:
   2ecf0:	00c000f4 	movhi	r3,3
   2ecf4:	2005883a 	mov	r2,r4
   2ecf8:	191af817 	ldw	r4,27616(r3)
   2ecfc:	280d883a 	mov	r6,r5
   2ed00:	100b883a 	mov	r5,r2
   2ed04:	002eae01 	jmpi	2eae0 <_signal_r>

0002ed08 <_init_signal>:
   2ed08:	008000f4 	movhi	r2,3
   2ed0c:	111af817 	ldw	r4,27616(r2)
   2ed10:	2080b717 	ldw	r2,732(r4)
   2ed14:	10000226 	beq	r2,zero,2ed20 <_init_signal+0x18>
   2ed18:	0005883a 	mov	r2,zero
   2ed1c:	f800283a 	ret
   2ed20:	002ea801 	jmpi	2ea80 <_init_signal_r.part.0>

0002ed24 <__sigtramp>:
   2ed24:	008000f4 	movhi	r2,3
   2ed28:	200b883a 	mov	r5,r4
   2ed2c:	111af817 	ldw	r4,27616(r2)
   2ed30:	002ec281 	jmpi	2ec28 <__sigtramp_r>

0002ed34 <_kill_r>:
   2ed34:	2807883a 	mov	r3,r5
   2ed38:	defffe04 	addi	sp,sp,-8
   2ed3c:	dc000015 	stw	r16,0(sp)
   2ed40:	00800134 	movhi	r2,4
   2ed44:	300b883a 	mov	r5,r6
   2ed48:	2021883a 	mov	r16,r4
   2ed4c:	1809883a 	mov	r4,r3
   2ed50:	dfc00115 	stw	ra,4(sp)
   2ed54:	10220b15 	stw	zero,-30676(r2)
   2ed58:	0031c280 	call	31c28 <kill>
   2ed5c:	10ffffd8 	cmpnei	r3,r2,-1
   2ed60:	18000426 	beq	r3,zero,2ed74 <_kill_r+0x40>
   2ed64:	dfc00117 	ldw	ra,4(sp)
   2ed68:	dc000017 	ldw	r16,0(sp)
   2ed6c:	dec00204 	addi	sp,sp,8
   2ed70:	f800283a 	ret
   2ed74:	00c00134 	movhi	r3,4
   2ed78:	18e20b17 	ldw	r3,-30676(r3)
   2ed7c:	183ff926 	beq	r3,zero,2ed64 <_kill_r+0x30>
   2ed80:	80c00015 	stw	r3,0(r16)
   2ed84:	dfc00117 	ldw	ra,4(sp)
   2ed88:	dc000017 	ldw	r16,0(sp)
   2ed8c:	dec00204 	addi	sp,sp,8
   2ed90:	f800283a 	ret

0002ed94 <_getpid_r>:
   2ed94:	003196c1 	jmpi	3196c <getpid>

0002ed98 <__fixunsdfsi>:
   2ed98:	defffd04 	addi	sp,sp,-12
   2ed9c:	000d883a 	mov	r6,zero
   2eda0:	01d07834 	movhi	r7,16864
   2eda4:	dc400115 	stw	r17,4(sp)
   2eda8:	dc000015 	stw	r16,0(sp)
   2edac:	dfc00215 	stw	ra,8(sp)
   2edb0:	2023883a 	mov	r17,r4
   2edb4:	2821883a 	mov	r16,r5
   2edb8:	00304a80 	call	304a8 <__gedf2>
   2edbc:	1000080e 	bge	r2,zero,2ede0 <__fixunsdfsi+0x48>
   2edc0:	8809883a 	mov	r4,r17
   2edc4:	800b883a 	mov	r5,r16
   2edc8:	00223680 	call	22368 <__fixdfsi>
   2edcc:	dfc00217 	ldw	ra,8(sp)
   2edd0:	dc400117 	ldw	r17,4(sp)
   2edd4:	dc000017 	ldw	r16,0(sp)
   2edd8:	dec00304 	addi	sp,sp,12
   2eddc:	f800283a 	ret
   2ede0:	000d883a 	mov	r6,zero
   2ede4:	01d07834 	movhi	r7,16864
   2ede8:	8809883a 	mov	r4,r17
   2edec:	800b883a 	mov	r5,r16
   2edf0:	0030cf80 	call	30cf8 <__subdf3>
   2edf4:	180b883a 	mov	r5,r3
   2edf8:	1009883a 	mov	r4,r2
   2edfc:	00223680 	call	22368 <__fixdfsi>
   2ee00:	00e00034 	movhi	r3,32768
   2ee04:	10c5883a 	add	r2,r2,r3
   2ee08:	003ff006 	br	2edcc <__fixunsdfsi+0x34>

0002ee0c <__fixdfdi>:
   2ee0c:	defffd04 	addi	sp,sp,-12
   2ee10:	000d883a 	mov	r6,zero
   2ee14:	000f883a 	mov	r7,zero
   2ee18:	dc400115 	stw	r17,4(sp)
   2ee1c:	dc000015 	stw	r16,0(sp)
   2ee20:	dfc00215 	stw	ra,8(sp)
   2ee24:	2023883a 	mov	r17,r4
   2ee28:	2821883a 	mov	r16,r5
   2ee2c:	00305980 	call	30598 <__ledf2>
   2ee30:	10000716 	blt	r2,zero,2ee50 <__fixdfdi+0x44>
   2ee34:	8809883a 	mov	r4,r17
   2ee38:	800b883a 	mov	r5,r16
   2ee3c:	dfc00217 	ldw	ra,8(sp)
   2ee40:	dc400117 	ldw	r17,4(sp)
   2ee44:	dc000017 	ldw	r16,0(sp)
   2ee48:	dec00304 	addi	sp,sp,12
   2ee4c:	002ee801 	jmpi	2ee80 <__fixunsdfdi>
   2ee50:	8809883a 	mov	r4,r17
   2ee54:	8160003c 	xorhi	r5,r16,32768
   2ee58:	002ee800 	call	2ee80 <__fixunsdfdi>
   2ee5c:	1008c03a 	cmpne	r4,r2,zero
   2ee60:	00c7c83a 	sub	r3,zero,r3
   2ee64:	0085c83a 	sub	r2,zero,r2
   2ee68:	1907c83a 	sub	r3,r3,r4
   2ee6c:	dfc00217 	ldw	ra,8(sp)
   2ee70:	dc400117 	ldw	r17,4(sp)
   2ee74:	dc000017 	ldw	r16,0(sp)
   2ee78:	dec00304 	addi	sp,sp,12
   2ee7c:	f800283a 	ret

0002ee80 <__fixunsdfdi>:
   2ee80:	defffc04 	addi	sp,sp,-16
   2ee84:	000d883a 	mov	r6,zero
   2ee88:	01cf7c34 	movhi	r7,15856
   2ee8c:	dfc00315 	stw	ra,12(sp)
   2ee90:	dc800215 	stw	r18,8(sp)
   2ee94:	dc400115 	stw	r17,4(sp)
   2ee98:	dc000015 	stw	r16,0(sp)
   2ee9c:	2025883a 	mov	r18,r4
   2eea0:	2823883a 	mov	r17,r5
   2eea4:	00306880 	call	30688 <__muldf3>
   2eea8:	180b883a 	mov	r5,r3
   2eeac:	1009883a 	mov	r4,r2
   2eeb0:	002ed980 	call	2ed98 <__fixunsdfsi>
   2eeb4:	1009883a 	mov	r4,r2
   2eeb8:	1021883a 	mov	r16,r2
   2eebc:	00316800 	call	31680 <__floatunsidf>
   2eec0:	000d883a 	mov	r6,zero
   2eec4:	01d07c34 	movhi	r7,16880
   2eec8:	1009883a 	mov	r4,r2
   2eecc:	180b883a 	mov	r5,r3
   2eed0:	00306880 	call	30688 <__muldf3>
   2eed4:	100d883a 	mov	r6,r2
   2eed8:	180f883a 	mov	r7,r3
   2eedc:	9009883a 	mov	r4,r18
   2eee0:	880b883a 	mov	r5,r17
   2eee4:	0030cf80 	call	30cf8 <__subdf3>
   2eee8:	180b883a 	mov	r5,r3
   2eeec:	1009883a 	mov	r4,r2
   2eef0:	002ed980 	call	2ed98 <__fixunsdfsi>
   2eef4:	8007883a 	mov	r3,r16
   2eef8:	dfc00317 	ldw	ra,12(sp)
   2eefc:	dc800217 	ldw	r18,8(sp)
   2ef00:	dc400117 	ldw	r17,4(sp)
   2ef04:	dc000017 	ldw	r16,0(sp)
   2ef08:	dec00404 	addi	sp,sp,16
   2ef0c:	f800283a 	ret

0002ef10 <__floatdidf>:
   2ef10:	defffc04 	addi	sp,sp,-16
   2ef14:	dc800215 	stw	r18,8(sp)
   2ef18:	2025883a 	mov	r18,r4
   2ef1c:	2809883a 	mov	r4,r5
   2ef20:	dfc00315 	stw	ra,12(sp)
   2ef24:	dc400115 	stw	r17,4(sp)
   2ef28:	dc000015 	stw	r16,0(sp)
   2ef2c:	00223e80 	call	223e8 <__floatsidf>
   2ef30:	000d883a 	mov	r6,zero
   2ef34:	01d07c34 	movhi	r7,16880
   2ef38:	180b883a 	mov	r5,r3
   2ef3c:	1009883a 	mov	r4,r2
   2ef40:	00306880 	call	30688 <__muldf3>
   2ef44:	9009883a 	mov	r4,r18
   2ef48:	1023883a 	mov	r17,r2
   2ef4c:	1821883a 	mov	r16,r3
   2ef50:	00316800 	call	31680 <__floatunsidf>
   2ef54:	880d883a 	mov	r6,r17
   2ef58:	800f883a 	mov	r7,r16
   2ef5c:	1009883a 	mov	r4,r2
   2ef60:	180b883a 	mov	r5,r3
   2ef64:	00219f00 	call	219f0 <__adddf3>
   2ef68:	dfc00317 	ldw	ra,12(sp)
   2ef6c:	dc800217 	ldw	r18,8(sp)
   2ef70:	dc400117 	ldw	r17,4(sp)
   2ef74:	dc000017 	ldw	r16,0(sp)
   2ef78:	dec00404 	addi	sp,sp,16
   2ef7c:	f800283a 	ret

0002ef80 <__udivdi3>:
   2ef80:	defff504 	addi	sp,sp,-44
   2ef84:	dcc00415 	stw	r19,16(sp)
   2ef88:	dc000115 	stw	r16,4(sp)
   2ef8c:	dfc00a15 	stw	ra,40(sp)
   2ef90:	df000915 	stw	fp,36(sp)
   2ef94:	ddc00815 	stw	r23,32(sp)
   2ef98:	dd800715 	stw	r22,28(sp)
   2ef9c:	dd400615 	stw	r21,24(sp)
   2efa0:	dd000515 	stw	r20,20(sp)
   2efa4:	dc800315 	stw	r18,12(sp)
   2efa8:	dc400215 	stw	r17,8(sp)
   2efac:	2027883a 	mov	r19,r4
   2efb0:	2821883a 	mov	r16,r5
   2efb4:	3800411e 	bne	r7,zero,2f0bc <__udivdi3+0x13c>
   2efb8:	3829883a 	mov	r20,r7
   2efbc:	3023883a 	mov	r17,r6
   2efc0:	2025883a 	mov	r18,r4
   2efc4:	29805d2e 	bgeu	r5,r6,2f13c <__udivdi3+0x1bc>
   2efc8:	00bfffd4 	movui	r2,65535
   2efcc:	282b883a 	mov	r21,r5
   2efd0:	1180a02e 	bgeu	r2,r6,2f254 <__udivdi3+0x2d4>
   2efd4:	00804034 	movhi	r2,256
   2efd8:	30813636 	bltu	r6,r2,2f4b4 <__udivdi3+0x534>
   2efdc:	3006d63a 	srli	r3,r6,24
   2efe0:	05000604 	movi	r20,24
   2efe4:	008000f4 	movhi	r2,3
   2efe8:	1885883a 	add	r2,r3,r2
   2efec:	10920103 	ldbu	r2,18436(r2)
   2eff0:	00c00804 	movi	r3,32
   2eff4:	1505883a 	add	r2,r2,r20
   2eff8:	1889c83a 	sub	r4,r3,r2
   2effc:	18800526 	beq	r3,r2,2f014 <__udivdi3+0x94>
   2f000:	8120983a 	sll	r16,r16,r4
   2f004:	9884d83a 	srl	r2,r19,r2
   2f008:	3122983a 	sll	r17,r6,r4
   2f00c:	9924983a 	sll	r18,r19,r4
   2f010:	142ab03a 	or	r21,r2,r16
   2f014:	882cd43a 	srli	r22,r17,16
   2f018:	a809883a 	mov	r4,r21
   2f01c:	8d3fffcc 	andi	r20,r17,65535
   2f020:	b00b883a 	mov	r5,r22
   2f024:	0020ff40 	call	20ff4 <__umodsi3>
   2f028:	a809883a 	mov	r4,r21
   2f02c:	b00b883a 	mov	r5,r22
   2f030:	1027883a 	mov	r19,r2
   2f034:	0020f900 	call	20f90 <__udivsi3>
   2f038:	9826943a 	slli	r19,r19,16
   2f03c:	9008d43a 	srli	r4,r18,16
   2f040:	1021883a 	mov	r16,r2
   2f044:	a085383a 	mul	r2,r20,r2
   2f048:	9908b03a 	or	r4,r19,r4
   2f04c:	2080052e 	bgeu	r4,r2,2f064 <__udivdi3+0xe4>
   2f050:	2449883a 	add	r4,r4,r17
   2f054:	80ffffc4 	addi	r3,r16,-1
   2f058:	24400136 	bltu	r4,r17,2f060 <__udivdi3+0xe0>
   2f05c:	20812636 	bltu	r4,r2,2f4f8 <__udivdi3+0x578>
   2f060:	1821883a 	mov	r16,r3
   2f064:	20a7c83a 	sub	r19,r4,r2
   2f068:	9809883a 	mov	r4,r19
   2f06c:	b00b883a 	mov	r5,r22
   2f070:	0020ff40 	call	20ff4 <__umodsi3>
   2f074:	9809883a 	mov	r4,r19
   2f078:	b00b883a 	mov	r5,r22
   2f07c:	1027883a 	mov	r19,r2
   2f080:	9826943a 	slli	r19,r19,16
   2f084:	0020f900 	call	20f90 <__udivsi3>
   2f088:	a0a9383a 	mul	r20,r20,r2
   2f08c:	94bfffcc 	andi	r18,r18,65535
   2f090:	9ca4b03a 	or	r18,r19,r18
   2f094:	9500052e 	bgeu	r18,r20,2f0ac <__udivdi3+0x12c>
   2f098:	8ca5883a 	add	r18,r17,r18
   2f09c:	10ffffc4 	addi	r3,r2,-1
   2f0a0:	94400136 	bltu	r18,r17,2f0a8 <__udivdi3+0x128>
   2f0a4:	95011236 	bltu	r18,r20,2f4f0 <__udivdi3+0x570>
   2f0a8:	1805883a 	mov	r2,r3
   2f0ac:	8020943a 	slli	r16,r16,16
   2f0b0:	0007883a 	mov	r3,zero
   2f0b4:	8084b03a 	or	r2,r16,r2
   2f0b8:	00000306 	br	2f0c8 <__udivdi3+0x148>
   2f0bc:	29c00e2e 	bgeu	r5,r7,2f0f8 <__udivdi3+0x178>
   2f0c0:	0007883a 	mov	r3,zero
   2f0c4:	0005883a 	mov	r2,zero
   2f0c8:	dfc00a17 	ldw	ra,40(sp)
   2f0cc:	df000917 	ldw	fp,36(sp)
   2f0d0:	ddc00817 	ldw	r23,32(sp)
   2f0d4:	dd800717 	ldw	r22,28(sp)
   2f0d8:	dd400617 	ldw	r21,24(sp)
   2f0dc:	dd000517 	ldw	r20,20(sp)
   2f0e0:	dcc00417 	ldw	r19,16(sp)
   2f0e4:	dc800317 	ldw	r18,12(sp)
   2f0e8:	dc400217 	ldw	r17,8(sp)
   2f0ec:	dc000117 	ldw	r16,4(sp)
   2f0f0:	dec00b04 	addi	sp,sp,44
   2f0f4:	f800283a 	ret
   2f0f8:	00bfffd4 	movui	r2,65535
   2f0fc:	11c05a2e 	bgeu	r2,r7,2f268 <__udivdi3+0x2e8>
   2f100:	00804034 	movhi	r2,256
   2f104:	3880dd36 	bltu	r7,r2,2f47c <__udivdi3+0x4fc>
   2f108:	3806d63a 	srli	r3,r7,24
   2f10c:	01000604 	movi	r4,24
   2f110:	008000f4 	movhi	r2,3
   2f114:	1885883a 	add	r2,r3,r2
   2f118:	10d20103 	ldbu	r3,18436(r2)
   2f11c:	00800804 	movi	r2,32
   2f120:	1907883a 	add	r3,r3,r4
   2f124:	10ebc83a 	sub	r21,r2,r3
   2f128:	10c0861e 	bne	r2,r3,2f344 <__udivdi3+0x3c4>
   2f12c:	3c00d836 	bltu	r7,r16,2f490 <__udivdi3+0x510>
   2f130:	9985403a 	cmpgeu	r2,r19,r6
   2f134:	0007883a 	mov	r3,zero
   2f138:	003fe306 	br	2f0c8 <__udivdi3+0x148>
   2f13c:	3000041e 	bne	r6,zero,2f150 <__udivdi3+0x1d0>
   2f140:	000b883a 	mov	r5,zero
   2f144:	01000044 	movi	r4,1
   2f148:	0020f900 	call	20f90 <__udivsi3>
   2f14c:	1023883a 	mov	r17,r2
   2f150:	00bfffd4 	movui	r2,65535
   2f154:	14403a2e 	bgeu	r2,r17,2f240 <__udivdi3+0x2c0>
   2f158:	00804034 	movhi	r2,256
   2f15c:	8880d236 	bltu	r17,r2,2f4a8 <__udivdi3+0x528>
   2f160:	8806d63a 	srli	r3,r17,24
   2f164:	05000604 	movi	r20,24
   2f168:	008000f4 	movhi	r2,3
   2f16c:	1885883a 	add	r2,r3,r2
   2f170:	10920103 	ldbu	r2,18436(r2)
   2f174:	00c00804 	movi	r3,32
   2f178:	1505883a 	add	r2,r2,r20
   2f17c:	188dc83a 	sub	r6,r3,r2
   2f180:	18803e1e 	bne	r3,r2,2f27c <__udivdi3+0x2fc>
   2f184:	882ad43a 	srli	r21,r17,16
   2f188:	8461c83a 	sub	r16,r16,r17
   2f18c:	8cffffcc 	andi	r19,r17,65535
   2f190:	00c00044 	movi	r3,1
   2f194:	8009883a 	mov	r4,r16
   2f198:	a80b883a 	mov	r5,r21
   2f19c:	d8c00015 	stw	r3,0(sp)
   2f1a0:	0020ff40 	call	20ff4 <__umodsi3>
   2f1a4:	8009883a 	mov	r4,r16
   2f1a8:	a80b883a 	mov	r5,r21
   2f1ac:	1021883a 	mov	r16,r2
   2f1b0:	0020f900 	call	20f90 <__udivsi3>
   2f1b4:	8020943a 	slli	r16,r16,16
   2f1b8:	9008d43a 	srli	r4,r18,16
   2f1bc:	1029883a 	mov	r20,r2
   2f1c0:	14c5383a 	mul	r2,r2,r19
   2f1c4:	8108b03a 	or	r4,r16,r4
   2f1c8:	d8c00017 	ldw	r3,0(sp)
   2f1cc:	2080052e 	bgeu	r4,r2,2f1e4 <__udivdi3+0x264>
   2f1d0:	2449883a 	add	r4,r4,r17
   2f1d4:	a17fffc4 	addi	r5,r20,-1
   2f1d8:	24400136 	bltu	r4,r17,2f1e0 <__udivdi3+0x260>
   2f1dc:	2080c936 	bltu	r4,r2,2f504 <__udivdi3+0x584>
   2f1e0:	2829883a 	mov	r20,r5
   2f1e4:	20a1c83a 	sub	r16,r4,r2
   2f1e8:	8009883a 	mov	r4,r16
   2f1ec:	a80b883a 	mov	r5,r21
   2f1f0:	d8c00015 	stw	r3,0(sp)
   2f1f4:	0020ff40 	call	20ff4 <__umodsi3>
   2f1f8:	8009883a 	mov	r4,r16
   2f1fc:	a80b883a 	mov	r5,r21
   2f200:	1021883a 	mov	r16,r2
   2f204:	8020943a 	slli	r16,r16,16
   2f208:	0020f900 	call	20f90 <__udivsi3>
   2f20c:	14e7383a 	mul	r19,r2,r19
   2f210:	94bfffcc 	andi	r18,r18,65535
   2f214:	84a4b03a 	or	r18,r16,r18
   2f218:	d8c00017 	ldw	r3,0(sp)
   2f21c:	94c0052e 	bgeu	r18,r19,2f234 <__udivdi3+0x2b4>
   2f220:	8ca5883a 	add	r18,r17,r18
   2f224:	113fffc4 	addi	r4,r2,-1
   2f228:	94400136 	bltu	r18,r17,2f230 <__udivdi3+0x2b0>
   2f22c:	94c0ae36 	bltu	r18,r19,2f4e8 <__udivdi3+0x568>
   2f230:	2005883a 	mov	r2,r4
   2f234:	a00c943a 	slli	r6,r20,16
   2f238:	3084b03a 	or	r2,r6,r2
   2f23c:	003fa206 	br	2f0c8 <__udivdi3+0x148>
   2f240:	88804030 	cmpltui	r2,r17,256
   2f244:	10009e1e 	bne	r2,zero,2f4c0 <__udivdi3+0x540>
   2f248:	8806d23a 	srli	r3,r17,8
   2f24c:	05000204 	movi	r20,8
   2f250:	003fc506 	br	2f168 <__udivdi3+0x1e8>
   2f254:	30804030 	cmpltui	r2,r6,256
   2f258:	10008b1e 	bne	r2,zero,2f488 <__udivdi3+0x508>
   2f25c:	3006d23a 	srli	r3,r6,8
   2f260:	05000204 	movi	r20,8
   2f264:	003f5f06 	br	2efe4 <__udivdi3+0x64>
   2f268:	38804030 	cmpltui	r2,r7,256
   2f26c:	10008b1e 	bne	r2,zero,2f49c <__udivdi3+0x51c>
   2f270:	3806d23a 	srli	r3,r7,8
   2f274:	01000204 	movi	r4,8
   2f278:	003fa506 	br	2f110 <__udivdi3+0x190>
   2f27c:	89a2983a 	sll	r17,r17,r6
   2f280:	80acd83a 	srl	r22,r16,r2
   2f284:	81a0983a 	sll	r16,r16,r6
   2f288:	882ad43a 	srli	r21,r17,16
   2f28c:	9884d83a 	srl	r2,r19,r2
   2f290:	b009883a 	mov	r4,r22
   2f294:	a80b883a 	mov	r5,r21
   2f298:	99a4983a 	sll	r18,r19,r6
   2f29c:	1428b03a 	or	r20,r2,r16
   2f2a0:	0020ff40 	call	20ff4 <__umodsi3>
   2f2a4:	b009883a 	mov	r4,r22
   2f2a8:	a80b883a 	mov	r5,r21
   2f2ac:	1021883a 	mov	r16,r2
   2f2b0:	0020f900 	call	20f90 <__udivsi3>
   2f2b4:	8008943a 	slli	r4,r16,16
   2f2b8:	a00ad43a 	srli	r5,r20,16
   2f2bc:	8cffffcc 	andi	r19,r17,65535
   2f2c0:	98a1383a 	mul	r16,r19,r2
   2f2c4:	2148b03a 	or	r4,r4,r5
   2f2c8:	102d883a 	mov	r22,r2
   2f2cc:	2400062e 	bgeu	r4,r16,2f2e8 <__udivdi3+0x368>
   2f2d0:	2449883a 	add	r4,r4,r17
   2f2d4:	10bfffc4 	addi	r2,r2,-1
   2f2d8:	24408136 	bltu	r4,r17,2f4e0 <__udivdi3+0x560>
   2f2dc:	2400802e 	bgeu	r4,r16,2f4e0 <__udivdi3+0x560>
   2f2e0:	b5bfff84 	addi	r22,r22,-2
   2f2e4:	2449883a 	add	r4,r4,r17
   2f2e8:	2421c83a 	sub	r16,r4,r16
   2f2ec:	8009883a 	mov	r4,r16
   2f2f0:	a80b883a 	mov	r5,r21
   2f2f4:	0020ff40 	call	20ff4 <__umodsi3>
   2f2f8:	8009883a 	mov	r4,r16
   2f2fc:	a80b883a 	mov	r5,r21
   2f300:	1021883a 	mov	r16,r2
   2f304:	8020943a 	slli	r16,r16,16
   2f308:	0020f900 	call	20f90 <__udivsi3>
   2f30c:	9889383a 	mul	r4,r19,r2
   2f310:	a53fffcc 	andi	r20,r20,65535
   2f314:	8520b03a 	or	r16,r16,r20
   2f318:	8100062e 	bgeu	r16,r4,2f334 <__udivdi3+0x3b4>
   2f31c:	8461883a 	add	r16,r16,r17
   2f320:	10ffffc4 	addi	r3,r2,-1
   2f324:	84406a36 	bltu	r16,r17,2f4d0 <__udivdi3+0x550>
   2f328:	8100692e 	bgeu	r16,r4,2f4d0 <__udivdi3+0x550>
   2f32c:	10bfff84 	addi	r2,r2,-2
   2f330:	8461883a 	add	r16,r16,r17
   2f334:	b006943a 	slli	r3,r22,16
   2f338:	8121c83a 	sub	r16,r16,r4
   2f33c:	1886b03a 	or	r3,r3,r2
   2f340:	003f9406 	br	2f194 <__udivdi3+0x214>
   2f344:	30ecd83a 	srl	r22,r6,r3
   2f348:	3d4e983a 	sll	r7,r7,r21
   2f34c:	80e4d83a 	srl	r18,r16,r3
   2f350:	98e2d83a 	srl	r17,r19,r3
   2f354:	b1ecb03a 	or	r22,r22,r7
   2f358:	b038d43a 	srli	fp,r22,16
   2f35c:	8546983a 	sll	r3,r16,r21
   2f360:	9009883a 	mov	r4,r18
   2f364:	e00b883a 	mov	r5,fp
   2f368:	88e2b03a 	or	r17,r17,r3
   2f36c:	3568983a 	sll	r20,r6,r21
   2f370:	0020ff40 	call	20ff4 <__umodsi3>
   2f374:	9009883a 	mov	r4,r18
   2f378:	e00b883a 	mov	r5,fp
   2f37c:	1025883a 	mov	r18,r2
   2f380:	0020f900 	call	20f90 <__udivsi3>
   2f384:	9008943a 	slli	r4,r18,16
   2f388:	8806d43a 	srli	r3,r17,16
   2f38c:	b5ffffcc 	andi	r23,r22,65535
   2f390:	b8a5383a 	mul	r18,r23,r2
   2f394:	20c8b03a 	or	r4,r4,r3
   2f398:	1021883a 	mov	r16,r2
   2f39c:	2480062e 	bgeu	r4,r18,2f3b8 <__udivdi3+0x438>
   2f3a0:	2589883a 	add	r4,r4,r22
   2f3a4:	10bfffc4 	addi	r2,r2,-1
   2f3a8:	25804b36 	bltu	r4,r22,2f4d8 <__udivdi3+0x558>
   2f3ac:	24804a2e 	bgeu	r4,r18,2f4d8 <__udivdi3+0x558>
   2f3b0:	843fff84 	addi	r16,r16,-2
   2f3b4:	2589883a 	add	r4,r4,r22
   2f3b8:	24a5c83a 	sub	r18,r4,r18
   2f3bc:	9009883a 	mov	r4,r18
   2f3c0:	e00b883a 	mov	r5,fp
   2f3c4:	0020ff40 	call	20ff4 <__umodsi3>
   2f3c8:	9009883a 	mov	r4,r18
   2f3cc:	e00b883a 	mov	r5,fp
   2f3d0:	1025883a 	mov	r18,r2
   2f3d4:	9024943a 	slli	r18,r18,16
   2f3d8:	0020f900 	call	20f90 <__udivsi3>
   2f3dc:	b8af383a 	mul	r23,r23,r2
   2f3e0:	8c7fffcc 	andi	r17,r17,65535
   2f3e4:	9462b03a 	or	r17,r18,r17
   2f3e8:	8dc0062e 	bgeu	r17,r23,2f404 <__udivdi3+0x484>
   2f3ec:	8da3883a 	add	r17,r17,r22
   2f3f0:	10ffffc4 	addi	r3,r2,-1
   2f3f4:	8d803436 	bltu	r17,r22,2f4c8 <__udivdi3+0x548>
   2f3f8:	8dc0332e 	bgeu	r17,r23,2f4c8 <__udivdi3+0x548>
   2f3fc:	10bfff84 	addi	r2,r2,-2
   2f400:	8da3883a 	add	r17,r17,r22
   2f404:	8020943a 	slli	r16,r16,16
   2f408:	10ffffcc 	andi	r3,r2,65535
   2f40c:	a00ed43a 	srli	r7,r20,16
   2f410:	8084b03a 	or	r2,r16,r2
   2f414:	1008d43a 	srli	r4,r2,16
   2f418:	a1bfffcc 	andi	r6,r20,65535
   2f41c:	1991383a 	mul	r8,r3,r6
   2f420:	218d383a 	mul	r6,r4,r6
   2f424:	19c7383a 	mul	r3,r3,r7
   2f428:	400ad43a 	srli	r5,r8,16
   2f42c:	21c9383a 	mul	r4,r4,r7
   2f430:	1987883a 	add	r3,r3,r6
   2f434:	28c7883a 	add	r3,r5,r3
   2f438:	8de3c83a 	sub	r17,r17,r23
   2f43c:	1980022e 	bgeu	r3,r6,2f448 <__udivdi3+0x4c8>
   2f440:	01400074 	movhi	r5,1
   2f444:	2149883a 	add	r4,r4,r5
   2f448:	180ad43a 	srli	r5,r3,16
   2f44c:	2909883a 	add	r4,r5,r4
   2f450:	89000836 	bltu	r17,r4,2f474 <__udivdi3+0x4f4>
   2f454:	89000226 	beq	r17,r4,2f460 <__udivdi3+0x4e0>
   2f458:	0007883a 	mov	r3,zero
   2f45c:	003f1a06 	br	2f0c8 <__udivdi3+0x148>
   2f460:	1806943a 	slli	r3,r3,16
   2f464:	9d4c983a 	sll	r6,r19,r21
   2f468:	423fffcc 	andi	r8,r8,65535
   2f46c:	1a07883a 	add	r3,r3,r8
   2f470:	30fff92e 	bgeu	r6,r3,2f458 <__udivdi3+0x4d8>
   2f474:	10bfffc4 	addi	r2,r2,-1
   2f478:	003ff706 	br	2f458 <__udivdi3+0x4d8>
   2f47c:	3806d43a 	srli	r3,r7,16
   2f480:	01000404 	movi	r4,16
   2f484:	003f2206 	br	2f110 <__udivdi3+0x190>
   2f488:	3007883a 	mov	r3,r6
   2f48c:	003ed506 	br	2efe4 <__udivdi3+0x64>
   2f490:	0007883a 	mov	r3,zero
   2f494:	00800044 	movi	r2,1
   2f498:	003f0b06 	br	2f0c8 <__udivdi3+0x148>
   2f49c:	3807883a 	mov	r3,r7
   2f4a0:	0009883a 	mov	r4,zero
   2f4a4:	003f1a06 	br	2f110 <__udivdi3+0x190>
   2f4a8:	8806d43a 	srli	r3,r17,16
   2f4ac:	05000404 	movi	r20,16
   2f4b0:	003f2d06 	br	2f168 <__udivdi3+0x1e8>
   2f4b4:	3006d43a 	srli	r3,r6,16
   2f4b8:	05000404 	movi	r20,16
   2f4bc:	003ec906 	br	2efe4 <__udivdi3+0x64>
   2f4c0:	8807883a 	mov	r3,r17
   2f4c4:	003f2806 	br	2f168 <__udivdi3+0x1e8>
   2f4c8:	1805883a 	mov	r2,r3
   2f4cc:	003fcd06 	br	2f404 <__udivdi3+0x484>
   2f4d0:	1805883a 	mov	r2,r3
   2f4d4:	003f9706 	br	2f334 <__udivdi3+0x3b4>
   2f4d8:	1021883a 	mov	r16,r2
   2f4dc:	003fb606 	br	2f3b8 <__udivdi3+0x438>
   2f4e0:	102d883a 	mov	r22,r2
   2f4e4:	003f8006 	br	2f2e8 <__udivdi3+0x368>
   2f4e8:	10bfff84 	addi	r2,r2,-2
   2f4ec:	003f5106 	br	2f234 <__udivdi3+0x2b4>
   2f4f0:	10bfff84 	addi	r2,r2,-2
   2f4f4:	003eed06 	br	2f0ac <__udivdi3+0x12c>
   2f4f8:	843fff84 	addi	r16,r16,-2
   2f4fc:	2449883a 	add	r4,r4,r17
   2f500:	003ed806 	br	2f064 <__udivdi3+0xe4>
   2f504:	a53fff84 	addi	r20,r20,-2
   2f508:	2449883a 	add	r4,r4,r17
   2f50c:	003f3506 	br	2f1e4 <__udivdi3+0x264>

0002f510 <__umoddi3>:
   2f510:	defff504 	addi	sp,sp,-44
   2f514:	dc400215 	stw	r17,8(sp)
   2f518:	dc000115 	stw	r16,4(sp)
   2f51c:	dfc00a15 	stw	ra,40(sp)
   2f520:	df000915 	stw	fp,36(sp)
   2f524:	ddc00815 	stw	r23,32(sp)
   2f528:	dd800715 	stw	r22,28(sp)
   2f52c:	dd400615 	stw	r21,24(sp)
   2f530:	dd000515 	stw	r20,20(sp)
   2f534:	dcc00415 	stw	r19,16(sp)
   2f538:	dc800315 	stw	r18,12(sp)
   2f53c:	2823883a 	mov	r17,r5
   2f540:	2021883a 	mov	r16,r4
   2f544:	3800371e 	bne	r7,zero,2f624 <__umoddi3+0x114>
   2f548:	3825883a 	mov	r18,r7
   2f54c:	3029883a 	mov	r20,r6
   2f550:	2027883a 	mov	r19,r4
   2f554:	2980572e 	bgeu	r5,r6,2f6b4 <__umoddi3+0x1a4>
   2f558:	00bfffd4 	movui	r2,65535
   2f55c:	282b883a 	mov	r21,r5
   2f560:	1180922e 	bgeu	r2,r6,2f7ac <__umoddi3+0x29c>
   2f564:	00804034 	movhi	r2,256
   2f568:	30812036 	bltu	r6,r2,2f9ec <__umoddi3+0x4dc>
   2f56c:	3006d63a 	srli	r3,r6,24
   2f570:	04800604 	movi	r18,24
   2f574:	008000f4 	movhi	r2,3
   2f578:	1885883a 	add	r2,r3,r2
   2f57c:	10920103 	ldbu	r2,18436(r2)
   2f580:	00c00804 	movi	r3,32
   2f584:	1485883a 	add	r2,r2,r18
   2f588:	18a5c83a 	sub	r18,r3,r2
   2f58c:	18800526 	beq	r3,r2,2f5a4 <__umoddi3+0x94>
   2f590:	8ca2983a 	sll	r17,r17,r18
   2f594:	8084d83a 	srl	r2,r16,r2
   2f598:	34a8983a 	sll	r20,r6,r18
   2f59c:	84a6983a 	sll	r19,r16,r18
   2f5a0:	146ab03a 	or	r21,r2,r17
   2f5a4:	a02ed43a 	srli	r23,r20,16
   2f5a8:	a809883a 	mov	r4,r21
   2f5ac:	a43fffcc 	andi	r16,r20,65535
   2f5b0:	b80b883a 	mov	r5,r23
   2f5b4:	0020ff40 	call	20ff4 <__umodsi3>
   2f5b8:	a809883a 	mov	r4,r21
   2f5bc:	b80b883a 	mov	r5,r23
   2f5c0:	102d883a 	mov	r22,r2
   2f5c4:	0020f900 	call	20f90 <__udivsi3>
   2f5c8:	b02c943a 	slli	r22,r22,16
   2f5cc:	9808d43a 	srli	r4,r19,16
   2f5d0:	80ab383a 	mul	r21,r16,r2
   2f5d4:	b108b03a 	or	r4,r22,r4
   2f5d8:	2540042e 	bgeu	r4,r21,2f5ec <__umoddi3+0xdc>
   2f5dc:	2509883a 	add	r4,r4,r20
   2f5e0:	25000236 	bltu	r4,r20,2f5ec <__umoddi3+0xdc>
   2f5e4:	2540012e 	bgeu	r4,r21,2f5ec <__umoddi3+0xdc>
   2f5e8:	2509883a 	add	r4,r4,r20
   2f5ec:	256bc83a 	sub	r21,r4,r21
   2f5f0:	b80b883a 	mov	r5,r23
   2f5f4:	a809883a 	mov	r4,r21
   2f5f8:	0020ff40 	call	20ff4 <__umodsi3>
   2f5fc:	1023883a 	mov	r17,r2
   2f600:	b80b883a 	mov	r5,r23
   2f604:	a809883a 	mov	r4,r21
   2f608:	0020f900 	call	20f90 <__udivsi3>
   2f60c:	8822943a 	slli	r17,r17,16
   2f610:	8085383a 	mul	r2,r16,r2
   2f614:	98ffffcc 	andi	r3,r19,65535
   2f618:	88c6b03a 	or	r3,r17,r3
   2f61c:	18805a2e 	bgeu	r3,r2,2f788 <__umoddi3+0x278>
   2f620:	00005506 	br	2f778 <__umoddi3+0x268>
   2f624:	2005883a 	mov	r2,r4
   2f628:	29c00d2e 	bgeu	r5,r7,2f660 <__umoddi3+0x150>
   2f62c:	2807883a 	mov	r3,r5
   2f630:	dfc00a17 	ldw	ra,40(sp)
   2f634:	df000917 	ldw	fp,36(sp)
   2f638:	ddc00817 	ldw	r23,32(sp)
   2f63c:	dd800717 	ldw	r22,28(sp)
   2f640:	dd400617 	ldw	r21,24(sp)
   2f644:	dd000517 	ldw	r20,20(sp)
   2f648:	dcc00417 	ldw	r19,16(sp)
   2f64c:	dc800317 	ldw	r18,12(sp)
   2f650:	dc400217 	ldw	r17,8(sp)
   2f654:	dc000117 	ldw	r16,4(sp)
   2f658:	dec00b04 	addi	sp,sp,44
   2f65c:	f800283a 	ret
   2f660:	013fffd4 	movui	r4,65535
   2f664:	2807883a 	mov	r3,r5
   2f668:	21c0552e 	bgeu	r4,r7,2f7c0 <__umoddi3+0x2b0>
   2f66c:	01004034 	movhi	r4,256
   2f670:	3900e336 	bltu	r7,r4,2fa00 <__umoddi3+0x4f0>
   2f674:	3808d63a 	srli	r4,r7,24
   2f678:	02000604 	movi	r8,24
   2f67c:	014000f4 	movhi	r5,3
   2f680:	214b883a 	add	r5,r4,r5
   2f684:	2d520103 	ldbu	r21,18436(r5)
   2f688:	01000804 	movi	r4,32
   2f68c:	aa2b883a 	add	r21,r21,r8
   2f690:	2569c83a 	sub	r20,r4,r21
   2f694:	25404f1e 	bne	r4,r21,2f7d4 <__umoddi3+0x2c4>
   2f698:	3c400136 	bltu	r7,r17,2f6a0 <__umoddi3+0x190>
   2f69c:	81bfe436 	bltu	r16,r6,2f630 <__umoddi3+0x120>
   2f6a0:	8185c83a 	sub	r2,r16,r6
   2f6a4:	89cfc83a 	sub	r7,r17,r7
   2f6a8:	8087803a 	cmpltu	r3,r16,r2
   2f6ac:	38c7c83a 	sub	r3,r7,r3
   2f6b0:	003fdf06 	br	2f630 <__umoddi3+0x120>
   2f6b4:	3000041e 	bne	r6,zero,2f6c8 <__umoddi3+0x1b8>
   2f6b8:	000b883a 	mov	r5,zero
   2f6bc:	01000044 	movi	r4,1
   2f6c0:	0020f900 	call	20f90 <__udivsi3>
   2f6c4:	1029883a 	mov	r20,r2
   2f6c8:	00bfffd4 	movui	r2,65535
   2f6cc:	1500322e 	bgeu	r2,r20,2f798 <__umoddi3+0x288>
   2f6d0:	00804034 	movhi	r2,256
   2f6d4:	a080cd36 	bltu	r20,r2,2fa0c <__umoddi3+0x4fc>
   2f6d8:	a006d63a 	srli	r3,r20,24
   2f6dc:	04800604 	movi	r18,24
   2f6e0:	008000f4 	movhi	r2,3
   2f6e4:	1885883a 	add	r2,r3,r2
   2f6e8:	15920103 	ldbu	r22,18436(r2)
   2f6ec:	00800804 	movi	r2,32
   2f6f0:	b4ad883a 	add	r22,r22,r18
   2f6f4:	15a5c83a 	sub	r18,r2,r22
   2f6f8:	15808a1e 	bne	r2,r22,2f924 <__umoddi3+0x414>
   2f6fc:	a02ed43a 	srli	r23,r20,16
   2f700:	8d23c83a 	sub	r17,r17,r20
   2f704:	a57fffcc 	andi	r21,r20,65535
   2f708:	b80b883a 	mov	r5,r23
   2f70c:	8809883a 	mov	r4,r17
   2f710:	0020ff40 	call	20ff4 <__umodsi3>
   2f714:	8809883a 	mov	r4,r17
   2f718:	b80b883a 	mov	r5,r23
   2f71c:	102d883a 	mov	r22,r2
   2f720:	0020f900 	call	20f90 <__udivsi3>
   2f724:	b02c943a 	slli	r22,r22,16
   2f728:	9808d43a 	srli	r4,r19,16
   2f72c:	1561383a 	mul	r16,r2,r21
   2f730:	b108b03a 	or	r4,r22,r4
   2f734:	2400032e 	bgeu	r4,r16,2f744 <__umoddi3+0x234>
   2f738:	2509883a 	add	r4,r4,r20
   2f73c:	25000136 	bltu	r4,r20,2f744 <__umoddi3+0x234>
   2f740:	2400be36 	bltu	r4,r16,2fa3c <__umoddi3+0x52c>
   2f744:	2421c83a 	sub	r16,r4,r16
   2f748:	b80b883a 	mov	r5,r23
   2f74c:	8009883a 	mov	r4,r16
   2f750:	0020ff40 	call	20ff4 <__umodsi3>
   2f754:	1023883a 	mov	r17,r2
   2f758:	b80b883a 	mov	r5,r23
   2f75c:	8009883a 	mov	r4,r16
   2f760:	0020f900 	call	20f90 <__udivsi3>
   2f764:	8822943a 	slli	r17,r17,16
   2f768:	1545383a 	mul	r2,r2,r21
   2f76c:	9cffffcc 	andi	r19,r19,65535
   2f770:	8cc6b03a 	or	r3,r17,r19
   2f774:	1880042e 	bgeu	r3,r2,2f788 <__umoddi3+0x278>
   2f778:	1d07883a 	add	r3,r3,r20
   2f77c:	1d000236 	bltu	r3,r20,2f788 <__umoddi3+0x278>
   2f780:	1880012e 	bgeu	r3,r2,2f788 <__umoddi3+0x278>
   2f784:	1d07883a 	add	r3,r3,r20
   2f788:	1885c83a 	sub	r2,r3,r2
   2f78c:	1484d83a 	srl	r2,r2,r18
   2f790:	0007883a 	mov	r3,zero
   2f794:	003fa606 	br	2f630 <__umoddi3+0x120>
   2f798:	a0804030 	cmpltui	r2,r20,256
   2f79c:	10009e1e 	bne	r2,zero,2fa18 <__umoddi3+0x508>
   2f7a0:	a006d23a 	srli	r3,r20,8
   2f7a4:	04800204 	movi	r18,8
   2f7a8:	003fcd06 	br	2f6e0 <__umoddi3+0x1d0>
   2f7ac:	30804030 	cmpltui	r2,r6,256
   2f7b0:	1000911e 	bne	r2,zero,2f9f8 <__umoddi3+0x4e8>
   2f7b4:	3006d23a 	srli	r3,r6,8
   2f7b8:	04800204 	movi	r18,8
   2f7bc:	003f6d06 	br	2f574 <__umoddi3+0x64>
   2f7c0:	39004030 	cmpltui	r4,r7,256
   2f7c4:	2000961e 	bne	r4,zero,2fa20 <__umoddi3+0x510>
   2f7c8:	3808d23a 	srli	r4,r7,8
   2f7cc:	02000204 	movi	r8,8
   2f7d0:	003faa06 	br	2f67c <__umoddi3+0x16c>
   2f7d4:	3d0e983a 	sll	r7,r7,r20
   2f7d8:	3544d83a 	srl	r2,r6,r21
   2f7dc:	8d64d83a 	srl	r18,r17,r21
   2f7e0:	8d22983a 	sll	r17,r17,r20
   2f7e4:	11eeb03a 	or	r23,r2,r7
   2f7e8:	b838d43a 	srli	fp,r23,16
   2f7ec:	8544d83a 	srl	r2,r16,r21
   2f7f0:	9009883a 	mov	r4,r18
   2f7f4:	e00b883a 	mov	r5,fp
   2f7f8:	3526983a 	sll	r19,r6,r20
   2f7fc:	1462b03a 	or	r17,r2,r17
   2f800:	0020ff40 	call	20ff4 <__umodsi3>
   2f804:	9009883a 	mov	r4,r18
   2f808:	e00b883a 	mov	r5,fp
   2f80c:	1025883a 	mov	r18,r2
   2f810:	0020f900 	call	20f90 <__udivsi3>
   2f814:	9008943a 	slli	r4,r18,16
   2f818:	8806d43a 	srli	r3,r17,16
   2f81c:	b9ffffcc 	andi	r7,r23,65535
   2f820:	38a5383a 	mul	r18,r7,r2
   2f824:	20c8b03a 	or	r4,r4,r3
   2f828:	8520983a 	sll	r16,r16,r20
   2f82c:	102d883a 	mov	r22,r2
   2f830:	2480062e 	bgeu	r4,r18,2f84c <__umoddi3+0x33c>
   2f834:	25c9883a 	add	r4,r4,r23
   2f838:	10bfffc4 	addi	r2,r2,-1
   2f83c:	25c07d36 	bltu	r4,r23,2fa34 <__umoddi3+0x524>
   2f840:	24807c2e 	bgeu	r4,r18,2fa34 <__umoddi3+0x524>
   2f844:	b5bfff84 	addi	r22,r22,-2
   2f848:	25c9883a 	add	r4,r4,r23
   2f84c:	24a5c83a 	sub	r18,r4,r18
   2f850:	9009883a 	mov	r4,r18
   2f854:	e00b883a 	mov	r5,fp
   2f858:	d9c00015 	stw	r7,0(sp)
   2f85c:	0020ff40 	call	20ff4 <__umodsi3>
   2f860:	9009883a 	mov	r4,r18
   2f864:	e00b883a 	mov	r5,fp
   2f868:	1025883a 	mov	r18,r2
   2f86c:	0020f900 	call	20f90 <__udivsi3>
   2f870:	d9c00017 	ldw	r7,0(sp)
   2f874:	9024943a 	slli	r18,r18,16
   2f878:	8c7fffcc 	andi	r17,r17,65535
   2f87c:	388f383a 	mul	r7,r7,r2
   2f880:	9448b03a 	or	r4,r18,r17
   2f884:	21c0062e 	bgeu	r4,r7,2f8a0 <__umoddi3+0x390>
   2f888:	25c9883a 	add	r4,r4,r23
   2f88c:	10ffffc4 	addi	r3,r2,-1
   2f890:	25c06636 	bltu	r4,r23,2fa2c <__umoddi3+0x51c>
   2f894:	21c0652e 	bgeu	r4,r7,2fa2c <__umoddi3+0x51c>
   2f898:	10bfff84 	addi	r2,r2,-2
   2f89c:	25c9883a 	add	r4,r4,r23
   2f8a0:	b00a943a 	slli	r5,r22,16
   2f8a4:	11bfffcc 	andi	r6,r2,65535
   2f8a8:	9806d43a 	srli	r3,r19,16
   2f8ac:	2884b03a 	or	r2,r5,r2
   2f8b0:	102cd43a 	srli	r22,r2,16
   2f8b4:	997fffcc 	andi	r5,r19,65535
   2f8b8:	3151383a 	mul	r8,r6,r5
   2f8bc:	b14b383a 	mul	r5,r22,r5
   2f8c0:	30cd383a 	mul	r6,r6,r3
   2f8c4:	4004d43a 	srli	r2,r8,16
   2f8c8:	b0ed383a 	mul	r22,r22,r3
   2f8cc:	314d883a 	add	r6,r6,r5
   2f8d0:	1185883a 	add	r2,r2,r6
   2f8d4:	21c9c83a 	sub	r4,r4,r7
   2f8d8:	1140022e 	bgeu	r2,r5,2f8e4 <__umoddi3+0x3d4>
   2f8dc:	00c00074 	movhi	r3,1
   2f8e0:	b0ed883a 	add	r22,r22,r3
   2f8e4:	1006d43a 	srli	r3,r2,16
   2f8e8:	1004943a 	slli	r2,r2,16
   2f8ec:	423fffcc 	andi	r8,r8,65535
   2f8f0:	1dad883a 	add	r22,r3,r22
   2f8f4:	1205883a 	add	r2,r2,r8
   2f8f8:	25803636 	bltu	r4,r22,2f9d4 <__umoddi3+0x4c4>
   2f8fc:	25803426 	beq	r4,r22,2f9d0 <__umoddi3+0x4c0>
   2f900:	8085c83a 	sub	r2,r16,r2
   2f904:	8087803a 	cmpltu	r3,r16,r2
   2f908:	2589c83a 	sub	r4,r4,r22
   2f90c:	20c7c83a 	sub	r3,r4,r3
   2f910:	1d60983a 	sll	r16,r3,r21
   2f914:	1504d83a 	srl	r2,r2,r20
   2f918:	1d06d83a 	srl	r3,r3,r20
   2f91c:	8084b03a 	or	r2,r16,r2
   2f920:	003f4306 	br	2f630 <__umoddi3+0x120>
   2f924:	a4a8983a 	sll	r20,r20,r18
   2f928:	8daad83a 	srl	r21,r17,r22
   2f92c:	8ca2983a 	sll	r17,r17,r18
   2f930:	a02ed43a 	srli	r23,r20,16
   2f934:	a809883a 	mov	r4,r21
   2f938:	85acd83a 	srl	r22,r16,r22
   2f93c:	b80b883a 	mov	r5,r23
   2f940:	0020ff40 	call	20ff4 <__umodsi3>
   2f944:	a809883a 	mov	r4,r21
   2f948:	b80b883a 	mov	r5,r23
   2f94c:	b46cb03a 	or	r22,r22,r17
   2f950:	1027883a 	mov	r19,r2
   2f954:	0020f900 	call	20f90 <__udivsi3>
   2f958:	9826943a 	slli	r19,r19,16
   2f95c:	b008d43a 	srli	r4,r22,16
   2f960:	a57fffcc 	andi	r21,r20,65535
   2f964:	a8a3383a 	mul	r17,r21,r2
   2f968:	9908b03a 	or	r4,r19,r4
   2f96c:	84a6983a 	sll	r19,r16,r18
   2f970:	2440042e 	bgeu	r4,r17,2f984 <__umoddi3+0x474>
   2f974:	2509883a 	add	r4,r4,r20
   2f978:	25000236 	bltu	r4,r20,2f984 <__umoddi3+0x474>
   2f97c:	2440012e 	bgeu	r4,r17,2f984 <__umoddi3+0x474>
   2f980:	2509883a 	add	r4,r4,r20
   2f984:	2463c83a 	sub	r17,r4,r17
   2f988:	8809883a 	mov	r4,r17
   2f98c:	b80b883a 	mov	r5,r23
   2f990:	0020ff40 	call	20ff4 <__umodsi3>
   2f994:	1021883a 	mov	r16,r2
   2f998:	8809883a 	mov	r4,r17
   2f99c:	b80b883a 	mov	r5,r23
   2f9a0:	8020943a 	slli	r16,r16,16
   2f9a4:	0020f900 	call	20f90 <__udivsi3>
   2f9a8:	a885383a 	mul	r2,r21,r2
   2f9ac:	b47fffcc 	andi	r17,r22,65535
   2f9b0:	8462b03a 	or	r17,r16,r17
   2f9b4:	8880042e 	bgeu	r17,r2,2f9c8 <__umoddi3+0x4b8>
   2f9b8:	8d23883a 	add	r17,r17,r20
   2f9bc:	8d000236 	bltu	r17,r20,2f9c8 <__umoddi3+0x4b8>
   2f9c0:	8880012e 	bgeu	r17,r2,2f9c8 <__umoddi3+0x4b8>
   2f9c4:	8d23883a 	add	r17,r17,r20
   2f9c8:	88a3c83a 	sub	r17,r17,r2
   2f9cc:	003f4e06 	br	2f708 <__umoddi3+0x1f8>
   2f9d0:	80bfcb2e 	bgeu	r16,r2,2f900 <__umoddi3+0x3f0>
   2f9d4:	14e7c83a 	sub	r19,r2,r19
   2f9d8:	14c5803a 	cmpltu	r2,r2,r19
   2f9dc:	15c5883a 	add	r2,r2,r23
   2f9e0:	b0adc83a 	sub	r22,r22,r2
   2f9e4:	9805883a 	mov	r2,r19
   2f9e8:	003fc506 	br	2f900 <__umoddi3+0x3f0>
   2f9ec:	3006d43a 	srli	r3,r6,16
   2f9f0:	04800404 	movi	r18,16
   2f9f4:	003edf06 	br	2f574 <__umoddi3+0x64>
   2f9f8:	3007883a 	mov	r3,r6
   2f9fc:	003edd06 	br	2f574 <__umoddi3+0x64>
   2fa00:	3808d43a 	srli	r4,r7,16
   2fa04:	02000404 	movi	r8,16
   2fa08:	003f1c06 	br	2f67c <__umoddi3+0x16c>
   2fa0c:	a006d43a 	srli	r3,r20,16
   2fa10:	04800404 	movi	r18,16
   2fa14:	003f3206 	br	2f6e0 <__umoddi3+0x1d0>
   2fa18:	a007883a 	mov	r3,r20
   2fa1c:	003f3006 	br	2f6e0 <__umoddi3+0x1d0>
   2fa20:	3809883a 	mov	r4,r7
   2fa24:	0011883a 	mov	r8,zero
   2fa28:	003f1406 	br	2f67c <__umoddi3+0x16c>
   2fa2c:	1805883a 	mov	r2,r3
   2fa30:	003f9b06 	br	2f8a0 <__umoddi3+0x390>
   2fa34:	102d883a 	mov	r22,r2
   2fa38:	003f8406 	br	2f84c <__umoddi3+0x33c>
   2fa3c:	2509883a 	add	r4,r4,r20
   2fa40:	003f4006 	br	2f744 <__umoddi3+0x234>

0002fa44 <__eqsf2>:
   2fa44:	2006d5fa 	srli	r3,r4,23
   2fa48:	00802034 	movhi	r2,128
   2fa4c:	10bfffc4 	addi	r2,r2,-1
   2fa50:	18c03fcc 	andi	r3,r3,255
   2fa54:	19c03fd8 	cmpnei	r7,r3,255
   2fa58:	2012d7fa 	srli	r9,r4,31
   2fa5c:	280cd5fa 	srli	r6,r5,23
   2fa60:	1108703a 	and	r4,r2,r4
   2fa64:	2810d7fa 	srli	r8,r5,31
   2fa68:	1144703a 	and	r2,r2,r5
   2fa6c:	38000e26 	beq	r7,zero,2faa8 <__eqsf2+0x64>
   2fa70:	31403fcc 	andi	r5,r6,255
   2fa74:	29803fd8 	cmpnei	r6,r5,255
   2fa78:	30000326 	beq	r6,zero,2fa88 <__eqsf2+0x44>
   2fa7c:	19400526 	beq	r3,r5,2fa94 <__eqsf2+0x50>
   2fa80:	00800044 	movi	r2,1
   2fa84:	f800283a 	ret
   2fa88:	103ffc26 	beq	r2,zero,2fa7c <__eqsf2+0x38>
   2fa8c:	00800044 	movi	r2,1
   2fa90:	f800283a 	ret
   2fa94:	20bffa1e 	bne	r4,r2,2fa80 <__eqsf2+0x3c>
   2fa98:	4a000626 	beq	r9,r8,2fab4 <__eqsf2+0x70>
   2fa9c:	183ff81e 	bne	r3,zero,2fa80 <__eqsf2+0x3c>
   2faa0:	2004c03a 	cmpne	r2,r4,zero
   2faa4:	f800283a 	ret
   2faa8:	203ff126 	beq	r4,zero,2fa70 <__eqsf2+0x2c>
   2faac:	00800044 	movi	r2,1
   2fab0:	f800283a 	ret
   2fab4:	0005883a 	mov	r2,zero
   2fab8:	f800283a 	ret

0002fabc <__lesf2>:
   2fabc:	200cd5fa 	srli	r6,r4,23
   2fac0:	00c02034 	movhi	r3,128
   2fac4:	18ffffc4 	addi	r3,r3,-1
   2fac8:	31803fcc 	andi	r6,r6,255
   2facc:	32003fd8 	cmpnei	r8,r6,255
   2fad0:	2012d7fa 	srli	r9,r4,31
   2fad4:	280ed5fa 	srli	r7,r5,23
   2fad8:	1908703a 	and	r4,r3,r4
   2fadc:	2804d7fa 	srli	r2,r5,31
   2fae0:	1946703a 	and	r3,r3,r5
   2fae4:	40000a26 	beq	r8,zero,2fb10 <__lesf2+0x54>
   2fae8:	39403fcc 	andi	r5,r7,255
   2faec:	29c03fd8 	cmpnei	r7,r5,255
   2faf0:	38000b26 	beq	r7,zero,2fb20 <__lesf2+0x64>
   2faf4:	30001b1e 	bne	r6,zero,2fb64 <__lesf2+0xa8>
   2faf8:	200f003a 	cmpeq	r7,r4,zero
   2fafc:	28000b1e 	bne	r5,zero,2fb2c <__lesf2+0x70>
   2fb00:	18000a1e 	bne	r3,zero,2fb2c <__lesf2+0x70>
   2fb04:	20000b1e 	bne	r4,zero,2fb34 <__lesf2+0x78>
   2fb08:	0005883a 	mov	r2,zero
   2fb0c:	f800283a 	ret
   2fb10:	20000c1e 	bne	r4,zero,2fb44 <__lesf2+0x88>
   2fb14:	39403fcc 	andi	r5,r7,255
   2fb18:	29c03fe0 	cmpeqi	r7,r5,255
   2fb1c:	38001126 	beq	r7,zero,2fb64 <__lesf2+0xa8>
   2fb20:	1800081e 	bne	r3,zero,2fb44 <__lesf2+0x88>
   2fb24:	3000021e 	bne	r6,zero,2fb30 <__lesf2+0x74>
   2fb28:	200f003a 	cmpeq	r7,r4,zero
   2fb2c:	38000b1e 	bne	r7,zero,2fb5c <__lesf2+0xa0>
   2fb30:	48800626 	beq	r9,r2,2fb4c <__lesf2+0x90>
   2fb34:	00800044 	movi	r2,1
   2fb38:	48000926 	beq	r9,zero,2fb60 <__lesf2+0xa4>
   2fb3c:	00bfffc4 	movi	r2,-1
   2fb40:	f800283a 	ret
   2fb44:	00800084 	movi	r2,2
   2fb48:	f800283a 	ret
   2fb4c:	29800816 	blt	r5,r6,2fb70 <__lesf2+0xb4>
   2fb50:	31400216 	blt	r6,r5,2fb5c <__lesf2+0xa0>
   2fb54:	19000636 	bltu	r3,r4,2fb70 <__lesf2+0xb4>
   2fb58:	20ffeb2e 	bgeu	r4,r3,2fb08 <__lesf2+0x4c>
   2fb5c:	103ff726 	beq	r2,zero,2fb3c <__lesf2+0x80>
   2fb60:	f800283a 	ret
   2fb64:	283ff21e 	bne	r5,zero,2fb30 <__lesf2+0x74>
   2fb68:	183ff11e 	bne	r3,zero,2fb30 <__lesf2+0x74>
   2fb6c:	003ff106 	br	2fb34 <__lesf2+0x78>
   2fb70:	103ff21e 	bne	r2,zero,2fb3c <__lesf2+0x80>
   2fb74:	00800044 	movi	r2,1
   2fb78:	f800283a 	ret

0002fb7c <__unordsf2>:
   2fb7c:	2006d5fa 	srli	r3,r4,23
   2fb80:	00802034 	movhi	r2,128
   2fb84:	10bfffc4 	addi	r2,r2,-1
   2fb88:	18c03fcc 	andi	r3,r3,255
   2fb8c:	18c03fd8 	cmpnei	r3,r3,255
   2fb90:	1108703a 	and	r4,r2,r4
   2fb94:	280cd5fa 	srli	r6,r5,23
   2fb98:	1144703a 	and	r2,r2,r5
   2fb9c:	18000526 	beq	r3,zero,2fbb4 <__unordsf2+0x38>
   2fba0:	31803fcc 	andi	r6,r6,255
   2fba4:	31803fd8 	cmpnei	r6,r6,255
   2fba8:	30000526 	beq	r6,zero,2fbc0 <__unordsf2+0x44>
   2fbac:	0005883a 	mov	r2,zero
   2fbb0:	f800283a 	ret
   2fbb4:	203ffa26 	beq	r4,zero,2fba0 <__unordsf2+0x24>
   2fbb8:	00800044 	movi	r2,1
   2fbbc:	f800283a 	ret
   2fbc0:	1004c03a 	cmpne	r2,r2,zero
   2fbc4:	f800283a 	ret

0002fbc8 <__divdf3>:
   2fbc8:	2804d53a 	srli	r2,r5,20
   2fbcc:	defff204 	addi	sp,sp,-56
   2fbd0:	dc000415 	stw	r16,16(sp)
   2fbd4:	04000434 	movhi	r16,16
   2fbd8:	ddc00b15 	stw	r23,44(sp)
   2fbdc:	dd800a15 	stw	r22,40(sp)
   2fbe0:	dc800615 	stw	r18,24(sp)
   2fbe4:	843fffc4 	addi	r16,r16,-1
   2fbe8:	dfc00d15 	stw	ra,52(sp)
   2fbec:	df000c15 	stw	fp,48(sp)
   2fbf0:	dd400915 	stw	r21,36(sp)
   2fbf4:	dd000815 	stw	r20,32(sp)
   2fbf8:	dcc00715 	stw	r19,28(sp)
   2fbfc:	dc400515 	stw	r17,20(sp)
   2fc00:	1081ffcc 	andi	r2,r2,2047
   2fc04:	282cd7fa 	srli	r22,r5,31
   2fc08:	302f883a 	mov	r23,r6
   2fc0c:	2025883a 	mov	r18,r4
   2fc10:	2c20703a 	and	r16,r5,r16
   2fc14:	10005326 	beq	r2,zero,2fd64 <__divdf3+0x19c>
   2fc18:	10c1ffe0 	cmpeqi	r3,r2,2047
   2fc1c:	1800661e 	bne	r3,zero,2fdb8 <__divdf3+0x1f0>
   2fc20:	2028d77a 	srli	r20,r4,29
   2fc24:	800a90fa 	slli	r5,r16,3
   2fc28:	202490fa 	slli	r18,r4,3
   2fc2c:	14ff0044 	addi	r19,r2,-1023
   2fc30:	a14ab03a 	or	r5,r20,r5
   2fc34:	2d002034 	orhi	r20,r5,128
   2fc38:	0021883a 	mov	r16,zero
   2fc3c:	0039883a 	mov	fp,zero
   2fc40:	3804d53a 	srli	r2,r7,20
   2fc44:	00c00434 	movhi	r3,16
   2fc48:	18ffffc4 	addi	r3,r3,-1
   2fc4c:	1081ffcc 	andi	r2,r2,2047
   2fc50:	3810d7fa 	srli	r8,r7,31
   2fc54:	38e2703a 	and	r17,r7,r3
   2fc58:	10005e26 	beq	r2,zero,2fdd4 <__divdf3+0x20c>
   2fc5c:	10c1ffe0 	cmpeqi	r3,r2,2047
   2fc60:	1800201e 	bne	r3,zero,2fce4 <__divdf3+0x11c>
   2fc64:	880690fa 	slli	r3,r17,3
   2fc68:	b822d77a 	srli	r17,r23,29
   2fc6c:	b81290fa 	slli	r9,r23,3
   2fc70:	10bf0044 	addi	r2,r2,-1023
   2fc74:	88c6b03a 	or	r3,r17,r3
   2fc78:	1c402034 	orhi	r17,r3,128
   2fc7c:	98a7c83a 	sub	r19,r19,r2
   2fc80:	0007883a 	mov	r3,zero
   2fc84:	80800428 	cmpgeui	r2,r16,16
   2fc88:	b22af03a 	xor	r21,r22,r8
   2fc8c:	1000ac1e 	bne	r2,zero,2ff40 <__divdf3+0x378>
   2fc90:	800490ba 	slli	r2,r16,2
   2fc94:	018000f4 	movhi	r6,3
   2fc98:	118d883a 	add	r6,r2,r6
   2fc9c:	30bf2917 	ldw	r2,-860(r6)
   2fca0:	1000683a 	jmp	r2
   2fca4:	0002ff40 	call	2ff4 <__alt_mem_onchip_memory-0x1d00c>
   2fca8:	0002fd54 	movui	zero,3061
   2fcac:	0002fd00 	call	2fd0 <__alt_mem_onchip_memory-0x1d030>
   2fcb0:	0002fe88 	cmpgei	zero,zero,3066
   2fcb4:	0002fd00 	call	2fd0 <__alt_mem_onchip_memory-0x1d030>
   2fcb8:	0002fee4 	muli	zero,zero,3067
   2fcbc:	0002fd00 	call	2fd0 <__alt_mem_onchip_memory-0x1d030>
   2fcc0:	0002fe88 	cmpgei	zero,zero,3066
   2fcc4:	0002fd54 	movui	zero,3061
   2fcc8:	0002fd54 	movui	zero,3061
   2fccc:	0002fee4 	muli	zero,zero,3067
   2fcd0:	0002fe88 	cmpgei	zero,zero,3066
   2fcd4:	0002fe20 	cmpeqi	zero,zero,3064
   2fcd8:	0002fe20 	cmpeqi	zero,zero,3064
   2fcdc:	0002fe20 	cmpeqi	zero,zero,3064
   2fce0:	0002fefc 	xorhi	zero,zero,3067
   2fce4:	8dd2b03a 	or	r9,r17,r23
   2fce8:	9cfe0044 	addi	r19,r19,-2047
   2fcec:	48006b1e 	bne	r9,zero,2fe9c <__divdf3+0x2d4>
   2fcf0:	84000094 	ori	r16,r16,2
   2fcf4:	0023883a 	mov	r17,zero
   2fcf8:	00c00084 	movi	r3,2
   2fcfc:	003fe106 	br	2fc84 <__divdf3+0xbc>
   2fd00:	0007883a 	mov	r3,zero
   2fd04:	000b883a 	mov	r5,zero
   2fd08:	0025883a 	mov	r18,zero
   2fd0c:	a8803fcc 	andi	r2,r21,255
   2fd10:	1806953a 	slli	r3,r3,20
   2fd14:	100497fa 	slli	r2,r2,31
   2fd18:	1946b03a 	or	r3,r3,r5
   2fd1c:	1886b03a 	or	r3,r3,r2
   2fd20:	9005883a 	mov	r2,r18
   2fd24:	dfc00d17 	ldw	ra,52(sp)
   2fd28:	df000c17 	ldw	fp,48(sp)
   2fd2c:	ddc00b17 	ldw	r23,44(sp)
   2fd30:	dd800a17 	ldw	r22,40(sp)
   2fd34:	dd400917 	ldw	r21,36(sp)
   2fd38:	dd000817 	ldw	r20,32(sp)
   2fd3c:	dcc00717 	ldw	r19,28(sp)
   2fd40:	dc800617 	ldw	r18,24(sp)
   2fd44:	dc400517 	ldw	r17,20(sp)
   2fd48:	dc000417 	ldw	r16,16(sp)
   2fd4c:	dec00e04 	addi	sp,sp,56
   2fd50:	f800283a 	ret
   2fd54:	00c1ffc4 	movi	r3,2047
   2fd58:	000b883a 	mov	r5,zero
   2fd5c:	0025883a 	mov	r18,zero
   2fd60:	003fea06 	br	2fd0c <__divdf3+0x144>
   2fd64:	2428b03a 	or	r20,r4,r16
   2fd68:	2023883a 	mov	r17,r4
   2fd6c:	a0005326 	beq	r20,zero,2febc <__divdf3+0x2f4>
   2fd70:	d9c00015 	stw	r7,0(sp)
   2fd74:	80014126 	beq	r16,zero,3027c <__divdf3+0x6b4>
   2fd78:	8009883a 	mov	r4,r16
   2fd7c:	00227100 	call	22710 <__clzsi2>
   2fd80:	d9c00017 	ldw	r7,0(sp)
   2fd84:	10fffd44 	addi	r3,r2,-11
   2fd88:	05000744 	movi	r20,29
   2fd8c:	113ffe04 	addi	r4,r2,-8
   2fd90:	a0e9c83a 	sub	r20,r20,r3
   2fd94:	810a983a 	sll	r5,r16,r4
   2fd98:	8d28d83a 	srl	r20,r17,r20
   2fd9c:	8924983a 	sll	r18,r17,r4
   2fda0:	a168b03a 	or	r20,r20,r5
   2fda4:	04ff0344 	movi	r19,-1011
   2fda8:	98a7c83a 	sub	r19,r19,r2
   2fdac:	0021883a 	mov	r16,zero
   2fdb0:	0039883a 	mov	fp,zero
   2fdb4:	003fa206 	br	2fc40 <__divdf3+0x78>
   2fdb8:	2428b03a 	or	r20,r4,r16
   2fdbc:	a000441e 	bne	r20,zero,2fed0 <__divdf3+0x308>
   2fdc0:	0025883a 	mov	r18,zero
   2fdc4:	04000204 	movi	r16,8
   2fdc8:	04c1ffc4 	movi	r19,2047
   2fdcc:	07000084 	movi	fp,2
   2fdd0:	003f9b06 	br	2fc40 <__divdf3+0x78>
   2fdd4:	8dd2b03a 	or	r9,r17,r23
   2fdd8:	48003426 	beq	r9,zero,2feac <__divdf3+0x2e4>
   2fddc:	da000015 	stw	r8,0(sp)
   2fde0:	88013126 	beq	r17,zero,302a8 <__divdf3+0x6e0>
   2fde4:	8809883a 	mov	r4,r17
   2fde8:	00227100 	call	22710 <__clzsi2>
   2fdec:	da000017 	ldw	r8,0(sp)
   2fdf0:	117ffd44 	addi	r5,r2,-11
   2fdf4:	01000744 	movi	r4,29
   2fdf8:	127ffe04 	addi	r9,r2,-8
   2fdfc:	2149c83a 	sub	r4,r4,r5
   2fe00:	8a46983a 	sll	r3,r17,r9
   2fe04:	b908d83a 	srl	r4,r23,r4
   2fe08:	ba52983a 	sll	r9,r23,r9
   2fe0c:	20e2b03a 	or	r17,r4,r3
   2fe10:	14c5883a 	add	r2,r2,r19
   2fe14:	14c0fcc4 	addi	r19,r2,1011
   2fe18:	0007883a 	mov	r3,zero
   2fe1c:	003f9906 	br	2fc84 <__divdf3+0xbc>
   2fe20:	b02b883a 	mov	r21,r22
   2fe24:	e08000a0 	cmpeqi	r2,fp,2
   2fe28:	103fca1e 	bne	r2,zero,2fd54 <__divdf3+0x18c>
   2fe2c:	e08000e0 	cmpeqi	r2,fp,3
   2fe30:	1001741e 	bne	r2,zero,30404 <__divdf3+0x83c>
   2fe34:	e0800060 	cmpeqi	r2,fp,1
   2fe38:	103fb11e 	bne	r2,zero,2fd00 <__divdf3+0x138>
   2fe3c:	9c40ffc4 	addi	r17,r19,1023
   2fe40:	0440de0e 	bge	zero,r17,301bc <__divdf3+0x5f4>
   2fe44:	908001cc 	andi	r2,r18,7
   2fe48:	10014a1e 	bne	r2,zero,30374 <__divdf3+0x7ac>
   2fe4c:	900cd0fa 	srli	r6,r18,3
   2fe50:	a080402c 	andhi	r2,r20,256
   2fe54:	10000426 	beq	r2,zero,2fe68 <__divdf3+0x2a0>
   2fe58:	00bfc034 	movhi	r2,65280
   2fe5c:	10bfffc4 	addi	r2,r2,-1
   2fe60:	a0a8703a 	and	r20,r20,r2
   2fe64:	9c410004 	addi	r17,r19,1024
   2fe68:	8881ffc8 	cmpgei	r2,r17,2047
   2fe6c:	103fb91e 	bne	r2,zero,2fd54 <__divdf3+0x18c>
   2fe70:	a008977a 	slli	r4,r20,29
   2fe74:	a00a927a 	slli	r5,r20,9
   2fe78:	88c1ffcc 	andi	r3,r17,2047
   2fe7c:	21a4b03a 	or	r18,r4,r6
   2fe80:	280ad33a 	srli	r5,r5,12
   2fe84:	003fa106 	br	2fd0c <__divdf3+0x144>
   2fe88:	402b883a 	mov	r21,r8
   2fe8c:	8829883a 	mov	r20,r17
   2fe90:	4825883a 	mov	r18,r9
   2fe94:	1839883a 	mov	fp,r3
   2fe98:	003fe206 	br	2fe24 <__divdf3+0x25c>
   2fe9c:	840000d4 	ori	r16,r16,3
   2fea0:	b813883a 	mov	r9,r23
   2fea4:	00c000c4 	movi	r3,3
   2fea8:	003f7606 	br	2fc84 <__divdf3+0xbc>
   2feac:	84000054 	ori	r16,r16,1
   2feb0:	0023883a 	mov	r17,zero
   2feb4:	00c00044 	movi	r3,1
   2feb8:	003f7206 	br	2fc84 <__divdf3+0xbc>
   2febc:	0025883a 	mov	r18,zero
   2fec0:	04000104 	movi	r16,4
   2fec4:	0027883a 	mov	r19,zero
   2fec8:	07000044 	movi	fp,1
   2fecc:	003f5c06 	br	2fc40 <__divdf3+0x78>
   2fed0:	8029883a 	mov	r20,r16
   2fed4:	04c1ffc4 	movi	r19,2047
   2fed8:	04000304 	movi	r16,12
   2fedc:	070000c4 	movi	fp,3
   2fee0:	003f5706 	br	2fc40 <__divdf3+0x78>
   2fee4:	01400434 	movhi	r5,16
   2fee8:	002b883a 	mov	r21,zero
   2feec:	297fffc4 	addi	r5,r5,-1
   2fef0:	04bfffc4 	movi	r18,-1
   2fef4:	00c1ffc4 	movi	r3,2047
   2fef8:	003f8406 	br	2fd0c <__divdf3+0x144>
   2fefc:	a080022c 	andhi	r2,r20,8
   2ff00:	10000926 	beq	r2,zero,2ff28 <__divdf3+0x360>
   2ff04:	8880022c 	andhi	r2,r17,8
   2ff08:	1000071e 	bne	r2,zero,2ff28 <__divdf3+0x360>
   2ff0c:	00800434 	movhi	r2,16
   2ff10:	89400234 	orhi	r5,r17,8
   2ff14:	10bfffc4 	addi	r2,r2,-1
   2ff18:	288a703a 	and	r5,r5,r2
   2ff1c:	402b883a 	mov	r21,r8
   2ff20:	4825883a 	mov	r18,r9
   2ff24:	003ff306 	br	2fef4 <__divdf3+0x32c>
   2ff28:	00800434 	movhi	r2,16
   2ff2c:	a1400234 	orhi	r5,r20,8
   2ff30:	10bfffc4 	addi	r2,r2,-1
   2ff34:	288a703a 	and	r5,r5,r2
   2ff38:	b02b883a 	mov	r21,r22
   2ff3c:	003fed06 	br	2fef4 <__divdf3+0x32c>
   2ff40:	8d00c836 	bltu	r17,r20,30264 <__divdf3+0x69c>
   2ff44:	8d00c626 	beq	r17,r20,30260 <__divdf3+0x698>
   2ff48:	9cffffc4 	addi	r19,r19,-1
   2ff4c:	0021883a 	mov	r16,zero
   2ff50:	8806923a 	slli	r3,r17,8
   2ff54:	480cd63a 	srli	r6,r9,24
   2ff58:	4804923a 	slli	r2,r9,8
   2ff5c:	1838d43a 	srli	fp,r3,16
   2ff60:	a009883a 	mov	r4,r20
   2ff64:	30ecb03a 	or	r22,r6,r3
   2ff68:	e00b883a 	mov	r5,fp
   2ff6c:	d8800015 	stw	r2,0(sp)
   2ff70:	0020f900 	call	20f90 <__udivsi3>
   2ff74:	a009883a 	mov	r4,r20
   2ff78:	e00b883a 	mov	r5,fp
   2ff7c:	d8800115 	stw	r2,4(sp)
   2ff80:	0020ff40 	call	20ff4 <__umodsi3>
   2ff84:	d8c00117 	ldw	r3,4(sp)
   2ff88:	1004943a 	slli	r2,r2,16
   2ff8c:	9008d43a 	srli	r4,r18,16
   2ff90:	b5ffffcc 	andi	r23,r22,65535
   2ff94:	b8e3383a 	mul	r17,r23,r3
   2ff98:	2088b03a 	or	r4,r4,r2
   2ff9c:	2440042e 	bgeu	r4,r17,2ffb0 <__divdf3+0x3e8>
   2ffa0:	2589883a 	add	r4,r4,r22
   2ffa4:	18bfffc4 	addi	r2,r3,-1
   2ffa8:	2580d32e 	bgeu	r4,r22,302f8 <__divdf3+0x730>
   2ffac:	1007883a 	mov	r3,r2
   2ffb0:	2463c83a 	sub	r17,r4,r17
   2ffb4:	e00b883a 	mov	r5,fp
   2ffb8:	8809883a 	mov	r4,r17
   2ffbc:	d8c00115 	stw	r3,4(sp)
   2ffc0:	0020f900 	call	20f90 <__udivsi3>
   2ffc4:	8809883a 	mov	r4,r17
   2ffc8:	e00b883a 	mov	r5,fp
   2ffcc:	1029883a 	mov	r20,r2
   2ffd0:	0020ff40 	call	20ff4 <__umodsi3>
   2ffd4:	1008943a 	slli	r4,r2,16
   2ffd8:	bd13383a 	mul	r9,r23,r20
   2ffdc:	94bfffcc 	andi	r18,r18,65535
   2ffe0:	9108b03a 	or	r4,r18,r4
   2ffe4:	d8c00117 	ldw	r3,4(sp)
   2ffe8:	2240042e 	bgeu	r4,r9,2fffc <__divdf3+0x434>
   2ffec:	2589883a 	add	r4,r4,r22
   2fff0:	a0bfffc4 	addi	r2,r20,-1
   2fff4:	2580bc2e 	bgeu	r4,r22,302e8 <__divdf3+0x720>
   2fff8:	1029883a 	mov	r20,r2
   2fffc:	180a943a 	slli	r5,r3,16
   30000:	d8800017 	ldw	r2,0(sp)
   30004:	2249c83a 	sub	r4,r4,r9
   30008:	2d28b03a 	or	r20,r5,r20
   3000c:	100ed43a 	srli	r7,r2,16
   30010:	123fffcc 	andi	r8,r2,65535
   30014:	a00ad43a 	srli	r5,r20,16
   30018:	a0bfffcc 	andi	r2,r20,65535
   3001c:	1225383a 	mul	r18,r2,r8
   30020:	2a15383a 	mul	r10,r5,r8
   30024:	3887383a 	mul	r3,r7,r2
   30028:	9004d43a 	srli	r2,r18,16
   3002c:	29cb383a 	mul	r5,r5,r7
   30030:	1a87883a 	add	r3,r3,r10
   30034:	10c5883a 	add	r2,r2,r3
   30038:	1280022e 	bgeu	r2,r10,30044 <__divdf3+0x47c>
   3003c:	00c00074 	movhi	r3,1
   30040:	28cb883a 	add	r5,r5,r3
   30044:	1006d43a 	srli	r3,r2,16
   30048:	1004943a 	slli	r2,r2,16
   3004c:	94bfffcc 	andi	r18,r18,65535
   30050:	1947883a 	add	r3,r3,r5
   30054:	14a5883a 	add	r18,r2,r18
   30058:	20c07636 	bltu	r4,r3,30234 <__divdf3+0x66c>
   3005c:	20c07426 	beq	r4,r3,30230 <__divdf3+0x668>
   30060:	84a5c83a 	sub	r18,r16,r18
   30064:	20c9c83a 	sub	r4,r4,r3
   30068:	84a1803a 	cmpltu	r16,r16,r18
   3006c:	2421c83a 	sub	r16,r4,r16
   30070:	9c40ffc4 	addi	r17,r19,1023
   30074:	b400ba26 	beq	r22,r16,30360 <__divdf3+0x798>
   30078:	8009883a 	mov	r4,r16
   3007c:	e00b883a 	mov	r5,fp
   30080:	da000315 	stw	r8,12(sp)
   30084:	d9c00215 	stw	r7,8(sp)
   30088:	0020f900 	call	20f90 <__udivsi3>
   3008c:	8009883a 	mov	r4,r16
   30090:	e00b883a 	mov	r5,fp
   30094:	d8800115 	stw	r2,4(sp)
   30098:	0020ff40 	call	20ff4 <__umodsi3>
   3009c:	da400117 	ldw	r9,4(sp)
   300a0:	1004943a 	slli	r2,r2,16
   300a4:	9008d43a 	srli	r4,r18,16
   300a8:	ba61383a 	mul	r16,r23,r9
   300ac:	d9c00217 	ldw	r7,8(sp)
   300b0:	2088b03a 	or	r4,r4,r2
   300b4:	da000317 	ldw	r8,12(sp)
   300b8:	2400062e 	bgeu	r4,r16,300d4 <__divdf3+0x50c>
   300bc:	2589883a 	add	r4,r4,r22
   300c0:	48bfffc4 	addi	r2,r9,-1
   300c4:	2580b536 	bltu	r4,r22,3039c <__divdf3+0x7d4>
   300c8:	2400b42e 	bgeu	r4,r16,3039c <__divdf3+0x7d4>
   300cc:	4a7fff84 	addi	r9,r9,-2
   300d0:	2589883a 	add	r4,r4,r22
   300d4:	2421c83a 	sub	r16,r4,r16
   300d8:	8009883a 	mov	r4,r16
   300dc:	e00b883a 	mov	r5,fp
   300e0:	da000315 	stw	r8,12(sp)
   300e4:	da400215 	stw	r9,8(sp)
   300e8:	d9c00115 	stw	r7,4(sp)
   300ec:	0020f900 	call	20f90 <__udivsi3>
   300f0:	8009883a 	mov	r4,r16
   300f4:	e00b883a 	mov	r5,fp
   300f8:	1021883a 	mov	r16,r2
   300fc:	0020ff40 	call	20ff4 <__umodsi3>
   30100:	1004943a 	slli	r2,r2,16
   30104:	bc2f383a 	mul	r23,r23,r16
   30108:	90ffffcc 	andi	r3,r18,65535
   3010c:	1886b03a 	or	r3,r3,r2
   30110:	d9c00117 	ldw	r7,4(sp)
   30114:	da400217 	ldw	r9,8(sp)
   30118:	da000317 	ldw	r8,12(sp)
   3011c:	1dc0062e 	bgeu	r3,r23,30138 <__divdf3+0x570>
   30120:	1d87883a 	add	r3,r3,r22
   30124:	80bfffc4 	addi	r2,r16,-1
   30128:	1d809a36 	bltu	r3,r22,30394 <__divdf3+0x7cc>
   3012c:	1dc0992e 	bgeu	r3,r23,30394 <__divdf3+0x7cc>
   30130:	843fff84 	addi	r16,r16,-2
   30134:	1d87883a 	add	r3,r3,r22
   30138:	4808943a 	slli	r4,r9,16
   3013c:	1defc83a 	sub	r23,r3,r23
   30140:	2424b03a 	or	r18,r4,r16
   30144:	900ad43a 	srli	r5,r18,16
   30148:	90bfffcc 	andi	r2,r18,65535
   3014c:	4087383a 	mul	r3,r8,r2
   30150:	3885383a 	mul	r2,r7,r2
   30154:	2a11383a 	mul	r8,r5,r8
   30158:	1808d43a 	srli	r4,r3,16
   3015c:	394f383a 	mul	r7,r7,r5
   30160:	1205883a 	add	r2,r2,r8
   30164:	2089883a 	add	r4,r4,r2
   30168:	2200022e 	bgeu	r4,r8,30174 <__divdf3+0x5ac>
   3016c:	00800074 	movhi	r2,1
   30170:	388f883a 	add	r7,r7,r2
   30174:	2004d43a 	srli	r2,r4,16
   30178:	2008943a 	slli	r4,r4,16
   3017c:	18ffffcc 	andi	r3,r3,65535
   30180:	11cf883a 	add	r7,r2,r7
   30184:	20c9883a 	add	r4,r4,r3
   30188:	b9c00436 	bltu	r23,r7,3019c <__divdf3+0x5d4>
   3018c:	b9c00226 	beq	r23,r7,30198 <__divdf3+0x5d0>
   30190:	94800054 	ori	r18,r18,1
   30194:	003f2a06 	br	2fe40 <__divdf3+0x278>
   30198:	203f2926 	beq	r4,zero,2fe40 <__divdf3+0x278>
   3019c:	b5ef883a 	add	r23,r22,r23
   301a0:	90bfffc4 	addi	r2,r18,-1
   301a4:	bd806936 	bltu	r23,r22,3034c <__divdf3+0x784>
   301a8:	b9c08636 	bltu	r23,r7,303c4 <__divdf3+0x7fc>
   301ac:	b9c09a26 	beq	r23,r7,30418 <__divdf3+0x850>
   301b0:	1025883a 	mov	r18,r2
   301b4:	003ff606 	br	30190 <__divdf3+0x5c8>
   301b8:	04bfffc4 	movi	r18,-1
   301bc:	01400044 	movi	r5,1
   301c0:	2c4bc83a 	sub	r5,r5,r17
   301c4:	28800e48 	cmpgei	r2,r5,57
   301c8:	103ecd1e 	bne	r2,zero,2fd00 <__divdf3+0x138>
   301cc:	28800808 	cmpgei	r2,r5,32
   301d0:	10004d1e 	bne	r2,zero,30308 <__divdf3+0x740>
   301d4:	98810784 	addi	r2,r19,1054
   301d8:	a086983a 	sll	r3,r20,r2
   301dc:	9148d83a 	srl	r4,r18,r5
   301e0:	9084983a 	sll	r2,r18,r2
   301e4:	a14ad83a 	srl	r5,r20,r5
   301e8:	1924b03a 	or	r18,r3,r4
   301ec:	1004c03a 	cmpne	r2,r2,zero
   301f0:	90a4b03a 	or	r18,r18,r2
   301f4:	908001cc 	andi	r2,r18,7
   301f8:	10000726 	beq	r2,zero,30218 <__divdf3+0x650>
   301fc:	908003cc 	andi	r2,r18,15
   30200:	10800120 	cmpeqi	r2,r2,4
   30204:	1000041e 	bne	r2,zero,30218 <__divdf3+0x650>
   30208:	90800104 	addi	r2,r18,4
   3020c:	14a5803a 	cmpltu	r18,r2,r18
   30210:	2c8b883a 	add	r5,r5,r18
   30214:	1025883a 	mov	r18,r2
   30218:	2880202c 	andhi	r2,r5,128
   3021c:	10007526 	beq	r2,zero,303f4 <__divdf3+0x82c>
   30220:	00c00044 	movi	r3,1
   30224:	000b883a 	mov	r5,zero
   30228:	0025883a 	mov	r18,zero
   3022c:	003eb706 	br	2fd0c <__divdf3+0x144>
   30230:	84bf8b2e 	bgeu	r16,r18,30060 <__divdf3+0x498>
   30234:	d8800017 	ldw	r2,0(sp)
   30238:	80a1883a 	add	r16,r16,r2
   3023c:	8085803a 	cmpltu	r2,r16,r2
   30240:	1585883a 	add	r2,r2,r22
   30244:	2089883a 	add	r4,r4,r2
   30248:	a0bfffc4 	addi	r2,r20,-1
   3024c:	b100222e 	bgeu	r22,r4,302d8 <__divdf3+0x710>
   30250:	20c05536 	bltu	r4,r3,303a8 <__divdf3+0x7e0>
   30254:	19005326 	beq	r3,r4,303a4 <__divdf3+0x7dc>
   30258:	1029883a 	mov	r20,r2
   3025c:	003f8006 	br	30060 <__divdf3+0x498>
   30260:	927f3936 	bltu	r18,r9,2ff48 <__divdf3+0x380>
   30264:	a00897fa 	slli	r4,r20,31
   30268:	9004d07a 	srli	r2,r18,1
   3026c:	902097fa 	slli	r16,r18,31
   30270:	a028d07a 	srli	r20,r20,1
   30274:	20a4b03a 	or	r18,r4,r2
   30278:	003f3506 	br	2ff50 <__divdf3+0x388>
   3027c:	00227100 	call	22710 <__clzsi2>
   30280:	10c00544 	addi	r3,r2,21
   30284:	19000748 	cmpgei	r4,r3,29
   30288:	100b883a 	mov	r5,r2
   3028c:	d9c00017 	ldw	r7,0(sp)
   30290:	10800804 	addi	r2,r2,32
   30294:	203ebc26 	beq	r4,zero,2fd88 <__divdf3+0x1c0>
   30298:	297ffe04 	addi	r5,r5,-8
   3029c:	9168983a 	sll	r20,r18,r5
   302a0:	0025883a 	mov	r18,zero
   302a4:	003ebf06 	br	2fda4 <__divdf3+0x1dc>
   302a8:	b809883a 	mov	r4,r23
   302ac:	00227100 	call	22710 <__clzsi2>
   302b0:	11400544 	addi	r5,r2,21
   302b4:	29000748 	cmpgei	r4,r5,29
   302b8:	1007883a 	mov	r3,r2
   302bc:	da000017 	ldw	r8,0(sp)
   302c0:	10800804 	addi	r2,r2,32
   302c4:	203ecb26 	beq	r4,zero,2fdf4 <__divdf3+0x22c>
   302c8:	18fffe04 	addi	r3,r3,-8
   302cc:	b8e2983a 	sll	r17,r23,r3
   302d0:	0013883a 	mov	r9,zero
   302d4:	003ece06 	br	2fe10 <__divdf3+0x248>
   302d8:	b13fdf1e 	bne	r22,r4,30258 <__divdf3+0x690>
   302dc:	d9400017 	ldw	r5,0(sp)
   302e0:	817fdd36 	bltu	r16,r5,30258 <__divdf3+0x690>
   302e4:	003fda06 	br	30250 <__divdf3+0x688>
   302e8:	227f432e 	bgeu	r4,r9,2fff8 <__divdf3+0x430>
   302ec:	a53fff84 	addi	r20,r20,-2
   302f0:	2589883a 	add	r4,r4,r22
   302f4:	003f4106 	br	2fffc <__divdf3+0x434>
   302f8:	247f2c2e 	bgeu	r4,r17,2ffac <__divdf3+0x3e4>
   302fc:	18ffff84 	addi	r3,r3,-2
   30300:	2589883a 	add	r4,r4,r22
   30304:	003f2a06 	br	2ffb0 <__divdf3+0x3e8>
   30308:	00fff844 	movi	r3,-31
   3030c:	1c47c83a 	sub	r3,r3,r17
   30310:	29400820 	cmpeqi	r5,r5,32
   30314:	a0c6d83a 	srl	r3,r20,r3
   30318:	2800031e 	bne	r5,zero,30328 <__divdf3+0x760>
   3031c:	99410f84 	addi	r5,r19,1086
   30320:	a14a983a 	sll	r5,r20,r5
   30324:	9164b03a 	or	r18,r18,r5
   30328:	9024c03a 	cmpne	r18,r18,zero
   3032c:	90e4b03a 	or	r18,r18,r3
   30330:	910001cc 	andi	r4,r18,7
   30334:	20002b1e 	bne	r4,zero,303e4 <__divdf3+0x81c>
   30338:	000b883a 	mov	r5,zero
   3033c:	9024d0fa 	srli	r18,r18,3
   30340:	0007883a 	mov	r3,zero
   30344:	9124b03a 	or	r18,r18,r4
   30348:	003e7006 	br	2fd0c <__divdf3+0x144>
   3034c:	1025883a 	mov	r18,r2
   30350:	b9ff8f1e 	bne	r23,r7,30190 <__divdf3+0x5c8>
   30354:	d8800017 	ldw	r2,0(sp)
   30358:	20bf8d1e 	bne	r4,r2,30190 <__divdf3+0x5c8>
   3035c:	003eb806 	br	2fe40 <__divdf3+0x278>
   30360:	047f950e 	bge	zero,r17,301b8 <__divdf3+0x5f0>
   30364:	000d883a 	mov	r6,zero
   30368:	01000044 	movi	r4,1
   3036c:	a129883a 	add	r20,r20,r4
   30370:	003eb706 	br	2fe50 <__divdf3+0x288>
   30374:	908003cc 	andi	r2,r18,15
   30378:	10800118 	cmpnei	r2,r2,4
   3037c:	103eb326 	beq	r2,zero,2fe4c <__divdf3+0x284>
   30380:	91800104 	addi	r6,r18,4
   30384:	013ffec4 	movi	r4,-5
   30388:	300cd0fa 	srli	r6,r6,3
   3038c:	2489803a 	cmpltu	r4,r4,r18
   30390:	003ff606 	br	3036c <__divdf3+0x7a4>
   30394:	1021883a 	mov	r16,r2
   30398:	003f6706 	br	30138 <__divdf3+0x570>
   3039c:	1013883a 	mov	r9,r2
   303a0:	003f4c06 	br	300d4 <__divdf3+0x50c>
   303a4:	84bfac2e 	bgeu	r16,r18,30258 <__divdf3+0x690>
   303a8:	d8800017 	ldw	r2,0(sp)
   303ac:	a53fff84 	addi	r20,r20,-2
   303b0:	80a1883a 	add	r16,r16,r2
   303b4:	8085803a 	cmpltu	r2,r16,r2
   303b8:	1585883a 	add	r2,r2,r22
   303bc:	2089883a 	add	r4,r4,r2
   303c0:	003f2706 	br	30060 <__divdf3+0x498>
   303c4:	d8c00017 	ldw	r3,0(sp)
   303c8:	94bfff84 	addi	r18,r18,-2
   303cc:	18c5883a 	add	r2,r3,r3
   303d0:	10c7803a 	cmpltu	r3,r2,r3
   303d4:	1d8d883a 	add	r6,r3,r22
   303d8:	b9af883a 	add	r23,r23,r6
   303dc:	d8800015 	stw	r2,0(sp)
   303e0:	003fdb06 	br	30350 <__divdf3+0x788>
   303e4:	908003cc 	andi	r2,r18,15
   303e8:	10800118 	cmpnei	r2,r2,4
   303ec:	000b883a 	mov	r5,zero
   303f0:	103f851e 	bne	r2,zero,30208 <__divdf3+0x640>
   303f4:	2804927a 	slli	r2,r5,9
   303f8:	2808977a 	slli	r4,r5,29
   303fc:	100ad33a 	srli	r5,r2,12
   30400:	003fce06 	br	3033c <__divdf3+0x774>
   30404:	00800434 	movhi	r2,16
   30408:	a1400234 	orhi	r5,r20,8
   3040c:	10bfffc4 	addi	r2,r2,-1
   30410:	288a703a 	and	r5,r5,r2
   30414:	003eb706 	br	2fef4 <__divdf3+0x32c>
   30418:	d8c00017 	ldw	r3,0(sp)
   3041c:	193fe936 	bltu	r3,r4,303c4 <__divdf3+0x7fc>
   30420:	1025883a 	mov	r18,r2
   30424:	003fcb06 	br	30354 <__divdf3+0x78c>

00030428 <__eqdf2>:
   30428:	2810d53a 	srli	r8,r5,20
   3042c:	3806d53a 	srli	r3,r7,20
   30430:	00800434 	movhi	r2,16
   30434:	4201ffcc 	andi	r8,r8,2047
   30438:	10bfffc4 	addi	r2,r2,-1
   3043c:	4241ffd8 	cmpnei	r9,r8,2047
   30440:	2814d7fa 	srli	r10,r5,31
   30444:	3816d7fa 	srli	r11,r7,31
   30448:	288a703a 	and	r5,r5,r2
   3044c:	388e703a 	and	r7,r7,r2
   30450:	1881ffcc 	andi	r2,r3,2047
   30454:	48000626 	beq	r9,zero,30470 <__eqdf2+0x48>
   30458:	10c1ffe0 	cmpeqi	r3,r2,2047
   3045c:	1800021e 	bne	r3,zero,30468 <__eqdf2+0x40>
   30460:	4080011e 	bne	r8,r2,30468 <__eqdf2+0x40>
   30464:	29c00826 	beq	r5,r7,30488 <__eqdf2+0x60>
   30468:	00800044 	movi	r2,1
   3046c:	f800283a 	ret
   30470:	2906b03a 	or	r3,r5,r4
   30474:	183ffc1e 	bne	r3,zero,30468 <__eqdf2+0x40>
   30478:	1081ffd8 	cmpnei	r2,r2,2047
   3047c:	103ffa1e 	bne	r2,zero,30468 <__eqdf2+0x40>
   30480:	398eb03a 	or	r7,r7,r6
   30484:	383ff81e 	bne	r7,zero,30468 <__eqdf2+0x40>
   30488:	21bff71e 	bne	r4,r6,30468 <__eqdf2+0x40>
   3048c:	52c00426 	beq	r10,r11,304a0 <__eqdf2+0x78>
   30490:	403ff51e 	bne	r8,zero,30468 <__eqdf2+0x40>
   30494:	290ab03a 	or	r5,r5,r4
   30498:	2804c03a 	cmpne	r2,r5,zero
   3049c:	f800283a 	ret
   304a0:	0005883a 	mov	r2,zero
   304a4:	f800283a 	ret

000304a8 <__gedf2>:
   304a8:	2810d53a 	srli	r8,r5,20
   304ac:	3812d53a 	srli	r9,r7,20
   304b0:	00c00434 	movhi	r3,16
   304b4:	4201ffcc 	andi	r8,r8,2047
   304b8:	18ffffc4 	addi	r3,r3,-1
   304bc:	4281ffd8 	cmpnei	r10,r8,2047
   304c0:	2816d7fa 	srli	r11,r5,31
   304c4:	3804d7fa 	srli	r2,r7,31
   304c8:	28ca703a 	and	r5,r5,r3
   304cc:	38ce703a 	and	r7,r7,r3
   304d0:	48c1ffcc 	andi	r3,r9,2047
   304d4:	50000b26 	beq	r10,zero,30504 <__gedf2+0x5c>
   304d8:	1a41ffd8 	cmpnei	r9,r3,2047
   304dc:	48000d26 	beq	r9,zero,30514 <__gedf2+0x6c>
   304e0:	4000191e 	bne	r8,zero,30548 <__gedf2+0xa0>
   304e4:	2914b03a 	or	r10,r5,r4
   304e8:	5013003a 	cmpeq	r9,r10,zero
   304ec:	1800131e 	bne	r3,zero,3053c <__gedf2+0x94>
   304f0:	3998b03a 	or	r12,r7,r6
   304f4:	6000111e 	bne	r12,zero,3053c <__gedf2+0x94>
   304f8:	50000a1e 	bne	r10,zero,30524 <__gedf2+0x7c>
   304fc:	0005883a 	mov	r2,zero
   30500:	f800283a 	ret
   30504:	2912b03a 	or	r9,r5,r4
   30508:	48001e1e 	bne	r9,zero,30584 <__gedf2+0xdc>
   3050c:	1a41ffe0 	cmpeqi	r9,r3,2047
   30510:	48000d26 	beq	r9,zero,30548 <__gedf2+0xa0>
   30514:	3992b03a 	or	r9,r7,r6
   30518:	48001a1e 	bne	r9,zero,30584 <__gedf2+0xdc>
   3051c:	40000526 	beq	r8,zero,30534 <__gedf2+0x8c>
   30520:	58800d26 	beq	r11,r2,30558 <__gedf2+0xb0>
   30524:	00800044 	movi	r2,1
   30528:	58000626 	beq	r11,zero,30544 <__gedf2+0x9c>
   3052c:	00bfffc4 	movi	r2,-1
   30530:	f800283a 	ret
   30534:	2912b03a 	or	r9,r5,r4
   30538:	4813003a 	cmpeq	r9,r9,zero
   3053c:	483ff826 	beq	r9,zero,30520 <__gedf2+0x78>
   30540:	103ffa26 	beq	r2,zero,3052c <__gedf2+0x84>
   30544:	f800283a 	ret
   30548:	183ff51e 	bne	r3,zero,30520 <__gedf2+0x78>
   3054c:	3992b03a 	or	r9,r7,r6
   30550:	483ff31e 	bne	r9,zero,30520 <__gedf2+0x78>
   30554:	003ff306 	br	30524 <__gedf2+0x7c>
   30558:	1a000716 	blt	r3,r8,30578 <__gedf2+0xd0>
   3055c:	40fff816 	blt	r8,r3,30540 <__gedf2+0x98>
   30560:	397ff036 	bltu	r7,r5,30524 <__gedf2+0x7c>
   30564:	29c00926 	beq	r5,r7,3058c <__gedf2+0xe4>
   30568:	29ffe42e 	bgeu	r5,r7,304fc <__gedf2+0x54>
   3056c:	583fef26 	beq	r11,zero,3052c <__gedf2+0x84>
   30570:	5805883a 	mov	r2,r11
   30574:	f800283a 	ret
   30578:	103fec1e 	bne	r2,zero,3052c <__gedf2+0x84>
   3057c:	00800044 	movi	r2,1
   30580:	f800283a 	ret
   30584:	00bfff84 	movi	r2,-2
   30588:	f800283a 	ret
   3058c:	313fe536 	bltu	r6,r4,30524 <__gedf2+0x7c>
   30590:	21bfda2e 	bgeu	r4,r6,304fc <__gedf2+0x54>
   30594:	003ff506 	br	3056c <__gedf2+0xc4>

00030598 <__ledf2>:
   30598:	2810d53a 	srli	r8,r5,20
   3059c:	3812d53a 	srli	r9,r7,20
   305a0:	00c00434 	movhi	r3,16
   305a4:	4201ffcc 	andi	r8,r8,2047
   305a8:	18ffffc4 	addi	r3,r3,-1
   305ac:	4281ffd8 	cmpnei	r10,r8,2047
   305b0:	2816d7fa 	srli	r11,r5,31
   305b4:	3804d7fa 	srli	r2,r7,31
   305b8:	28ca703a 	and	r5,r5,r3
   305bc:	38ce703a 	and	r7,r7,r3
   305c0:	48c1ffcc 	andi	r3,r9,2047
   305c4:	50000b26 	beq	r10,zero,305f4 <__ledf2+0x5c>
   305c8:	1a41ffd8 	cmpnei	r9,r3,2047
   305cc:	48000d26 	beq	r9,zero,30604 <__ledf2+0x6c>
   305d0:	40001b1e 	bne	r8,zero,30640 <__ledf2+0xa8>
   305d4:	2914b03a 	or	r10,r5,r4
   305d8:	5013003a 	cmpeq	r9,r10,zero
   305dc:	18000e1e 	bne	r3,zero,30618 <__ledf2+0x80>
   305e0:	3998b03a 	or	r12,r7,r6
   305e4:	60000c1e 	bne	r12,zero,30618 <__ledf2+0x80>
   305e8:	50000d1e 	bne	r10,zero,30620 <__ledf2+0x88>
   305ec:	0005883a 	mov	r2,zero
   305f0:	f800283a 	ret
   305f4:	2912b03a 	or	r9,r5,r4
   305f8:	48000d1e 	bne	r9,zero,30630 <__ledf2+0x98>
   305fc:	1a41ffe0 	cmpeqi	r9,r3,2047
   30600:	48000f26 	beq	r9,zero,30640 <__ledf2+0xa8>
   30604:	3992b03a 	or	r9,r7,r6
   30608:	4800091e 	bne	r9,zero,30630 <__ledf2+0x98>
   3060c:	4000031e 	bne	r8,zero,3061c <__ledf2+0x84>
   30610:	2912b03a 	or	r9,r5,r4
   30614:	4813003a 	cmpeq	r9,r9,zero
   30618:	4800071e 	bne	r9,zero,30638 <__ledf2+0xa0>
   3061c:	58800c26 	beq	r11,r2,30650 <__ledf2+0xb8>
   30620:	00800044 	movi	r2,1
   30624:	58000526 	beq	r11,zero,3063c <__ledf2+0xa4>
   30628:	00bfffc4 	movi	r2,-1
   3062c:	f800283a 	ret
   30630:	00800084 	movi	r2,2
   30634:	f800283a 	ret
   30638:	103ffb26 	beq	r2,zero,30628 <__ledf2+0x90>
   3063c:	f800283a 	ret
   30640:	183ff61e 	bne	r3,zero,3061c <__ledf2+0x84>
   30644:	3992b03a 	or	r9,r7,r6
   30648:	483ff41e 	bne	r9,zero,3061c <__ledf2+0x84>
   3064c:	003ff406 	br	30620 <__ledf2+0x88>
   30650:	1a00030e 	bge	r3,r8,30660 <__ledf2+0xc8>
   30654:	103ff41e 	bne	r2,zero,30628 <__ledf2+0x90>
   30658:	00800044 	movi	r2,1
   3065c:	f800283a 	ret
   30660:	40fff516 	blt	r8,r3,30638 <__ledf2+0xa0>
   30664:	397fee36 	bltu	r7,r5,30620 <__ledf2+0x88>
   30668:	29c00426 	beq	r5,r7,3067c <__ledf2+0xe4>
   3066c:	29ffdf2e 	bgeu	r5,r7,305ec <__ledf2+0x54>
   30670:	583fed26 	beq	r11,zero,30628 <__ledf2+0x90>
   30674:	5805883a 	mov	r2,r11
   30678:	f800283a 	ret
   3067c:	313fe836 	bltu	r6,r4,30620 <__ledf2+0x88>
   30680:	21bfda2e 	bgeu	r4,r6,305ec <__ledf2+0x54>
   30684:	003ffa06 	br	30670 <__ledf2+0xd8>

00030688 <__muldf3>:
   30688:	2804d53a 	srli	r2,r5,20
   3068c:	defff504 	addi	sp,sp,-44
   30690:	02000434 	movhi	r8,16
   30694:	df000915 	stw	fp,36(sp)
   30698:	dd000515 	stw	r20,20(sp)
   3069c:	dcc00415 	stw	r19,16(sp)
   306a0:	dc000115 	stw	r16,4(sp)
   306a4:	423fffc4 	addi	r8,r8,-1
   306a8:	dfc00a15 	stw	ra,40(sp)
   306ac:	ddc00815 	stw	r23,32(sp)
   306b0:	dd800715 	stw	r22,28(sp)
   306b4:	dd400615 	stw	r21,24(sp)
   306b8:	dc800315 	stw	r18,12(sp)
   306bc:	dc400215 	stw	r17,8(sp)
   306c0:	1081ffcc 	andi	r2,r2,2047
   306c4:	2828d7fa 	srli	r20,r5,31
   306c8:	2027883a 	mov	r19,r4
   306cc:	3039883a 	mov	fp,r6
   306d0:	2a20703a 	and	r16,r5,r8
   306d4:	10005a26 	beq	r2,zero,30840 <__muldf3+0x1b8>
   306d8:	10c1ffe0 	cmpeqi	r3,r2,2047
   306dc:	18006c1e 	bne	r3,zero,30890 <__muldf3+0x208>
   306e0:	800a90fa 	slli	r5,r16,3
   306e4:	2020d77a 	srli	r16,r4,29
   306e8:	202490fa 	slli	r18,r4,3
   306ec:	14ff0044 	addi	r19,r2,-1023
   306f0:	8160b03a 	or	r16,r16,r5
   306f4:	84002034 	orhi	r16,r16,128
   306f8:	002b883a 	mov	r21,zero
   306fc:	002d883a 	mov	r22,zero
   30700:	3804d53a 	srli	r2,r7,20
   30704:	00c00434 	movhi	r3,16
   30708:	18ffffc4 	addi	r3,r3,-1
   3070c:	1081ffcc 	andi	r2,r2,2047
   30710:	382ed7fa 	srli	r23,r7,31
   30714:	38e2703a 	and	r17,r7,r3
   30718:	10006426 	beq	r2,zero,308ac <__muldf3+0x224>
   3071c:	10c1ffe0 	cmpeqi	r3,r2,2047
   30720:	1800211e 	bne	r3,zero,307a8 <__muldf3+0x120>
   30724:	880690fa 	slli	r3,r17,3
   30728:	e022d77a 	srli	r17,fp,29
   3072c:	e00a90fa 	slli	r5,fp,3
   30730:	10bf0044 	addi	r2,r2,-1023
   30734:	88e2b03a 	or	r17,r17,r3
   30738:	8c402034 	orhi	r17,r17,128
   3073c:	98a7883a 	add	r19,r19,r2
   30740:	0007883a 	mov	r3,zero
   30744:	a9000428 	cmpgeui	r4,r21,16
   30748:	a5ccf03a 	xor	r6,r20,r23
   3074c:	9a000044 	addi	r8,r19,1
   30750:	20006b1e 	bne	r4,zero,30900 <__muldf3+0x278>
   30754:	a80490ba 	slli	r2,r21,2
   30758:	010000f4 	movhi	r4,3
   3075c:	1109883a 	add	r4,r2,r4
   30760:	2081da17 	ldw	r2,1896(r4)
   30764:	1000683a 	jmp	r2
   30768:	00030900 	call	3090 <__alt_mem_onchip_memory-0x1cf70>
   3076c:	000307c8 	cmpgei	zero,zero,3103
   30770:	000307c8 	cmpgei	zero,zero,3103
   30774:	000307c4 	movi	zero,3103
   30778:	000307d4 	movui	zero,3103
   3077c:	000307d4 	movui	zero,3103
   30780:	00030b50 	cmplti	zero,zero,3117
   30784:	000307c4 	movi	zero,3103
   30788:	000307d4 	movui	zero,3103
   3078c:	00030b50 	cmplti	zero,zero,3117
   30790:	000307d4 	movui	zero,3103
   30794:	000307c4 	movi	zero,3103
   30798:	00030b00 	call	30b0 <__alt_mem_onchip_memory-0x1cf50>
   3079c:	00030b00 	call	30b0 <__alt_mem_onchip_memory-0x1cf50>
   307a0:	00030b00 	call	30b0 <__alt_mem_onchip_memory-0x1cf50>
   307a4:	00030bdc 	xori	zero,zero,3119
   307a8:	e44ab03a 	or	r5,fp,r17
   307ac:	9cc1ffc4 	addi	r19,r19,2047
   307b0:	2800d51e 	bne	r5,zero,30b08 <__muldf3+0x480>
   307b4:	ad400094 	ori	r21,r21,2
   307b8:	0023883a 	mov	r17,zero
   307bc:	00c00084 	movi	r3,2
   307c0:	003fe006 	br	30744 <__muldf3+0xbc>
   307c4:	b80d883a 	mov	r6,r23
   307c8:	8821883a 	mov	r16,r17
   307cc:	2825883a 	mov	r18,r5
   307d0:	182d883a 	mov	r22,r3
   307d4:	b08000a0 	cmpeqi	r2,r22,2
   307d8:	1000451e 	bne	r2,zero,308f0 <__muldf3+0x268>
   307dc:	b08000e0 	cmpeqi	r2,r22,3
   307e0:	1001401e 	bne	r2,zero,30ce4 <__muldf3+0x65c>
   307e4:	b0800060 	cmpeqi	r2,r22,1
   307e8:	1000ab26 	beq	r2,zero,30a98 <__muldf3+0x410>
   307ec:	0007883a 	mov	r3,zero
   307f0:	0021883a 	mov	r16,zero
   307f4:	0025883a 	mov	r18,zero
   307f8:	30803fcc 	andi	r2,r6,255
   307fc:	1806953a 	slli	r3,r3,20
   30800:	100497fa 	slli	r2,r2,31
   30804:	1c06b03a 	or	r3,r3,r16
   30808:	1886b03a 	or	r3,r3,r2
   3080c:	9005883a 	mov	r2,r18
   30810:	dfc00a17 	ldw	ra,40(sp)
   30814:	df000917 	ldw	fp,36(sp)
   30818:	ddc00817 	ldw	r23,32(sp)
   3081c:	dd800717 	ldw	r22,28(sp)
   30820:	dd400617 	ldw	r21,24(sp)
   30824:	dd000517 	ldw	r20,20(sp)
   30828:	dcc00417 	ldw	r19,16(sp)
   3082c:	dc800317 	ldw	r18,12(sp)
   30830:	dc400217 	ldw	r17,8(sp)
   30834:	dc000117 	ldw	r16,4(sp)
   30838:	dec00b04 	addi	sp,sp,44
   3083c:	f800283a 	ret
   30840:	8124b03a 	or	r18,r16,r4
   30844:	9000bd26 	beq	r18,zero,30b3c <__muldf3+0x4b4>
   30848:	d9c00015 	stw	r7,0(sp)
   3084c:	8000ff26 	beq	r16,zero,30c4c <__muldf3+0x5c4>
   30850:	8009883a 	mov	r4,r16
   30854:	00227100 	call	22710 <__clzsi2>
   30858:	d9c00017 	ldw	r7,0(sp)
   3085c:	113ffd44 	addi	r4,r2,-11
   30860:	00c00744 	movi	r3,29
   30864:	14bffe04 	addi	r18,r2,-8
   30868:	1907c83a 	sub	r3,r3,r4
   3086c:	84a0983a 	sll	r16,r16,r18
   30870:	98c6d83a 	srl	r3,r19,r3
   30874:	9ca4983a 	sll	r18,r19,r18
   30878:	1c20b03a 	or	r16,r3,r16
   3087c:	04ff0344 	movi	r19,-1011
   30880:	98a7c83a 	sub	r19,r19,r2
   30884:	002b883a 	mov	r21,zero
   30888:	002d883a 	mov	r22,zero
   3088c:	003f9c06 	br	30700 <__muldf3+0x78>
   30890:	8124b03a 	or	r18,r16,r4
   30894:	9000a41e 	bne	r18,zero,30b28 <__muldf3+0x4a0>
   30898:	0021883a 	mov	r16,zero
   3089c:	05400204 	movi	r21,8
   308a0:	04c1ffc4 	movi	r19,2047
   308a4:	05800084 	movi	r22,2
   308a8:	003f9506 	br	30700 <__muldf3+0x78>
   308ac:	e44ab03a 	or	r5,fp,r17
   308b0:	28009926 	beq	r5,zero,30b18 <__muldf3+0x490>
   308b4:	8800da26 	beq	r17,zero,30c20 <__muldf3+0x598>
   308b8:	8809883a 	mov	r4,r17
   308bc:	00227100 	call	22710 <__clzsi2>
   308c0:	11bffd44 	addi	r6,r2,-11
   308c4:	01000744 	movi	r4,29
   308c8:	117ffe04 	addi	r5,r2,-8
   308cc:	2189c83a 	sub	r4,r4,r6
   308d0:	8962983a 	sll	r17,r17,r5
   308d4:	e108d83a 	srl	r4,fp,r4
   308d8:	e14a983a 	sll	r5,fp,r5
   308dc:	2462b03a 	or	r17,r4,r17
   308e0:	9885c83a 	sub	r2,r19,r2
   308e4:	14ff0344 	addi	r19,r2,-1011
   308e8:	0007883a 	mov	r3,zero
   308ec:	003f9506 	br	30744 <__muldf3+0xbc>
   308f0:	00c1ffc4 	movi	r3,2047
   308f4:	0021883a 	mov	r16,zero
   308f8:	0025883a 	mov	r18,zero
   308fc:	003fbe06 	br	307f8 <__muldf3+0x170>
   30900:	9008d43a 	srli	r4,r18,16
   30904:	281ed43a 	srli	r15,r5,16
   30908:	94bfffcc 	andi	r18,r18,65535
   3090c:	297fffcc 	andi	r5,r5,65535
   30910:	2c85383a 	mul	r2,r5,r18
   30914:	214f383a 	mul	r7,r4,r5
   30918:	7c87383a 	mul	r3,r15,r18
   3091c:	1012d43a 	srli	r9,r2,16
   30920:	23dd383a 	mul	r14,r4,r15
   30924:	19c7883a 	add	r3,r3,r7
   30928:	48d3883a 	add	r9,r9,r3
   3092c:	49c0022e 	bgeu	r9,r7,30938 <__muldf3+0x2b0>
   30930:	00c00074 	movhi	r3,1
   30934:	70dd883a 	add	r14,r14,r3
   30938:	881ad43a 	srli	r13,r17,16
   3093c:	8c7fffcc 	andi	r17,r17,65535
   30940:	8c87383a 	mul	r3,r17,r18
   30944:	244f383a 	mul	r7,r4,r17
   30948:	6ca5383a 	mul	r18,r13,r18
   3094c:	1816d43a 	srli	r11,r3,16
   30950:	4814943a 	slli	r10,r9,16
   30954:	91e5883a 	add	r18,r18,r7
   30958:	10bfffcc 	andi	r2,r2,65535
   3095c:	5c97883a 	add	r11,r11,r18
   30960:	4818d43a 	srli	r12,r9,16
   30964:	2349383a 	mul	r4,r4,r13
   30968:	5095883a 	add	r10,r10,r2
   3096c:	59c0022e 	bgeu	r11,r7,30978 <__muldf3+0x2f0>
   30970:	00800074 	movhi	r2,1
   30974:	2089883a 	add	r4,r4,r2
   30978:	8028d43a 	srli	r20,r16,16
   3097c:	827fffcc 	andi	r9,r16,65535
   30980:	2a6b383a 	mul	r21,r5,r9
   30984:	7a45383a 	mul	r2,r15,r9
   30988:	a14b383a 	mul	r5,r20,r5
   3098c:	580e943a 	slli	r7,r11,16
   30990:	a82cd43a 	srli	r22,r21,16
   30994:	5824d43a 	srli	r18,r11,16
   30998:	18ffffcc 	andi	r3,r3,65535
   3099c:	1145883a 	add	r2,r2,r5
   309a0:	38cf883a 	add	r7,r7,r3
   309a4:	b085883a 	add	r2,r22,r2
   309a8:	7d1f383a 	mul	r15,r15,r20
   309ac:	9117883a 	add	r11,r18,r4
   309b0:	61c7883a 	add	r3,r12,r7
   309b4:	1140022e 	bgeu	r2,r5,309c0 <__muldf3+0x338>
   309b8:	01000074 	movhi	r4,1
   309bc:	791f883a 	add	r15,r15,r4
   309c0:	8a65383a 	mul	r18,r17,r9
   309c4:	6a53383a 	mul	r9,r13,r9
   309c8:	a463383a 	mul	r17,r20,r17
   309cc:	9020d43a 	srli	r16,r18,16
   309d0:	100ad43a 	srli	r5,r2,16
   309d4:	1004943a 	slli	r2,r2,16
   309d8:	4c53883a 	add	r9,r9,r17
   309dc:	ab3fffcc 	andi	r12,r21,65535
   309e0:	8253883a 	add	r9,r16,r9
   309e4:	6d1b383a 	mul	r13,r13,r20
   309e8:	2bdf883a 	add	r15,r5,r15
   309ec:	1305883a 	add	r2,r2,r12
   309f0:	4c40022e 	bgeu	r9,r17,309fc <__muldf3+0x374>
   309f4:	01000074 	movhi	r4,1
   309f8:	691b883a 	add	r13,r13,r4
   309fc:	4808943a 	slli	r4,r9,16
   30a00:	917fffcc 	andi	r5,r18,65535
   30a04:	1b87883a 	add	r3,r3,r14
   30a08:	2149883a 	add	r4,r4,r5
   30a0c:	19cf803a 	cmpltu	r7,r3,r7
   30a10:	22c9883a 	add	r4,r4,r11
   30a14:	1887883a 	add	r3,r3,r2
   30a18:	21dd883a 	add	r14,r4,r7
   30a1c:	1885803a 	cmpltu	r2,r3,r2
   30a20:	73cb883a 	add	r5,r14,r15
   30a24:	4812d43a 	srli	r9,r9,16
   30a28:	2899883a 	add	r12,r5,r2
   30a2c:	22c9803a 	cmpltu	r4,r4,r11
   30a30:	71e1803a 	cmpltu	r16,r14,r7
   30a34:	2bcb803a 	cmpltu	r5,r5,r15
   30a38:	2420b03a 	or	r16,r4,r16
   30a3c:	6085803a 	cmpltu	r2,r12,r2
   30a40:	2884b03a 	or	r2,r5,r2
   30a44:	8261883a 	add	r16,r16,r9
   30a48:	1824927a 	slli	r18,r3,9
   30a4c:	80a1883a 	add	r16,r16,r2
   30a50:	8361883a 	add	r16,r16,r13
   30a54:	8020927a 	slli	r16,r16,9
   30a58:	1806d5fa 	srli	r3,r3,23
   30a5c:	600ad5fa 	srli	r5,r12,23
   30a60:	6004927a 	slli	r2,r12,9
   30a64:	92a4b03a 	or	r18,r18,r10
   30a68:	9024c03a 	cmpne	r18,r18,zero
   30a6c:	90e4b03a 	or	r18,r18,r3
   30a70:	80c0402c 	andhi	r3,r16,256
   30a74:	90a4b03a 	or	r18,r18,r2
   30a78:	8160b03a 	or	r16,r16,r5
   30a7c:	18007e26 	beq	r3,zero,30c78 <__muldf3+0x5f0>
   30a80:	9006d07a 	srli	r3,r18,1
   30a84:	800497fa 	slli	r2,r16,31
   30a88:	9480004c 	andi	r18,r18,1
   30a8c:	8020d07a 	srli	r16,r16,1
   30a90:	1c86b03a 	or	r3,r3,r18
   30a94:	18a4b03a 	or	r18,r3,r2
   30a98:	4100ffc4 	addi	r4,r8,1023
   30a9c:	0100320e 	bge	zero,r4,30b68 <__muldf3+0x4e0>
   30aa0:	908001cc 	andi	r2,r18,7
   30aa4:	10000726 	beq	r2,zero,30ac4 <__muldf3+0x43c>
   30aa8:	908003cc 	andi	r2,r18,15
   30aac:	10800120 	cmpeqi	r2,r2,4
   30ab0:	1000041e 	bne	r2,zero,30ac4 <__muldf3+0x43c>
   30ab4:	90800104 	addi	r2,r18,4
   30ab8:	14a5803a 	cmpltu	r18,r2,r18
   30abc:	84a1883a 	add	r16,r16,r18
   30ac0:	1025883a 	mov	r18,r2
   30ac4:	8080402c 	andhi	r2,r16,256
   30ac8:	10000426 	beq	r2,zero,30adc <__muldf3+0x454>
   30acc:	00bfc034 	movhi	r2,65280
   30ad0:	10bfffc4 	addi	r2,r2,-1
   30ad4:	80a0703a 	and	r16,r16,r2
   30ad8:	41010004 	addi	r4,r8,1024
   30adc:	2081ffc8 	cmpgei	r2,r4,2047
   30ae0:	103f831e 	bne	r2,zero,308f0 <__muldf3+0x268>
   30ae4:	8004977a 	slli	r2,r16,29
   30ae8:	9024d0fa 	srli	r18,r18,3
   30aec:	8020927a 	slli	r16,r16,9
   30af0:	20c1ffcc 	andi	r3,r4,2047
   30af4:	14a4b03a 	or	r18,r2,r18
   30af8:	8020d33a 	srli	r16,r16,12
   30afc:	003f3e06 	br	307f8 <__muldf3+0x170>
   30b00:	a00d883a 	mov	r6,r20
   30b04:	003f3306 	br	307d4 <__muldf3+0x14c>
   30b08:	ad4000d4 	ori	r21,r21,3
   30b0c:	e00b883a 	mov	r5,fp
   30b10:	00c000c4 	movi	r3,3
   30b14:	003f0b06 	br	30744 <__muldf3+0xbc>
   30b18:	ad400054 	ori	r21,r21,1
   30b1c:	0023883a 	mov	r17,zero
   30b20:	00c00044 	movi	r3,1
   30b24:	003f0706 	br	30744 <__muldf3+0xbc>
   30b28:	2025883a 	mov	r18,r4
   30b2c:	05400304 	movi	r21,12
   30b30:	04c1ffc4 	movi	r19,2047
   30b34:	058000c4 	movi	r22,3
   30b38:	003ef106 	br	30700 <__muldf3+0x78>
   30b3c:	0021883a 	mov	r16,zero
   30b40:	05400104 	movi	r21,4
   30b44:	0027883a 	mov	r19,zero
   30b48:	05800044 	movi	r22,1
   30b4c:	003eec06 	br	30700 <__muldf3+0x78>
   30b50:	04000434 	movhi	r16,16
   30b54:	000d883a 	mov	r6,zero
   30b58:	843fffc4 	addi	r16,r16,-1
   30b5c:	04bfffc4 	movi	r18,-1
   30b60:	00c1ffc4 	movi	r3,2047
   30b64:	003f2406 	br	307f8 <__muldf3+0x170>
   30b68:	00800044 	movi	r2,1
   30b6c:	1105c83a 	sub	r2,r2,r4
   30b70:	10c00e48 	cmpgei	r3,r2,57
   30b74:	183f1d1e 	bne	r3,zero,307ec <__muldf3+0x164>
   30b78:	10c00808 	cmpgei	r3,r2,32
   30b7c:	1800401e 	bne	r3,zero,30c80 <__muldf3+0x5f8>
   30b80:	42010784 	addi	r8,r8,1054
   30b84:	8206983a 	sll	r3,r16,r8
   30b88:	9088d83a 	srl	r4,r18,r2
   30b8c:	9210983a 	sll	r8,r18,r8
   30b90:	80a0d83a 	srl	r16,r16,r2
   30b94:	1904b03a 	or	r2,r3,r4
   30b98:	4024c03a 	cmpne	r18,r8,zero
   30b9c:	1484b03a 	or	r2,r2,r18
   30ba0:	10c001cc 	andi	r3,r2,7
   30ba4:	18000726 	beq	r3,zero,30bc4 <__muldf3+0x53c>
   30ba8:	10c003cc 	andi	r3,r2,15
   30bac:	18c00120 	cmpeqi	r3,r3,4
   30bb0:	1800041e 	bne	r3,zero,30bc4 <__muldf3+0x53c>
   30bb4:	10c00104 	addi	r3,r2,4
   30bb8:	1885803a 	cmpltu	r2,r3,r2
   30bbc:	80a1883a 	add	r16,r16,r2
   30bc0:	1805883a 	mov	r2,r3
   30bc4:	80c0202c 	andhi	r3,r16,128
   30bc8:	18004226 	beq	r3,zero,30cd4 <__muldf3+0x64c>
   30bcc:	00c00044 	movi	r3,1
   30bd0:	0021883a 	mov	r16,zero
   30bd4:	0025883a 	mov	r18,zero
   30bd8:	003f0706 	br	307f8 <__muldf3+0x170>
   30bdc:	8080022c 	andhi	r2,r16,8
   30be0:	10000926 	beq	r2,zero,30c08 <__muldf3+0x580>
   30be4:	8880022c 	andhi	r2,r17,8
   30be8:	1000071e 	bne	r2,zero,30c08 <__muldf3+0x580>
   30bec:	00800434 	movhi	r2,16
   30bf0:	8c000234 	orhi	r16,r17,8
   30bf4:	10bfffc4 	addi	r2,r2,-1
   30bf8:	80a0703a 	and	r16,r16,r2
   30bfc:	b80d883a 	mov	r6,r23
   30c00:	2825883a 	mov	r18,r5
   30c04:	003fd606 	br	30b60 <__muldf3+0x4d8>
   30c08:	00800434 	movhi	r2,16
   30c0c:	84000234 	orhi	r16,r16,8
   30c10:	10bfffc4 	addi	r2,r2,-1
   30c14:	80a0703a 	and	r16,r16,r2
   30c18:	a00d883a 	mov	r6,r20
   30c1c:	003fd006 	br	30b60 <__muldf3+0x4d8>
   30c20:	e009883a 	mov	r4,fp
   30c24:	00227100 	call	22710 <__clzsi2>
   30c28:	11800544 	addi	r6,r2,21
   30c2c:	31000748 	cmpgei	r4,r6,29
   30c30:	1007883a 	mov	r3,r2
   30c34:	10800804 	addi	r2,r2,32
   30c38:	203f2226 	beq	r4,zero,308c4 <__muldf3+0x23c>
   30c3c:	1c7ffe04 	addi	r17,r3,-8
   30c40:	e462983a 	sll	r17,fp,r17
   30c44:	000b883a 	mov	r5,zero
   30c48:	003f2506 	br	308e0 <__muldf3+0x258>
   30c4c:	00227100 	call	22710 <__clzsi2>
   30c50:	11000544 	addi	r4,r2,21
   30c54:	21400748 	cmpgei	r5,r4,29
   30c58:	1007883a 	mov	r3,r2
   30c5c:	d9c00017 	ldw	r7,0(sp)
   30c60:	10800804 	addi	r2,r2,32
   30c64:	283efe26 	beq	r5,zero,30860 <__muldf3+0x1d8>
   30c68:	1c3ffe04 	addi	r16,r3,-8
   30c6c:	9c20983a 	sll	r16,r19,r16
   30c70:	0025883a 	mov	r18,zero
   30c74:	003f0106 	br	3087c <__muldf3+0x1f4>
   30c78:	9811883a 	mov	r8,r19
   30c7c:	003f8606 	br	30a98 <__muldf3+0x410>
   30c80:	00fff844 	movi	r3,-31
   30c84:	1907c83a 	sub	r3,r3,r4
   30c88:	10800820 	cmpeqi	r2,r2,32
   30c8c:	80c6d83a 	srl	r3,r16,r3
   30c90:	1000031e 	bne	r2,zero,30ca0 <__muldf3+0x618>
   30c94:	42010f84 	addi	r8,r8,1086
   30c98:	8220983a 	sll	r16,r16,r8
   30c9c:	9424b03a 	or	r18,r18,r16
   30ca0:	9024c03a 	cmpne	r18,r18,zero
   30ca4:	90c4b03a 	or	r2,r18,r3
   30ca8:	148001cc 	andi	r18,r2,7
   30cac:	9000051e 	bne	r18,zero,30cc4 <__muldf3+0x63c>
   30cb0:	0021883a 	mov	r16,zero
   30cb4:	1004d0fa 	srli	r2,r2,3
   30cb8:	0007883a 	mov	r3,zero
   30cbc:	14a4b03a 	or	r18,r2,r18
   30cc0:	003ecd06 	br	307f8 <__muldf3+0x170>
   30cc4:	10c003cc 	andi	r3,r2,15
   30cc8:	18c00118 	cmpnei	r3,r3,4
   30ccc:	0021883a 	mov	r16,zero
   30cd0:	183fb81e 	bne	r3,zero,30bb4 <__muldf3+0x52c>
   30cd4:	8006927a 	slli	r3,r16,9
   30cd8:	8024977a 	slli	r18,r16,29
   30cdc:	1820d33a 	srli	r16,r3,12
   30ce0:	003ff406 	br	30cb4 <__muldf3+0x62c>
   30ce4:	00800434 	movhi	r2,16
   30ce8:	84000234 	orhi	r16,r16,8
   30cec:	10bfffc4 	addi	r2,r2,-1
   30cf0:	80a0703a 	and	r16,r16,r2
   30cf4:	003f9a06 	br	30b60 <__muldf3+0x4d8>

00030cf8 <__subdf3>:
   30cf8:	00c00434 	movhi	r3,16
   30cfc:	3812d53a 	srli	r9,r7,20
   30d00:	18ffffc4 	addi	r3,r3,-1
   30d04:	defffb04 	addi	sp,sp,-20
   30d08:	28d0703a 	and	r8,r5,r3
   30d0c:	38c6703a 	and	r3,r7,r3
   30d10:	2804d7fa 	srli	r2,r5,31
   30d14:	401090fa 	slli	r8,r8,3
   30d18:	280ad53a 	srli	r5,r5,20
   30d1c:	180690fa 	slli	r3,r3,3
   30d20:	dcc00315 	stw	r19,12(sp)
   30d24:	dc400115 	stw	r17,4(sp)
   30d28:	2026d77a 	srli	r19,r4,29
   30d2c:	3022d77a 	srli	r17,r6,29
   30d30:	4b41ffcc 	andi	r13,r9,2047
   30d34:	dc800215 	stw	r18,8(sp)
   30d38:	dc000015 	stw	r16,0(sp)
   30d3c:	dfc00415 	stw	ra,16(sp)
   30d40:	6a41ffe0 	cmpeqi	r9,r13,2047
   30d44:	1025883a 	mov	r18,r2
   30d48:	201690fa 	slli	r11,r4,3
   30d4c:	380ed7fa 	srli	r7,r7,31
   30d50:	301490fa 	slli	r10,r6,3
   30d54:	2c01ffcc 	andi	r16,r5,2047
   30d58:	10803fcc 	andi	r2,r2,255
   30d5c:	9a10b03a 	or	r8,r19,r8
   30d60:	88c6b03a 	or	r3,r17,r3
   30d64:	48006e1e 	bne	r9,zero,30f20 <__subdf3+0x228>
   30d68:	3a40005c 	xori	r9,r7,1
   30d6c:	834bc83a 	sub	r5,r16,r13
   30d70:	12405726 	beq	r2,r9,30ed0 <__subdf3+0x1d8>
   30d74:	01406f0e 	bge	zero,r5,30f34 <__subdf3+0x23c>
   30d78:	68007a26 	beq	r13,zero,30f64 <__subdf3+0x26c>
   30d7c:	8081ffd8 	cmpnei	r2,r16,2047
   30d80:	10019f26 	beq	r2,zero,31400 <__subdf3+0x708>
   30d84:	18c02034 	orhi	r3,r3,128
   30d88:	28800e48 	cmpgei	r2,r5,57
   30d8c:	1000f91e 	bne	r2,zero,31174 <__subdf3+0x47c>
   30d90:	28800808 	cmpgei	r2,r5,32
   30d94:	1001451e 	bne	r2,zero,312ac <__subdf3+0x5b4>
   30d98:	00800804 	movi	r2,32
   30d9c:	1145c83a 	sub	r2,r2,r5
   30da0:	18a2983a 	sll	r17,r3,r2
   30da4:	5148d83a 	srl	r4,r10,r5
   30da8:	5084983a 	sll	r2,r10,r2
   30dac:	1946d83a 	srl	r3,r3,r5
   30db0:	8922b03a 	or	r17,r17,r4
   30db4:	1004c03a 	cmpne	r2,r2,zero
   30db8:	88a2b03a 	or	r17,r17,r2
   30dbc:	40d1c83a 	sub	r8,r8,r3
   30dc0:	5c63c83a 	sub	r17,r11,r17
   30dc4:	5c49803a 	cmpltu	r4,r11,r17
   30dc8:	4109c83a 	sub	r4,r8,r4
   30dcc:	2080202c 	andhi	r2,r4,128
   30dd0:	1000a526 	beq	r2,zero,31068 <__subdf3+0x370>
   30dd4:	04c02034 	movhi	r19,128
   30dd8:	9cffffc4 	addi	r19,r19,-1
   30ddc:	24e6703a 	and	r19,r4,r19
   30de0:	9800db26 	beq	r19,zero,31150 <__subdf3+0x458>
   30de4:	9809883a 	mov	r4,r19
   30de8:	00227100 	call	22710 <__clzsi2>
   30dec:	117ffe04 	addi	r5,r2,-8
   30df0:	01000804 	movi	r4,32
   30df4:	2149c83a 	sub	r4,r4,r5
   30df8:	8906d83a 	srl	r3,r17,r4
   30dfc:	9948983a 	sll	r4,r19,r5
   30e00:	8962983a 	sll	r17,r17,r5
   30e04:	1908b03a 	or	r4,r3,r4
   30e08:	2c00cc16 	blt	r5,r16,3113c <__subdf3+0x444>
   30e0c:	2c0bc83a 	sub	r5,r5,r16
   30e10:	28c00044 	addi	r3,r5,1
   30e14:	18800808 	cmpgei	r2,r3,32
   30e18:	1001171e 	bne	r2,zero,31278 <__subdf3+0x580>
   30e1c:	00800804 	movi	r2,32
   30e20:	10c5c83a 	sub	r2,r2,r3
   30e24:	88cad83a 	srl	r5,r17,r3
   30e28:	88a2983a 	sll	r17,r17,r2
   30e2c:	2084983a 	sll	r2,r4,r2
   30e30:	20c8d83a 	srl	r4,r4,r3
   30e34:	8822c03a 	cmpne	r17,r17,zero
   30e38:	1144b03a 	or	r2,r2,r5
   30e3c:	1462b03a 	or	r17,r2,r17
   30e40:	0021883a 	mov	r16,zero
   30e44:	888001cc 	andi	r2,r17,7
   30e48:	10000726 	beq	r2,zero,30e68 <__subdf3+0x170>
   30e4c:	888003cc 	andi	r2,r17,15
   30e50:	10800120 	cmpeqi	r2,r2,4
   30e54:	1000041e 	bne	r2,zero,30e68 <__subdf3+0x170>
   30e58:	88c00104 	addi	r3,r17,4
   30e5c:	1c63803a 	cmpltu	r17,r3,r17
   30e60:	2449883a 	add	r4,r4,r17
   30e64:	1823883a 	mov	r17,r3
   30e68:	2080202c 	andhi	r2,r4,128
   30e6c:	10008026 	beq	r2,zero,31070 <__subdf3+0x378>
   30e70:	81400044 	addi	r5,r16,1
   30e74:	2881ffe0 	cmpeqi	r2,r5,2047
   30e78:	2941ffcc 	andi	r5,r5,2047
   30e7c:	1000921e 	bne	r2,zero,310c8 <__subdf3+0x3d0>
   30e80:	00bfe034 	movhi	r2,65408
   30e84:	10bfffc4 	addi	r2,r2,-1
   30e88:	2088703a 	and	r4,r4,r2
   30e8c:	2006927a 	slli	r3,r4,9
   30e90:	8822d0fa 	srli	r17,r17,3
   30e94:	2004977a 	slli	r2,r4,29
   30e98:	1806d33a 	srli	r3,r3,12
   30e9c:	1444b03a 	or	r2,r2,r17
   30ea0:	280a953a 	slli	r5,r5,20
   30ea4:	94803fcc 	andi	r18,r18,255
   30ea8:	902497fa 	slli	r18,r18,31
   30eac:	28c6b03a 	or	r3,r5,r3
   30eb0:	1c86b03a 	or	r3,r3,r18
   30eb4:	dfc00417 	ldw	ra,16(sp)
   30eb8:	dcc00317 	ldw	r19,12(sp)
   30ebc:	dc800217 	ldw	r18,8(sp)
   30ec0:	dc400117 	ldw	r17,4(sp)
   30ec4:	dc000017 	ldw	r16,0(sp)
   30ec8:	dec00504 	addi	sp,sp,20
   30ecc:	f800283a 	ret
   30ed0:	01402e0e 	bge	zero,r5,30f8c <__subdf3+0x294>
   30ed4:	68005526 	beq	r13,zero,3102c <__subdf3+0x334>
   30ed8:	8081ffd8 	cmpnei	r2,r16,2047
   30edc:	10013b26 	beq	r2,zero,313cc <__subdf3+0x6d4>
   30ee0:	18c02034 	orhi	r3,r3,128
   30ee4:	28800e48 	cmpgei	r2,r5,57
   30ee8:	10006d1e 	bne	r2,zero,310a0 <__subdf3+0x3a8>
   30eec:	28800808 	cmpgei	r2,r5,32
   30ef0:	10010826 	beq	r2,zero,31314 <__subdf3+0x61c>
   30ef4:	2c7ff804 	addi	r17,r5,-32
   30ef8:	29000820 	cmpeqi	r4,r5,32
   30efc:	1c44d83a 	srl	r2,r3,r17
   30f00:	2000041e 	bne	r4,zero,30f14 <__subdf3+0x21c>
   30f04:	01001004 	movi	r4,64
   30f08:	214bc83a 	sub	r5,r4,r5
   30f0c:	1946983a 	sll	r3,r3,r5
   30f10:	50d4b03a 	or	r10,r10,r3
   30f14:	5022c03a 	cmpne	r17,r10,zero
   30f18:	88a2b03a 	or	r17,r17,r2
   30f1c:	00006206 	br	310a8 <__subdf3+0x3b0>
   30f20:	1a98b03a 	or	r12,r3,r10
   30f24:	817e0044 	addi	r5,r16,-2047
   30f28:	6000161e 	bne	r12,zero,30f84 <__subdf3+0x28c>
   30f2c:	3a40005c 	xori	r9,r7,1
   30f30:	12401626 	beq	r2,r9,30f8c <__subdf3+0x294>
   30f34:	28002e26 	beq	r5,zero,30ff0 <__subdf3+0x2f8>
   30f38:	6c0bc83a 	sub	r5,r13,r16
   30f3c:	4825883a 	mov	r18,r9
   30f40:	80009e1e 	bne	r16,zero,311bc <__subdf3+0x4c4>
   30f44:	42c4b03a 	or	r2,r8,r11
   30f48:	10010926 	beq	r2,zero,31370 <__subdf3+0x678>
   30f4c:	28bfffc4 	addi	r2,r5,-1
   30f50:	10016826 	beq	r2,zero,314f4 <__subdf3+0x7fc>
   30f54:	2941ffd8 	cmpnei	r5,r5,2047
   30f58:	28015f26 	beq	r5,zero,314d8 <__subdf3+0x7e0>
   30f5c:	100b883a 	mov	r5,r2
   30f60:	00009906 	br	311c8 <__subdf3+0x4d0>
   30f64:	1a84b03a 	or	r2,r3,r10
   30f68:	1000b126 	beq	r2,zero,31230 <__subdf3+0x538>
   30f6c:	28bfffc4 	addi	r2,r5,-1
   30f70:	10011d26 	beq	r2,zero,313e8 <__subdf3+0x6f0>
   30f74:	2941ffd8 	cmpnei	r5,r5,2047
   30f78:	28011426 	beq	r5,zero,313cc <__subdf3+0x6d4>
   30f7c:	100b883a 	mov	r5,r2
   30f80:	003f8106 	br	30d88 <__subdf3+0x90>
   30f84:	3a403fcc 	andi	r9,r7,255
   30f88:	11ffea1e 	bne	r2,r7,30f34 <__subdf3+0x23c>
   30f8c:	28007c26 	beq	r5,zero,31180 <__subdf3+0x488>
   30f90:	6c0bc83a 	sub	r5,r13,r16
   30f94:	8000d726 	beq	r16,zero,312f4 <__subdf3+0x5fc>
   30f98:	6881ffd8 	cmpnei	r2,r13,2047
   30f9c:	10012626 	beq	r2,zero,31438 <__subdf3+0x740>
   30fa0:	42002034 	orhi	r8,r8,128
   30fa4:	28800e48 	cmpgei	r2,r5,57
   30fa8:	10012a1e 	bne	r2,zero,31454 <__subdf3+0x75c>
   30fac:	28800808 	cmpgei	r2,r5,32
   30fb0:	1001821e 	bne	r2,zero,315bc <__subdf3+0x8c4>
   30fb4:	00800804 	movi	r2,32
   30fb8:	1145c83a 	sub	r2,r2,r5
   30fbc:	40a2983a 	sll	r17,r8,r2
   30fc0:	5948d83a 	srl	r4,r11,r5
   30fc4:	5884983a 	sll	r2,r11,r2
   30fc8:	4150d83a 	srl	r8,r8,r5
   30fcc:	8922b03a 	or	r17,r17,r4
   30fd0:	1004c03a 	cmpne	r2,r2,zero
   30fd4:	88a2b03a 	or	r17,r17,r2
   30fd8:	1a07883a 	add	r3,r3,r8
   30fdc:	8aa3883a 	add	r17,r17,r10
   30fe0:	8a89803a 	cmpltu	r4,r17,r10
   30fe4:	20c9883a 	add	r4,r4,r3
   30fe8:	6821883a 	mov	r16,r13
   30fec:	00003106 	br	310b4 <__subdf3+0x3bc>
   30ff0:	80800044 	addi	r2,r16,1
   30ff4:	1081ff8c 	andi	r2,r2,2046
   30ff8:	1000821e 	bne	r2,zero,31204 <__subdf3+0x50c>
   30ffc:	42ceb03a 	or	r7,r8,r11
   31000:	1a84b03a 	or	r2,r3,r10
   31004:	8000e11e 	bne	r16,zero,3138c <__subdf3+0x694>
   31008:	38012a26 	beq	r7,zero,314b4 <__subdf3+0x7bc>
   3100c:	1001461e 	bne	r2,zero,31528 <__subdf3+0x830>
   31010:	4004977a 	slli	r2,r8,29
   31014:	00c80034 	movhi	r3,8192
   31018:	18ffffc4 	addi	r3,r3,-1
   3101c:	20c8703a 	and	r4,r4,r3
   31020:	4010d0fa 	srli	r8,r8,3
   31024:	1104b03a 	or	r2,r2,r4
   31028:	00001806 	br	3108c <__subdf3+0x394>
   3102c:	1a84b03a 	or	r2,r3,r10
   31030:	1000fa26 	beq	r2,zero,3141c <__subdf3+0x724>
   31034:	28bfffc4 	addi	r2,r5,-1
   31038:	10000426 	beq	r2,zero,3104c <__subdf3+0x354>
   3103c:	2941ffd8 	cmpnei	r5,r5,2047
   31040:	28013226 	beq	r5,zero,3150c <__subdf3+0x814>
   31044:	100b883a 	mov	r5,r2
   31048:	003fa606 	br	30ee4 <__subdf3+0x1ec>
   3104c:	5aa3883a 	add	r17,r11,r10
   31050:	40c9883a 	add	r4,r8,r3
   31054:	8ad7803a 	cmpltu	r11,r17,r11
   31058:	22c9883a 	add	r4,r4,r11
   3105c:	2080202c 	andhi	r2,r4,128
   31060:	10007a1e 	bne	r2,zero,3124c <__subdf3+0x554>
   31064:	04000044 	movi	r16,1
   31068:	888001cc 	andi	r2,r17,7
   3106c:	103f771e 	bne	r2,zero,30e4c <__subdf3+0x154>
   31070:	8822d0fa 	srli	r17,r17,3
   31074:	2004977a 	slli	r2,r4,29
   31078:	2010d0fa 	srli	r8,r4,3
   3107c:	800b883a 	mov	r5,r16
   31080:	8884b03a 	or	r2,r17,r2
   31084:	28c1ffe0 	cmpeqi	r3,r5,2047
   31088:	1800241e 	bne	r3,zero,3111c <__subdf3+0x424>
   3108c:	00c00434 	movhi	r3,16
   31090:	18ffffc4 	addi	r3,r3,-1
   31094:	40c6703a 	and	r3,r8,r3
   31098:	2941ffcc 	andi	r5,r5,2047
   3109c:	003f8006 	br	30ea0 <__subdf3+0x1a8>
   310a0:	1aa2b03a 	or	r17,r3,r10
   310a4:	8822c03a 	cmpne	r17,r17,zero
   310a8:	8ae3883a 	add	r17,r17,r11
   310ac:	8ac9803a 	cmpltu	r4,r17,r11
   310b0:	2209883a 	add	r4,r4,r8
   310b4:	2080202c 	andhi	r2,r4,128
   310b8:	103feb26 	beq	r2,zero,31068 <__subdf3+0x370>
   310bc:	84000044 	addi	r16,r16,1
   310c0:	8081ffe0 	cmpeqi	r2,r16,2047
   310c4:	10006226 	beq	r2,zero,31250 <__subdf3+0x558>
   310c8:	0141ffc4 	movi	r5,2047
   310cc:	0007883a 	mov	r3,zero
   310d0:	0005883a 	mov	r2,zero
   310d4:	003f7206 	br	30ea0 <__subdf3+0x1a8>
   310d8:	400e977a 	slli	r7,r8,29
   310dc:	4010d0fa 	srli	r8,r8,3
   310e0:	1000ef26 	beq	r2,zero,314a0 <__subdf3+0x7a8>
   310e4:	01480034 	movhi	r5,8192
   310e8:	297fffc4 	addi	r5,r5,-1
   310ec:	2144703a 	and	r2,r4,r5
   310f0:	4100022c 	andhi	r4,r8,8
   310f4:	11c4b03a 	or	r2,r2,r7
   310f8:	20000826 	beq	r4,zero,3111c <__subdf3+0x424>
   310fc:	1808d0fa 	srli	r4,r3,3
   31100:	21c0022c 	andhi	r7,r4,8
   31104:	3800051e 	bne	r7,zero,3111c <__subdf3+0x424>
   31108:	1804977a 	slli	r2,r3,29
   3110c:	314c703a 	and	r6,r6,r5
   31110:	4825883a 	mov	r18,r9
   31114:	3084b03a 	or	r2,r6,r2
   31118:	2011883a 	mov	r8,r4
   3111c:	1206b03a 	or	r3,r2,r8
   31120:	18013e26 	beq	r3,zero,3161c <__subdf3+0x924>
   31124:	01000434 	movhi	r4,16
   31128:	40c00234 	orhi	r3,r8,8
   3112c:	213fffc4 	addi	r4,r4,-1
   31130:	1906703a 	and	r3,r3,r4
   31134:	0141ffc4 	movi	r5,2047
   31138:	003f5906 	br	30ea0 <__subdf3+0x1a8>
   3113c:	00ffe034 	movhi	r3,65408
   31140:	18ffffc4 	addi	r3,r3,-1
   31144:	8161c83a 	sub	r16,r16,r5
   31148:	20c8703a 	and	r4,r4,r3
   3114c:	003f3d06 	br	30e44 <__subdf3+0x14c>
   31150:	8809883a 	mov	r4,r17
   31154:	00227100 	call	22710 <__clzsi2>
   31158:	11400604 	addi	r5,r2,24
   3115c:	28c00808 	cmpgei	r3,r5,32
   31160:	183f2326 	beq	r3,zero,30df0 <__subdf3+0xf8>
   31164:	113ffe04 	addi	r4,r2,-8
   31168:	8908983a 	sll	r4,r17,r4
   3116c:	0023883a 	mov	r17,zero
   31170:	003f2506 	br	30e08 <__subdf3+0x110>
   31174:	1aa2b03a 	or	r17,r3,r10
   31178:	8822c03a 	cmpne	r17,r17,zero
   3117c:	003f1006 	br	30dc0 <__subdf3+0xc8>
   31180:	80800044 	addi	r2,r16,1
   31184:	11c1ff8c 	andi	r7,r2,2046
   31188:	38006d1e 	bne	r7,zero,31340 <__subdf3+0x648>
   3118c:	42c4b03a 	or	r2,r8,r11
   31190:	8000be1e 	bne	r16,zero,3148c <__subdf3+0x794>
   31194:	1000f726 	beq	r2,zero,31574 <__subdf3+0x87c>
   31198:	1a84b03a 	or	r2,r3,r10
   3119c:	1000fc1e 	bne	r2,zero,31590 <__subdf3+0x898>
   311a0:	4006977a 	slli	r3,r8,29
   311a4:	00880034 	movhi	r2,8192
   311a8:	10bfffc4 	addi	r2,r2,-1
   311ac:	2084703a 	and	r2,r4,r2
   311b0:	4010d0fa 	srli	r8,r8,3
   311b4:	10c4b03a 	or	r2,r2,r3
   311b8:	003fb406 	br	3108c <__subdf3+0x394>
   311bc:	6881ffd8 	cmpnei	r2,r13,2047
   311c0:	10009d26 	beq	r2,zero,31438 <__subdf3+0x740>
   311c4:	42002034 	orhi	r8,r8,128
   311c8:	28800e48 	cmpgei	r2,r5,57
   311cc:	1000421e 	bne	r2,zero,312d8 <__subdf3+0x5e0>
   311d0:	28800808 	cmpgei	r2,r5,32
   311d4:	1000a21e 	bne	r2,zero,31460 <__subdf3+0x768>
   311d8:	00800804 	movi	r2,32
   311dc:	1145c83a 	sub	r2,r2,r5
   311e0:	40a2983a 	sll	r17,r8,r2
   311e4:	5948d83a 	srl	r4,r11,r5
   311e8:	5896983a 	sll	r11,r11,r2
   311ec:	4150d83a 	srl	r8,r8,r5
   311f0:	8922b03a 	or	r17,r17,r4
   311f4:	5816c03a 	cmpne	r11,r11,zero
   311f8:	8ae2b03a 	or	r17,r17,r11
   311fc:	1a07c83a 	sub	r3,r3,r8
   31200:	00003706 	br	312e0 <__subdf3+0x5e8>
   31204:	5aa3c83a 	sub	r17,r11,r10
   31208:	40e7c83a 	sub	r19,r8,r3
   3120c:	5c49803a 	cmpltu	r4,r11,r17
   31210:	9927c83a 	sub	r19,r19,r4
   31214:	9880202c 	andhi	r2,r19,128
   31218:	1000661e 	bne	r2,zero,313b4 <__subdf3+0x6bc>
   3121c:	8cc4b03a 	or	r2,r17,r19
   31220:	103eef1e 	bne	r2,zero,30de0 <__subdf3+0xe8>
   31224:	0011883a 	mov	r8,zero
   31228:	0025883a 	mov	r18,zero
   3122c:	003f9706 	br	3108c <__subdf3+0x394>
   31230:	4022977a 	slli	r17,r8,29
   31234:	00880034 	movhi	r2,8192
   31238:	10bfffc4 	addi	r2,r2,-1
   3123c:	2088703a 	and	r4,r4,r2
   31240:	4010d0fa 	srli	r8,r8,3
   31244:	2444b03a 	or	r2,r4,r17
   31248:	003f8e06 	br	31084 <__subdf3+0x38c>
   3124c:	04000084 	movi	r16,2
   31250:	00bfe034 	movhi	r2,65408
   31254:	10bfffc4 	addi	r2,r2,-1
   31258:	8806d07a 	srli	r3,r17,1
   3125c:	2088703a 	and	r4,r4,r2
   31260:	200497fa 	slli	r2,r4,31
   31264:	8c40004c 	andi	r17,r17,1
   31268:	1c62b03a 	or	r17,r3,r17
   3126c:	2008d07a 	srli	r4,r4,1
   31270:	1462b03a 	or	r17,r2,r17
   31274:	003ef306 	br	30e44 <__subdf3+0x14c>
   31278:	297ff844 	addi	r5,r5,-31
   3127c:	18800820 	cmpeqi	r2,r3,32
   31280:	214ad83a 	srl	r5,r4,r5
   31284:	1000041e 	bne	r2,zero,31298 <__subdf3+0x5a0>
   31288:	00801004 	movi	r2,64
   3128c:	10c7c83a 	sub	r3,r2,r3
   31290:	20c8983a 	sll	r4,r4,r3
   31294:	8922b03a 	or	r17,r17,r4
   31298:	8822c03a 	cmpne	r17,r17,zero
   3129c:	8962b03a 	or	r17,r17,r5
   312a0:	0009883a 	mov	r4,zero
   312a4:	0021883a 	mov	r16,zero
   312a8:	003f6f06 	br	31068 <__subdf3+0x370>
   312ac:	2c7ff804 	addi	r17,r5,-32
   312b0:	29000820 	cmpeqi	r4,r5,32
   312b4:	1c44d83a 	srl	r2,r3,r17
   312b8:	2000041e 	bne	r4,zero,312cc <__subdf3+0x5d4>
   312bc:	01001004 	movi	r4,64
   312c0:	214bc83a 	sub	r5,r4,r5
   312c4:	1946983a 	sll	r3,r3,r5
   312c8:	50d4b03a 	or	r10,r10,r3
   312cc:	5022c03a 	cmpne	r17,r10,zero
   312d0:	88a2b03a 	or	r17,r17,r2
   312d4:	003eba06 	br	30dc0 <__subdf3+0xc8>
   312d8:	42d0b03a 	or	r8,r8,r11
   312dc:	4022c03a 	cmpne	r17,r8,zero
   312e0:	5463c83a 	sub	r17,r10,r17
   312e4:	5449803a 	cmpltu	r4,r10,r17
   312e8:	1909c83a 	sub	r4,r3,r4
   312ec:	6821883a 	mov	r16,r13
   312f0:	003eb606 	br	30dcc <__subdf3+0xd4>
   312f4:	42c4b03a 	or	r2,r8,r11
   312f8:	10009726 	beq	r2,zero,31558 <__subdf3+0x860>
   312fc:	28bfffc4 	addi	r2,r5,-1
   31300:	1000b926 	beq	r2,zero,315e8 <__subdf3+0x8f0>
   31304:	2941ffd8 	cmpnei	r5,r5,2047
   31308:	28007326 	beq	r5,zero,314d8 <__subdf3+0x7e0>
   3130c:	100b883a 	mov	r5,r2
   31310:	003f2406 	br	30fa4 <__subdf3+0x2ac>
   31314:	00800804 	movi	r2,32
   31318:	1145c83a 	sub	r2,r2,r5
   3131c:	18a2983a 	sll	r17,r3,r2
   31320:	5148d83a 	srl	r4,r10,r5
   31324:	5084983a 	sll	r2,r10,r2
   31328:	1946d83a 	srl	r3,r3,r5
   3132c:	8922b03a 	or	r17,r17,r4
   31330:	1004c03a 	cmpne	r2,r2,zero
   31334:	88a2b03a 	or	r17,r17,r2
   31338:	40d1883a 	add	r8,r8,r3
   3133c:	003f5a06 	br	310a8 <__subdf3+0x3b0>
   31340:	1101ffe0 	cmpeqi	r4,r2,2047
   31344:	203f601e 	bne	r4,zero,310c8 <__subdf3+0x3d0>
   31348:	5a95883a 	add	r10,r11,r10
   3134c:	52d7803a 	cmpltu	r11,r10,r11
   31350:	40c9883a 	add	r4,r8,r3
   31354:	22c9883a 	add	r4,r4,r11
   31358:	202297fa 	slli	r17,r4,31
   3135c:	5014d07a 	srli	r10,r10,1
   31360:	2008d07a 	srli	r4,r4,1
   31364:	1021883a 	mov	r16,r2
   31368:	8aa2b03a 	or	r17,r17,r10
   3136c:	003f3e06 	br	31068 <__subdf3+0x370>
   31370:	1808977a 	slli	r4,r3,29
   31374:	00880034 	movhi	r2,8192
   31378:	10bfffc4 	addi	r2,r2,-1
   3137c:	308c703a 	and	r6,r6,r2
   31380:	1810d0fa 	srli	r8,r3,3
   31384:	3104b03a 	or	r2,r6,r4
   31388:	003f3e06 	br	31084 <__subdf3+0x38c>
   3138c:	383f521e 	bne	r7,zero,310d8 <__subdf3+0x3e0>
   31390:	10009d26 	beq	r2,zero,31608 <__subdf3+0x910>
   31394:	1808977a 	slli	r4,r3,29
   31398:	00880034 	movhi	r2,8192
   3139c:	10bfffc4 	addi	r2,r2,-1
   313a0:	3084703a 	and	r2,r6,r2
   313a4:	1810d0fa 	srli	r8,r3,3
   313a8:	1104b03a 	or	r2,r2,r4
   313ac:	4825883a 	mov	r18,r9
   313b0:	003f5a06 	br	3111c <__subdf3+0x424>
   313b4:	52e3c83a 	sub	r17,r10,r11
   313b8:	1a09c83a 	sub	r4,r3,r8
   313bc:	5467803a 	cmpltu	r19,r10,r17
   313c0:	24e7c83a 	sub	r19,r4,r19
   313c4:	4825883a 	mov	r18,r9
   313c8:	003e8506 	br	30de0 <__subdf3+0xe8>
   313cc:	4022977a 	slli	r17,r8,29
   313d0:	00880034 	movhi	r2,8192
   313d4:	10bfffc4 	addi	r2,r2,-1
   313d8:	2088703a 	and	r4,r4,r2
   313dc:	4010d0fa 	srli	r8,r8,3
   313e0:	2444b03a 	or	r2,r4,r17
   313e4:	003f4d06 	br	3111c <__subdf3+0x424>
   313e8:	5aa3c83a 	sub	r17,r11,r10
   313ec:	40c9c83a 	sub	r4,r8,r3
   313f0:	5c57803a 	cmpltu	r11,r11,r17
   313f4:	22c9c83a 	sub	r4,r4,r11
   313f8:	04000044 	movi	r16,1
   313fc:	003e7306 	br	30dcc <__subdf3+0xd4>
   31400:	4004977a 	slli	r2,r8,29
   31404:	00c80034 	movhi	r3,8192
   31408:	18ffffc4 	addi	r3,r3,-1
   3140c:	20c8703a 	and	r4,r4,r3
   31410:	4010d0fa 	srli	r8,r8,3
   31414:	1104b03a 	or	r2,r2,r4
   31418:	003f4006 	br	3111c <__subdf3+0x424>
   3141c:	4004977a 	slli	r2,r8,29
   31420:	00c80034 	movhi	r3,8192
   31424:	18ffffc4 	addi	r3,r3,-1
   31428:	20c8703a 	and	r4,r4,r3
   3142c:	4010d0fa 	srli	r8,r8,3
   31430:	1104b03a 	or	r2,r2,r4
   31434:	003f1306 	br	31084 <__subdf3+0x38c>
   31438:	1804977a 	slli	r2,r3,29
   3143c:	01080034 	movhi	r4,8192
   31440:	213fffc4 	addi	r4,r4,-1
   31444:	310c703a 	and	r6,r6,r4
   31448:	1810d0fa 	srli	r8,r3,3
   3144c:	1184b03a 	or	r2,r2,r6
   31450:	003f3206 	br	3111c <__subdf3+0x424>
   31454:	42d0b03a 	or	r8,r8,r11
   31458:	4022c03a 	cmpne	r17,r8,zero
   3145c:	003edf06 	br	30fdc <__subdf3+0x2e4>
   31460:	2c7ff804 	addi	r17,r5,-32
   31464:	29000820 	cmpeqi	r4,r5,32
   31468:	4444d83a 	srl	r2,r8,r17
   3146c:	2000041e 	bne	r4,zero,31480 <__subdf3+0x788>
   31470:	01001004 	movi	r4,64
   31474:	214bc83a 	sub	r5,r4,r5
   31478:	4150983a 	sll	r8,r8,r5
   3147c:	5a16b03a 	or	r11,r11,r8
   31480:	5822c03a 	cmpne	r17,r11,zero
   31484:	88a2b03a 	or	r17,r17,r2
   31488:	003f9506 	br	312e0 <__subdf3+0x5e8>
   3148c:	103fea26 	beq	r2,zero,31438 <__subdf3+0x740>
   31490:	1a94b03a 	or	r10,r3,r10
   31494:	400e977a 	slli	r7,r8,29
   31498:	4010d0fa 	srli	r8,r8,3
   3149c:	503f111e 	bne	r10,zero,310e4 <__subdf3+0x3ec>
   314a0:	00880034 	movhi	r2,8192
   314a4:	10bfffc4 	addi	r2,r2,-1
   314a8:	2084703a 	and	r2,r4,r2
   314ac:	11c4b03a 	or	r2,r2,r7
   314b0:	003f1a06 	br	3111c <__subdf3+0x424>
   314b4:	103f5b26 	beq	r2,zero,31224 <__subdf3+0x52c>
   314b8:	1804977a 	slli	r2,r3,29
   314bc:	01080034 	movhi	r4,8192
   314c0:	213fffc4 	addi	r4,r4,-1
   314c4:	310c703a 	and	r6,r6,r4
   314c8:	1810d0fa 	srli	r8,r3,3
   314cc:	1184b03a 	or	r2,r2,r6
   314d0:	4825883a 	mov	r18,r9
   314d4:	003eed06 	br	3108c <__subdf3+0x394>
   314d8:	1808977a 	slli	r4,r3,29
   314dc:	00880034 	movhi	r2,8192
   314e0:	10bfffc4 	addi	r2,r2,-1
   314e4:	3084703a 	and	r2,r6,r2
   314e8:	1810d0fa 	srli	r8,r3,3
   314ec:	1104b03a 	or	r2,r2,r4
   314f0:	003f0a06 	br	3111c <__subdf3+0x424>
   314f4:	52e3c83a 	sub	r17,r10,r11
   314f8:	1a09c83a 	sub	r4,r3,r8
   314fc:	5455803a 	cmpltu	r10,r10,r17
   31500:	2289c83a 	sub	r4,r4,r10
   31504:	04000044 	movi	r16,1
   31508:	003e3006 	br	30dcc <__subdf3+0xd4>
   3150c:	4006977a 	slli	r3,r8,29
   31510:	00880034 	movhi	r2,8192
   31514:	10bfffc4 	addi	r2,r2,-1
   31518:	2084703a 	and	r2,r4,r2
   3151c:	4010d0fa 	srli	r8,r8,3
   31520:	10c4b03a 	or	r2,r2,r3
   31524:	003efd06 	br	3111c <__subdf3+0x424>
   31528:	5aa3c83a 	sub	r17,r11,r10
   3152c:	5c45803a 	cmpltu	r2,r11,r17
   31530:	40c9c83a 	sub	r4,r8,r3
   31534:	2089c83a 	sub	r4,r4,r2
   31538:	2080202c 	andhi	r2,r4,128
   3153c:	10002f26 	beq	r2,zero,315fc <__subdf3+0x904>
   31540:	52e3c83a 	sub	r17,r10,r11
   31544:	1a09c83a 	sub	r4,r3,r8
   31548:	5455803a 	cmpltu	r10,r10,r17
   3154c:	2289c83a 	sub	r4,r4,r10
   31550:	4825883a 	mov	r18,r9
   31554:	003e3b06 	br	30e44 <__subdf3+0x14c>
   31558:	1808977a 	slli	r4,r3,29
   3155c:	00880034 	movhi	r2,8192
   31560:	10bfffc4 	addi	r2,r2,-1
   31564:	3084703a 	and	r2,r6,r2
   31568:	1810d0fa 	srli	r8,r3,3
   3156c:	1104b03a 	or	r2,r2,r4
   31570:	003ec406 	br	31084 <__subdf3+0x38c>
   31574:	1808977a 	slli	r4,r3,29
   31578:	00880034 	movhi	r2,8192
   3157c:	10bfffc4 	addi	r2,r2,-1
   31580:	3084703a 	and	r2,r6,r2
   31584:	1810d0fa 	srli	r8,r3,3
   31588:	1104b03a 	or	r2,r2,r4
   3158c:	003ebf06 	br	3108c <__subdf3+0x394>
   31590:	5aa3883a 	add	r17,r11,r10
   31594:	40c9883a 	add	r4,r8,r3
   31598:	8ad7803a 	cmpltu	r11,r17,r11
   3159c:	22c9883a 	add	r4,r4,r11
   315a0:	2080202c 	andhi	r2,r4,128
   315a4:	103eb026 	beq	r2,zero,31068 <__subdf3+0x370>
   315a8:	00bfe034 	movhi	r2,65408
   315ac:	10bfffc4 	addi	r2,r2,-1
   315b0:	2088703a 	and	r4,r4,r2
   315b4:	04000044 	movi	r16,1
   315b8:	003eab06 	br	31068 <__subdf3+0x370>
   315bc:	28bff804 	addi	r2,r5,-32
   315c0:	29000820 	cmpeqi	r4,r5,32
   315c4:	4084d83a 	srl	r2,r8,r2
   315c8:	2000041e 	bne	r4,zero,315dc <__subdf3+0x8e4>
   315cc:	01001004 	movi	r4,64
   315d0:	214bc83a 	sub	r5,r4,r5
   315d4:	4150983a 	sll	r8,r8,r5
   315d8:	5a16b03a 	or	r11,r11,r8
   315dc:	5822c03a 	cmpne	r17,r11,zero
   315e0:	88a2b03a 	or	r17,r17,r2
   315e4:	003e7d06 	br	30fdc <__subdf3+0x2e4>
   315e8:	5aa3883a 	add	r17,r11,r10
   315ec:	40c9883a 	add	r4,r8,r3
   315f0:	8a95803a 	cmpltu	r10,r17,r10
   315f4:	2289883a 	add	r4,r4,r10
   315f8:	003e9806 	br	3105c <__subdf3+0x364>
   315fc:	8904b03a 	or	r2,r17,r4
   31600:	103f0826 	beq	r2,zero,31224 <__subdf3+0x52c>
   31604:	003e9806 	br	31068 <__subdf3+0x370>
   31608:	02000434 	movhi	r8,16
   3160c:	423fffc4 	addi	r8,r8,-1
   31610:	0025883a 	mov	r18,zero
   31614:	00bfffc4 	movi	r2,-1
   31618:	003ec206 	br	31124 <__subdf3+0x42c>
   3161c:	0005883a 	mov	r2,zero
   31620:	0141ffc4 	movi	r5,2047
   31624:	0007883a 	mov	r3,zero
   31628:	003e1d06 	br	30ea0 <__subdf3+0x1a8>

0003162c <__unorddf2>:
   3162c:	2806d53a 	srli	r3,r5,20
   31630:	3810d53a 	srli	r8,r7,20
   31634:	02400434 	movhi	r9,16
   31638:	18c1ffcc 	andi	r3,r3,2047
   3163c:	4a7fffc4 	addi	r9,r9,-1
   31640:	18c1ffd8 	cmpnei	r3,r3,2047
   31644:	2a4a703a 	and	r5,r5,r9
   31648:	3a4e703a 	and	r7,r7,r9
   3164c:	4201ffcc 	andi	r8,r8,2047
   31650:	18000426 	beq	r3,zero,31664 <__unorddf2+0x38>
   31654:	4201ffd8 	cmpnei	r8,r8,2047
   31658:	40000626 	beq	r8,zero,31674 <__unorddf2+0x48>
   3165c:	0005883a 	mov	r2,zero
   31660:	f800283a 	ret
   31664:	214ab03a 	or	r5,r4,r5
   31668:	283ffa26 	beq	r5,zero,31654 <__unorddf2+0x28>
   3166c:	00800044 	movi	r2,1
   31670:	f800283a 	ret
   31674:	398eb03a 	or	r7,r7,r6
   31678:	3804c03a 	cmpne	r2,r7,zero
   3167c:	f800283a 	ret

00031680 <__floatunsidf>:
   31680:	defffe04 	addi	sp,sp,-8
   31684:	dc000015 	stw	r16,0(sp)
   31688:	dfc00115 	stw	ra,4(sp)
   3168c:	2021883a 	mov	r16,r4
   31690:	20000f26 	beq	r4,zero,316d0 <__floatunsidf+0x50>
   31694:	00227100 	call	22710 <__clzsi2>
   31698:	00c10784 	movi	r3,1054
   3169c:	1887c83a 	sub	r3,r3,r2
   316a0:	110002c8 	cmpgei	r4,r2,11
   316a4:	18c1ffcc 	andi	r3,r3,2047
   316a8:	2000121e 	bne	r4,zero,316f4 <__floatunsidf+0x74>
   316ac:	014002c4 	movi	r5,11
   316b0:	288bc83a 	sub	r5,r5,r2
   316b4:	814ad83a 	srl	r5,r16,r5
   316b8:	01000434 	movhi	r4,16
   316bc:	10800544 	addi	r2,r2,21
   316c0:	213fffc4 	addi	r4,r4,-1
   316c4:	80a0983a 	sll	r16,r16,r2
   316c8:	290a703a 	and	r5,r5,r4
   316cc:	00000206 	br	316d8 <__floatunsidf+0x58>
   316d0:	0007883a 	mov	r3,zero
   316d4:	000b883a 	mov	r5,zero
   316d8:	1806953a 	slli	r3,r3,20
   316dc:	8005883a 	mov	r2,r16
   316e0:	1946b03a 	or	r3,r3,r5
   316e4:	dfc00117 	ldw	ra,4(sp)
   316e8:	dc000017 	ldw	r16,0(sp)
   316ec:	dec00204 	addi	sp,sp,8
   316f0:	f800283a 	ret
   316f4:	10bffd44 	addi	r2,r2,-11
   316f8:	808a983a 	sll	r5,r16,r2
   316fc:	00800434 	movhi	r2,16
   31700:	10bfffc4 	addi	r2,r2,-1
   31704:	288a703a 	and	r5,r5,r2
   31708:	0021883a 	mov	r16,zero
   3170c:	003ff206 	br	316d8 <__floatunsidf+0x58>

00031710 <alt_get_errno>:
#undef errno

extern int errno;

static ALT_INLINE int* alt_get_errno(void)
{
   31710:	defffe04 	addi	sp,sp,-8
   31714:	dfc00115 	stw	ra,4(sp)
   31718:	df000015 	stw	fp,0(sp)
   3171c:	d839883a 	mov	fp,sp
  return ((alt_errno) ? alt_errno() : &errno);
   31720:	d0a00a17 	ldw	r2,-32728(gp)
   31724:	10000326 	beq	r2,zero,31734 <alt_get_errno+0x24>
   31728:	d0a00a17 	ldw	r2,-32728(gp)
   3172c:	103ee83a 	callr	r2
   31730:	00000106 	br	31738 <alt_get_errno+0x28>
   31734:	d0a71404 	addi	r2,gp,-25520
}
   31738:	e037883a 	mov	sp,fp
   3173c:	dfc00117 	ldw	ra,4(sp)
   31740:	df000017 	ldw	fp,0(sp)
   31744:	dec00204 	addi	sp,sp,8
   31748:	f800283a 	ret

0003174c <close>:
 *
 * ALT_CLOSE is mapped onto the close() system call in alt_syscall.h
 */
 
int ALT_CLOSE (int fildes)
{
   3174c:	defffb04 	addi	sp,sp,-20
   31750:	dfc00415 	stw	ra,16(sp)
   31754:	df000315 	stw	fp,12(sp)
   31758:	df000304 	addi	fp,sp,12
   3175c:	e13ffd15 	stw	r4,-12(fp)
   * A common error case is that when the file descriptor was created, the call
   * to open() failed resulting in a negative file descriptor. This is trapped
   * below so that we don't try and process an invalid file descriptor.
   */

  fd = (fildes < 0) ? NULL : &alt_fd_list[fildes];
   31760:	e0bffd17 	ldw	r2,-12(fp)
   31764:	10000616 	blt	r2,zero,31780 <close+0x34>
   31768:	e0bffd17 	ldw	r2,-12(fp)
   3176c:	10c00324 	muli	r3,r2,12
   31770:	008000f4 	movhi	r2,3
   31774:	10967404 	addi	r2,r2,22992
   31778:	1885883a 	add	r2,r3,r2
   3177c:	00000106 	br	31784 <close+0x38>
   31780:	0005883a 	mov	r2,zero
   31784:	e0bfff15 	stw	r2,-4(fp)

  if (fd)
   31788:	e0bfff17 	ldw	r2,-4(fp)
   3178c:	10001926 	beq	r2,zero,317f4 <close+0xa8>
    /*
     * If the associated file system/device has a close function, call it so 
     * that any necessary cleanup code can run.
     */

    rval = (fd->dev->close) ? fd->dev->close(fd) : 0;
   31790:	e0bfff17 	ldw	r2,-4(fp)
   31794:	10800017 	ldw	r2,0(r2)
   31798:	10800417 	ldw	r2,16(r2)
   3179c:	10000626 	beq	r2,zero,317b8 <close+0x6c>
   317a0:	e0bfff17 	ldw	r2,-4(fp)
   317a4:	10800017 	ldw	r2,0(r2)
   317a8:	10800417 	ldw	r2,16(r2)
   317ac:	e13fff17 	ldw	r4,-4(fp)
   317b0:	103ee83a 	callr	r2
   317b4:	00000106 	br	317bc <close+0x70>
   317b8:	0005883a 	mov	r2,zero
   317bc:	e0bffe15 	stw	r2,-8(fp)

    /* Free the file descriptor structure and return. */

    alt_release_fd (fildes);
   317c0:	e13ffd17 	ldw	r4,-12(fp)
   317c4:	00325f00 	call	325f0 <alt_release_fd>
    if (rval < 0)
   317c8:	e0bffe17 	ldw	r2,-8(fp)
   317cc:	1000070e 	bge	r2,zero,317ec <close+0xa0>
    {
      ALT_ERRNO = -rval;
   317d0:	00317100 	call	31710 <alt_get_errno>
   317d4:	1007883a 	mov	r3,r2
   317d8:	e0bffe17 	ldw	r2,-8(fp)
   317dc:	0085c83a 	sub	r2,zero,r2
   317e0:	18800015 	stw	r2,0(r3)
      return -1;
   317e4:	00bfffc4 	movi	r2,-1
   317e8:	00000706 	br	31808 <close+0xbc>
    }
    return 0;
   317ec:	0005883a 	mov	r2,zero
   317f0:	00000506 	br	31808 <close+0xbc>
  }
  else
  {
    ALT_ERRNO = EBADFD;
   317f4:	00317100 	call	31710 <alt_get_errno>
   317f8:	1007883a 	mov	r3,r2
   317fc:	00801444 	movi	r2,81
   31800:	18800015 	stw	r2,0(r3)
    return -1;
   31804:	00bfffc4 	movi	r2,-1
  }
}
   31808:	e037883a 	mov	sp,fp
   3180c:	dfc00117 	ldw	ra,4(sp)
   31810:	df000017 	ldw	fp,0(sp)
   31814:	dec00204 	addi	sp,sp,8
   31818:	f800283a 	ret

0003181c <alt_dev_null_write>:
 * by the alt_dev_null device. It simple discards all data passed to it, and
 * indicates that the data has been successfully transmitted.
 */

static int alt_dev_null_write (alt_fd* fd, const char* ptr, int len)
{
   3181c:	defffc04 	addi	sp,sp,-16
   31820:	df000315 	stw	fp,12(sp)
   31824:	df000304 	addi	fp,sp,12
   31828:	e13fff15 	stw	r4,-4(fp)
   3182c:	e17ffe15 	stw	r5,-8(fp)
   31830:	e1bffd15 	stw	r6,-12(fp)
  return len;
   31834:	e0bffd17 	ldw	r2,-12(fp)
}
   31838:	e037883a 	mov	sp,fp
   3183c:	df000017 	ldw	fp,0(sp)
   31840:	dec00104 	addi	sp,sp,4
   31844:	f800283a 	ret

00031848 <_exit>:
 *
 * ALT_EXIT is mapped onto the _exit() system call in alt_syscall.h
 */

void ALT_EXIT (int exit_code)
{
   31848:	defffd04 	addi	sp,sp,-12
   3184c:	df000215 	stw	fp,8(sp)
   31850:	df000204 	addi	fp,sp,8
   31854:	e13ffe15 	stw	r4,-8(fp)
  ALT_LOG_PRINT_BOOT("[alt_exit.c] Entering _exit() function.\r\n");
  ALT_LOG_PRINT_BOOT("[alt_exit.c] Exit code from main was %d.\r\n",exit_code);
  /* Stop all other threads */

  ALT_LOG_PRINT_BOOT("[alt_exit.c] Calling ALT_OS_STOP().\r\n");
  ALT_OS_STOP();
   31858:	0001883a 	nop
   3185c:	e0bffe17 	ldw	r2,-8(fp)
   31860:	e0bfff15 	stw	r2,-4(fp)
/*
 * Routine called on exit.
 */
static ALT_INLINE ALT_ALWAYS_INLINE void alt_sim_halt(int exit_code)
{
  register int r2 asm ("r2") = exit_code;
   31864:	e0bfff17 	ldw	r2,-4(fp)
  __asm__ volatile ("\n0:\n\taddi %0,%0, -1\n\tbgt %0,zero,0b" : : "r" (ALT_CPU_FREQ/100) ); /* Delay for >30ms */

  __asm__ volatile ("break 2" : : "r"(r2), "r"(r3) ALT_GMON_DATA );

#else /* !DEBUG_STUB */
  if (r2) {
   31868:	10000226 	beq	r2,zero,31874 <_exit+0x2c>
    ALT_SIM_FAIL();
   3186c:	002af070 	cmpltui	zero,zero,43969
  } else {
    ALT_SIM_PASS();
  }
#endif /* DEBUG_STUB */
}
   31870:	00000106 	br	31878 <_exit+0x30>
    ALT_SIM_PASS();
   31874:	002af0b0 	cmpltui	zero,zero,43970
}
   31878:	0001883a 	nop
  ALT_SIM_HALT(exit_code);

  /* spin forever, since there's no where to go back to */

  ALT_LOG_PRINT_BOOT("[alt_exit.c] Spinning forever.\r\n");
  while (1);
   3187c:	003fff06 	br	3187c <_exit+0x34>

00031880 <alt_get_errno>:
{
   31880:	defffe04 	addi	sp,sp,-8
   31884:	dfc00115 	stw	ra,4(sp)
   31888:	df000015 	stw	fp,0(sp)
   3188c:	d839883a 	mov	fp,sp
  return ((alt_errno) ? alt_errno() : &errno);
   31890:	d0a00a17 	ldw	r2,-32728(gp)
   31894:	10000326 	beq	r2,zero,318a4 <alt_get_errno+0x24>
   31898:	d0a00a17 	ldw	r2,-32728(gp)
   3189c:	103ee83a 	callr	r2
   318a0:	00000106 	br	318a8 <alt_get_errno+0x28>
   318a4:	d0a71404 	addi	r2,gp,-25520
}
   318a8:	e037883a 	mov	sp,fp
   318ac:	dfc00117 	ldw	ra,4(sp)
   318b0:	df000017 	ldw	fp,0(sp)
   318b4:	dec00204 	addi	sp,sp,8
   318b8:	f800283a 	ret

000318bc <fstat>:
}

#else /* !ALT_USE_DIRECT_DRIVERS */

int ALT_FSTAT (int file, struct stat *st)
{
   318bc:	defffb04 	addi	sp,sp,-20
   318c0:	dfc00415 	stw	ra,16(sp)
   318c4:	df000315 	stw	fp,12(sp)
   318c8:	df000304 	addi	fp,sp,12
   318cc:	e13ffe15 	stw	r4,-8(fp)
   318d0:	e17ffd15 	stw	r5,-12(fp)
   * A common error case is that when the file descriptor was created, the call
   * to open() failed resulting in a negative file descriptor. This is trapped
   * below so that we don't try and process an invalid file descriptor.
   */

  fd = (file < 0) ? NULL : &alt_fd_list[file];
   318d4:	e0bffe17 	ldw	r2,-8(fp)
   318d8:	10000616 	blt	r2,zero,318f4 <fstat+0x38>
   318dc:	e0bffe17 	ldw	r2,-8(fp)
   318e0:	10c00324 	muli	r3,r2,12
   318e4:	008000f4 	movhi	r2,3
   318e8:	10967404 	addi	r2,r2,22992
   318ec:	1885883a 	add	r2,r3,r2
   318f0:	00000106 	br	318f8 <fstat+0x3c>
   318f4:	0005883a 	mov	r2,zero
   318f8:	e0bfff15 	stw	r2,-4(fp)
  
  if (fd)
   318fc:	e0bfff17 	ldw	r2,-4(fp)
   31900:	10001026 	beq	r2,zero,31944 <fstat+0x88>
  {
    /* Call the drivers fstat() function to fill out the "st" structure. */

    if (fd->dev->fstat)
   31904:	e0bfff17 	ldw	r2,-4(fp)
   31908:	10800017 	ldw	r2,0(r2)
   3190c:	10800817 	ldw	r2,32(r2)
   31910:	10000726 	beq	r2,zero,31930 <fstat+0x74>
    {
      return fd->dev->fstat(fd, st);
   31914:	e0bfff17 	ldw	r2,-4(fp)
   31918:	10800017 	ldw	r2,0(r2)
   3191c:	10800817 	ldw	r2,32(r2)
   31920:	e17ffd17 	ldw	r5,-12(fp)
   31924:	e13fff17 	ldw	r4,-4(fp)
   31928:	103ee83a 	callr	r2
   3192c:	00000a06 	br	31958 <fstat+0x9c>
     * device.
     */
 
    else
    {
      st->st_mode = _IFCHR;
   31930:	e0bffd17 	ldw	r2,-12(fp)
   31934:	00c80004 	movi	r3,8192
   31938:	10c00115 	stw	r3,4(r2)
      return 0;
   3193c:	0005883a 	mov	r2,zero
   31940:	00000506 	br	31958 <fstat+0x9c>
    }
  }
  else
  {
    ALT_ERRNO = EBADFD;
   31944:	00318800 	call	31880 <alt_get_errno>
   31948:	1007883a 	mov	r3,r2
   3194c:	00801444 	movi	r2,81
   31950:	18800015 	stw	r2,0(r3)
    return -1;
   31954:	00bfffc4 	movi	r2,-1
  }
}
   31958:	e037883a 	mov	sp,fp
   3195c:	dfc00117 	ldw	ra,4(sp)
   31960:	df000017 	ldw	fp,0(sp)
   31964:	dec00204 	addi	sp,sp,8
   31968:	f800283a 	ret

0003196c <getpid>:
 *
 * ALT_GETPID is mapped onto the getpid() system call in alt_syscall.h
 */
 
int ALT_GETPID (void)
{
   3196c:	deffff04 	addi	sp,sp,-4
   31970:	df000015 	stw	fp,0(sp)
   31974:	d839883a 	mov	fp,sp
  return 0;
   31978:	0005883a 	mov	r2,zero
}
   3197c:	e037883a 	mov	sp,fp
   31980:	df000017 	ldw	fp,0(sp)
   31984:	dec00104 	addi	sp,sp,4
   31988:	f800283a 	ret

0003198c <alt_irq_register>:
 */
 
int alt_irq_register (alt_u32 id, 
                      void* context, 
                      alt_isr_func handler)
{
   3198c:	defff004 	addi	sp,sp,-64
   31990:	df000f15 	stw	fp,60(sp)
   31994:	df000f04 	addi	fp,sp,60
   31998:	e13ff315 	stw	r4,-52(fp)
   3199c:	e17ff215 	stw	r5,-56(fp)
   319a0:	e1bff115 	stw	r6,-60(fp)
  int rc = -EINVAL;  
   319a4:	00bffa84 	movi	r2,-22
   319a8:	e0bfff15 	stw	r2,-4(fp)
  alt_irq_context status;

  if (id < ALT_NIRQ)
   319ac:	e0bff317 	ldw	r2,-52(fp)
   319b0:	10800828 	cmpgeui	r2,r2,32
   319b4:	1000501e 	bne	r2,zero,31af8 <alt_irq_register+0x16c>
  NIOS2_READ_STATUS (context);
   319b8:	0005303a 	rdctl	r2,status
   319bc:	e0bffd15 	stw	r2,-12(fp)
  NIOS2_WRITE_STATUS (context & ~NIOS2_STATUS_PIE_MSK);
   319c0:	e0fffd17 	ldw	r3,-12(fp)
   319c4:	00bfff84 	movi	r2,-2
   319c8:	1884703a 	and	r2,r3,r2
   319cc:	1001703a 	wrctl	status,r2
  return context;
   319d0:	e0bffd17 	ldw	r2,-12(fp)
     * interrupts are disabled while the handler tables are updated to ensure
     * that an interrupt doesn't occur while the tables are in an inconsistant
     * state.
     */

    status = alt_irq_disable_all ();
   319d4:	e0bffe15 	stw	r2,-8(fp)

    alt_irq[id].handler = handler;
   319d8:	e0bff317 	ldw	r2,-52(fp)
   319dc:	100890fa 	slli	r4,r2,3
   319e0:	e0fff117 	ldw	r3,-60(fp)
   319e4:	00800134 	movhi	r2,4
   319e8:	2085883a 	add	r2,r4,r2
   319ec:	10e22315 	stw	r3,-30580(r2)
    alt_irq[id].context = context;
   319f0:	e0bff317 	ldw	r2,-52(fp)
   319f4:	100890fa 	slli	r4,r2,3
   319f8:	e0fff217 	ldw	r3,-56(fp)
   319fc:	00800134 	movhi	r2,4
   31a00:	2085883a 	add	r2,r4,r2
   31a04:	10e22415 	stw	r3,-30576(r2)

    rc = (handler) ? alt_irq_enable (id): alt_irq_disable (id);
   31a08:	e0bff117 	ldw	r2,-60(fp)
   31a0c:	10001a26 	beq	r2,zero,31a78 <alt_irq_register+0xec>
   31a10:	e0bff317 	ldw	r2,-52(fp)
   31a14:	e0bffc15 	stw	r2,-16(fp)
  NIOS2_READ_STATUS (context);
   31a18:	0005303a 	rdctl	r2,status
   31a1c:	e0bffb15 	stw	r2,-20(fp)
  NIOS2_WRITE_STATUS (context & ~NIOS2_STATUS_PIE_MSK);
   31a20:	e0fffb17 	ldw	r3,-20(fp)
   31a24:	00bfff84 	movi	r2,-2
   31a28:	1884703a 	and	r2,r3,r2
   31a2c:	1001703a 	wrctl	status,r2
  return context;
   31a30:	e0bffb17 	ldw	r2,-20(fp)
static ALT_INLINE int ALT_ALWAYS_INLINE alt_irq_enable (alt_u32 id)
{
  alt_irq_context  status;
  extern volatile alt_u32 alt_irq_active;

  status = alt_irq_disable_all ();
   31a34:	e0bffa15 	stw	r2,-24(fp)

  alt_irq_active |= (1 << id);
   31a38:	00c00044 	movi	r3,1
   31a3c:	e0bffc17 	ldw	r2,-16(fp)
   31a40:	1884983a 	sll	r2,r3,r2
   31a44:	1007883a 	mov	r3,r2
   31a48:	d0a71917 	ldw	r2,-25500(gp)
   31a4c:	1884b03a 	or	r2,r3,r2
   31a50:	d0a71915 	stw	r2,-25500(gp)
  NIOS2_WRITE_IENABLE (alt_irq_active);
   31a54:	d0a71917 	ldw	r2,-25500(gp)
   31a58:	100170fa 	wrctl	ienable,r2
   31a5c:	e0bffa17 	ldw	r2,-24(fp)
   31a60:	e0bff915 	stw	r2,-28(fp)
  NIOS2_WRITE_STATUS (context);
   31a64:	e0bff917 	ldw	r2,-28(fp)
   31a68:	1001703a 	wrctl	status,r2
}
   31a6c:	0001883a 	nop

  alt_irq_enable_all(status);

  return 0;
   31a70:	0005883a 	mov	r2,zero
   31a74:	00001a06 	br	31ae0 <alt_irq_register+0x154>
   31a78:	e0bff317 	ldw	r2,-52(fp)
   31a7c:	e0bff815 	stw	r2,-32(fp)
  NIOS2_READ_STATUS (context);
   31a80:	0005303a 	rdctl	r2,status
   31a84:	e0bff715 	stw	r2,-36(fp)
  NIOS2_WRITE_STATUS (context & ~NIOS2_STATUS_PIE_MSK);
   31a88:	e0fff717 	ldw	r3,-36(fp)
   31a8c:	00bfff84 	movi	r2,-2
   31a90:	1884703a 	and	r2,r3,r2
   31a94:	1001703a 	wrctl	status,r2
  return context;
   31a98:	e0bff717 	ldw	r2,-36(fp)
  status = alt_irq_disable_all ();
   31a9c:	e0bff615 	stw	r2,-40(fp)
  alt_irq_active &= ~(1 << id);
   31aa0:	00c00044 	movi	r3,1
   31aa4:	e0bff817 	ldw	r2,-32(fp)
   31aa8:	1884983a 	sll	r2,r3,r2
   31aac:	0084303a 	nor	r2,zero,r2
   31ab0:	1007883a 	mov	r3,r2
   31ab4:	d0a71917 	ldw	r2,-25500(gp)
   31ab8:	1884703a 	and	r2,r3,r2
   31abc:	d0a71915 	stw	r2,-25500(gp)
  NIOS2_WRITE_IENABLE (alt_irq_active);
   31ac0:	d0a71917 	ldw	r2,-25500(gp)
   31ac4:	100170fa 	wrctl	ienable,r2
   31ac8:	e0bff617 	ldw	r2,-40(fp)
   31acc:	e0bff515 	stw	r2,-44(fp)
  NIOS2_WRITE_STATUS (context);
   31ad0:	e0bff517 	ldw	r2,-44(fp)
   31ad4:	1001703a 	wrctl	status,r2
}
   31ad8:	0001883a 	nop
  return 0;
   31adc:	0005883a 	mov	r2,zero
   31ae0:	e0bfff15 	stw	r2,-4(fp)
   31ae4:	e0bffe17 	ldw	r2,-8(fp)
   31ae8:	e0bff415 	stw	r2,-48(fp)
  NIOS2_WRITE_STATUS (context);
   31aec:	e0bff417 	ldw	r2,-48(fp)
   31af0:	1001703a 	wrctl	status,r2
}
   31af4:	0001883a 	nop

    alt_irq_enable_all(status);
  }
  return rc; 
   31af8:	e0bfff17 	ldw	r2,-4(fp)
}
   31afc:	e037883a 	mov	sp,fp
   31b00:	df000017 	ldw	fp,0(sp)
   31b04:	dec00104 	addi	sp,sp,4
   31b08:	f800283a 	ret

00031b0c <alt_get_errno>:
{
   31b0c:	defffe04 	addi	sp,sp,-8
   31b10:	dfc00115 	stw	ra,4(sp)
   31b14:	df000015 	stw	fp,0(sp)
   31b18:	d839883a 	mov	fp,sp
  return ((alt_errno) ? alt_errno() : &errno);
   31b1c:	d0a00a17 	ldw	r2,-32728(gp)
   31b20:	10000326 	beq	r2,zero,31b30 <alt_get_errno+0x24>
   31b24:	d0a00a17 	ldw	r2,-32728(gp)
   31b28:	103ee83a 	callr	r2
   31b2c:	00000106 	br	31b34 <alt_get_errno+0x28>
   31b30:	d0a71404 	addi	r2,gp,-25520
}
   31b34:	e037883a 	mov	sp,fp
   31b38:	dfc00117 	ldw	ra,4(sp)
   31b3c:	df000017 	ldw	fp,0(sp)
   31b40:	dec00204 	addi	sp,sp,8
   31b44:	f800283a 	ret

00031b48 <isatty>:
 *
 * ALT_ISATTY is mapped onto the isatty() system call in alt_syscall.h
 */
 
int ALT_ISATTY (int file)
{
   31b48:	deffea04 	addi	sp,sp,-88
   31b4c:	dfc01515 	stw	ra,84(sp)
   31b50:	df001415 	stw	fp,80(sp)
   31b54:	df001404 	addi	fp,sp,80
   31b58:	e13fec15 	stw	r4,-80(fp)
   * A common error case is that when the file descriptor was created, the call
   * to open() failed resulting in a negative file descriptor. This is trapped
   * below so that we don't try and process an invalid file descriptor.
   */

  fd = (file < 0) ? NULL : &alt_fd_list[file];
   31b5c:	e0bfec17 	ldw	r2,-80(fp)
   31b60:	10000616 	blt	r2,zero,31b7c <isatty+0x34>
   31b64:	e0bfec17 	ldw	r2,-80(fp)
   31b68:	10c00324 	muli	r3,r2,12
   31b6c:	008000f4 	movhi	r2,3
   31b70:	10967404 	addi	r2,r2,22992
   31b74:	1885883a 	add	r2,r3,r2
   31b78:	00000106 	br	31b80 <isatty+0x38>
   31b7c:	0005883a 	mov	r2,zero
   31b80:	e0bfff15 	stw	r2,-4(fp)
  
  if (fd)
   31b84:	e0bfff17 	ldw	r2,-4(fp)
   31b88:	10000e26 	beq	r2,zero,31bc4 <isatty+0x7c>
    /*
     * If a device driver does not provide an fstat() function, then it is 
     * treated as a terminal device by default.
     */

    if (!fd->dev->fstat)
   31b8c:	e0bfff17 	ldw	r2,-4(fp)
   31b90:	10800017 	ldw	r2,0(r2)
   31b94:	10800817 	ldw	r2,32(r2)
   31b98:	1000021e 	bne	r2,zero,31ba4 <isatty+0x5c>
    {
      return 1;
   31b9c:	00800044 	movi	r2,1
   31ba0:	00000d06 	br	31bd8 <isatty+0x90>
     * this is called so that the device can identify itself.
     */ 

    else
    {
      fstat (file, &stat);
   31ba4:	e0bfed04 	addi	r2,fp,-76
   31ba8:	100b883a 	mov	r5,r2
   31bac:	e13fec17 	ldw	r4,-80(fp)
   31bb0:	00318bc0 	call	318bc <fstat>
      return (stat.st_mode == _IFCHR) ? 1 : 0;
   31bb4:	e0bfee17 	ldw	r2,-72(fp)
   31bb8:	10880020 	cmpeqi	r2,r2,8192
   31bbc:	10803fcc 	andi	r2,r2,255
   31bc0:	00000506 	br	31bd8 <isatty+0x90>
    }
  }
  else
  {
    ALT_ERRNO = EBADFD;
   31bc4:	0031b0c0 	call	31b0c <alt_get_errno>
   31bc8:	1007883a 	mov	r3,r2
   31bcc:	00801444 	movi	r2,81
   31bd0:	18800015 	stw	r2,0(r3)
    return 0;
   31bd4:	0005883a 	mov	r2,zero
  }
}
   31bd8:	e037883a 	mov	sp,fp
   31bdc:	dfc00117 	ldw	ra,4(sp)
   31be0:	df000017 	ldw	fp,0(sp)
   31be4:	dec00204 	addi	sp,sp,8
   31be8:	f800283a 	ret

00031bec <alt_get_errno>:
{
   31bec:	defffe04 	addi	sp,sp,-8
   31bf0:	dfc00115 	stw	ra,4(sp)
   31bf4:	df000015 	stw	fp,0(sp)
   31bf8:	d839883a 	mov	fp,sp
  return ((alt_errno) ? alt_errno() : &errno);
   31bfc:	d0a00a17 	ldw	r2,-32728(gp)
   31c00:	10000326 	beq	r2,zero,31c10 <alt_get_errno+0x24>
   31c04:	d0a00a17 	ldw	r2,-32728(gp)
   31c08:	103ee83a 	callr	r2
   31c0c:	00000106 	br	31c14 <alt_get_errno+0x28>
   31c10:	d0a71404 	addi	r2,gp,-25520
}
   31c14:	e037883a 	mov	sp,fp
   31c18:	dfc00117 	ldw	ra,4(sp)
   31c1c:	df000017 	ldw	fp,0(sp)
   31c20:	dec00204 	addi	sp,sp,8
   31c24:	f800283a 	ret

00031c28 <kill>:
 *
 * ALT_KILL is mapped onto the kill() system call in alt_syscall.h
 */

int ALT_KILL (int pid, int sig)
{
   31c28:	defffb04 	addi	sp,sp,-20
   31c2c:	dfc00415 	stw	ra,16(sp)
   31c30:	df000315 	stw	fp,12(sp)
   31c34:	df000304 	addi	fp,sp,12
   31c38:	e13ffe15 	stw	r4,-8(fp)
   31c3c:	e17ffd15 	stw	r5,-12(fp)
  int status = 0;
   31c40:	e03fff15 	stw	zero,-4(fp)

  if (pid <= 0)
   31c44:	e0bffe17 	ldw	r2,-8(fp)
   31c48:	00802e16 	blt	zero,r2,31d04 <kill+0xdc>
   31c4c:	e0bffd17 	ldw	r2,-12(fp)
   31c50:	10800828 	cmpgeui	r2,r2,32
   31c54:	1000281e 	bne	r2,zero,31cf8 <kill+0xd0>
   31c58:	e0bffd17 	ldw	r2,-12(fp)
   31c5c:	100690ba 	slli	r3,r2,2
   31c60:	008000f4 	movhi	r2,3
   31c64:	1885883a 	add	r2,r3,r2
   31c68:	10871c17 	ldw	r2,7280(r2)
   31c6c:	1000683a 	jmp	r2
   31c70:	00031d18 	cmpnei	zero,zero,3188
   31c74:	00031cf8 	rdprs	zero,zero,3187
   31c78:	00031cf8 	rdprs	zero,zero,3187
   31c7c:	00031cf0 	cmpltui	zero,zero,3187
   31c80:	00031cf0 	cmpltui	zero,zero,3187
   31c84:	00031cf0 	cmpltui	zero,zero,3187
   31c88:	00031cf0 	cmpltui	zero,zero,3187
   31c8c:	00031cf8 	rdprs	zero,zero,3187
   31c90:	00031cf0 	cmpltui	zero,zero,3187
   31c94:	00031cf0 	cmpltui	zero,zero,3187
   31c98:	00031cf0 	cmpltui	zero,zero,3187
   31c9c:	00031cf0 	cmpltui	zero,zero,3187
   31ca0:	00031cf0 	cmpltui	zero,zero,3187
   31ca4:	00031cf0 	cmpltui	zero,zero,3187
   31ca8:	00031cf0 	cmpltui	zero,zero,3187
   31cac:	00031cf0 	cmpltui	zero,zero,3187
   31cb0:	00031d18 	cmpnei	zero,zero,3188
   31cb4:	00031cf8 	rdprs	zero,zero,3187
   31cb8:	00031cf8 	rdprs	zero,zero,3187
   31cbc:	00031cf8 	rdprs	zero,zero,3187
   31cc0:	00031d18 	cmpnei	zero,zero,3188
   31cc4:	00031cf8 	rdprs	zero,zero,3187
   31cc8:	00031cf8 	rdprs	zero,zero,3187
   31ccc:	00031cf0 	cmpltui	zero,zero,3187
   31cd0:	00031cf0 	cmpltui	zero,zero,3187
   31cd4:	00031cf0 	cmpltui	zero,zero,3187
   31cd8:	00031cf0 	cmpltui	zero,zero,3187
   31cdc:	00031cf0 	cmpltui	zero,zero,3187
   31ce0:	00031cf8 	rdprs	zero,zero,3187
   31ce4:	00031cf8 	rdprs	zero,zero,3187
   31ce8:	00031cf0 	cmpltui	zero,zero,3187
   31cec:	00031cf0 	cmpltui	zero,zero,3187
       * The Posix standard defines the default behaviour for all these signals 
       * as being eqivalent to a call to _exit(). No mechanism is provided to 
       * change this behaviour.
       */

      _exit(0);
   31cf0:	0009883a 	mov	r4,zero
   31cf4:	00318480 	call	31848 <_exit>
      break;
    default:

      /* Tried to send an unsupported signal */

      status = EINVAL;
   31cf8:	00800584 	movi	r2,22
   31cfc:	e0bfff15 	stw	r2,-4(fp)
   31d00:	00000606 	br	31d1c <kill+0xf4>
    }
  }

  else if (pid > 0)
   31d04:	e0bffe17 	ldw	r2,-8(fp)
   31d08:	0080040e 	bge	zero,r2,31d1c <kill+0xf4>
  {
    /* Attempted to signal a non-existant process */

    status = ESRCH;
   31d0c:	008000c4 	movi	r2,3
   31d10:	e0bfff15 	stw	r2,-4(fp)
   31d14:	00000106 	br	31d1c <kill+0xf4>
      break;
   31d18:	0001883a 	nop
  }

  if (status)
   31d1c:	e0bfff17 	ldw	r2,-4(fp)
   31d20:	10000626 	beq	r2,zero,31d3c <kill+0x114>
  {
    ALT_ERRNO = status;
   31d24:	0031bec0 	call	31bec <alt_get_errno>
   31d28:	1007883a 	mov	r3,r2
   31d2c:	e0bfff17 	ldw	r2,-4(fp)
   31d30:	18800015 	stw	r2,0(r3)
    return -1;
   31d34:	00bfffc4 	movi	r2,-1
   31d38:	00000106 	br	31d40 <kill+0x118>
  }

  return 0;
   31d3c:	0005883a 	mov	r2,zero
}
   31d40:	e037883a 	mov	sp,fp
   31d44:	dfc00117 	ldw	ra,4(sp)
   31d48:	df000017 	ldw	fp,0(sp)
   31d4c:	dec00204 	addi	sp,sp,8
   31d50:	f800283a 	ret

00031d54 <alt_load_section>:
 */

static void ALT_INLINE alt_load_section (alt_u32* from, 
                                         alt_u32* to, 
                                         alt_u32* end)
{
   31d54:	defffc04 	addi	sp,sp,-16
   31d58:	df000315 	stw	fp,12(sp)
   31d5c:	df000304 	addi	fp,sp,12
   31d60:	e13fff15 	stw	r4,-4(fp)
   31d64:	e17ffe15 	stw	r5,-8(fp)
   31d68:	e1bffd15 	stw	r6,-12(fp)
  if (to != from)
   31d6c:	e0fffe17 	ldw	r3,-8(fp)
   31d70:	e0bfff17 	ldw	r2,-4(fp)
   31d74:	18800c26 	beq	r3,r2,31da8 <alt_load_section+0x54>
  {
    while( to != end )
   31d78:	00000806 	br	31d9c <alt_load_section+0x48>
    {
      *to++ = *from++;
   31d7c:	e0ffff17 	ldw	r3,-4(fp)
   31d80:	18800104 	addi	r2,r3,4
   31d84:	e0bfff15 	stw	r2,-4(fp)
   31d88:	e0bffe17 	ldw	r2,-8(fp)
   31d8c:	11000104 	addi	r4,r2,4
   31d90:	e13ffe15 	stw	r4,-8(fp)
   31d94:	18c00017 	ldw	r3,0(r3)
   31d98:	10c00015 	stw	r3,0(r2)
    while( to != end )
   31d9c:	e0fffe17 	ldw	r3,-8(fp)
   31da0:	e0bffd17 	ldw	r2,-12(fp)
   31da4:	18bff51e 	bne	r3,r2,31d7c <alt_load_section+0x28>
    }
  }
}
   31da8:	0001883a 	nop
   31dac:	e037883a 	mov	sp,fp
   31db0:	df000017 	ldw	fp,0(sp)
   31db4:	dec00104 	addi	sp,sp,4
   31db8:	f800283a 	ret

00031dbc <alt_load>:
 * there is no bootloader, so this application is responsible for loading to
 * RAM any sections that are required.
 */  

void alt_load (void)
{
   31dbc:	defffe04 	addi	sp,sp,-8
   31dc0:	dfc00115 	stw	ra,4(sp)
   31dc4:	df000015 	stw	fp,0(sp)
   31dc8:	d839883a 	mov	fp,sp
  /* 
   * Copy the .rwdata section. 
   */

  alt_load_section (&__flash_rwdata_start, 
   31dcc:	018000f4 	movhi	r6,3
   31dd0:	319b0604 	addi	r6,r6,27672
   31dd4:	014000f4 	movhi	r5,3
   31dd8:	29540404 	addi	r5,r5,20496
   31ddc:	010000f4 	movhi	r4,3
   31de0:	211b0604 	addi	r4,r4,27672
   31de4:	0031d540 	call	31d54 <alt_load_section>

  /*
   * Copy the exception handler.
   */

  alt_load_section (&__flash_exceptions_start, 
   31de8:	018000b4 	movhi	r6,2
   31dec:	31808f04 	addi	r6,r6,572
   31df0:	014000b4 	movhi	r5,2
   31df4:	29400804 	addi	r5,r5,32
   31df8:	010000b4 	movhi	r4,2
   31dfc:	21000804 	addi	r4,r4,32
   31e00:	0031d540 	call	31d54 <alt_load_section>

  /*
   * Copy the .rodata section.
   */

  alt_load_section (&__flash_rodata_start, 
   31e04:	018000f4 	movhi	r6,3
   31e08:	31940404 	addi	r6,r6,20496
   31e0c:	014000f4 	movhi	r5,3
   31e10:	29519604 	addi	r5,r5,18008
   31e14:	010000f4 	movhi	r4,3
   31e18:	21119604 	addi	r4,r4,18008
   31e1c:	0031d540 	call	31d54 <alt_load_section>
  
  /*
   * Now ensure that the caches are in synch.
   */
  
  alt_dcache_flush_all();
   31e20:	00339940 	call	33994 <alt_dcache_flush_all>
  alt_icache_flush_all();
   31e24:	0033dc40 	call	33dc4 <alt_icache_flush_all>
}
   31e28:	0001883a 	nop
   31e2c:	e037883a 	mov	sp,fp
   31e30:	dfc00117 	ldw	ra,4(sp)
   31e34:	df000017 	ldw	fp,0(sp)
   31e38:	dec00204 	addi	sp,sp,8
   31e3c:	f800283a 	ret

00031e40 <alt_get_errno>:
{
   31e40:	defffe04 	addi	sp,sp,-8
   31e44:	dfc00115 	stw	ra,4(sp)
   31e48:	df000015 	stw	fp,0(sp)
   31e4c:	d839883a 	mov	fp,sp
  return ((alt_errno) ? alt_errno() : &errno);
   31e50:	d0a00a17 	ldw	r2,-32728(gp)
   31e54:	10000326 	beq	r2,zero,31e64 <alt_get_errno+0x24>
   31e58:	d0a00a17 	ldw	r2,-32728(gp)
   31e5c:	103ee83a 	callr	r2
   31e60:	00000106 	br	31e68 <alt_get_errno+0x28>
   31e64:	d0a71404 	addi	r2,gp,-25520
}
   31e68:	e037883a 	mov	sp,fp
   31e6c:	dfc00117 	ldw	ra,4(sp)
   31e70:	df000017 	ldw	fp,0(sp)
   31e74:	dec00204 	addi	sp,sp,8
   31e78:	f800283a 	ret

00031e7c <lseek>:
 * ALT_LSEEK is mapped onto the lseek() system call in alt_syscall.h
 *
 */

off_t ALT_LSEEK (int file, off_t ptr, int dir)
{
   31e7c:	defff904 	addi	sp,sp,-28
   31e80:	dfc00615 	stw	ra,24(sp)
   31e84:	df000515 	stw	fp,20(sp)
   31e88:	df000504 	addi	fp,sp,20
   31e8c:	e13ffd15 	stw	r4,-12(fp)
   31e90:	e17ffc15 	stw	r5,-16(fp)
   31e94:	e1bffb15 	stw	r6,-20(fp)
  alt_fd* fd;
  off_t   rc = 0; 
   31e98:	e03fff15 	stw	zero,-4(fp)
   * A common error case is that when the file descriptor was created, the call
   * to open() failed resulting in a negative file descriptor. This is trapped
   * below so that we don't try and process an invalid file descriptor.
   */

  fd = (file < 0) ? NULL : &alt_fd_list[file];
   31e9c:	e0bffd17 	ldw	r2,-12(fp)
   31ea0:	10000616 	blt	r2,zero,31ebc <lseek+0x40>
   31ea4:	e0bffd17 	ldw	r2,-12(fp)
   31ea8:	10c00324 	muli	r3,r2,12
   31eac:	008000f4 	movhi	r2,3
   31eb0:	10967404 	addi	r2,r2,22992
   31eb4:	1885883a 	add	r2,r3,r2
   31eb8:	00000106 	br	31ec0 <lseek+0x44>
   31ebc:	0005883a 	mov	r2,zero
   31ec0:	e0bffe15 	stw	r2,-8(fp)
  
  if (fd) 
   31ec4:	e0bffe17 	ldw	r2,-8(fp)
   31ec8:	10001026 	beq	r2,zero,31f0c <lseek+0x90>
    /*
     * If the device driver provides an implementation of the lseek() function,
     * then call that to process the request.
     */
 
    if (fd->dev->lseek)
   31ecc:	e0bffe17 	ldw	r2,-8(fp)
   31ed0:	10800017 	ldw	r2,0(r2)
   31ed4:	10800717 	ldw	r2,28(r2)
   31ed8:	10000926 	beq	r2,zero,31f00 <lseek+0x84>
    {
      rc = fd->dev->lseek(fd, ptr, dir);
   31edc:	e0bffe17 	ldw	r2,-8(fp)
   31ee0:	10800017 	ldw	r2,0(r2)
   31ee4:	10800717 	ldw	r2,28(r2)
   31ee8:	e1bffb17 	ldw	r6,-20(fp)
   31eec:	e17ffc17 	ldw	r5,-16(fp)
   31ef0:	e13ffe17 	ldw	r4,-8(fp)
   31ef4:	103ee83a 	callr	r2
   31ef8:	e0bfff15 	stw	r2,-4(fp)
   31efc:	00000506 	br	31f14 <lseek+0x98>
     * Otherwise return an error.
     */

    else
    {
      rc = -ENOTSUP;
   31f00:	00bfde84 	movi	r2,-134
   31f04:	e0bfff15 	stw	r2,-4(fp)
   31f08:	00000206 	br	31f14 <lseek+0x98>
    }
  }
  else  
  {
    rc = -EBADFD;
   31f0c:	00bfebc4 	movi	r2,-81
   31f10:	e0bfff15 	stw	r2,-4(fp)
  }

  if (rc < 0)
   31f14:	e0bfff17 	ldw	r2,-4(fp)
   31f18:	1000070e 	bge	r2,zero,31f38 <lseek+0xbc>
  {
    ALT_ERRNO = -rc;
   31f1c:	0031e400 	call	31e40 <alt_get_errno>
   31f20:	1007883a 	mov	r3,r2
   31f24:	e0bfff17 	ldw	r2,-4(fp)
   31f28:	0085c83a 	sub	r2,zero,r2
   31f2c:	18800015 	stw	r2,0(r3)
    rc = -1;
   31f30:	00bfffc4 	movi	r2,-1
   31f34:	e0bfff15 	stw	r2,-4(fp)
  }

  return rc;
   31f38:	e0bfff17 	ldw	r2,-4(fp)
}
   31f3c:	e037883a 	mov	sp,fp
   31f40:	dfc00117 	ldw	ra,4(sp)
   31f44:	df000017 	ldw	fp,0(sp)
   31f48:	dec00204 	addi	sp,sp,8
   31f4c:	f800283a 	ret

00031f50 <alt_main>:
 * devices/filesystems/components in the system; and call the entry point for
 * the users application, i.e. main().
 */

void alt_main (void)
{
   31f50:	defffd04 	addi	sp,sp,-12
   31f54:	dfc00215 	stw	ra,8(sp)
   31f58:	df000115 	stw	fp,4(sp)
   31f5c:	df000104 	addi	fp,sp,4
#endif

  /* ALT LOG - please see HAL/sys/alt_log_printf.h for details */
  ALT_LOG_PRINT_BOOT("[alt_main.c] Entering alt_main, calling alt_irq_init.\r\n");
  /* Initialize the interrupt controller. */
  alt_irq_init (NULL);
   31f60:	0009883a 	mov	r4,zero
   31f64:	00328680 	call	32868 <alt_irq_init>

  /* Initialize the operating system */
  ALT_LOG_PRINT_BOOT("[alt_main.c] Done alt_irq_init, calling alt_os_init.\r\n");
  ALT_OS_INIT();
   31f68:	0001883a 	nop
  ALT_LOG_PRINT_BOOT("[alt_main.c] Done OS Init, calling alt_sem_create.\r\n");
  ALT_SEM_CREATE (&alt_fd_list_lock, 1);

  /* Initialize the device drivers/software components. */
  ALT_LOG_PRINT_BOOT("[alt_main.c] Calling alt_sys_init.\r\n");
  alt_sys_init();
   31f6c:	00328a40 	call	328a4 <alt_sys_init>
   * devices be present (not equal to /dev/null) and if direct drivers
   * aren't being used.
   */

    ALT_LOG_PRINT_BOOT("[alt_main.c] Redirecting IO.\r\n");
    alt_io_redirect(ALT_STDOUT, ALT_STDIN, ALT_STDERR);
   31f70:	018000f4 	movhi	r6,3
   31f74:	3193f604 	addi	r6,r6,20440
   31f78:	014000f4 	movhi	r5,3
   31f7c:	2953f604 	addi	r5,r5,20440
   31f80:	010000f4 	movhi	r4,3
   31f84:	2113f604 	addi	r4,r4,20440
   31f88:	0033ea80 	call	33ea8 <alt_io_redirect>
  /* 
   * Call the C++ constructors 
   */

  ALT_LOG_PRINT_BOOT("[alt_main.c] Calling C++ constructors.\r\n");
  _do_ctors ();
   31f8c:	0033ac40 	call	33ac4 <_do_ctors>
   * redefined as _exit()). This is in the interest of reducing code footprint,
   * in that the atexit() overhead is removed when it's not needed.
   */

  ALT_LOG_PRINT_BOOT("[alt_main.c] Calling atexit.\r\n");
  atexit (_do_dtors);
   31f90:	010000f4 	movhi	r4,3
   31f94:	210eca04 	addi	r4,r4,15144
   31f98:	003421c0 	call	3421c <atexit>
  ALT_LOG_PRINT_BOOT("[alt_main.c] Calling main.\r\n");

#ifdef ALT_NO_EXIT
  main (alt_argc, alt_argv, alt_envp);
#else
  result = main (alt_argc, alt_argv, alt_envp);
   31f9c:	d0a71a17 	ldw	r2,-25496(gp)
   31fa0:	d0e71b17 	ldw	r3,-25492(gp)
   31fa4:	d1271c17 	ldw	r4,-25488(gp)
   31fa8:	200d883a 	mov	r6,r4
   31fac:	180b883a 	mov	r5,r3
   31fb0:	1009883a 	mov	r4,r2
   31fb4:	00206300 	call	20630 <main>
   31fb8:	e0bfff15 	stw	r2,-4(fp)
  close(STDOUT_FILENO);
   31fbc:	01000044 	movi	r4,1
   31fc0:	003174c0 	call	3174c <close>
  exit (result);
   31fc4:	e13fff17 	ldw	r4,-4(fp)
   31fc8:	00342300 	call	34230 <exit>

00031fcc <__malloc_lock>:
 * configuration is single threaded, so there is nothing to do here. Note that 
 * this requires that malloc is never called by an interrupt service routine.
 */

void __malloc_lock ( struct _reent *_r )
{
   31fcc:	defffe04 	addi	sp,sp,-8
   31fd0:	df000115 	stw	fp,4(sp)
   31fd4:	df000104 	addi	fp,sp,4
   31fd8:	e13fff15 	stw	r4,-4(fp)
}
   31fdc:	0001883a 	nop
   31fe0:	e037883a 	mov	sp,fp
   31fe4:	df000017 	ldw	fp,0(sp)
   31fe8:	dec00104 	addi	sp,sp,4
   31fec:	f800283a 	ret

00031ff0 <__malloc_unlock>:
/*
 *
 */

void __malloc_unlock ( struct _reent *_r )
{
   31ff0:	defffe04 	addi	sp,sp,-8
   31ff4:	df000115 	stw	fp,4(sp)
   31ff8:	df000104 	addi	fp,sp,4
   31ffc:	e13fff15 	stw	r4,-4(fp)
}
   32000:	0001883a 	nop
   32004:	e037883a 	mov	sp,fp
   32008:	df000017 	ldw	fp,0(sp)
   3200c:	dec00104 	addi	sp,sp,4
   32010:	f800283a 	ret

00032014 <alt_get_errno>:
{
   32014:	defffe04 	addi	sp,sp,-8
   32018:	dfc00115 	stw	ra,4(sp)
   3201c:	df000015 	stw	fp,0(sp)
   32020:	d839883a 	mov	fp,sp
  return ((alt_errno) ? alt_errno() : &errno);
   32024:	d0a00a17 	ldw	r2,-32728(gp)
   32028:	10000326 	beq	r2,zero,32038 <alt_get_errno+0x24>
   3202c:	d0a00a17 	ldw	r2,-32728(gp)
   32030:	103ee83a 	callr	r2
   32034:	00000106 	br	3203c <alt_get_errno+0x28>
   32038:	d0a71404 	addi	r2,gp,-25520
}
   3203c:	e037883a 	mov	sp,fp
   32040:	dfc00117 	ldw	ra,4(sp)
   32044:	df000017 	ldw	fp,0(sp)
   32048:	dec00204 	addi	sp,sp,8
   3204c:	f800283a 	ret

00032050 <alt_file_locked>:
 * performed for devices. Filesystems are required to handle the ioctl() call
 * themselves, and report the error from the filesystems open() function. 
 */ 

static int alt_file_locked (alt_fd* fd)
{
   32050:	defffd04 	addi	sp,sp,-12
   32054:	df000215 	stw	fp,8(sp)
   32058:	df000204 	addi	fp,sp,8
   3205c:	e13ffe15 	stw	r4,-8(fp)

  /*
   * Mark the file descriptor as belonging to a device.
   */

  fd->fd_flags |= ALT_FD_DEV;
   32060:	e0bffe17 	ldw	r2,-8(fp)
   32064:	10800217 	ldw	r2,8(r2)
   32068:	10d00034 	orhi	r3,r2,16384
   3206c:	e0bffe17 	ldw	r2,-8(fp)
   32070:	10c00215 	stw	r3,8(r2)
  /*
   * Loop through all current file descriptors searching for one that's locked
   * for exclusive access. If a match is found, generate an error.
   */

  for (i = 0; i <= alt_max_fd; i++)
   32074:	e03fff15 	stw	zero,-4(fp)
   32078:	00001a06 	br	320e4 <alt_file_locked+0x94>
  {
    if ((alt_fd_list[i].dev == fd->dev) &&
   3207c:	e0bfff17 	ldw	r2,-4(fp)
   32080:	10c00324 	muli	r3,r2,12
   32084:	008000f4 	movhi	r2,3
   32088:	1885883a 	add	r2,r3,r2
   3208c:	10d67417 	ldw	r3,22992(r2)
   32090:	e0bffe17 	ldw	r2,-8(fp)
   32094:	10800017 	ldw	r2,0(r2)
   32098:	18800f1e 	bne	r3,r2,320d8 <alt_file_locked+0x88>
        (alt_fd_list[i].fd_flags & ALT_FD_EXCL) &&
   3209c:	e0bfff17 	ldw	r2,-4(fp)
   320a0:	10c00324 	muli	r3,r2,12
   320a4:	008000f4 	movhi	r2,3
   320a8:	1885883a 	add	r2,r3,r2
   320ac:	10967617 	ldw	r2,23000(r2)
    if ((alt_fd_list[i].dev == fd->dev) &&
   320b0:	1000090e 	bge	r2,zero,320d8 <alt_file_locked+0x88>
        (&alt_fd_list[i] != fd))
   320b4:	e0bfff17 	ldw	r2,-4(fp)
   320b8:	10c00324 	muli	r3,r2,12
   320bc:	008000f4 	movhi	r2,3
   320c0:	10967404 	addi	r2,r2,22992
   320c4:	1885883a 	add	r2,r3,r2
        (alt_fd_list[i].fd_flags & ALT_FD_EXCL) &&
   320c8:	e0fffe17 	ldw	r3,-8(fp)
   320cc:	18800226 	beq	r3,r2,320d8 <alt_file_locked+0x88>
    {
      return -EACCES;
   320d0:	00bffcc4 	movi	r2,-13
   320d4:	00000806 	br	320f8 <alt_file_locked+0xa8>
  for (i = 0; i <= alt_max_fd; i++)
   320d8:	e0bfff17 	ldw	r2,-4(fp)
   320dc:	10800044 	addi	r2,r2,1
   320e0:	e0bfff15 	stw	r2,-4(fp)
   320e4:	d0a00917 	ldw	r2,-32732(gp)
   320e8:	1007883a 	mov	r3,r2
   320ec:	e0bfff17 	ldw	r2,-4(fp)
   320f0:	18bfe22e 	bgeu	r3,r2,3207c <alt_file_locked+0x2c>
    }
  }
  
  /* The device is not locked */
 
  return 0;
   320f4:	0005883a 	mov	r2,zero
}
   320f8:	e037883a 	mov	sp,fp
   320fc:	df000017 	ldw	fp,0(sp)
   32100:	dec00104 	addi	sp,sp,4
   32104:	f800283a 	ret

00032108 <open>:
 *
 * ALT_OPEN is mapped onto the open() system call in alt_syscall.h
 */
 
int ALT_OPEN (const char* file, int flags, int mode)
{ 
   32108:	defff604 	addi	sp,sp,-40
   3210c:	dfc00915 	stw	ra,36(sp)
   32110:	df000815 	stw	fp,32(sp)
   32114:	df000804 	addi	fp,sp,32
   32118:	e13ffa15 	stw	r4,-24(fp)
   3211c:	e17ff915 	stw	r5,-28(fp)
   32120:	e1bff815 	stw	r6,-32(fp)
  alt_dev* dev;
  alt_fd*  fd;
  int index  = -1;
   32124:	00bfffc4 	movi	r2,-1
   32128:	e0bffe15 	stw	r2,-8(fp)
  int status = -ENODEV;
   3212c:	00bffb44 	movi	r2,-19
   32130:	e0bffd15 	stw	r2,-12(fp)
  int isafs = 0;
   32134:	e03ffc15 	stw	zero,-16(fp)
  /* 
   * Check the device list, to see if a device with a matching name is 
   * registered.
   */
  
  if (!(dev = alt_find_dev (file, &alt_dev_list)))
   32138:	d1600704 	addi	r5,gp,-32740
   3213c:	e13ffa17 	ldw	r4,-24(fp)
   32140:	0033b8c0 	call	33b8c <alt_find_dev>
   32144:	e0bfff15 	stw	r2,-4(fp)
   32148:	e0bfff17 	ldw	r2,-4(fp)
   3214c:	1000051e 	bne	r2,zero,32164 <open+0x5c>
  {
    /* No matching device, so try the filesystem list */

    dev   = alt_find_file (file);
   32150:	e13ffa17 	ldw	r4,-24(fp)
   32154:	0033c1c0 	call	33c1c <alt_find_file>
   32158:	e0bfff15 	stw	r2,-4(fp)
    isafs = 1;
   3215c:	00800044 	movi	r2,1
   32160:	e0bffc15 	stw	r2,-16(fp)

  /* 
   * If a matching device or filesystem is found, allocate a file descriptor. 
   */

  if (dev)
   32164:	e0bfff17 	ldw	r2,-4(fp)
   32168:	10002926 	beq	r2,zero,32210 <open+0x108>
  {
    if ((index = alt_get_fd (dev)) < 0)
   3216c:	e13fff17 	ldw	r4,-4(fp)
   32170:	0033d240 	call	33d24 <alt_get_fd>
   32174:	e0bffe15 	stw	r2,-8(fp)
   32178:	e0bffe17 	ldw	r2,-8(fp)
   3217c:	1000030e 	bge	r2,zero,3218c <open+0x84>
    {
      status = index;
   32180:	e0bffe17 	ldw	r2,-8(fp)
   32184:	e0bffd15 	stw	r2,-12(fp)
   32188:	00002306 	br	32218 <open+0x110>
    }
    else
    {
      fd = &alt_fd_list[index];
   3218c:	e0bffe17 	ldw	r2,-8(fp)
   32190:	10c00324 	muli	r3,r2,12
   32194:	008000f4 	movhi	r2,3
   32198:	10967404 	addi	r2,r2,22992
   3219c:	1885883a 	add	r2,r3,r2
   321a0:	e0bffb15 	stw	r2,-20(fp)
      fd->fd_flags = (flags & ~ALT_FD_FLAGS_MASK);
   321a4:	e0fff917 	ldw	r3,-28(fp)
   321a8:	00900034 	movhi	r2,16384
   321ac:	10bfffc4 	addi	r2,r2,-1
   321b0:	1886703a 	and	r3,r3,r2
   321b4:	e0bffb17 	ldw	r2,-20(fp)
   321b8:	10c00215 	stw	r3,8(r2)
      
      /* If this is a device, ensure it isn't already locked */

      if (isafs || ((status = alt_file_locked (fd)) >= 0))
   321bc:	e0bffc17 	ldw	r2,-16(fp)
   321c0:	1000051e 	bne	r2,zero,321d8 <open+0xd0>
   321c4:	e13ffb17 	ldw	r4,-20(fp)
   321c8:	00320500 	call	32050 <alt_file_locked>
   321cc:	e0bffd15 	stw	r2,-12(fp)
   321d0:	e0bffd17 	ldw	r2,-12(fp)
   321d4:	10001016 	blt	r2,zero,32218 <open+0x110>
        /* 
         * If the device or filesystem provides an open() callback function,
         * call it now to perform any device/filesystem specific operations.
         */
    
        status = (dev->open) ? dev->open(fd, file, flags, mode): 0;
   321d8:	e0bfff17 	ldw	r2,-4(fp)
   321dc:	10800317 	ldw	r2,12(r2)
   321e0:	10000826 	beq	r2,zero,32204 <open+0xfc>
   321e4:	e0bfff17 	ldw	r2,-4(fp)
   321e8:	10800317 	ldw	r2,12(r2)
   321ec:	e1fff817 	ldw	r7,-32(fp)
   321f0:	e1bff917 	ldw	r6,-28(fp)
   321f4:	e17ffa17 	ldw	r5,-24(fp)
   321f8:	e13ffb17 	ldw	r4,-20(fp)
   321fc:	103ee83a 	callr	r2
   32200:	00000106 	br	32208 <open+0x100>
   32204:	0005883a 	mov	r2,zero
   32208:	e0bffd15 	stw	r2,-12(fp)
   3220c:	00000206 	br	32218 <open+0x110>
      }
    }
  }
  else
  {
    status = -ENODEV;
   32210:	00bffb44 	movi	r2,-19
   32214:	e0bffd15 	stw	r2,-12(fp)
  }

  /* Allocation failed, so clean up and return an error */ 

  if (status < 0)
   32218:	e0bffd17 	ldw	r2,-12(fp)
   3221c:	1000090e 	bge	r2,zero,32244 <open+0x13c>
  {
    alt_release_fd (index);  
   32220:	e13ffe17 	ldw	r4,-8(fp)
   32224:	00325f00 	call	325f0 <alt_release_fd>
    ALT_ERRNO = -status;
   32228:	00320140 	call	32014 <alt_get_errno>
   3222c:	1007883a 	mov	r3,r2
   32230:	e0bffd17 	ldw	r2,-12(fp)
   32234:	0085c83a 	sub	r2,zero,r2
   32238:	18800015 	stw	r2,0(r3)
    return -1;
   3223c:	00bfffc4 	movi	r2,-1
   32240:	00000106 	br	32248 <open+0x140>
  }
  
  /* return the reference upon success */

  return index;
   32244:	e0bffe17 	ldw	r2,-8(fp)
}
   32248:	e037883a 	mov	sp,fp
   3224c:	dfc00117 	ldw	ra,4(sp)
   32250:	df000017 	ldw	fp,0(sp)
   32254:	dec00204 	addi	sp,sp,8
   32258:	f800283a 	ret

0003225c <alt_printf>:
/* 
 * ALT printf function 
 */
void 
alt_printf(const char* fmt, ... )
{
   3225c:	defff204 	addi	sp,sp,-56
   32260:	dfc00a15 	stw	ra,40(sp)
   32264:	df000915 	stw	fp,36(sp)
   32268:	df000904 	addi	fp,sp,36
   3226c:	e13ff715 	stw	r4,-36(fp)
   32270:	e1400215 	stw	r5,8(fp)
   32274:	e1800315 	stw	r6,12(fp)
   32278:	e1c00415 	stw	r7,16(fp)
	va_list args;
	va_start(args, fmt);
   3227c:	e0800204 	addi	r2,fp,8
   32280:	e0bff815 	stw	r2,-32(fp)
    const char *w;
    char c;

    /* Process format string. */
    w = fmt;
   32284:	e0bff717 	ldw	r2,-36(fp)
   32288:	e0bfff15 	stw	r2,-4(fp)
    while ((c = *w++) != 0)
   3228c:	00006f06 	br	3244c <alt_printf+0x1f0>
    {
        /* If not a format escape character, just print  */
        /* character.  Otherwise, process format string. */
        if (c != '%')
   32290:	e0bffec7 	ldb	r2,-5(fp)
   32294:	10800960 	cmpeqi	r2,r2,37
   32298:	1000041e 	bne	r2,zero,322ac <alt_printf+0x50>
        {
            alt_putchar(c);
   3229c:	e0bffec7 	ldb	r2,-5(fp)
   322a0:	1009883a 	mov	r4,r2
   322a4:	00324880 	call	32488 <alt_putchar>
   322a8:	00006806 	br	3244c <alt_printf+0x1f0>
        }
        else
        {
            /* Get format character.  If none     */
            /* available, processing is complete. */
            if ((c = *w++) != 0)
   322ac:	e0bfff17 	ldw	r2,-4(fp)
   322b0:	10c00044 	addi	r3,r2,1
   322b4:	e0ffff15 	stw	r3,-4(fp)
   322b8:	10800003 	ldbu	r2,0(r2)
   322bc:	e0bffec5 	stb	r2,-5(fp)
   322c0:	e0bffec7 	ldb	r2,-5(fp)
   322c4:	10006926 	beq	r2,zero,3246c <alt_printf+0x210>
            {
                if (c == '%')
   322c8:	e0bffec7 	ldb	r2,-5(fp)
   322cc:	10800958 	cmpnei	r2,r2,37
   322d0:	1000041e 	bne	r2,zero,322e4 <alt_printf+0x88>
                {
                    /* Process "%" escape sequence. */
                    alt_putchar(c);
   322d4:	e0bffec7 	ldb	r2,-5(fp)
   322d8:	1009883a 	mov	r4,r2
   322dc:	00324880 	call	32488 <alt_putchar>
   322e0:	00005a06 	br	3244c <alt_printf+0x1f0>
                } 
                else if (c == 'c')
   322e4:	e0bffec7 	ldb	r2,-5(fp)
   322e8:	108018d8 	cmpnei	r2,r2,99
   322ec:	1000081e 	bne	r2,zero,32310 <alt_printf+0xb4>
                {
                    int v = va_arg(args, int);
   322f0:	e0bff817 	ldw	r2,-32(fp)
   322f4:	10c00104 	addi	r3,r2,4
   322f8:	e0fff815 	stw	r3,-32(fp)
   322fc:	10800017 	ldw	r2,0(r2)
   32300:	e0bff915 	stw	r2,-28(fp)
                    alt_putchar(v);
   32304:	e13ff917 	ldw	r4,-28(fp)
   32308:	00324880 	call	32488 <alt_putchar>
   3230c:	00004f06 	br	3244c <alt_printf+0x1f0>
                }
                else if (c == 'x')
   32310:	e0bffec7 	ldb	r2,-5(fp)
   32314:	10801e18 	cmpnei	r2,r2,120
   32318:	1000341e 	bne	r2,zero,323ec <alt_printf+0x190>
                {
                    /* Process hexadecimal number format. */
                    unsigned long v = va_arg(args, unsigned long);
   3231c:	e0bff817 	ldw	r2,-32(fp)
   32320:	10c00104 	addi	r3,r2,4
   32324:	e0fff815 	stw	r3,-32(fp)
   32328:	10800017 	ldw	r2,0(r2)
   3232c:	e0bffb15 	stw	r2,-20(fp)
                    unsigned long digit;
                    int digit_shift;

                    /* If the number value is zero, just print and continue. */
                    if (v == 0)
   32330:	e0bffb17 	ldw	r2,-20(fp)
   32334:	1000031e 	bne	r2,zero,32344 <alt_printf+0xe8>
                    {
                        alt_putchar('0');
   32338:	01000c04 	movi	r4,48
   3233c:	00324880 	call	32488 <alt_putchar>
                        continue;
   32340:	00004206 	br	3244c <alt_printf+0x1f0>
                    }

                    /* Find first non-zero digit. */
                    digit_shift = 28;
   32344:	00800704 	movi	r2,28
   32348:	e0bffd15 	stw	r2,-12(fp)
                    while (!(v & (0xF << digit_shift)))
   3234c:	00000306 	br	3235c <alt_printf+0x100>
                        digit_shift -= 4;
   32350:	e0bffd17 	ldw	r2,-12(fp)
   32354:	10bfff04 	addi	r2,r2,-4
   32358:	e0bffd15 	stw	r2,-12(fp)
                    while (!(v & (0xF << digit_shift)))
   3235c:	00c003c4 	movi	r3,15
   32360:	e0bffd17 	ldw	r2,-12(fp)
   32364:	1884983a 	sll	r2,r3,r2
   32368:	1007883a 	mov	r3,r2
   3236c:	e0bffb17 	ldw	r2,-20(fp)
   32370:	1884703a 	and	r2,r3,r2
   32374:	103ff626 	beq	r2,zero,32350 <alt_printf+0xf4>

                    /* Print digits. */
                    for (; digit_shift >= 0; digit_shift -= 4)
   32378:	00001906 	br	323e0 <alt_printf+0x184>
                    {
                        digit = (v & (0xF << digit_shift)) >> digit_shift;
   3237c:	00c003c4 	movi	r3,15
   32380:	e0bffd17 	ldw	r2,-12(fp)
   32384:	1884983a 	sll	r2,r3,r2
   32388:	1007883a 	mov	r3,r2
   3238c:	e0bffb17 	ldw	r2,-20(fp)
   32390:	1886703a 	and	r3,r3,r2
   32394:	e0bffd17 	ldw	r2,-12(fp)
   32398:	1884d83a 	srl	r2,r3,r2
   3239c:	e0bffa15 	stw	r2,-24(fp)
                        if (digit <= 9)
   323a0:	e0bffa17 	ldw	r2,-24(fp)
   323a4:	108002a8 	cmpgeui	r2,r2,10
   323a8:	1000041e 	bne	r2,zero,323bc <alt_printf+0x160>
                            c = '0' + digit;
   323ac:	e0bffa17 	ldw	r2,-24(fp)
   323b0:	10800c04 	addi	r2,r2,48
   323b4:	e0bffec5 	stb	r2,-5(fp)
   323b8:	00000306 	br	323c8 <alt_printf+0x16c>
                        else
                            c = 'a' + digit - 10;
   323bc:	e0bffa17 	ldw	r2,-24(fp)
   323c0:	108015c4 	addi	r2,r2,87
   323c4:	e0bffec5 	stb	r2,-5(fp)
                        alt_putchar(c);
   323c8:	e0bffec7 	ldb	r2,-5(fp)
   323cc:	1009883a 	mov	r4,r2
   323d0:	00324880 	call	32488 <alt_putchar>
                    for (; digit_shift >= 0; digit_shift -= 4)
   323d4:	e0bffd17 	ldw	r2,-12(fp)
   323d8:	10bfff04 	addi	r2,r2,-4
   323dc:	e0bffd15 	stw	r2,-12(fp)
   323e0:	e0bffd17 	ldw	r2,-12(fp)
   323e4:	103fe50e 	bge	r2,zero,3237c <alt_printf+0x120>
   323e8:	00001806 	br	3244c <alt_printf+0x1f0>
                    }
                }
                else if (c == 's')
   323ec:	e0bffec7 	ldb	r2,-5(fp)
   323f0:	10801cd8 	cmpnei	r2,r2,115
   323f4:	1000151e 	bne	r2,zero,3244c <alt_printf+0x1f0>
                {
                    /* Process string format. */
                    char *s = va_arg(args, char *);
   323f8:	e0bff817 	ldw	r2,-32(fp)
   323fc:	10c00104 	addi	r3,r2,4
   32400:	e0fff815 	stw	r3,-32(fp)
   32404:	10800017 	ldw	r2,0(r2)
   32408:	e0bffc15 	stw	r2,-16(fp)

                    while(*s)
   3240c:	00000906 	br	32434 <alt_printf+0x1d8>
                      alt_putchar(*s++);
   32410:	e0bffc17 	ldw	r2,-16(fp)
   32414:	10c00044 	addi	r3,r2,1
   32418:	e0fffc15 	stw	r3,-16(fp)
   3241c:	10800003 	ldbu	r2,0(r2)
   32420:	10803fcc 	andi	r2,r2,255
   32424:	1080201c 	xori	r2,r2,128
   32428:	10bfe004 	addi	r2,r2,-128
   3242c:	1009883a 	mov	r4,r2
   32430:	00324880 	call	32488 <alt_putchar>
                    while(*s)
   32434:	e0bffc17 	ldw	r2,-16(fp)
   32438:	10800003 	ldbu	r2,0(r2)
   3243c:	10803fcc 	andi	r2,r2,255
   32440:	1080201c 	xori	r2,r2,128
   32444:	10bfe004 	addi	r2,r2,-128
   32448:	103ff11e 	bne	r2,zero,32410 <alt_printf+0x1b4>
    while ((c = *w++) != 0)
   3244c:	e0bfff17 	ldw	r2,-4(fp)
   32450:	10c00044 	addi	r3,r2,1
   32454:	e0ffff15 	stw	r3,-4(fp)
   32458:	10800003 	ldbu	r2,0(r2)
   3245c:	e0bffec5 	stb	r2,-5(fp)
   32460:	e0bffec7 	ldb	r2,-5(fp)
   32464:	103f8a1e 	bne	r2,zero,32290 <alt_printf+0x34>
        }
    }
#ifdef ALT_SEMIHOSTING
    alt_putbufflush();
#endif
}
   32468:	00000106 	br	32470 <alt_printf+0x214>
                break;
   3246c:	0001883a 	nop
}
   32470:	0001883a 	nop
   32474:	e037883a 	mov	sp,fp
   32478:	dfc00117 	ldw	ra,4(sp)
   3247c:	df000017 	ldw	fp,0(sp)
   32480:	dec00504 	addi	sp,sp,20
   32484:	f800283a 	ret

00032488 <alt_putchar>:
 * Uses the ALT_DRIVER_WRITE() macro to call directly to driver if available.
 * Otherwise, uses newlib provided putchar() routine.
 */
int 
alt_putchar(int c)
{
   32488:	defffd04 	addi	sp,sp,-12
   3248c:	dfc00215 	stw	ra,8(sp)
   32490:	df000115 	stw	fp,4(sp)
   32494:	df000104 	addi	fp,sp,4
   32498:	e13fff15 	stw	r4,-4(fp)
    if (ALT_DRIVER_WRITE(ALT_STDOUT_DEV, &c1, 1, 0) == -1) {
        return -1;
    }
    return c;
#else
    return putchar(c);
   3249c:	e13fff17 	ldw	r4,-4(fp)
   324a0:	00342e40 	call	342e4 <putchar>
#endif
#endif
}
   324a4:	e037883a 	mov	sp,fp
   324a8:	dfc00117 	ldw	ra,4(sp)
   324ac:	df000017 	ldw	fp,0(sp)
   324b0:	dec00204 	addi	sp,sp,8
   324b4:	f800283a 	ret

000324b8 <alt_get_errno>:
{
   324b8:	defffe04 	addi	sp,sp,-8
   324bc:	dfc00115 	stw	ra,4(sp)
   324c0:	df000015 	stw	fp,0(sp)
   324c4:	d839883a 	mov	fp,sp
  return ((alt_errno) ? alt_errno() : &errno);
   324c8:	d0a00a17 	ldw	r2,-32728(gp)
   324cc:	10000326 	beq	r2,zero,324dc <alt_get_errno+0x24>
   324d0:	d0a00a17 	ldw	r2,-32728(gp)
   324d4:	103ee83a 	callr	r2
   324d8:	00000106 	br	324e0 <alt_get_errno+0x28>
   324dc:	d0a71404 	addi	r2,gp,-25520
}
   324e0:	e037883a 	mov	sp,fp
   324e4:	dfc00117 	ldw	ra,4(sp)
   324e8:	df000017 	ldw	fp,0(sp)
   324ec:	dec00204 	addi	sp,sp,8
   324f0:	f800283a 	ret

000324f4 <read>:
}

#else /* !ALT_USE_DIRECT_DRIVERS */

int ALT_READ (int file, void *ptr, size_t len)
{
   324f4:	defff904 	addi	sp,sp,-28
   324f8:	dfc00615 	stw	ra,24(sp)
   324fc:	df000515 	stw	fp,20(sp)
   32500:	df000504 	addi	fp,sp,20
   32504:	e13ffd15 	stw	r4,-12(fp)
   32508:	e17ffc15 	stw	r5,-16(fp)
   3250c:	e1bffb15 	stw	r6,-20(fp)
   * A common error case is that when the file descriptor was created, the call
   * to open() failed resulting in a negative file descriptor. This is trapped
   * below so that we don't try and process an invalid file descriptor.
   */

  fd = (file < 0) ? NULL : &alt_fd_list[file];
   32510:	e0bffd17 	ldw	r2,-12(fp)
   32514:	10000616 	blt	r2,zero,32530 <read+0x3c>
   32518:	e0bffd17 	ldw	r2,-12(fp)
   3251c:	10c00324 	muli	r3,r2,12
   32520:	008000f4 	movhi	r2,3
   32524:	10967404 	addi	r2,r2,22992
   32528:	1885883a 	add	r2,r3,r2
   3252c:	00000106 	br	32534 <read+0x40>
   32530:	0005883a 	mov	r2,zero
   32534:	e0bfff15 	stw	r2,-4(fp)
  
  if (fd)
   32538:	e0bfff17 	ldw	r2,-4(fp)
   3253c:	10002226 	beq	r2,zero,325c8 <read+0xd4>
     * If the file has not been opened with read access, or if the driver does
     * not provide an implementation of read(), generate an error. Otherwise
     * call the drivers read() function to process the request.
     */

    if (((fd->fd_flags & O_ACCMODE) != O_WRONLY) && 
   32540:	e0bfff17 	ldw	r2,-4(fp)
   32544:	10800217 	ldw	r2,8(r2)
   32548:	108000cc 	andi	r2,r2,3
   3254c:	10800060 	cmpeqi	r2,r2,1
   32550:	1000181e 	bne	r2,zero,325b4 <read+0xc0>
        (fd->dev->read))
   32554:	e0bfff17 	ldw	r2,-4(fp)
   32558:	10800017 	ldw	r2,0(r2)
   3255c:	10800517 	ldw	r2,20(r2)
    if (((fd->fd_flags & O_ACCMODE) != O_WRONLY) && 
   32560:	10001426 	beq	r2,zero,325b4 <read+0xc0>
      {
        if ((rval = fd->dev->read(fd, ptr, len)) < 0)
   32564:	e0bfff17 	ldw	r2,-4(fp)
   32568:	10800017 	ldw	r2,0(r2)
   3256c:	10800517 	ldw	r2,20(r2)
   32570:	e0fffb17 	ldw	r3,-20(fp)
   32574:	180d883a 	mov	r6,r3
   32578:	e17ffc17 	ldw	r5,-16(fp)
   3257c:	e13fff17 	ldw	r4,-4(fp)
   32580:	103ee83a 	callr	r2
   32584:	e0bffe15 	stw	r2,-8(fp)
   32588:	e0bffe17 	ldw	r2,-8(fp)
   3258c:	1000070e 	bge	r2,zero,325ac <read+0xb8>
        {
          ALT_ERRNO = -rval;
   32590:	00324b80 	call	324b8 <alt_get_errno>
   32594:	1007883a 	mov	r3,r2
   32598:	e0bffe17 	ldw	r2,-8(fp)
   3259c:	0085c83a 	sub	r2,zero,r2
   325a0:	18800015 	stw	r2,0(r3)
          return -1;
   325a4:	00bfffc4 	movi	r2,-1
   325a8:	00000c06 	br	325dc <read+0xe8>
        }
        return rval;
   325ac:	e0bffe17 	ldw	r2,-8(fp)
   325b0:	00000a06 	br	325dc <read+0xe8>
      }
      else
      {
        ALT_ERRNO = EACCES;
   325b4:	00324b80 	call	324b8 <alt_get_errno>
   325b8:	1007883a 	mov	r3,r2
   325bc:	00800344 	movi	r2,13
   325c0:	18800015 	stw	r2,0(r3)
   325c4:	00000406 	br	325d8 <read+0xe4>
      }
    }
  else
  {
    ALT_ERRNO = EBADFD;
   325c8:	00324b80 	call	324b8 <alt_get_errno>
   325cc:	1007883a 	mov	r3,r2
   325d0:	00801444 	movi	r2,81
   325d4:	18800015 	stw	r2,0(r3)
  }
  return -1;
   325d8:	00bfffc4 	movi	r2,-1
}
   325dc:	e037883a 	mov	sp,fp
   325e0:	dfc00117 	ldw	ra,4(sp)
   325e4:	df000017 	ldw	fp,0(sp)
   325e8:	dec00204 	addi	sp,sp,8
   325ec:	f800283a 	ret

000325f0 <alt_release_fd>:
 * File descriptors correcponding to standard in, standard out and standard 
 * error cannont be released backed to the pool. They are always reserved.
 */

void alt_release_fd (int fd)
{
   325f0:	defffe04 	addi	sp,sp,-8
   325f4:	df000115 	stw	fp,4(sp)
   325f8:	df000104 	addi	fp,sp,4
   325fc:	e13fff15 	stw	r4,-4(fp)
  if (fd > 2)
   32600:	e0bfff17 	ldw	r2,-4(fp)
   32604:	108000d0 	cmplti	r2,r2,3
   32608:	10000a1e 	bne	r2,zero,32634 <alt_release_fd+0x44>
  {
    alt_fd_list[fd].fd_flags = 0;
   3260c:	e0bfff17 	ldw	r2,-4(fp)
   32610:	10c00324 	muli	r3,r2,12
   32614:	008000f4 	movhi	r2,3
   32618:	1885883a 	add	r2,r3,r2
   3261c:	10167615 	stw	zero,23000(r2)
    alt_fd_list[fd].dev      = 0;
   32620:	e0bfff17 	ldw	r2,-4(fp)
   32624:	10c00324 	muli	r3,r2,12
   32628:	008000f4 	movhi	r2,3
   3262c:	1885883a 	add	r2,r3,r2
   32630:	10167415 	stw	zero,22992(r2)
  }
}
   32634:	0001883a 	nop
   32638:	e037883a 	mov	sp,fp
   3263c:	df000017 	ldw	fp,0(sp)
   32640:	dec00104 	addi	sp,sp,4
   32644:	f800283a 	ret

00032648 <sbrk>:
#endif
 
caddr_t ALT_SBRK (int incr) __attribute__ ((no_instrument_function ));

caddr_t ALT_SBRK (int incr)
{ 
   32648:	defff904 	addi	sp,sp,-28
   3264c:	df000615 	stw	fp,24(sp)
   32650:	df000604 	addi	fp,sp,24
   32654:	e13ffa15 	stw	r4,-24(fp)
  NIOS2_READ_STATUS (context);
   32658:	0005303a 	rdctl	r2,status
   3265c:	e0bffd15 	stw	r2,-12(fp)
  NIOS2_WRITE_STATUS (context & ~NIOS2_STATUS_PIE_MSK);
   32660:	e0fffd17 	ldw	r3,-12(fp)
   32664:	00bfff84 	movi	r2,-2
   32668:	1884703a 	and	r2,r3,r2
   3266c:	1001703a 	wrctl	status,r2
  return context;
   32670:	e0bffd17 	ldw	r2,-12(fp)
  alt_irq_context context;
  char *prev_heap_end; 

  context = alt_irq_disable_all();
   32674:	e0bfff15 	stw	r2,-4(fp)

  /* Always return data aligned on a word boundary */
  heap_end = (char *)(((unsigned int)heap_end + 3) & ~3);
   32678:	d0a00c17 	ldw	r2,-32720(gp)
   3267c:	10c000c4 	addi	r3,r2,3
   32680:	00bfff04 	movi	r2,-4
   32684:	1884703a 	and	r2,r3,r2
   32688:	d0a00c15 	stw	r2,-32720(gp)
  if (((heap_end + incr) - __alt_heap_start) > ALT_MAX_HEAP_BYTES) {
    alt_irq_enable_all(context);
    return (caddr_t)-1;
  }
#else
  if ((heap_end + incr) > __alt_heap_limit) {
   3268c:	d0e00c17 	ldw	r3,-32720(gp)
   32690:	e0bffa17 	ldw	r2,-24(fp)
   32694:	1887883a 	add	r3,r3,r2
   32698:	00800134 	movhi	r2,4
   3269c:	10800004 	addi	r2,r2,0
   326a0:	10c0072e 	bgeu	r2,r3,326c0 <sbrk+0x78>
   326a4:	e0bfff17 	ldw	r2,-4(fp)
   326a8:	e0bffc15 	stw	r2,-16(fp)
  NIOS2_WRITE_STATUS (context);
   326ac:	e0bffc17 	ldw	r2,-16(fp)
   326b0:	1001703a 	wrctl	status,r2
}
   326b4:	0001883a 	nop
    alt_irq_enable_all(context);
    return (caddr_t)-1;
   326b8:	00bfffc4 	movi	r2,-1
   326bc:	00000c06 	br	326f0 <sbrk+0xa8>
  }
#endif

  prev_heap_end = heap_end; 
   326c0:	d0a00c17 	ldw	r2,-32720(gp)
   326c4:	e0bffe15 	stw	r2,-8(fp)
  heap_end += incr; 
   326c8:	d0e00c17 	ldw	r3,-32720(gp)
   326cc:	e0bffa17 	ldw	r2,-24(fp)
   326d0:	1885883a 	add	r2,r3,r2
   326d4:	d0a00c15 	stw	r2,-32720(gp)
   326d8:	e0bfff17 	ldw	r2,-4(fp)
   326dc:	e0bffb15 	stw	r2,-20(fp)
  NIOS2_WRITE_STATUS (context);
   326e0:	e0bffb17 	ldw	r2,-20(fp)
   326e4:	1001703a 	wrctl	status,r2
}
   326e8:	0001883a 	nop

#endif

  alt_irq_enable_all(context);

  return (caddr_t) prev_heap_end; 
   326ec:	e0bffe17 	ldw	r2,-8(fp)
} 
   326f0:	e037883a 	mov	sp,fp
   326f4:	df000017 	ldw	fp,0(sp)
   326f8:	dec00104 	addi	sp,sp,4
   326fc:	f800283a 	ret

00032700 <alt_get_errno>:
{
   32700:	defffe04 	addi	sp,sp,-8
   32704:	dfc00115 	stw	ra,4(sp)
   32708:	df000015 	stw	fp,0(sp)
   3270c:	d839883a 	mov	fp,sp
  return ((alt_errno) ? alt_errno() : &errno);
   32710:	d0a00a17 	ldw	r2,-32728(gp)
   32714:	10000326 	beq	r2,zero,32724 <alt_get_errno+0x24>
   32718:	d0a00a17 	ldw	r2,-32728(gp)
   3271c:	103ee83a 	callr	r2
   32720:	00000106 	br	32728 <alt_get_errno+0x28>
   32724:	d0a71404 	addi	r2,gp,-25520
}
   32728:	e037883a 	mov	sp,fp
   3272c:	dfc00117 	ldw	ra,4(sp)
   32730:	df000017 	ldw	fp,0(sp)
   32734:	dec00204 	addi	sp,sp,8
   32738:	f800283a 	ret

0003273c <write>:
}

#else /* !ALT_USE_DIRECT_DRIVERS */

int ALT_WRITE (int file, const void *ptr, size_t len)
{
   3273c:	defff904 	addi	sp,sp,-28
   32740:	dfc00615 	stw	ra,24(sp)
   32744:	df000515 	stw	fp,20(sp)
   32748:	df000504 	addi	fp,sp,20
   3274c:	e13ffd15 	stw	r4,-12(fp)
   32750:	e17ffc15 	stw	r5,-16(fp)
   32754:	e1bffb15 	stw	r6,-20(fp)
   * A common error case is that when the file descriptor was created, the call
   * to open() failed resulting in a negative file descriptor. This is trapped
   * below so that we don't try and process an invalid file descriptor.
   */

  fd = (file < 0) ? NULL : &alt_fd_list[file];
   32758:	e0bffd17 	ldw	r2,-12(fp)
   3275c:	10000616 	blt	r2,zero,32778 <write+0x3c>
   32760:	e0bffd17 	ldw	r2,-12(fp)
   32764:	10c00324 	muli	r3,r2,12
   32768:	008000f4 	movhi	r2,3
   3276c:	10967404 	addi	r2,r2,22992
   32770:	1885883a 	add	r2,r3,r2
   32774:	00000106 	br	3277c <write+0x40>
   32778:	0005883a 	mov	r2,zero
   3277c:	e0bfff15 	stw	r2,-4(fp)
  
  if (fd)
   32780:	e0bfff17 	ldw	r2,-4(fp)
   32784:	10002126 	beq	r2,zero,3280c <write+0xd0>
     * If the file has not been opened with write access, or if the driver does
     * not provide an implementation of write(), generate an error. Otherwise
     * call the drivers write() function to process the request.
     */

    if (((fd->fd_flags & O_ACCMODE) != O_RDONLY) && fd->dev->write)
   32788:	e0bfff17 	ldw	r2,-4(fp)
   3278c:	10800217 	ldw	r2,8(r2)
   32790:	108000cc 	andi	r2,r2,3
   32794:	10001826 	beq	r2,zero,327f8 <write+0xbc>
   32798:	e0bfff17 	ldw	r2,-4(fp)
   3279c:	10800017 	ldw	r2,0(r2)
   327a0:	10800617 	ldw	r2,24(r2)
   327a4:	10001426 	beq	r2,zero,327f8 <write+0xbc>
    {
      
      /* ALT_LOG - see altera_hal/HAL/inc/sys/alt_log_printf.h */
      ALT_LOG_WRITE_FUNCTION(ptr,len);

      if ((rval = fd->dev->write(fd, ptr, len)) < 0)
   327a8:	e0bfff17 	ldw	r2,-4(fp)
   327ac:	10800017 	ldw	r2,0(r2)
   327b0:	10800617 	ldw	r2,24(r2)
   327b4:	e0fffb17 	ldw	r3,-20(fp)
   327b8:	180d883a 	mov	r6,r3
   327bc:	e17ffc17 	ldw	r5,-16(fp)
   327c0:	e13fff17 	ldw	r4,-4(fp)
   327c4:	103ee83a 	callr	r2
   327c8:	e0bffe15 	stw	r2,-8(fp)
   327cc:	e0bffe17 	ldw	r2,-8(fp)
   327d0:	1000070e 	bge	r2,zero,327f0 <write+0xb4>
      {
        ALT_ERRNO = -rval;
   327d4:	00327000 	call	32700 <alt_get_errno>
   327d8:	1007883a 	mov	r3,r2
   327dc:	e0bffe17 	ldw	r2,-8(fp)
   327e0:	0085c83a 	sub	r2,zero,r2
   327e4:	18800015 	stw	r2,0(r3)
        return -1;
   327e8:	00bfffc4 	movi	r2,-1
   327ec:	00000c06 	br	32820 <write+0xe4>
      }
      return rval;
   327f0:	e0bffe17 	ldw	r2,-8(fp)
   327f4:	00000a06 	br	32820 <write+0xe4>
    }
    else
    {
      ALT_ERRNO = EACCES;
   327f8:	00327000 	call	32700 <alt_get_errno>
   327fc:	1007883a 	mov	r3,r2
   32800:	00800344 	movi	r2,13
   32804:	18800015 	stw	r2,0(r3)
   32808:	00000406 	br	3281c <write+0xe0>
    }
  }
  else  
  {
    ALT_ERRNO = EBADFD;
   3280c:	00327000 	call	32700 <alt_get_errno>
   32810:	1007883a 	mov	r3,r2
   32814:	00801444 	movi	r2,81
   32818:	18800015 	stw	r2,0(r3)
  }
  return -1;
   3281c:	00bfffc4 	movi	r2,-1
}
   32820:	e037883a 	mov	sp,fp
   32824:	dfc00117 	ldw	ra,4(sp)
   32828:	df000017 	ldw	fp,0(sp)
   3282c:	dec00204 	addi	sp,sp,8
   32830:	f800283a 	ret

00032834 <alt_dev_reg>:
 */

extern int alt_fs_reg  (alt_dev* dev); 

static ALT_INLINE int alt_dev_reg (alt_dev* dev)
{
   32834:	defffd04 	addi	sp,sp,-12
   32838:	dfc00215 	stw	ra,8(sp)
   3283c:	df000115 	stw	fp,4(sp)
   32840:	df000104 	addi	fp,sp,4
   32844:	e13fff15 	stw	r4,-4(fp)
  extern alt_llist alt_dev_list;

  return alt_dev_llist_insert ((alt_dev_llist*) dev, &alt_dev_list);
   32848:	d1600704 	addi	r5,gp,-32740
   3284c:	e13fff17 	ldw	r4,-4(fp)
   32850:	0033a1c0 	call	33a1c <alt_dev_llist_insert>
}
   32854:	e037883a 	mov	sp,fp
   32858:	dfc00117 	ldw	ra,4(sp)
   3285c:	df000017 	ldw	fp,0(sp)
   32860:	dec00204 	addi	sp,sp,8
   32864:	f800283a 	ret

00032868 <alt_irq_init>:
 * The "base" parameter is ignored and only
 * present for backwards-compatibility.
 */

void alt_irq_init ( const void* base )
{
   32868:	defffd04 	addi	sp,sp,-12
   3286c:	dfc00215 	stw	ra,8(sp)
   32870:	df000115 	stw	fp,4(sp)
   32874:	df000104 	addi	fp,sp,4
   32878:	e13fff15 	stw	r4,-4(fp)
    ALTERA_NIOS2_GEN2_IRQ_INIT ( CPU, cpu);
   3287c:	00340d00 	call	340d0 <altera_nios2_gen2_irq_init>
    NIOS2_WRITE_STATUS(NIOS2_STATUS_PIE_MSK
   32880:	00800044 	movi	r2,1
   32884:	1001703a 	wrctl	status,r2
}
   32888:	0001883a 	nop
    alt_irq_cpu_enable_interrupts();
}
   3288c:	0001883a 	nop
   32890:	e037883a 	mov	sp,fp
   32894:	dfc00117 	ldw	ra,4(sp)
   32898:	df000017 	ldw	fp,0(sp)
   3289c:	dec00204 	addi	sp,sp,8
   328a0:	f800283a 	ret

000328a4 <alt_sys_init>:
 * Initialize the non-interrupt controller devices.
 * Called after alt_irq_init().
 */

void alt_sys_init( void )
{
   328a4:	defffe04 	addi	sp,sp,-8
   328a8:	dfc00115 	stw	ra,4(sp)
   328ac:	df000015 	stw	fp,0(sp)
   328b0:	d839883a 	mov	fp,sp
    ALTERA_AVALON_TIMER_INIT ( SYS_CLK_TIMER, sys_clk_timer);
   328b4:	01c0fa04 	movi	r7,1000
   328b8:	018000c4 	movi	r6,3
   328bc:	000b883a 	mov	r5,zero
   328c0:	01000134 	movhi	r4,4
   328c4:	21040004 	addi	r4,r4,4096
   328c8:	00334180 	call	33418 <alt_avalon_timer_sc_init>
    ALTERA_AVALON_TIMER_INIT ( TIMER, timer);
   328cc:	00800134 	movhi	r2,4
   328d0:	10840804 	addi	r2,r2,4128
   328d4:	d0a71d15 	stw	r2,-25484(gp)
   328d8:	0080bef4 	movhi	r2,763
   328dc:	10bc2004 	addi	r2,r2,-3968
   328e0:	d0a71e15 	stw	r2,-25480(gp)
    ALTERA_AVALON_JTAG_UART_INIT ( JTAG_UART, jtag_uart);
   328e4:	000d883a 	mov	r6,zero
   328e8:	000b883a 	mov	r5,zero
   328ec:	010000f4 	movhi	r4,3
   328f0:	2116de04 	addi	r4,r4,23416
   328f4:	0032a900 	call	32a90 <altera_avalon_jtag_uart_init>
   328f8:	010000f4 	movhi	r4,3
   328fc:	2116d404 	addi	r4,r4,23376
   32900:	00328340 	call	32834 <alt_dev_reg>
    ALTERA_AVALON_SYSID_QSYS_INIT ( SYSID_QSYS_0, sysid_qsys_0);
   32904:	0001883a 	nop
    ALTERA_UP_AVALON_ACCELEROMETER_SPI_INIT ( ACCELEROMETER_SPI, accelerometer_spi);
   32908:	010000f4 	movhi	r4,3
   3290c:	211aec04 	addi	r4,r4,27568
   32910:	00328340 	call	32834 <alt_dev_reg>
}
   32914:	0001883a 	nop
   32918:	e037883a 	mov	sp,fp
   3291c:	dfc00117 	ldw	ra,4(sp)
   32920:	df000017 	ldw	fp,0(sp)
   32924:	dec00204 	addi	sp,sp,8
   32928:	f800283a 	ret

0003292c <altera_avalon_jtag_uart_read_fd>:
 *
 */

int 
altera_avalon_jtag_uart_read_fd(alt_fd* fd, char* buffer, int space)
{
   3292c:	defffa04 	addi	sp,sp,-24
   32930:	dfc00515 	stw	ra,20(sp)
   32934:	df000415 	stw	fp,16(sp)
   32938:	df000404 	addi	fp,sp,16
   3293c:	e13ffe15 	stw	r4,-8(fp)
   32940:	e17ffd15 	stw	r5,-12(fp)
   32944:	e1bffc15 	stw	r6,-16(fp)
    altera_avalon_jtag_uart_dev* dev = (altera_avalon_jtag_uart_dev*) fd->dev; 
   32948:	e0bffe17 	ldw	r2,-8(fp)
   3294c:	10800017 	ldw	r2,0(r2)
   32950:	e0bfff15 	stw	r2,-4(fp)

    return altera_avalon_jtag_uart_read(&dev->state, buffer, space,
   32954:	e0bfff17 	ldw	r2,-4(fp)
   32958:	10c00a04 	addi	r3,r2,40
   3295c:	e0bffe17 	ldw	r2,-8(fp)
   32960:	10800217 	ldw	r2,8(r2)
   32964:	100f883a 	mov	r7,r2
   32968:	e1bffc17 	ldw	r6,-16(fp)
   3296c:	e17ffd17 	ldw	r5,-12(fp)
   32970:	1809883a 	mov	r4,r3
   32974:	0032f500 	call	32f50 <altera_avalon_jtag_uart_read>
      fd->fd_flags);
}
   32978:	e037883a 	mov	sp,fp
   3297c:	dfc00117 	ldw	ra,4(sp)
   32980:	df000017 	ldw	fp,0(sp)
   32984:	dec00204 	addi	sp,sp,8
   32988:	f800283a 	ret

0003298c <altera_avalon_jtag_uart_write_fd>:

int 
altera_avalon_jtag_uart_write_fd(alt_fd* fd, const char* buffer, int space)
{
   3298c:	defffa04 	addi	sp,sp,-24
   32990:	dfc00515 	stw	ra,20(sp)
   32994:	df000415 	stw	fp,16(sp)
   32998:	df000404 	addi	fp,sp,16
   3299c:	e13ffe15 	stw	r4,-8(fp)
   329a0:	e17ffd15 	stw	r5,-12(fp)
   329a4:	e1bffc15 	stw	r6,-16(fp)
    altera_avalon_jtag_uart_dev* dev = (altera_avalon_jtag_uart_dev*) fd->dev; 
   329a8:	e0bffe17 	ldw	r2,-8(fp)
   329ac:	10800017 	ldw	r2,0(r2)
   329b0:	e0bfff15 	stw	r2,-4(fp)

    return altera_avalon_jtag_uart_write(&dev->state, buffer, space,
   329b4:	e0bfff17 	ldw	r2,-4(fp)
   329b8:	10c00a04 	addi	r3,r2,40
   329bc:	e0bffe17 	ldw	r2,-8(fp)
   329c0:	10800217 	ldw	r2,8(r2)
   329c4:	100f883a 	mov	r7,r2
   329c8:	e1bffc17 	ldw	r6,-16(fp)
   329cc:	e17ffd17 	ldw	r5,-12(fp)
   329d0:	1809883a 	mov	r4,r3
   329d4:	00331700 	call	33170 <altera_avalon_jtag_uart_write>
      fd->fd_flags);
}
   329d8:	e037883a 	mov	sp,fp
   329dc:	dfc00117 	ldw	ra,4(sp)
   329e0:	df000017 	ldw	fp,0(sp)
   329e4:	dec00204 	addi	sp,sp,8
   329e8:	f800283a 	ret

000329ec <altera_avalon_jtag_uart_close_fd>:

#ifndef ALTERA_AVALON_JTAG_UART_SMALL

int 
altera_avalon_jtag_uart_close_fd(alt_fd* fd)
{
   329ec:	defffc04 	addi	sp,sp,-16
   329f0:	dfc00315 	stw	ra,12(sp)
   329f4:	df000215 	stw	fp,8(sp)
   329f8:	df000204 	addi	fp,sp,8
   329fc:	e13ffe15 	stw	r4,-8(fp)
    altera_avalon_jtag_uart_dev* dev = (altera_avalon_jtag_uart_dev*) fd->dev; 
   32a00:	e0bffe17 	ldw	r2,-8(fp)
   32a04:	10800017 	ldw	r2,0(r2)
   32a08:	e0bfff15 	stw	r2,-4(fp)

    return altera_avalon_jtag_uart_close(&dev->state, fd->fd_flags);
   32a0c:	e0bfff17 	ldw	r2,-4(fp)
   32a10:	10c00a04 	addi	r3,r2,40
   32a14:	e0bffe17 	ldw	r2,-8(fp)
   32a18:	10800217 	ldw	r2,8(r2)
   32a1c:	100b883a 	mov	r5,r2
   32a20:	1809883a 	mov	r4,r3
   32a24:	0032df40 	call	32df4 <altera_avalon_jtag_uart_close>
}
   32a28:	e037883a 	mov	sp,fp
   32a2c:	dfc00117 	ldw	ra,4(sp)
   32a30:	df000017 	ldw	fp,0(sp)
   32a34:	dec00204 	addi	sp,sp,8
   32a38:	f800283a 	ret

00032a3c <altera_avalon_jtag_uart_ioctl_fd>:

int 
altera_avalon_jtag_uart_ioctl_fd(alt_fd* fd, int req, void* arg)
{
   32a3c:	defffa04 	addi	sp,sp,-24
   32a40:	dfc00515 	stw	ra,20(sp)
   32a44:	df000415 	stw	fp,16(sp)
   32a48:	df000404 	addi	fp,sp,16
   32a4c:	e13ffe15 	stw	r4,-8(fp)
   32a50:	e17ffd15 	stw	r5,-12(fp)
   32a54:	e1bffc15 	stw	r6,-16(fp)
    altera_avalon_jtag_uart_dev* dev = (altera_avalon_jtag_uart_dev*) fd->dev;
   32a58:	e0bffe17 	ldw	r2,-8(fp)
   32a5c:	10800017 	ldw	r2,0(r2)
   32a60:	e0bfff15 	stw	r2,-4(fp)

    return altera_avalon_jtag_uart_ioctl(&dev->state, req, arg);
   32a64:	e0bfff17 	ldw	r2,-4(fp)
   32a68:	10800a04 	addi	r2,r2,40
   32a6c:	e1bffc17 	ldw	r6,-16(fp)
   32a70:	e17ffd17 	ldw	r5,-12(fp)
   32a74:	1009883a 	mov	r4,r2
   32a78:	0032e5c0 	call	32e5c <altera_avalon_jtag_uart_ioctl>
}
   32a7c:	e037883a 	mov	sp,fp
   32a80:	dfc00117 	ldw	ra,4(sp)
   32a84:	df000017 	ldw	fp,0(sp)
   32a88:	dec00204 	addi	sp,sp,8
   32a8c:	f800283a 	ret

00032a90 <altera_avalon_jtag_uart_init>:
 * Return 1 on sucessful IRQ register and 0 on failure.
 */

void altera_avalon_jtag_uart_init(altera_avalon_jtag_uart_state* sp, 
                                  int irq_controller_id, int irq)
{
   32a90:	defffb04 	addi	sp,sp,-20
   32a94:	dfc00415 	stw	ra,16(sp)
   32a98:	df000315 	stw	fp,12(sp)
   32a9c:	df000304 	addi	fp,sp,12
   32aa0:	e13fff15 	stw	r4,-4(fp)
   32aa4:	e17ffe15 	stw	r5,-8(fp)
   32aa8:	e1bffd15 	stw	r6,-12(fp)
  ALT_FLAG_CREATE(&sp->events, 0);
  ALT_SEM_CREATE(&sp->read_lock, 1);
  ALT_SEM_CREATE(&sp->write_lock, 1);

  /* enable read interrupts at the device */
  sp->irq_enable = ALTERA_AVALON_JTAG_UART_CONTROL_RE_MSK;
   32aac:	e0bfff17 	ldw	r2,-4(fp)
   32ab0:	00c00044 	movi	r3,1
   32ab4:	10c00815 	stw	r3,32(r2)

  IOWR_ALTERA_AVALON_JTAG_UART_CONTROL(sp->base, sp->irq_enable); 
   32ab8:	e0bfff17 	ldw	r2,-4(fp)
   32abc:	10800017 	ldw	r2,0(r2)
   32ac0:	10800104 	addi	r2,r2,4
   32ac4:	1007883a 	mov	r3,r2
   32ac8:	e0bfff17 	ldw	r2,-4(fp)
   32acc:	10800817 	ldw	r2,32(r2)
   32ad0:	18800035 	stwio	r2,0(r3)
  /* register the interrupt handler */
#ifdef ALT_ENHANCED_INTERRUPT_API_PRESENT
  alt_ic_isr_register(irq_controller_id, irq, altera_avalon_jtag_uart_irq, 
                      sp, NULL);
#else
  alt_irq_register(irq, sp, altera_avalon_jtag_uart_irq);
   32ad4:	e0bffd17 	ldw	r2,-12(fp)
   32ad8:	018000f4 	movhi	r6,3
   32adc:	318ad104 	addi	r6,r6,11076
   32ae0:	e17fff17 	ldw	r5,-4(fp)
   32ae4:	1009883a 	mov	r4,r2
   32ae8:	003198c0 	call	3198c <alt_irq_register>
#endif  

  /* Register an alarm to go off every second to check for presence of host */
  sp->host_inactive = 0;
   32aec:	e0bfff17 	ldw	r2,-4(fp)
   32af0:	10000915 	stw	zero,36(r2)

  if (alt_alarm_start(&sp->alarm, alt_ticks_per_second(), 
   32af4:	e0bfff17 	ldw	r2,-4(fp)
   32af8:	10800204 	addi	r2,r2,8
 * Obtain the system clock rate in ticks/s. 
 */

static ALT_INLINE alt_u32 ALT_ALWAYS_INLINE alt_ticks_per_second (void)
{
  return _alt_tick_rate;
   32afc:	d0e71f17 	ldw	r3,-25476(gp)
   32b00:	e1ffff17 	ldw	r7,-4(fp)
   32b04:	018000f4 	movhi	r6,3
   32b08:	318b5504 	addi	r6,r6,11604
   32b0c:	180b883a 	mov	r5,r3
   32b10:	1009883a 	mov	r4,r2
   32b14:	00338600 	call	33860 <alt_alarm_start>
   32b18:	1000040e 	bge	r2,zero,32b2c <altera_avalon_jtag_uart_init+0x9c>
    &altera_avalon_jtag_uart_timeout, sp) < 0)
  {
    /* If we can't set the alarm then record "don't know if host present" 
     * and behave as though the host is present.
     */
    sp->timeout = INT_MAX;
   32b1c:	e0ffff17 	ldw	r3,-4(fp)
   32b20:	00a00034 	movhi	r2,32768
   32b24:	10bfffc4 	addi	r2,r2,-1
   32b28:	18800115 	stw	r2,4(r3)
  }

  /* ALT_LOG - see altera_hal/HAL/inc/sys/alt_log_printf.h */ 
  ALT_LOG_JTAG_UART_ALARM_REGISTER(sp, sp->base);
}
   32b2c:	0001883a 	nop
   32b30:	e037883a 	mov	sp,fp
   32b34:	dfc00117 	ldw	ra,4(sp)
   32b38:	df000017 	ldw	fp,0(sp)
   32b3c:	dec00204 	addi	sp,sp,8
   32b40:	f800283a 	ret

00032b44 <altera_avalon_jtag_uart_irq>:
#ifdef ALT_ENHANCED_INTERRUPT_API_PRESENT
static void altera_avalon_jtag_uart_irq(void* context)
#else
static void altera_avalon_jtag_uart_irq(void* context, alt_u32 id)
#endif
{
   32b44:	defff704 	addi	sp,sp,-36
   32b48:	df000815 	stw	fp,32(sp)
   32b4c:	df000804 	addi	fp,sp,32
   32b50:	e13ff915 	stw	r4,-28(fp)
   32b54:	e17ff815 	stw	r5,-32(fp)
  altera_avalon_jtag_uart_state* sp = (altera_avalon_jtag_uart_state*) context;
   32b58:	e0bff917 	ldw	r2,-28(fp)
   32b5c:	e0bffd15 	stw	r2,-12(fp)
  unsigned int base = sp->base;
   32b60:	e0bffd17 	ldw	r2,-12(fp)
   32b64:	10800017 	ldw	r2,0(r2)
   32b68:	e0bffc15 	stw	r2,-16(fp)
  /* ALT_LOG - see altera_hal/HAL/inc/sys/alt_log_printf.h */ 
  ALT_LOG_JTAG_UART_ISR_FUNCTION(base, sp);

  for ( ; ; )
  {
    unsigned int control = IORD_ALTERA_AVALON_JTAG_UART_CONTROL(base);
   32b6c:	e0bffc17 	ldw	r2,-16(fp)
   32b70:	10800104 	addi	r2,r2,4
   32b74:	10800037 	ldwio	r2,0(r2)
   32b78:	e0bffb15 	stw	r2,-20(fp)

    /* Return once nothing more to do */
    if ((control & (ALTERA_AVALON_JTAG_UART_CONTROL_RI_MSK | ALTERA_AVALON_JTAG_UART_CONTROL_WI_MSK)) == 0)
   32b7c:	e0bffb17 	ldw	r2,-20(fp)
   32b80:	1080c00c 	andi	r2,r2,768
   32b84:	10006d26 	beq	r2,zero,32d3c <altera_avalon_jtag_uart_irq+0x1f8>
      break;

    if (control & ALTERA_AVALON_JTAG_UART_CONTROL_RI_MSK)
   32b88:	e0bffb17 	ldw	r2,-20(fp)
   32b8c:	1080400c 	andi	r2,r2,256
   32b90:	10003526 	beq	r2,zero,32c68 <altera_avalon_jtag_uart_irq+0x124>
    {
      /* process a read irq.  Start by assuming that there is data in the
       * receive FIFO (otherwise why would we have been interrupted?)
       */
      unsigned int data = 1 << ALTERA_AVALON_JTAG_UART_DATA_RAVAIL_OFST;
   32b94:	00800074 	movhi	r2,1
   32b98:	e0bfff15 	stw	r2,-4(fp)
      for ( ; ; )
      {
        /* Check whether there is space in the buffer.  If not then we must not
         * read any characters from the buffer as they will be lost.
         */
        unsigned int next = (sp->rx_in + 1) % ALTERA_AVALON_JTAG_UART_BUF_LEN;
   32b9c:	e0bffd17 	ldw	r2,-12(fp)
   32ba0:	10800a17 	ldw	r2,40(r2)
   32ba4:	10800044 	addi	r2,r2,1
   32ba8:	1081ffcc 	andi	r2,r2,2047
   32bac:	e0bffa15 	stw	r2,-24(fp)
        if (next == sp->rx_out)
   32bb0:	e0bffd17 	ldw	r2,-12(fp)
   32bb4:	10800b17 	ldw	r2,44(r2)
   32bb8:	e0fffa17 	ldw	r3,-24(fp)
   32bbc:	18801526 	beq	r3,r2,32c14 <altera_avalon_jtag_uart_irq+0xd0>
          break;

        /* Try to remove a character from the FIFO and find out whether there
         * are any more characters remaining.
         */
        data = IORD_ALTERA_AVALON_JTAG_UART_DATA(base);
   32bc0:	e0bffc17 	ldw	r2,-16(fp)
   32bc4:	10800037 	ldwio	r2,0(r2)
   32bc8:	e0bfff15 	stw	r2,-4(fp)
        
        if ((data & ALTERA_AVALON_JTAG_UART_DATA_RVALID_MSK) == 0)
   32bcc:	e0bfff17 	ldw	r2,-4(fp)
   32bd0:	10a0000c 	andi	r2,r2,32768
   32bd4:	10001126 	beq	r2,zero,32c1c <altera_avalon_jtag_uart_irq+0xd8>
          break;

        sp->rx_buf[sp->rx_in] = (data & ALTERA_AVALON_JTAG_UART_DATA_DATA_MSK) >> ALTERA_AVALON_JTAG_UART_DATA_DATA_OFST;
   32bd8:	e0bffd17 	ldw	r2,-12(fp)
   32bdc:	10800a17 	ldw	r2,40(r2)
   32be0:	e0ffff17 	ldw	r3,-4(fp)
   32be4:	1809883a 	mov	r4,r3
   32be8:	e0fffd17 	ldw	r3,-12(fp)
   32bec:	1885883a 	add	r2,r3,r2
   32bf0:	11000e05 	stb	r4,56(r2)
        sp->rx_in = (sp->rx_in + 1) % ALTERA_AVALON_JTAG_UART_BUF_LEN;
   32bf4:	e0bffd17 	ldw	r2,-12(fp)
   32bf8:	10800a17 	ldw	r2,40(r2)
   32bfc:	10800044 	addi	r2,r2,1
   32c00:	10c1ffcc 	andi	r3,r2,2047
   32c04:	e0bffd17 	ldw	r2,-12(fp)
   32c08:	10c00a15 	stw	r3,40(r2)
 * HAL.
 */

static ALT_INLINE int ALT_ALWAYS_INLINE alt_no_error (void)
{
  return 0;
   32c0c:	0001883a 	nop
      {
   32c10:	003fe206 	br	32b9c <altera_avalon_jtag_uart_irq+0x58>
          break;
   32c14:	0001883a 	nop
   32c18:	00000106 	br	32c20 <altera_avalon_jtag_uart_irq+0xdc>
          break;
   32c1c:	0001883a 	nop

        /* Post an event to notify jtag_uart_read that a character has been read */
        ALT_FLAG_POST (sp->events, ALT_JTAG_UART_READ_RDY, OS_FLAG_SET);
      }

      if (data & ALTERA_AVALON_JTAG_UART_DATA_RAVAIL_MSK)
   32c20:	e0bfff17 	ldw	r2,-4(fp)
   32c24:	10bfffec 	andhi	r2,r2,65535
   32c28:	10000f26 	beq	r2,zero,32c68 <altera_avalon_jtag_uart_irq+0x124>
      {
        /* If there is still data available here then the buffer is full 
         * so turn off receive interrupts until some space becomes available.
         */
        sp->irq_enable &= ~ALTERA_AVALON_JTAG_UART_CONTROL_RE_MSK;
   32c2c:	e0bffd17 	ldw	r2,-12(fp)
   32c30:	10c00817 	ldw	r3,32(r2)
   32c34:	00bfff84 	movi	r2,-2
   32c38:	1886703a 	and	r3,r3,r2
   32c3c:	e0bffd17 	ldw	r2,-12(fp)
   32c40:	10c00815 	stw	r3,32(r2)
        IOWR_ALTERA_AVALON_JTAG_UART_CONTROL(base, sp->irq_enable);
   32c44:	e0bffc17 	ldw	r2,-16(fp)
   32c48:	10800104 	addi	r2,r2,4
   32c4c:	1007883a 	mov	r3,r2
   32c50:	e0bffd17 	ldw	r2,-12(fp)
   32c54:	10800817 	ldw	r2,32(r2)
   32c58:	18800035 	stwio	r2,0(r3)
        
        /* Dummy read to ensure IRQ is cleared prior to ISR completion */
        IORD_ALTERA_AVALON_JTAG_UART_CONTROL(base);
   32c5c:	e0bffc17 	ldw	r2,-16(fp)
   32c60:	10800104 	addi	r2,r2,4
   32c64:	10800037 	ldwio	r2,0(r2)
      }
    }

    if (control & ALTERA_AVALON_JTAG_UART_CONTROL_WI_MSK)
   32c68:	e0bffb17 	ldw	r2,-20(fp)
   32c6c:	1080800c 	andi	r2,r2,512
   32c70:	103fbe26 	beq	r2,zero,32b6c <altera_avalon_jtag_uart_irq+0x28>
    {
      /* process a write irq */
      unsigned int space = (control & ALTERA_AVALON_JTAG_UART_CONTROL_WSPACE_MSK) >> ALTERA_AVALON_JTAG_UART_CONTROL_WSPACE_OFST;
   32c74:	e0bffb17 	ldw	r2,-20(fp)
   32c78:	1004d43a 	srli	r2,r2,16
   32c7c:	e0bffe15 	stw	r2,-8(fp)

      while (space > 0 && sp->tx_out != sp->tx_in)
   32c80:	00001406 	br	32cd4 <altera_avalon_jtag_uart_irq+0x190>
      {
        IOWR_ALTERA_AVALON_JTAG_UART_DATA(base, sp->tx_buf[sp->tx_out]);
   32c84:	e0bffc17 	ldw	r2,-16(fp)
   32c88:	e0fffd17 	ldw	r3,-12(fp)
   32c8c:	18c00d17 	ldw	r3,52(r3)
   32c90:	e13ffd17 	ldw	r4,-12(fp)
   32c94:	20c7883a 	add	r3,r4,r3
   32c98:	18c20e03 	ldbu	r3,2104(r3)
   32c9c:	18c03fcc 	andi	r3,r3,255
   32ca0:	18c0201c 	xori	r3,r3,128
   32ca4:	18ffe004 	addi	r3,r3,-128
   32ca8:	10c00035 	stwio	r3,0(r2)

        sp->tx_out = (sp->tx_out + 1) % ALTERA_AVALON_JTAG_UART_BUF_LEN;
   32cac:	e0bffd17 	ldw	r2,-12(fp)
   32cb0:	10800d17 	ldw	r2,52(r2)
   32cb4:	10800044 	addi	r2,r2,1
   32cb8:	10c1ffcc 	andi	r3,r2,2047
   32cbc:	e0bffd17 	ldw	r2,-12(fp)
   32cc0:	10c00d15 	stw	r3,52(r2)
   32cc4:	0001883a 	nop

        /* Post an event to notify jtag_uart_write that a character has been written */
        ALT_FLAG_POST (sp->events, ALT_JTAG_UART_WRITE_RDY, OS_FLAG_SET);

        space--;
   32cc8:	e0bffe17 	ldw	r2,-8(fp)
   32ccc:	10bfffc4 	addi	r2,r2,-1
   32cd0:	e0bffe15 	stw	r2,-8(fp)
      while (space > 0 && sp->tx_out != sp->tx_in)
   32cd4:	e0bffe17 	ldw	r2,-8(fp)
   32cd8:	10000526 	beq	r2,zero,32cf0 <altera_avalon_jtag_uart_irq+0x1ac>
   32cdc:	e0bffd17 	ldw	r2,-12(fp)
   32ce0:	10c00d17 	ldw	r3,52(r2)
   32ce4:	e0bffd17 	ldw	r2,-12(fp)
   32ce8:	10800c17 	ldw	r2,48(r2)
   32cec:	18bfe51e 	bne	r3,r2,32c84 <altera_avalon_jtag_uart_irq+0x140>
      }

      if (space > 0)
   32cf0:	e0bffe17 	ldw	r2,-8(fp)
   32cf4:	103f9d26 	beq	r2,zero,32b6c <altera_avalon_jtag_uart_irq+0x28>
      {
        /* If we don't have any more data available then turn off the TX interrupt */
        sp->irq_enable &= ~ALTERA_AVALON_JTAG_UART_CONTROL_WE_MSK;
   32cf8:	e0bffd17 	ldw	r2,-12(fp)
   32cfc:	10c00817 	ldw	r3,32(r2)
   32d00:	00bfff44 	movi	r2,-3
   32d04:	1886703a 	and	r3,r3,r2
   32d08:	e0bffd17 	ldw	r2,-12(fp)
   32d0c:	10c00815 	stw	r3,32(r2)
        IOWR_ALTERA_AVALON_JTAG_UART_CONTROL(sp->base, sp->irq_enable);
   32d10:	e0bffd17 	ldw	r2,-12(fp)
   32d14:	10800017 	ldw	r2,0(r2)
   32d18:	10800104 	addi	r2,r2,4
   32d1c:	1007883a 	mov	r3,r2
   32d20:	e0bffd17 	ldw	r2,-12(fp)
   32d24:	10800817 	ldw	r2,32(r2)
   32d28:	18800035 	stwio	r2,0(r3)
        
        /* Dummy read to ensure IRQ is cleared prior to ISR completion */
        IORD_ALTERA_AVALON_JTAG_UART_CONTROL(base);
   32d2c:	e0bffc17 	ldw	r2,-16(fp)
   32d30:	10800104 	addi	r2,r2,4
   32d34:	10800037 	ldwio	r2,0(r2)
  {
   32d38:	003f8c06 	br	32b6c <altera_avalon_jtag_uart_irq+0x28>
      break;
   32d3c:	0001883a 	nop
      }
    }
  }
}
   32d40:	0001883a 	nop
   32d44:	e037883a 	mov	sp,fp
   32d48:	df000017 	ldw	fp,0(sp)
   32d4c:	dec00104 	addi	sp,sp,4
   32d50:	f800283a 	ret

00032d54 <altera_avalon_jtag_uart_timeout>:
 * Timeout routine is called every second
 */

static alt_u32 
altera_avalon_jtag_uart_timeout(void* context) 
{
   32d54:	defffc04 	addi	sp,sp,-16
   32d58:	df000315 	stw	fp,12(sp)
   32d5c:	df000304 	addi	fp,sp,12
   32d60:	e13ffd15 	stw	r4,-12(fp)
  altera_avalon_jtag_uart_state* sp = (altera_avalon_jtag_uart_state *) context;
   32d64:	e0bffd17 	ldw	r2,-12(fp)
   32d68:	e0bfff15 	stw	r2,-4(fp)

  unsigned int control = IORD_ALTERA_AVALON_JTAG_UART_CONTROL(sp->base);
   32d6c:	e0bfff17 	ldw	r2,-4(fp)
   32d70:	10800017 	ldw	r2,0(r2)
   32d74:	10800104 	addi	r2,r2,4
   32d78:	10800037 	ldwio	r2,0(r2)
   32d7c:	e0bffe15 	stw	r2,-8(fp)

  if (control & ALTERA_AVALON_JTAG_UART_CONTROL_AC_MSK)
   32d80:	e0bffe17 	ldw	r2,-8(fp)
   32d84:	1081000c 	andi	r2,r2,1024
   32d88:	10000b26 	beq	r2,zero,32db8 <altera_avalon_jtag_uart_timeout+0x64>
  {
    IOWR_ALTERA_AVALON_JTAG_UART_CONTROL(sp->base, sp->irq_enable | ALTERA_AVALON_JTAG_UART_CONTROL_AC_MSK);
   32d8c:	e0bfff17 	ldw	r2,-4(fp)
   32d90:	10800017 	ldw	r2,0(r2)
   32d94:	10800104 	addi	r2,r2,4
   32d98:	1007883a 	mov	r3,r2
   32d9c:	e0bfff17 	ldw	r2,-4(fp)
   32da0:	10800817 	ldw	r2,32(r2)
   32da4:	10810014 	ori	r2,r2,1024
   32da8:	18800035 	stwio	r2,0(r3)
    sp->host_inactive = 0;
   32dac:	e0bfff17 	ldw	r2,-4(fp)
   32db0:	10000915 	stw	zero,36(r2)
   32db4:	00000a06 	br	32de0 <altera_avalon_jtag_uart_timeout+0x8c>
  }
  else if (sp->host_inactive < INT_MAX - 2) {
   32db8:	e0bfff17 	ldw	r2,-4(fp)
   32dbc:	10c00917 	ldw	r3,36(r2)
   32dc0:	00a00034 	movhi	r2,32768
   32dc4:	10bfff04 	addi	r2,r2,-4
   32dc8:	10c00536 	bltu	r2,r3,32de0 <altera_avalon_jtag_uart_timeout+0x8c>
    sp->host_inactive++;
   32dcc:	e0bfff17 	ldw	r2,-4(fp)
   32dd0:	10800917 	ldw	r2,36(r2)
   32dd4:	10c00044 	addi	r3,r2,1
   32dd8:	e0bfff17 	ldw	r2,-4(fp)
   32ddc:	10c00915 	stw	r3,36(r2)
   32de0:	d0a71f17 	ldw	r2,-25476(gp)
      ALT_FLAG_POST (sp->events, ALT_JTAG_UART_TIMEOUT, OS_FLAG_SET);
    }
  }

  return alt_ticks_per_second();
}
   32de4:	e037883a 	mov	sp,fp
   32de8:	df000017 	ldw	fp,0(sp)
   32dec:	dec00104 	addi	sp,sp,4
   32df0:	f800283a 	ret

00032df4 <altera_avalon_jtag_uart_close>:
 * The close routine is not implemented for the small driver; instead it will
 * map to null. This is because the small driver simply waits while characters
 * are transmitted; there is no interrupt-serviced buffer to empty 
 */
int altera_avalon_jtag_uart_close(altera_avalon_jtag_uart_state* sp, int flags)
{
   32df4:	defffd04 	addi	sp,sp,-12
   32df8:	df000215 	stw	fp,8(sp)
   32dfc:	df000204 	addi	fp,sp,8
   32e00:	e13fff15 	stw	r4,-4(fp)
   32e04:	e17ffe15 	stw	r5,-8(fp)
  /* 
   * Wait for all transmit data to be emptied by the JTAG UART ISR, or
   * for a host-inactivity timeout, in which case transmit data will be lost
   */
  while ( (sp->tx_out != sp->tx_in) && (sp->host_inactive < sp->timeout) ) {
   32e08:	00000506 	br	32e20 <altera_avalon_jtag_uart_close+0x2c>
    if (flags & O_NONBLOCK) {
   32e0c:	e0bffe17 	ldw	r2,-8(fp)
   32e10:	1090000c 	andi	r2,r2,16384
   32e14:	10000226 	beq	r2,zero,32e20 <altera_avalon_jtag_uart_close+0x2c>
      return -EWOULDBLOCK; 
   32e18:	00bffd44 	movi	r2,-11
   32e1c:	00000b06 	br	32e4c <altera_avalon_jtag_uart_close+0x58>
  while ( (sp->tx_out != sp->tx_in) && (sp->host_inactive < sp->timeout) ) {
   32e20:	e0bfff17 	ldw	r2,-4(fp)
   32e24:	10c00d17 	ldw	r3,52(r2)
   32e28:	e0bfff17 	ldw	r2,-4(fp)
   32e2c:	10800c17 	ldw	r2,48(r2)
   32e30:	18800526 	beq	r3,r2,32e48 <altera_avalon_jtag_uart_close+0x54>
   32e34:	e0bfff17 	ldw	r2,-4(fp)
   32e38:	10c00917 	ldw	r3,36(r2)
   32e3c:	e0bfff17 	ldw	r2,-4(fp)
   32e40:	10800117 	ldw	r2,4(r2)
   32e44:	18bff136 	bltu	r3,r2,32e0c <altera_avalon_jtag_uart_close+0x18>
    }
  }

  return 0;
   32e48:	0005883a 	mov	r2,zero
}
   32e4c:	e037883a 	mov	sp,fp
   32e50:	df000017 	ldw	fp,0(sp)
   32e54:	dec00104 	addi	sp,sp,4
   32e58:	f800283a 	ret

00032e5c <altera_avalon_jtag_uart_ioctl>:
/* ----------------------------------------------------------- */

int 
altera_avalon_jtag_uart_ioctl(altera_avalon_jtag_uart_state* sp, int req,
  void* arg)
{
   32e5c:	defffa04 	addi	sp,sp,-24
   32e60:	df000515 	stw	fp,20(sp)
   32e64:	df000504 	addi	fp,sp,20
   32e68:	e13ffd15 	stw	r4,-12(fp)
   32e6c:	e17ffc15 	stw	r5,-16(fp)
   32e70:	e1bffb15 	stw	r6,-20(fp)
  int rc = -ENOTTY;
   32e74:	00bff9c4 	movi	r2,-25
   32e78:	e0bfff15 	stw	r2,-4(fp)

  switch (req)
   32e7c:	e0bffc17 	ldw	r2,-16(fp)
   32e80:	109a8060 	cmpeqi	r2,r2,27137
   32e84:	1000041e 	bne	r2,zero,32e98 <altera_avalon_jtag_uart_ioctl+0x3c>
   32e88:	e0bffc17 	ldw	r2,-16(fp)
   32e8c:	109a80a0 	cmpeqi	r2,r2,27138
   32e90:	1000181e 	bne	r2,zero,32ef4 <altera_avalon_jtag_uart_ioctl+0x98>
      rc = 0;
    }
    break;

  default:
    break;
   32e94:	00002906 	br	32f3c <altera_avalon_jtag_uart_ioctl+0xe0>
    if (sp->timeout != INT_MAX)
   32e98:	e0bffd17 	ldw	r2,-12(fp)
   32e9c:	10c00117 	ldw	r3,4(r2)
   32ea0:	00a00034 	movhi	r2,32768
   32ea4:	10bfffc4 	addi	r2,r2,-1
   32ea8:	18802126 	beq	r3,r2,32f30 <altera_avalon_jtag_uart_ioctl+0xd4>
      int timeout = *((int *)arg);
   32eac:	e0bffb17 	ldw	r2,-20(fp)
   32eb0:	10800017 	ldw	r2,0(r2)
   32eb4:	e0bffe15 	stw	r2,-8(fp)
      sp->timeout = (timeout >= 2 && timeout < INT_MAX) ? timeout : INT_MAX - 1;
   32eb8:	e0bffe17 	ldw	r2,-8(fp)
   32ebc:	10800090 	cmplti	r2,r2,2
   32ec0:	1000061e 	bne	r2,zero,32edc <altera_avalon_jtag_uart_ioctl+0x80>
   32ec4:	e0fffe17 	ldw	r3,-8(fp)
   32ec8:	00a00034 	movhi	r2,32768
   32ecc:	10bfffc4 	addi	r2,r2,-1
   32ed0:	18800226 	beq	r3,r2,32edc <altera_avalon_jtag_uart_ioctl+0x80>
   32ed4:	e0bffe17 	ldw	r2,-8(fp)
   32ed8:	00000206 	br	32ee4 <altera_avalon_jtag_uart_ioctl+0x88>
   32edc:	00a00034 	movhi	r2,32768
   32ee0:	10bfff84 	addi	r2,r2,-2
   32ee4:	e0fffd17 	ldw	r3,-12(fp)
   32ee8:	18800115 	stw	r2,4(r3)
      rc = 0;
   32eec:	e03fff15 	stw	zero,-4(fp)
    break;
   32ef0:	00000f06 	br	32f30 <altera_avalon_jtag_uart_ioctl+0xd4>
    if (sp->timeout != INT_MAX)
   32ef4:	e0bffd17 	ldw	r2,-12(fp)
   32ef8:	10c00117 	ldw	r3,4(r2)
   32efc:	00a00034 	movhi	r2,32768
   32f00:	10bfffc4 	addi	r2,r2,-1
   32f04:	18800c26 	beq	r3,r2,32f38 <altera_avalon_jtag_uart_ioctl+0xdc>
      *((int *)arg) = (sp->host_inactive < sp->timeout) ? 1 : 0;
   32f08:	e0bffd17 	ldw	r2,-12(fp)
   32f0c:	10c00917 	ldw	r3,36(r2)
   32f10:	e0bffd17 	ldw	r2,-12(fp)
   32f14:	10800117 	ldw	r2,4(r2)
   32f18:	1885803a 	cmpltu	r2,r3,r2
   32f1c:	10c03fcc 	andi	r3,r2,255
   32f20:	e0bffb17 	ldw	r2,-20(fp)
   32f24:	10c00015 	stw	r3,0(r2)
      rc = 0;
   32f28:	e03fff15 	stw	zero,-4(fp)
    break;
   32f2c:	00000206 	br	32f38 <altera_avalon_jtag_uart_ioctl+0xdc>
    break;
   32f30:	0001883a 	nop
   32f34:	00000106 	br	32f3c <altera_avalon_jtag_uart_ioctl+0xe0>
    break;
   32f38:	0001883a 	nop
  }

  return rc;
   32f3c:	e0bfff17 	ldw	r2,-4(fp)
}
   32f40:	e037883a 	mov	sp,fp
   32f44:	df000017 	ldw	fp,0(sp)
   32f48:	dec00104 	addi	sp,sp,4
   32f4c:	f800283a 	ret

00032f50 <altera_avalon_jtag_uart_read>:
/* ----------------------------------------------------------- */

int 
altera_avalon_jtag_uart_read(altera_avalon_jtag_uart_state* sp, 
  char * buffer, int space, int flags)
{
   32f50:	defff304 	addi	sp,sp,-52
   32f54:	dfc00c15 	stw	ra,48(sp)
   32f58:	df000b15 	stw	fp,44(sp)
   32f5c:	df000b04 	addi	fp,sp,44
   32f60:	e13ff815 	stw	r4,-32(fp)
   32f64:	e17ff715 	stw	r5,-36(fp)
   32f68:	e1bff615 	stw	r6,-40(fp)
   32f6c:	e1fff515 	stw	r7,-44(fp)
  char * ptr = buffer;
   32f70:	e0bff717 	ldw	r2,-36(fp)
   32f74:	e0bfff15 	stw	r2,-4(fp)
   * When running in a multi threaded environment, obtain the "read_lock"
   * semaphore. This ensures that reading from the device is thread-safe.
   */
  ALT_SEM_PEND (sp->read_lock, 0);

  while (space > 0)
   32f78:	00004706 	br	33098 <altera_avalon_jtag_uart_read+0x148>
    unsigned int in, out;

    /* Read as much data as possible */
    do
    {
      in  = sp->rx_in;
   32f7c:	e0bff817 	ldw	r2,-32(fp)
   32f80:	10800a17 	ldw	r2,40(r2)
   32f84:	e0bffd15 	stw	r2,-12(fp)
      out = sp->rx_out;
   32f88:	e0bff817 	ldw	r2,-32(fp)
   32f8c:	10800b17 	ldw	r2,44(r2)
   32f90:	e0bffc15 	stw	r2,-16(fp)

      if (in >= out)
   32f94:	e0fffd17 	ldw	r3,-12(fp)
   32f98:	e0bffc17 	ldw	r2,-16(fp)
   32f9c:	18800536 	bltu	r3,r2,32fb4 <altera_avalon_jtag_uart_read+0x64>
        n = in - out;
   32fa0:	e0fffd17 	ldw	r3,-12(fp)
   32fa4:	e0bffc17 	ldw	r2,-16(fp)
   32fa8:	1885c83a 	sub	r2,r3,r2
   32fac:	e0bffe15 	stw	r2,-8(fp)
   32fb0:	00000406 	br	32fc4 <altera_avalon_jtag_uart_read+0x74>
      else
        n = ALTERA_AVALON_JTAG_UART_BUF_LEN - out;
   32fb4:	00c20004 	movi	r3,2048
   32fb8:	e0bffc17 	ldw	r2,-16(fp)
   32fbc:	1885c83a 	sub	r2,r3,r2
   32fc0:	e0bffe15 	stw	r2,-8(fp)

      if (n == 0)
   32fc4:	e0bffe17 	ldw	r2,-8(fp)
   32fc8:	10001e26 	beq	r2,zero,33044 <altera_avalon_jtag_uart_read+0xf4>
        break; /* No more data available */

      if (n > space)
   32fcc:	e0fff617 	ldw	r3,-40(fp)
   32fd0:	e0bffe17 	ldw	r2,-8(fp)
   32fd4:	1880022e 	bgeu	r3,r2,32fe0 <altera_avalon_jtag_uart_read+0x90>
        n = space;
   32fd8:	e0bff617 	ldw	r2,-40(fp)
   32fdc:	e0bffe15 	stw	r2,-8(fp)

      memcpy(ptr, sp->rx_buf + out, n);
   32fe0:	e0bff817 	ldw	r2,-32(fp)
   32fe4:	10c00e04 	addi	r3,r2,56
   32fe8:	e0bffc17 	ldw	r2,-16(fp)
   32fec:	1885883a 	add	r2,r3,r2
   32ff0:	e1bffe17 	ldw	r6,-8(fp)
   32ff4:	100b883a 	mov	r5,r2
   32ff8:	e13fff17 	ldw	r4,-4(fp)
   32ffc:	00245a40 	call	245a4 <memcpy>
      ptr   += n;
   33000:	e0ffff17 	ldw	r3,-4(fp)
   33004:	e0bffe17 	ldw	r2,-8(fp)
   33008:	1885883a 	add	r2,r3,r2
   3300c:	e0bfff15 	stw	r2,-4(fp)
      space -= n;
   33010:	e0fff617 	ldw	r3,-40(fp)
   33014:	e0bffe17 	ldw	r2,-8(fp)
   33018:	1885c83a 	sub	r2,r3,r2
   3301c:	e0bff615 	stw	r2,-40(fp)

      sp->rx_out = (out + n) % ALTERA_AVALON_JTAG_UART_BUF_LEN;
   33020:	e0fffc17 	ldw	r3,-16(fp)
   33024:	e0bffe17 	ldw	r2,-8(fp)
   33028:	1885883a 	add	r2,r3,r2
   3302c:	10c1ffcc 	andi	r3,r2,2047
   33030:	e0bff817 	ldw	r2,-32(fp)
   33034:	10c00b15 	stw	r3,44(r2)
    }
    while (space > 0);
   33038:	e0bff617 	ldw	r2,-40(fp)
   3303c:	00bfcf16 	blt	zero,r2,32f7c <altera_avalon_jtag_uart_read+0x2c>
   33040:	00000106 	br	33048 <altera_avalon_jtag_uart_read+0xf8>
        break; /* No more data available */
   33044:	0001883a 	nop

    /* If we read any data then return it */
    if (ptr != buffer)
   33048:	e0ffff17 	ldw	r3,-4(fp)
   3304c:	e0bff717 	ldw	r2,-36(fp)
   33050:	1880141e 	bne	r3,r2,330a4 <altera_avalon_jtag_uart_read+0x154>
      break;

    /* If in non-blocking mode then return error */
    if (flags & O_NONBLOCK)
   33054:	e0bff517 	ldw	r2,-44(fp)
   33058:	1090000c 	andi	r2,r2,16384
   3305c:	1000131e 	bne	r2,zero,330ac <altera_avalon_jtag_uart_read+0x15c>
      while (in == sp->rx_in && sp->host_inactive < sp->timeout)
        ;
    }
#else
    /* No OS: Always spin */
    while (in == sp->rx_in && sp->host_inactive < sp->timeout)
   33060:	0001883a 	nop
   33064:	e0bff817 	ldw	r2,-32(fp)
   33068:	10800a17 	ldw	r2,40(r2)
   3306c:	e0fffd17 	ldw	r3,-12(fp)
   33070:	1880051e 	bne	r3,r2,33088 <altera_avalon_jtag_uart_read+0x138>
   33074:	e0bff817 	ldw	r2,-32(fp)
   33078:	10c00917 	ldw	r3,36(r2)
   3307c:	e0bff817 	ldw	r2,-32(fp)
   33080:	10800117 	ldw	r2,4(r2)
   33084:	18bff736 	bltu	r3,r2,33064 <altera_avalon_jtag_uart_read+0x114>
      ;
#endif /* __ucosii__ */

    if (in == sp->rx_in)
   33088:	e0bff817 	ldw	r2,-32(fp)
   3308c:	10800a17 	ldw	r2,40(r2)
   33090:	e0fffd17 	ldw	r3,-12(fp)
   33094:	18800726 	beq	r3,r2,330b4 <altera_avalon_jtag_uart_read+0x164>
  while (space > 0)
   33098:	e0bff617 	ldw	r2,-40(fp)
   3309c:	00bfb716 	blt	zero,r2,32f7c <altera_avalon_jtag_uart_read+0x2c>
   330a0:	00000506 	br	330b8 <altera_avalon_jtag_uart_read+0x168>
      break;
   330a4:	0001883a 	nop
   330a8:	00000306 	br	330b8 <altera_avalon_jtag_uart_read+0x168>
      break;
   330ac:	0001883a 	nop
   330b0:	00000106 	br	330b8 <altera_avalon_jtag_uart_read+0x168>
      break;
   330b4:	0001883a 	nop
   * semaphore so that other threads can access the buffer.
   */

  ALT_SEM_POST (sp->read_lock);

  if (ptr != buffer)
   330b8:	e0ffff17 	ldw	r3,-4(fp)
   330bc:	e0bff717 	ldw	r2,-36(fp)
   330c0:	18801926 	beq	r3,r2,33128 <altera_avalon_jtag_uart_read+0x1d8>
  NIOS2_READ_STATUS (context);
   330c4:	0005303a 	rdctl	r2,status
   330c8:	e0bff915 	stw	r2,-28(fp)
  NIOS2_WRITE_STATUS (context & ~NIOS2_STATUS_PIE_MSK);
   330cc:	e0fff917 	ldw	r3,-28(fp)
   330d0:	00bfff84 	movi	r2,-2
   330d4:	1884703a 	and	r2,r3,r2
   330d8:	1001703a 	wrctl	status,r2
  return context;
   330dc:	e0bff917 	ldw	r2,-28(fp)
  {
    /* If we read any data then there is space in the buffer so enable interrupts */
    context = alt_irq_disable_all();
   330e0:	e0bffb15 	stw	r2,-20(fp)
    sp->irq_enable |= ALTERA_AVALON_JTAG_UART_CONTROL_RE_MSK;
   330e4:	e0bff817 	ldw	r2,-32(fp)
   330e8:	10800817 	ldw	r2,32(r2)
   330ec:	10c00054 	ori	r3,r2,1
   330f0:	e0bff817 	ldw	r2,-32(fp)
   330f4:	10c00815 	stw	r3,32(r2)
    IOWR_ALTERA_AVALON_JTAG_UART_CONTROL(sp->base, sp->irq_enable);
   330f8:	e0bff817 	ldw	r2,-32(fp)
   330fc:	10800017 	ldw	r2,0(r2)
   33100:	10800104 	addi	r2,r2,4
   33104:	1007883a 	mov	r3,r2
   33108:	e0bff817 	ldw	r2,-32(fp)
   3310c:	10800817 	ldw	r2,32(r2)
   33110:	18800035 	stwio	r2,0(r3)
   33114:	e0bffb17 	ldw	r2,-20(fp)
   33118:	e0bffa15 	stw	r2,-24(fp)
  NIOS2_WRITE_STATUS (context);
   3311c:	e0bffa17 	ldw	r2,-24(fp)
   33120:	1001703a 	wrctl	status,r2
}
   33124:	0001883a 	nop
    alt_irq_enable_all(context);
  }

  if (ptr != buffer)
   33128:	e0ffff17 	ldw	r3,-4(fp)
   3312c:	e0bff717 	ldw	r2,-36(fp)
   33130:	18800426 	beq	r3,r2,33144 <altera_avalon_jtag_uart_read+0x1f4>
    return ptr - buffer;
   33134:	e0ffff17 	ldw	r3,-4(fp)
   33138:	e0bff717 	ldw	r2,-36(fp)
   3313c:	1885c83a 	sub	r2,r3,r2
   33140:	00000606 	br	3315c <altera_avalon_jtag_uart_read+0x20c>
  else if (flags & O_NONBLOCK)
   33144:	e0bff517 	ldw	r2,-44(fp)
   33148:	1090000c 	andi	r2,r2,16384
   3314c:	10000226 	beq	r2,zero,33158 <altera_avalon_jtag_uart_read+0x208>
    return -EWOULDBLOCK;
   33150:	00bffd44 	movi	r2,-11
   33154:	00000106 	br	3315c <altera_avalon_jtag_uart_read+0x20c>
  else
    return -EIO;
   33158:	00bffec4 	movi	r2,-5
}
   3315c:	e037883a 	mov	sp,fp
   33160:	dfc00117 	ldw	ra,4(sp)
   33164:	df000017 	ldw	fp,0(sp)
   33168:	dec00204 	addi	sp,sp,8
   3316c:	f800283a 	ret

00033170 <altera_avalon_jtag_uart_write>:
/* ----------------------------------------------------------- */

int 
altera_avalon_jtag_uart_write(altera_avalon_jtag_uart_state* sp, 
  const char * ptr, int count, int flags)
{
   33170:	defff304 	addi	sp,sp,-52
   33174:	dfc00c15 	stw	ra,48(sp)
   33178:	df000b15 	stw	fp,44(sp)
   3317c:	df000b04 	addi	fp,sp,44
   33180:	e13ff815 	stw	r4,-32(fp)
   33184:	e17ff715 	stw	r5,-36(fp)
   33188:	e1bff615 	stw	r6,-40(fp)
   3318c:	e1fff515 	stw	r7,-44(fp)
  /* Remove warning at optimisation level 03 by seting out to 0 */
  unsigned int in, out=0;
   33190:	e03fff15 	stw	zero,-4(fp)
  unsigned int n;
  alt_irq_context context;

  const char * start = ptr;
   33194:	e0bff717 	ldw	r2,-36(fp)
   33198:	e0bffd15 	stw	r2,-12(fp)
  ALT_SEM_PEND (sp->write_lock, 0);

  do
  {
    /* Copy as much as we can into the transmit buffer */
    while (count > 0)
   3319c:	00003706 	br	3327c <altera_avalon_jtag_uart_write+0x10c>
    {
      /* We need a stable value of the out pointer to calculate the space available */
      in  = sp->tx_in;
   331a0:	e0bff817 	ldw	r2,-32(fp)
   331a4:	10800c17 	ldw	r2,48(r2)
   331a8:	e0bffc15 	stw	r2,-16(fp)
      out = sp->tx_out;
   331ac:	e0bff817 	ldw	r2,-32(fp)
   331b0:	10800d17 	ldw	r2,52(r2)
   331b4:	e0bfff15 	stw	r2,-4(fp)

      if (in < out)
   331b8:	e0fffc17 	ldw	r3,-16(fp)
   331bc:	e0bfff17 	ldw	r2,-4(fp)
   331c0:	1880062e 	bgeu	r3,r2,331dc <altera_avalon_jtag_uart_write+0x6c>
        n = out - 1 - in;
   331c4:	e0ffff17 	ldw	r3,-4(fp)
   331c8:	e0bffc17 	ldw	r2,-16(fp)
   331cc:	1885c83a 	sub	r2,r3,r2
   331d0:	10bfffc4 	addi	r2,r2,-1
   331d4:	e0bffe15 	stw	r2,-8(fp)
   331d8:	00000b06 	br	33208 <altera_avalon_jtag_uart_write+0x98>
      else if (out > 0)
   331dc:	e0bfff17 	ldw	r2,-4(fp)
   331e0:	10000526 	beq	r2,zero,331f8 <altera_avalon_jtag_uart_write+0x88>
        n = ALTERA_AVALON_JTAG_UART_BUF_LEN - in;
   331e4:	00c20004 	movi	r3,2048
   331e8:	e0bffc17 	ldw	r2,-16(fp)
   331ec:	1885c83a 	sub	r2,r3,r2
   331f0:	e0bffe15 	stw	r2,-8(fp)
   331f4:	00000406 	br	33208 <altera_avalon_jtag_uart_write+0x98>
      else
        n = ALTERA_AVALON_JTAG_UART_BUF_LEN - 1 - in;
   331f8:	00c1ffc4 	movi	r3,2047
   331fc:	e0bffc17 	ldw	r2,-16(fp)
   33200:	1885c83a 	sub	r2,r3,r2
   33204:	e0bffe15 	stw	r2,-8(fp)

      if (n == 0)
   33208:	e0bffe17 	ldw	r2,-8(fp)
   3320c:	10001e26 	beq	r2,zero,33288 <altera_avalon_jtag_uart_write+0x118>
        break;

      if (n > count)
   33210:	e0fff617 	ldw	r3,-40(fp)
   33214:	e0bffe17 	ldw	r2,-8(fp)
   33218:	1880022e 	bgeu	r3,r2,33224 <altera_avalon_jtag_uart_write+0xb4>
        n = count;
   3321c:	e0bff617 	ldw	r2,-40(fp)
   33220:	e0bffe15 	stw	r2,-8(fp)

      memcpy(sp->tx_buf + in, ptr, n);
   33224:	e0bff817 	ldw	r2,-32(fp)
   33228:	10c20e04 	addi	r3,r2,2104
   3322c:	e0bffc17 	ldw	r2,-16(fp)
   33230:	1885883a 	add	r2,r3,r2
   33234:	e1bffe17 	ldw	r6,-8(fp)
   33238:	e17ff717 	ldw	r5,-36(fp)
   3323c:	1009883a 	mov	r4,r2
   33240:	00245a40 	call	245a4 <memcpy>
      ptr   += n;
   33244:	e0fff717 	ldw	r3,-36(fp)
   33248:	e0bffe17 	ldw	r2,-8(fp)
   3324c:	1885883a 	add	r2,r3,r2
   33250:	e0bff715 	stw	r2,-36(fp)
      count -= n;
   33254:	e0fff617 	ldw	r3,-40(fp)
   33258:	e0bffe17 	ldw	r2,-8(fp)
   3325c:	1885c83a 	sub	r2,r3,r2
   33260:	e0bff615 	stw	r2,-40(fp)

      sp->tx_in = (in + n) % ALTERA_AVALON_JTAG_UART_BUF_LEN;
   33264:	e0fffc17 	ldw	r3,-16(fp)
   33268:	e0bffe17 	ldw	r2,-8(fp)
   3326c:	1885883a 	add	r2,r3,r2
   33270:	10c1ffcc 	andi	r3,r2,2047
   33274:	e0bff817 	ldw	r2,-32(fp)
   33278:	10c00c15 	stw	r3,48(r2)
    while (count > 0)
   3327c:	e0bff617 	ldw	r2,-40(fp)
   33280:	00bfc716 	blt	zero,r2,331a0 <altera_avalon_jtag_uart_write+0x30>
   33284:	00000106 	br	3328c <altera_avalon_jtag_uart_write+0x11c>
        break;
   33288:	0001883a 	nop
  NIOS2_READ_STATUS (context);
   3328c:	0005303a 	rdctl	r2,status
   33290:	e0bff915 	stw	r2,-28(fp)
  NIOS2_WRITE_STATUS (context & ~NIOS2_STATUS_PIE_MSK);
   33294:	e0fff917 	ldw	r3,-28(fp)
   33298:	00bfff84 	movi	r2,-2
   3329c:	1884703a 	and	r2,r3,r2
   332a0:	1001703a 	wrctl	status,r2
  return context;
   332a4:	e0bff917 	ldw	r2,-28(fp)
     * to enable interrupts if there is no space left in the FIFO
     *
     * For now kick the interrupt routine every time to make it transmit 
     * the data 
     */
    context = alt_irq_disable_all();
   332a8:	e0bffb15 	stw	r2,-20(fp)
    sp->irq_enable |= ALTERA_AVALON_JTAG_UART_CONTROL_WE_MSK;
   332ac:	e0bff817 	ldw	r2,-32(fp)
   332b0:	10800817 	ldw	r2,32(r2)
   332b4:	10c00094 	ori	r3,r2,2
   332b8:	e0bff817 	ldw	r2,-32(fp)
   332bc:	10c00815 	stw	r3,32(r2)
    IOWR_ALTERA_AVALON_JTAG_UART_CONTROL(sp->base, sp->irq_enable);
   332c0:	e0bff817 	ldw	r2,-32(fp)
   332c4:	10800017 	ldw	r2,0(r2)
   332c8:	10800104 	addi	r2,r2,4
   332cc:	1007883a 	mov	r3,r2
   332d0:	e0bff817 	ldw	r2,-32(fp)
   332d4:	10800817 	ldw	r2,32(r2)
   332d8:	18800035 	stwio	r2,0(r3)
   332dc:	e0bffb17 	ldw	r2,-20(fp)
   332e0:	e0bffa15 	stw	r2,-24(fp)
  NIOS2_WRITE_STATUS (context);
   332e4:	e0bffa17 	ldw	r2,-24(fp)
   332e8:	1001703a 	wrctl	status,r2
}
   332ec:	0001883a 	nop
    /* 
     * If there is any data left then either return now or block until 
     * some has been sent 
     */
    /* consider: test whether there is anything there while doing this and delay for at most 2s. */
    if (count > 0)
   332f0:	e0bff617 	ldw	r2,-40(fp)
   332f4:	0080100e 	bge	zero,r2,33338 <altera_avalon_jtag_uart_write+0x1c8>
    {
      if (flags & O_NONBLOCK)
   332f8:	e0bff517 	ldw	r2,-44(fp)
   332fc:	1090000c 	andi	r2,r2,16384
   33300:	1000101e 	bne	r2,zero,33344 <altera_avalon_jtag_uart_write+0x1d4>
      /*
       * No OS present: Always wait for data to be removed from buffer.  Once
       * the interrupt routine has removed some data then we will be able to
       * insert some more.
       */
      while (out == sp->tx_out && sp->host_inactive < sp->timeout)
   33304:	0001883a 	nop
   33308:	e0bff817 	ldw	r2,-32(fp)
   3330c:	10800d17 	ldw	r2,52(r2)
   33310:	e0ffff17 	ldw	r3,-4(fp)
   33314:	1880051e 	bne	r3,r2,3332c <altera_avalon_jtag_uart_write+0x1bc>
   33318:	e0bff817 	ldw	r2,-32(fp)
   3331c:	10c00917 	ldw	r3,36(r2)
   33320:	e0bff817 	ldw	r2,-32(fp)
   33324:	10800117 	ldw	r2,4(r2)
   33328:	18bff736 	bltu	r3,r2,33308 <altera_avalon_jtag_uart_write+0x198>
        ;
#endif /* __ucosii__ */

      if  (sp->host_inactive)
   3332c:	e0bff817 	ldw	r2,-32(fp)
   33330:	10800917 	ldw	r2,36(r2)
   33334:	1000051e 	bne	r2,zero,3334c <altera_avalon_jtag_uart_write+0x1dc>
         break;
    }
  }
  while (count > 0);
   33338:	e0bff617 	ldw	r2,-40(fp)
   3333c:	00bfcf16 	blt	zero,r2,3327c <altera_avalon_jtag_uart_write+0x10c>
   33340:	00000306 	br	33350 <altera_avalon_jtag_uart_write+0x1e0>
        break;
   33344:	0001883a 	nop
   33348:	00000106 	br	33350 <altera_avalon_jtag_uart_write+0x1e0>
         break;
   3334c:	0001883a 	nop
   * Now that access to the circular buffer is complete, release the write
   * semaphore so that other threads can access the buffer.
   */
  ALT_SEM_POST (sp->write_lock);

  if (ptr != start)
   33350:	e0fff717 	ldw	r3,-36(fp)
   33354:	e0bffd17 	ldw	r2,-12(fp)
   33358:	18800426 	beq	r3,r2,3336c <altera_avalon_jtag_uart_write+0x1fc>
    return ptr - start;
   3335c:	e0fff717 	ldw	r3,-36(fp)
   33360:	e0bffd17 	ldw	r2,-12(fp)
   33364:	1885c83a 	sub	r2,r3,r2
   33368:	00000606 	br	33384 <altera_avalon_jtag_uart_write+0x214>
  else if (flags & O_NONBLOCK)
   3336c:	e0bff517 	ldw	r2,-44(fp)
   33370:	1090000c 	andi	r2,r2,16384
   33374:	10000226 	beq	r2,zero,33380 <altera_avalon_jtag_uart_write+0x210>
    return -EWOULDBLOCK;
   33378:	00bffd44 	movi	r2,-11
   3337c:	00000106 	br	33384 <altera_avalon_jtag_uart_write+0x214>
    sp->tx_out = sp->tx_in = 0;
    return ptr - start + count;
  }
#endif
  else
    return -EIO; /* Host not connected */
   33380:	00bffec4 	movi	r2,-5
}
   33384:	e037883a 	mov	sp,fp
   33388:	dfc00117 	ldw	ra,4(sp)
   3338c:	df000017 	ldw	fp,0(sp)
   33390:	dec00204 	addi	sp,sp,8
   33394:	f800283a 	ret

00033398 <alt_avalon_timer_sc_irq>:
#ifdef ALT_ENHANCED_INTERRUPT_API_PRESENT
static void alt_avalon_timer_sc_irq (void* base)
#else
static void alt_avalon_timer_sc_irq (void* base, alt_u32 id)
#endif
{
   33398:	defff904 	addi	sp,sp,-28
   3339c:	dfc00615 	stw	ra,24(sp)
   333a0:	df000515 	stw	fp,20(sp)
   333a4:	df000504 	addi	fp,sp,20
   333a8:	e13ffc15 	stw	r4,-16(fp)
   333ac:	e17ffb15 	stw	r5,-20(fp)
  alt_irq_context cpu_sr;
  
  /* clear the interrupt */
  IOWR_ALTERA_AVALON_TIMER_STATUS (base, 0);
   333b0:	0007883a 	mov	r3,zero
   333b4:	e0bffc17 	ldw	r2,-16(fp)
   333b8:	10c00035 	stwio	r3,0(r2)
  /* 
   * Dummy read to ensure IRQ is negated before the ISR returns.
   * The control register is read because reading the status
   * register has side-effects per the register map documentation.
   */
  IORD_ALTERA_AVALON_TIMER_CONTROL (base);
   333bc:	e0bffc17 	ldw	r2,-16(fp)
   333c0:	10800104 	addi	r2,r2,4
   333c4:	10800037 	ldwio	r2,0(r2)
  NIOS2_READ_STATUS (context);
   333c8:	0005303a 	rdctl	r2,status
   333cc:	e0bffd15 	stw	r2,-12(fp)
  NIOS2_WRITE_STATUS (context & ~NIOS2_STATUS_PIE_MSK);
   333d0:	e0fffd17 	ldw	r3,-12(fp)
   333d4:	00bfff84 	movi	r2,-2
   333d8:	1884703a 	and	r2,r3,r2
   333dc:	1001703a 	wrctl	status,r2
  return context;
   333e0:	e0bffd17 	ldw	r2,-12(fp)

  /* 
   * Notify the system of a clock tick. disable interrupts 
   * during this time to safely support ISR preemption
   */
  cpu_sr = alt_irq_disable_all();
   333e4:	e0bfff15 	stw	r2,-4(fp)
  alt_tick ();
   333e8:	0033fc80 	call	33fc8 <alt_tick>
   333ec:	e0bfff17 	ldw	r2,-4(fp)
   333f0:	e0bffe15 	stw	r2,-8(fp)
  NIOS2_WRITE_STATUS (context);
   333f4:	e0bffe17 	ldw	r2,-8(fp)
   333f8:	1001703a 	wrctl	status,r2
}
   333fc:	0001883a 	nop
  alt_irq_enable_all(cpu_sr);
}
   33400:	0001883a 	nop
   33404:	e037883a 	mov	sp,fp
   33408:	dfc00117 	ldw	ra,4(sp)
   3340c:	df000017 	ldw	fp,0(sp)
   33410:	dec00204 	addi	sp,sp,8
   33414:	f800283a 	ret

00033418 <alt_avalon_timer_sc_init>:
 * auto-generated alt_sys_init() function.
 */

void alt_avalon_timer_sc_init (void* base, alt_u32 irq_controller_id, 
                                alt_u32 irq, alt_u32 freq)
{
   33418:	defff904 	addi	sp,sp,-28
   3341c:	dfc00615 	stw	ra,24(sp)
   33420:	df000515 	stw	fp,20(sp)
   33424:	df000504 	addi	fp,sp,20
   33428:	e13ffe15 	stw	r4,-8(fp)
   3342c:	e17ffd15 	stw	r5,-12(fp)
   33430:	e1bffc15 	stw	r6,-16(fp)
   33434:	e1fffb15 	stw	r7,-20(fp)
   33438:	e0bffb17 	ldw	r2,-20(fp)
   3343c:	e0bfff15 	stw	r2,-4(fp)
 * in order to initialise the value of the clock frequency.
 */

static ALT_INLINE int ALT_ALWAYS_INLINE alt_sysclk_init (alt_u32 nticks)
{
  if (! _alt_tick_rate)
   33440:	d0a71f17 	ldw	r2,-25476(gp)
   33444:	1000031e 	bne	r2,zero,33454 <alt_avalon_timer_sc_init+0x3c>
  {
    _alt_tick_rate = nticks;
   33448:	e0bfff17 	ldw	r2,-4(fp)
   3344c:	d0a71f15 	stw	r2,-25476(gp)
    return 0;
   33450:	00000106 	br	33458 <alt_avalon_timer_sc_init+0x40>
  }
  else
  {
    return -1;
   33454:	0001883a 	nop
  
  alt_sysclk_init (freq);
  
  /* set to free running mode */
  
  IOWR_ALTERA_AVALON_TIMER_CONTROL (base, 
   33458:	e0bffe17 	ldw	r2,-8(fp)
   3345c:	10800104 	addi	r2,r2,4
   33460:	00c001c4 	movi	r3,7
   33464:	10c00035 	stwio	r3,0(r2)
  /* register the interrupt handler, and enable the interrupt */
#ifdef ALT_ENHANCED_INTERRUPT_API_PRESENT
  alt_ic_isr_register(irq_controller_id, irq, alt_avalon_timer_sc_irq, 
                      base, NULL);
#else
  alt_irq_register (irq, base, alt_avalon_timer_sc_irq);
   33468:	018000f4 	movhi	r6,3
   3346c:	318ce604 	addi	r6,r6,13208
   33470:	e17ffe17 	ldw	r5,-8(fp)
   33474:	e13ffc17 	ldw	r4,-16(fp)
   33478:	003198c0 	call	3198c <alt_irq_register>
#endif  
}
   3347c:	0001883a 	nop
   33480:	e037883a 	mov	sp,fp
   33484:	dfc00117 	ldw	ra,4(sp)
   33488:	df000017 	ldw	fp,0(sp)
   3348c:	dec00204 	addi	sp,sp,8
   33490:	f800283a 	ret

00033494 <alt_up_accelerometer_spi_open_dev>:

#include "altera_up_avalon_accelerometer_spi.h"
#include "altera_up_avalon_accelerometer_spi_regs.h"

alt_up_accelerometer_spi_dev* alt_up_accelerometer_spi_open_dev(const char* name)
{
   33494:	defffc04 	addi	sp,sp,-16
   33498:	dfc00315 	stw	ra,12(sp)
   3349c:	df000215 	stw	fp,8(sp)
   334a0:	df000204 	addi	fp,sp,8
   334a4:	e13ffe15 	stw	r4,-8(fp)
  // find the device from the device list 
  // (see altera_hal/HAL/inc/priv/alt_file.h 
  // and altera_hal/HAL/src/alt_find_dev.c 
  // for details)
  alt_up_accelerometer_spi_dev *dev = (alt_up_accelerometer_spi_dev*)alt_find_dev(name, &alt_dev_list);
   334a8:	d1600704 	addi	r5,gp,-32740
   334ac:	e13ffe17 	ldw	r4,-8(fp)
   334b0:	0033b8c0 	call	33b8c <alt_find_dev>
   334b4:	e0bfff15 	stw	r2,-4(fp)

  return dev;
   334b8:	e0bfff17 	ldw	r2,-4(fp)
}
   334bc:	e037883a 	mov	sp,fp
   334c0:	dfc00117 	ldw	ra,4(sp)
   334c4:	df000017 	ldw	fp,0(sp)
   334c8:	dec00204 	addi	sp,sp,8
   334cc:	f800283a 	ret

000334d0 <alt_up_accelerometer_spi_read_address_register>:
 * @param addr -- a pointer to the location where the read address should be stored
 *
 * @return 0 for success 
 **/
int alt_up_accelerometer_spi_read_address_register(alt_up_accelerometer_spi_dev *accel_spi, alt_u8 *addr)
{
   334d0:	defffd04 	addi	sp,sp,-12
   334d4:	df000215 	stw	fp,8(sp)
   334d8:	df000204 	addi	fp,sp,8
   334dc:	e13fff15 	stw	r4,-4(fp)
   334e0:	e17ffe15 	stw	r5,-8(fp)
	// reads data from the device Address register
	*(addr) = IORD_ALT_UP_ACCELEROMETER_SPI_ADDRESS(accel_spi->base); 
   334e4:	e0bfff17 	ldw	r2,-4(fp)
   334e8:	10800a17 	ldw	r2,40(r2)
   334ec:	10800023 	ldbuio	r2,0(r2)
   334f0:	10803fcc 	andi	r2,r2,255
   334f4:	1007883a 	mov	r3,r2
   334f8:	e0bffe17 	ldw	r2,-8(fp)
   334fc:	10c00005 	stb	r3,0(r2)

	return 0;
   33500:	0005883a 	mov	r2,zero
}
   33504:	e037883a 	mov	sp,fp
   33508:	df000017 	ldw	fp,0(sp)
   3350c:	dec00104 	addi	sp,sp,4
   33510:	f800283a 	ret

00033514 <alt_up_accelerometer_spi_read>:
 * @param data -- a pointer to the location where the read data should be stored
 *
 * @return 0 for success
 **/
int alt_up_accelerometer_spi_read(alt_up_accelerometer_spi_dev *accel_spi, alt_u8 addr, alt_u8 *data)
{
   33514:	defffc04 	addi	sp,sp,-16
   33518:	df000315 	stw	fp,12(sp)
   3351c:	df000304 	addi	fp,sp,12
   33520:	e13fff15 	stw	r4,-4(fp)
   33524:	2805883a 	mov	r2,r5
   33528:	e1bffd15 	stw	r6,-12(fp)
   3352c:	e0bffe05 	stb	r2,-8(fp)
	// set the register address in the Address register
	IOWR_ALT_UP_ACCELEROMETER_SPI_ADDRESS(accel_spi->base, addr & ALT_UP_ACCELEROMETER_SPI_ADDRESS_ADDR_MSK); 
   33530:	e0bfff17 	ldw	r2,-4(fp)
   33534:	10800a17 	ldw	r2,40(r2)
   33538:	1007883a 	mov	r3,r2
   3353c:	e0bffe03 	ldbu	r2,-8(fp)
   33540:	10800fcc 	andi	r2,r2,63
   33544:	18800025 	stbio	r2,0(r3)

	// read data to the device Data register
	*(data) = IORD_ALT_UP_ACCELEROMETER_SPI_DATA(accel_spi->base) & ALT_UP_ACCELEROMETER_SPI_DATA_DATA_MSK;
   33548:	e0bfff17 	ldw	r2,-4(fp)
   3354c:	10800a17 	ldw	r2,40(r2)
   33550:	10800044 	addi	r2,r2,1
   33554:	10800023 	ldbuio	r2,0(r2)
   33558:	10803fcc 	andi	r2,r2,255
   3355c:	1007883a 	mov	r3,r2
   33560:	e0bffd17 	ldw	r2,-12(fp)
   33564:	10c00005 	stb	r3,0(r2)

	return 0;
   33568:	0005883a 	mov	r2,zero
}
   3356c:	e037883a 	mov	sp,fp
   33570:	df000017 	ldw	fp,0(sp)
   33574:	dec00104 	addi	sp,sp,4
   33578:	f800283a 	ret

0003357c <alt_up_accelerometer_spi_write>:
 * @param data -- the data to be written
 *
 * @return 0 for success
 **/
int alt_up_accelerometer_spi_write(alt_up_accelerometer_spi_dev *accel_spi, alt_u8 addr, alt_u8 data)
{
   3357c:	defffc04 	addi	sp,sp,-16
   33580:	df000315 	stw	fp,12(sp)
   33584:	df000304 	addi	fp,sp,12
   33588:	e13fff15 	stw	r4,-4(fp)
   3358c:	2805883a 	mov	r2,r5
   33590:	3007883a 	mov	r3,r6
   33594:	e0bffe05 	stb	r2,-8(fp)
   33598:	1805883a 	mov	r2,r3
   3359c:	e0bffd05 	stb	r2,-12(fp)
	// set the register address in the Address register
	IOWR_ALT_UP_ACCELEROMETER_SPI_ADDRESS(accel_spi->base, addr & ALT_UP_ACCELEROMETER_SPI_ADDRESS_ADDR_MSK); 
   335a0:	e0bfff17 	ldw	r2,-4(fp)
   335a4:	10800a17 	ldw	r2,40(r2)
   335a8:	1007883a 	mov	r3,r2
   335ac:	e0bffe03 	ldbu	r2,-8(fp)
   335b0:	10800fcc 	andi	r2,r2,63
   335b4:	18800025 	stbio	r2,0(r3)

	// write data to the device Data register
	IOWR_ALT_UP_ACCELEROMETER_SPI_DATA(accel_spi->base, data & ALT_UP_ACCELEROMETER_SPI_DATA_DATA_MSK); 
   335b8:	e0bfff17 	ldw	r2,-4(fp)
   335bc:	10800a17 	ldw	r2,40(r2)
   335c0:	10800044 	addi	r2,r2,1
   335c4:	1007883a 	mov	r3,r2
   335c8:	e0bffd03 	ldbu	r2,-12(fp)
   335cc:	18800025 	stbio	r2,0(r3)

	return 0;
   335d0:	0005883a 	mov	r2,zero
}
   335d4:	e037883a 	mov	sp,fp
   335d8:	df000017 	ldw	fp,0(sp)
   335dc:	dec00104 	addi	sp,sp,4
   335e0:	f800283a 	ret

000335e4 <alt_up_accelerometer_spi_read_x_axis>:
 * @param x_axis -- a pointer to the location where the x axis data should be stored
 *
 * @return 0 for success or -1 for failure
 **/
int alt_up_accelerometer_spi_read_x_axis(alt_up_accelerometer_spi_dev *accel_spi, alt_32 *x_axis)
{
   335e4:	defffd04 	addi	sp,sp,-12
   335e8:	df000215 	stw	fp,8(sp)
   335ec:	df000204 	addi	fp,sp,8
   335f0:	e13fff15 	stw	r4,-4(fp)
   335f4:	e17ffe15 	stw	r5,-8(fp)
	// set the register address in the Address register
	IOWR_ALT_UP_ACCELEROMETER_SPI_ADDRESS(accel_spi->base, ACCELEROMETER_SPI_X_AXIS_LOWER_BYTE & ALT_UP_ACCELEROMETER_SPI_ADDRESS_ADDR_MSK); 
   335f8:	e0bfff17 	ldw	r2,-4(fp)
   335fc:	10800a17 	ldw	r2,40(r2)
   33600:	1007883a 	mov	r3,r2
   33604:	00800c84 	movi	r2,50
   33608:	18800025 	stbio	r2,0(r3)

	// read data to the device Data register
	*(x_axis) = IORD_ALT_UP_ACCELEROMETER_SPI_DATA(accel_spi->base) & ALT_UP_ACCELEROMETER_SPI_DATA_DATA_MSK;
   3360c:	e0bfff17 	ldw	r2,-4(fp)
   33610:	10800a17 	ldw	r2,40(r2)
   33614:	10800044 	addi	r2,r2,1
   33618:	10800023 	ldbuio	r2,0(r2)
   3361c:	10803fcc 	andi	r2,r2,255
   33620:	10ffffcc 	andi	r3,r2,65535
   33624:	e0bffe17 	ldw	r2,-8(fp)
   33628:	10c00015 	stw	r3,0(r2)

	// set the register address in the Address register
	IOWR_ALT_UP_ACCELEROMETER_SPI_ADDRESS(accel_spi->base, ACCELEROMETER_SPI_X_AXIS_UPPER_BYTE & ALT_UP_ACCELEROMETER_SPI_ADDRESS_ADDR_MSK); 
   3362c:	e0bfff17 	ldw	r2,-4(fp)
   33630:	10800a17 	ldw	r2,40(r2)
   33634:	1007883a 	mov	r3,r2
   33638:	00800cc4 	movi	r2,51
   3363c:	18800025 	stbio	r2,0(r3)

	// read data to the device Data register
	*(x_axis) += (IORD_ALT_UP_ACCELEROMETER_SPI_DATA(accel_spi->base) & ALT_UP_ACCELEROMETER_SPI_DATA_DATA_MSK) << 8;
   33640:	e0bfff17 	ldw	r2,-4(fp)
   33644:	10800a17 	ldw	r2,40(r2)
   33648:	10800044 	addi	r2,r2,1
   3364c:	10800023 	ldbuio	r2,0(r2)
   33650:	10803fcc 	andi	r2,r2,255
   33654:	1006923a 	slli	r3,r2,8
   33658:	00804034 	movhi	r2,256
   3365c:	10bfc004 	addi	r2,r2,-256
   33660:	1884703a 	and	r2,r3,r2
   33664:	e0fffe17 	ldw	r3,-8(fp)
   33668:	18c00017 	ldw	r3,0(r3)
   3366c:	10c5883a 	add	r2,r2,r3
   33670:	1007883a 	mov	r3,r2
   33674:	e0bffe17 	ldw	r2,-8(fp)
   33678:	10c00015 	stw	r3,0(r2)

	if (*(x_axis) & 0x00008000)
   3367c:	e0bffe17 	ldw	r2,-8(fp)
   33680:	10800017 	ldw	r2,0(r2)
   33684:	10a0000c 	andi	r2,r2,32768
   33688:	10000626 	beq	r2,zero,336a4 <alt_up_accelerometer_spi_read_x_axis+0xc0>
	{
		*(x_axis) |= 0xFFFF0000;
   3368c:	e0bffe17 	ldw	r2,-8(fp)
   33690:	10800017 	ldw	r2,0(r2)
   33694:	10bffff4 	orhi	r2,r2,65535
   33698:	1007883a 	mov	r3,r2
   3369c:	e0bffe17 	ldw	r2,-8(fp)
   336a0:	10c00015 	stw	r3,0(r2)
	}

	return 0;
   336a4:	0005883a 	mov	r2,zero
}
   336a8:	e037883a 	mov	sp,fp
   336ac:	df000017 	ldw	fp,0(sp)
   336b0:	dec00104 	addi	sp,sp,4
   336b4:	f800283a 	ret

000336b8 <alt_up_accelerometer_spi_read_y_axis>:
 * @param y_axis -- a pointer to the location where the y axis data should be stored
 *
 * @return 0 for success or -1 for failure
 **/
int alt_up_accelerometer_spi_read_y_axis(alt_up_accelerometer_spi_dev *accel_spi, alt_32 *y_axis)
{
   336b8:	defffd04 	addi	sp,sp,-12
   336bc:	df000215 	stw	fp,8(sp)
   336c0:	df000204 	addi	fp,sp,8
   336c4:	e13fff15 	stw	r4,-4(fp)
   336c8:	e17ffe15 	stw	r5,-8(fp)
	// set the register address in the Address register
	IOWR_ALT_UP_ACCELEROMETER_SPI_ADDRESS(accel_spi->base, ACCELEROMETER_SPI_Y_AXIS_LOWER_BYTE & ALT_UP_ACCELEROMETER_SPI_ADDRESS_ADDR_MSK); 
   336cc:	e0bfff17 	ldw	r2,-4(fp)
   336d0:	10800a17 	ldw	r2,40(r2)
   336d4:	1007883a 	mov	r3,r2
   336d8:	00800d04 	movi	r2,52
   336dc:	18800025 	stbio	r2,0(r3)

	// read data to the device Data register
	*(y_axis) = IORD_ALT_UP_ACCELEROMETER_SPI_DATA(accel_spi->base) & ALT_UP_ACCELEROMETER_SPI_DATA_DATA_MSK;
   336e0:	e0bfff17 	ldw	r2,-4(fp)
   336e4:	10800a17 	ldw	r2,40(r2)
   336e8:	10800044 	addi	r2,r2,1
   336ec:	10800023 	ldbuio	r2,0(r2)
   336f0:	10803fcc 	andi	r2,r2,255
   336f4:	10ffffcc 	andi	r3,r2,65535
   336f8:	e0bffe17 	ldw	r2,-8(fp)
   336fc:	10c00015 	stw	r3,0(r2)

	// set the register address in the Address register
	IOWR_ALT_UP_ACCELEROMETER_SPI_ADDRESS(accel_spi->base, ACCELEROMETER_SPI_Y_AXIS_UPPER_BYTE & ALT_UP_ACCELEROMETER_SPI_ADDRESS_ADDR_MSK); 
   33700:	e0bfff17 	ldw	r2,-4(fp)
   33704:	10800a17 	ldw	r2,40(r2)
   33708:	1007883a 	mov	r3,r2
   3370c:	00800d44 	movi	r2,53
   33710:	18800025 	stbio	r2,0(r3)

	// read data to the device Data register
	*(y_axis) += (IORD_ALT_UP_ACCELEROMETER_SPI_DATA(accel_spi->base) & ALT_UP_ACCELEROMETER_SPI_DATA_DATA_MSK) << 8;
   33714:	e0bfff17 	ldw	r2,-4(fp)
   33718:	10800a17 	ldw	r2,40(r2)
   3371c:	10800044 	addi	r2,r2,1
   33720:	10800023 	ldbuio	r2,0(r2)
   33724:	10803fcc 	andi	r2,r2,255
   33728:	1006923a 	slli	r3,r2,8
   3372c:	00804034 	movhi	r2,256
   33730:	10bfc004 	addi	r2,r2,-256
   33734:	1884703a 	and	r2,r3,r2
   33738:	e0fffe17 	ldw	r3,-8(fp)
   3373c:	18c00017 	ldw	r3,0(r3)
   33740:	10c5883a 	add	r2,r2,r3
   33744:	1007883a 	mov	r3,r2
   33748:	e0bffe17 	ldw	r2,-8(fp)
   3374c:	10c00015 	stw	r3,0(r2)

	if (*(y_axis) & 0x00008000)
   33750:	e0bffe17 	ldw	r2,-8(fp)
   33754:	10800017 	ldw	r2,0(r2)
   33758:	10a0000c 	andi	r2,r2,32768
   3375c:	10000626 	beq	r2,zero,33778 <alt_up_accelerometer_spi_read_y_axis+0xc0>
	{
		*(y_axis) |= 0xFFFF0000;
   33760:	e0bffe17 	ldw	r2,-8(fp)
   33764:	10800017 	ldw	r2,0(r2)
   33768:	10bffff4 	orhi	r2,r2,65535
   3376c:	1007883a 	mov	r3,r2
   33770:	e0bffe17 	ldw	r2,-8(fp)
   33774:	10c00015 	stw	r3,0(r2)
	}

	return 0;
   33778:	0005883a 	mov	r2,zero
}
   3377c:	e037883a 	mov	sp,fp
   33780:	df000017 	ldw	fp,0(sp)
   33784:	dec00104 	addi	sp,sp,4
   33788:	f800283a 	ret

0003378c <alt_up_accelerometer_spi_read_z_axis>:
 * @param z_axis -- a pointer to the location where the z axis data should be stored
 *
 * @return 0 for success or -1 for failure
 **/
int alt_up_accelerometer_spi_read_z_axis(alt_up_accelerometer_spi_dev *accel_spi, alt_32 *z_axis)
{
   3378c:	defffd04 	addi	sp,sp,-12
   33790:	df000215 	stw	fp,8(sp)
   33794:	df000204 	addi	fp,sp,8
   33798:	e13fff15 	stw	r4,-4(fp)
   3379c:	e17ffe15 	stw	r5,-8(fp)
	// set the register address in the Address register
	IOWR_ALT_UP_ACCELEROMETER_SPI_ADDRESS(accel_spi->base, ACCELEROMETER_SPI_Z_AXIS_LOWER_BYTE & ALT_UP_ACCELEROMETER_SPI_ADDRESS_ADDR_MSK); 
   337a0:	e0bfff17 	ldw	r2,-4(fp)
   337a4:	10800a17 	ldw	r2,40(r2)
   337a8:	1007883a 	mov	r3,r2
   337ac:	00800d84 	movi	r2,54
   337b0:	18800025 	stbio	r2,0(r3)

	// read data to the device Data register
	*(z_axis) = IORD_ALT_UP_ACCELEROMETER_SPI_DATA(accel_spi->base) & ALT_UP_ACCELEROMETER_SPI_DATA_DATA_MSK;
   337b4:	e0bfff17 	ldw	r2,-4(fp)
   337b8:	10800a17 	ldw	r2,40(r2)
   337bc:	10800044 	addi	r2,r2,1
   337c0:	10800023 	ldbuio	r2,0(r2)
   337c4:	10803fcc 	andi	r2,r2,255
   337c8:	10ffffcc 	andi	r3,r2,65535
   337cc:	e0bffe17 	ldw	r2,-8(fp)
   337d0:	10c00015 	stw	r3,0(r2)

	// set the register address in the Address register
	IOWR_ALT_UP_ACCELEROMETER_SPI_ADDRESS(accel_spi->base, ACCELEROMETER_SPI_Z_AXIS_UPPER_BYTE & ALT_UP_ACCELEROMETER_SPI_ADDRESS_ADDR_MSK); 
   337d4:	e0bfff17 	ldw	r2,-4(fp)
   337d8:	10800a17 	ldw	r2,40(r2)
   337dc:	1007883a 	mov	r3,r2
   337e0:	00800dc4 	movi	r2,55
   337e4:	18800025 	stbio	r2,0(r3)

	// read data to the device Data register
	*(z_axis) += (IORD_ALT_UP_ACCELEROMETER_SPI_DATA(accel_spi->base) & ALT_UP_ACCELEROMETER_SPI_DATA_DATA_MSK) << 8;
   337e8:	e0bfff17 	ldw	r2,-4(fp)
   337ec:	10800a17 	ldw	r2,40(r2)
   337f0:	10800044 	addi	r2,r2,1
   337f4:	10800023 	ldbuio	r2,0(r2)
   337f8:	10803fcc 	andi	r2,r2,255
   337fc:	1006923a 	slli	r3,r2,8
   33800:	00804034 	movhi	r2,256
   33804:	10bfc004 	addi	r2,r2,-256
   33808:	1884703a 	and	r2,r3,r2
   3380c:	e0fffe17 	ldw	r3,-8(fp)
   33810:	18c00017 	ldw	r3,0(r3)
   33814:	10c5883a 	add	r2,r2,r3
   33818:	1007883a 	mov	r3,r2
   3381c:	e0bffe17 	ldw	r2,-8(fp)
   33820:	10c00015 	stw	r3,0(r2)

	if (*(z_axis) & 0x00008000)
   33824:	e0bffe17 	ldw	r2,-8(fp)
   33828:	10800017 	ldw	r2,0(r2)
   3382c:	10a0000c 	andi	r2,r2,32768
   33830:	10000626 	beq	r2,zero,3384c <alt_up_accelerometer_spi_read_z_axis+0xc0>
	{
		*(z_axis) |= 0xFFFF0000;
   33834:	e0bffe17 	ldw	r2,-8(fp)
   33838:	10800017 	ldw	r2,0(r2)
   3383c:	10bffff4 	orhi	r2,r2,65535
   33840:	1007883a 	mov	r3,r2
   33844:	e0bffe17 	ldw	r2,-8(fp)
   33848:	10c00015 	stw	r3,0(r2)
	}

	return 0;
   3384c:	0005883a 	mov	r2,zero
}
   33850:	e037883a 	mov	sp,fp
   33854:	df000017 	ldw	fp,0(sp)
   33858:	dec00104 	addi	sp,sp,4
   3385c:	f800283a 	ret

00033860 <alt_alarm_start>:
 */ 

int alt_alarm_start (alt_alarm* alarm, alt_u32 nticks,
                     alt_u32 (*callback) (void* context),
                     void* context)
{
   33860:	defff504 	addi	sp,sp,-44
   33864:	df000a15 	stw	fp,40(sp)
   33868:	df000a04 	addi	fp,sp,40
   3386c:	e13ff915 	stw	r4,-28(fp)
   33870:	e17ff815 	stw	r5,-32(fp)
   33874:	e1bff715 	stw	r6,-36(fp)
   33878:	e1fff615 	stw	r7,-40(fp)
  alt_irq_context irq_context;
  alt_u32 current_nticks = 0;
   3387c:	e03fff15 	stw	zero,-4(fp)
  return _alt_tick_rate;
   33880:	d0a71f17 	ldw	r2,-25476(gp)
  
  if (alt_ticks_per_second ())
   33884:	10003e26 	beq	r2,zero,33980 <alt_alarm_start+0x120>
  {
    if (alarm)
   33888:	e0bff917 	ldw	r2,-28(fp)
   3388c:	10003a26 	beq	r2,zero,33978 <alt_alarm_start+0x118>
    {
      alarm->callback = callback;
   33890:	e0bff917 	ldw	r2,-28(fp)
   33894:	e0fff717 	ldw	r3,-36(fp)
   33898:	10c00315 	stw	r3,12(r2)
      alarm->context  = context;
   3389c:	e0bff917 	ldw	r2,-28(fp)
   338a0:	e0fff617 	ldw	r3,-40(fp)
   338a4:	10c00515 	stw	r3,20(r2)
  NIOS2_READ_STATUS (context);
   338a8:	0005303a 	rdctl	r2,status
   338ac:	e0bffd15 	stw	r2,-12(fp)
  NIOS2_WRITE_STATUS (context & ~NIOS2_STATUS_PIE_MSK);
   338b0:	e0fffd17 	ldw	r3,-12(fp)
   338b4:	00bfff84 	movi	r2,-2
   338b8:	1884703a 	and	r2,r3,r2
   338bc:	1001703a 	wrctl	status,r2
  return context;
   338c0:	e0bffd17 	ldw	r2,-12(fp)
 
      irq_context = alt_irq_disable_all ();
   338c4:	e0bffe15 	stw	r2,-8(fp)
 * alt_nticks() returns the elapsed number of system clock ticks since reset.
 */

static ALT_INLINE alt_u32 ALT_ALWAYS_INLINE alt_nticks (void)
{
  return _alt_nticks;
   338c8:	d0a72017 	ldw	r2,-25472(gp)
      
      current_nticks = alt_nticks();
   338cc:	e0bfff15 	stw	r2,-4(fp)
      
      alarm->time = nticks + current_nticks + 1; 
   338d0:	e0fff817 	ldw	r3,-32(fp)
   338d4:	e0bfff17 	ldw	r2,-4(fp)
   338d8:	1885883a 	add	r2,r3,r2
   338dc:	10c00044 	addi	r3,r2,1
   338e0:	e0bff917 	ldw	r2,-28(fp)
   338e4:	10c00215 	stw	r3,8(r2)
      /* 
       * If the desired alarm time causes a roll-over, set the rollover
       * flag. This will prevent the subsequent tick event from causing
       * an alarm too early.
       */
      if(alarm->time < current_nticks)
   338e8:	e0bff917 	ldw	r2,-28(fp)
   338ec:	10c00217 	ldw	r3,8(r2)
   338f0:	e0bfff17 	ldw	r2,-4(fp)
   338f4:	1880042e 	bgeu	r3,r2,33908 <alt_alarm_start+0xa8>
      {
        alarm->rollover = 1;
   338f8:	e0bff917 	ldw	r2,-28(fp)
   338fc:	00c00044 	movi	r3,1
   33900:	10c00405 	stb	r3,16(r2)
   33904:	00000206 	br	33910 <alt_alarm_start+0xb0>
      }
      else
      {
        alarm->rollover = 0;
   33908:	e0bff917 	ldw	r2,-28(fp)
   3390c:	10000405 	stb	zero,16(r2)
      }
    
      alt_llist_insert (&alt_alarm_list, &alarm->llist);
   33910:	e0bff917 	ldw	r2,-28(fp)
   33914:	d0e00d04 	addi	r3,gp,-32716
   33918:	e0fffb15 	stw	r3,-20(fp)
   3391c:	e0bffa15 	stw	r2,-24(fp)
 */

static ALT_INLINE void ALT_ALWAYS_INLINE alt_llist_insert(alt_llist* list, 
                alt_llist* entry)
{
  entry->previous = list;
   33920:	e0bffa17 	ldw	r2,-24(fp)
   33924:	e0fffb17 	ldw	r3,-20(fp)
   33928:	10c00115 	stw	r3,4(r2)
  entry->next     = list->next;
   3392c:	e0bffb17 	ldw	r2,-20(fp)
   33930:	10c00017 	ldw	r3,0(r2)
   33934:	e0bffa17 	ldw	r2,-24(fp)
   33938:	10c00015 	stw	r3,0(r2)

  list->next->previous = entry;
   3393c:	e0bffb17 	ldw	r2,-20(fp)
   33940:	10800017 	ldw	r2,0(r2)
   33944:	e0fffa17 	ldw	r3,-24(fp)
   33948:	10c00115 	stw	r3,4(r2)
  list->next           = entry;
   3394c:	e0bffb17 	ldw	r2,-20(fp)
   33950:	e0fffa17 	ldw	r3,-24(fp)
   33954:	10c00015 	stw	r3,0(r2)
}
   33958:	0001883a 	nop
   3395c:	e0bffe17 	ldw	r2,-8(fp)
   33960:	e0bffc15 	stw	r2,-16(fp)
  NIOS2_WRITE_STATUS (context);
   33964:	e0bffc17 	ldw	r2,-16(fp)
   33968:	1001703a 	wrctl	status,r2
}
   3396c:	0001883a 	nop
      alt_irq_enable_all (irq_context);

      return 0;
   33970:	0005883a 	mov	r2,zero
   33974:	00000306 	br	33984 <alt_alarm_start+0x124>
    }
    else
    {
      return -EINVAL;
   33978:	00bffa84 	movi	r2,-22
   3397c:	00000106 	br	33984 <alt_alarm_start+0x124>
    }
  }
  else
  {
    return -ENOTSUP;
   33980:	00bfde84 	movi	r2,-134
  }
}
   33984:	e037883a 	mov	sp,fp
   33988:	df000017 	ldw	fp,0(sp)
   3398c:	dec00104 	addi	sp,sp,4
   33990:	f800283a 	ret

00033994 <alt_dcache_flush_all>:
/*
 * alt_dcache_flush_all() is called to flush the entire data cache.
 */

void alt_dcache_flush_all (void)
{
   33994:	defffe04 	addi	sp,sp,-8
   33998:	df000115 	stw	fp,4(sp)
   3399c:	df000104 	addi	fp,sp,4
#if NIOS2_DCACHE_SIZE > 0
  char* i;
  
  for (i = (char*) 0; i < (char*) NIOS2_DCACHE_SIZE; i+= NIOS2_DCACHE_LINE_SIZE)
   339a0:	e03fff15 	stw	zero,-4(fp)
   339a4:	00000506 	br	339bc <alt_dcache_flush_all+0x28>
  { 
    __asm__ volatile ("flushd (%0)" :: "r" (i));
   339a8:	e0bfff17 	ldw	r2,-4(fp)
   339ac:	1000003b 	flushd	0(r2)
  for (i = (char*) 0; i < (char*) NIOS2_DCACHE_SIZE; i+= NIOS2_DCACHE_LINE_SIZE)
   339b0:	e0bfff17 	ldw	r2,-4(fp)
   339b4:	10800804 	addi	r2,r2,32
   339b8:	e0bfff15 	stw	r2,-4(fp)
   339bc:	e0bfff17 	ldw	r2,-4(fp)
   339c0:	10820030 	cmpltui	r2,r2,2048
   339c4:	103ff81e 	bne	r2,zero,339a8 <alt_dcache_flush_all+0x14>
  }
#endif /* NIOS2_DCACHE_SIZE > 0 */
}
   339c8:	0001883a 	nop
   339cc:	0001883a 	nop
   339d0:	e037883a 	mov	sp,fp
   339d4:	df000017 	ldw	fp,0(sp)
   339d8:	dec00104 	addi	sp,sp,4
   339dc:	f800283a 	ret

000339e0 <alt_get_errno>:
{
   339e0:	defffe04 	addi	sp,sp,-8
   339e4:	dfc00115 	stw	ra,4(sp)
   339e8:	df000015 	stw	fp,0(sp)
   339ec:	d839883a 	mov	fp,sp
  return ((alt_errno) ? alt_errno() : &errno);
   339f0:	d0a00a17 	ldw	r2,-32728(gp)
   339f4:	10000326 	beq	r2,zero,33a04 <alt_get_errno+0x24>
   339f8:	d0a00a17 	ldw	r2,-32728(gp)
   339fc:	103ee83a 	callr	r2
   33a00:	00000106 	br	33a08 <alt_get_errno+0x28>
   33a04:	d0a71404 	addi	r2,gp,-25520
}
   33a08:	e037883a 	mov	sp,fp
   33a0c:	dfc00117 	ldw	ra,4(sp)
   33a10:	df000017 	ldw	fp,0(sp)
   33a14:	dec00204 	addi	sp,sp,8
   33a18:	f800283a 	ret

00033a1c <alt_dev_llist_insert>:
/*
 *
 */

int alt_dev_llist_insert (alt_dev_llist* dev, alt_llist* list)
{
   33a1c:	defffa04 	addi	sp,sp,-24
   33a20:	dfc00515 	stw	ra,20(sp)
   33a24:	df000415 	stw	fp,16(sp)
   33a28:	df000404 	addi	fp,sp,16
   33a2c:	e13ffd15 	stw	r4,-12(fp)
   33a30:	e17ffc15 	stw	r5,-16(fp)
  /*
   * check that the device exists, and that it has a valid name.
   */

  if (!dev || !dev->name)
   33a34:	e0bffd17 	ldw	r2,-12(fp)
   33a38:	10000326 	beq	r2,zero,33a48 <alt_dev_llist_insert+0x2c>
   33a3c:	e0bffd17 	ldw	r2,-12(fp)
   33a40:	10800217 	ldw	r2,8(r2)
   33a44:	1000061e 	bne	r2,zero,33a60 <alt_dev_llist_insert+0x44>
  {
    ALT_ERRNO = EINVAL;
   33a48:	00339e00 	call	339e0 <alt_get_errno>
   33a4c:	1007883a 	mov	r3,r2
   33a50:	00800584 	movi	r2,22
   33a54:	18800015 	stw	r2,0(r3)
    return -EINVAL;
   33a58:	00bffa84 	movi	r2,-22
   33a5c:	00001406 	br	33ab0 <alt_dev_llist_insert+0x94>
  
  /*
   * register the device.
   */
  
  alt_llist_insert(list, &dev->llist);
   33a60:	e0bffd17 	ldw	r2,-12(fp)
   33a64:	e0fffc17 	ldw	r3,-16(fp)
   33a68:	e0ffff15 	stw	r3,-4(fp)
   33a6c:	e0bffe15 	stw	r2,-8(fp)
  entry->previous = list;
   33a70:	e0bffe17 	ldw	r2,-8(fp)
   33a74:	e0ffff17 	ldw	r3,-4(fp)
   33a78:	10c00115 	stw	r3,4(r2)
  entry->next     = list->next;
   33a7c:	e0bfff17 	ldw	r2,-4(fp)
   33a80:	10c00017 	ldw	r3,0(r2)
   33a84:	e0bffe17 	ldw	r2,-8(fp)
   33a88:	10c00015 	stw	r3,0(r2)
  list->next->previous = entry;
   33a8c:	e0bfff17 	ldw	r2,-4(fp)
   33a90:	10800017 	ldw	r2,0(r2)
   33a94:	e0fffe17 	ldw	r3,-8(fp)
   33a98:	10c00115 	stw	r3,4(r2)
  list->next           = entry;
   33a9c:	e0bfff17 	ldw	r2,-4(fp)
   33aa0:	e0fffe17 	ldw	r3,-8(fp)
   33aa4:	10c00015 	stw	r3,0(r2)
}
   33aa8:	0001883a 	nop

  return 0;  
   33aac:	0005883a 	mov	r2,zero
}
   33ab0:	e037883a 	mov	sp,fp
   33ab4:	dfc00117 	ldw	ra,4(sp)
   33ab8:	df000017 	ldw	fp,0(sp)
   33abc:	dec00204 	addi	sp,sp,8
   33ac0:	f800283a 	ret

00033ac4 <_do_ctors>:
/*
 * Run the C++ static constructors.
 */

void _do_ctors(void)
{
   33ac4:	defffd04 	addi	sp,sp,-12
   33ac8:	dfc00215 	stw	ra,8(sp)
   33acc:	df000115 	stw	fp,4(sp)
   33ad0:	df000104 	addi	fp,sp,4
  constructor* ctor;

  for (ctor = &__CTOR_END__[-1]; ctor >= __CTOR_LIST__; ctor--)
   33ad4:	008000f4 	movhi	r2,3
   33ad8:	10919504 	addi	r2,r2,18004
   33adc:	e0bfff15 	stw	r2,-4(fp)
   33ae0:	00000606 	br	33afc <_do_ctors+0x38>
        (*ctor) (); 
   33ae4:	e0bfff17 	ldw	r2,-4(fp)
   33ae8:	10800017 	ldw	r2,0(r2)
   33aec:	103ee83a 	callr	r2
  for (ctor = &__CTOR_END__[-1]; ctor >= __CTOR_LIST__; ctor--)
   33af0:	e0bfff17 	ldw	r2,-4(fp)
   33af4:	10bfff04 	addi	r2,r2,-4
   33af8:	e0bfff15 	stw	r2,-4(fp)
   33afc:	e0ffff17 	ldw	r3,-4(fp)
   33b00:	008000f4 	movhi	r2,3
   33b04:	10919604 	addi	r2,r2,18008
   33b08:	18bff62e 	bgeu	r3,r2,33ae4 <_do_ctors+0x20>
}
   33b0c:	0001883a 	nop
   33b10:	0001883a 	nop
   33b14:	e037883a 	mov	sp,fp
   33b18:	dfc00117 	ldw	ra,4(sp)
   33b1c:	df000017 	ldw	fp,0(sp)
   33b20:	dec00204 	addi	sp,sp,8
   33b24:	f800283a 	ret

00033b28 <_do_dtors>:
/*
 * Run the C++ static destructors.
 */

void _do_dtors(void)
{
   33b28:	defffd04 	addi	sp,sp,-12
   33b2c:	dfc00215 	stw	ra,8(sp)
   33b30:	df000115 	stw	fp,4(sp)
   33b34:	df000104 	addi	fp,sp,4
  destructor* dtor;

  for (dtor = &__DTOR_END__[-1]; dtor >= __DTOR_LIST__; dtor--)
   33b38:	008000f4 	movhi	r2,3
   33b3c:	10919504 	addi	r2,r2,18004
   33b40:	e0bfff15 	stw	r2,-4(fp)
   33b44:	00000606 	br	33b60 <_do_dtors+0x38>
        (*dtor) (); 
   33b48:	e0bfff17 	ldw	r2,-4(fp)
   33b4c:	10800017 	ldw	r2,0(r2)
   33b50:	103ee83a 	callr	r2
  for (dtor = &__DTOR_END__[-1]; dtor >= __DTOR_LIST__; dtor--)
   33b54:	e0bfff17 	ldw	r2,-4(fp)
   33b58:	10bfff04 	addi	r2,r2,-4
   33b5c:	e0bfff15 	stw	r2,-4(fp)
   33b60:	e0ffff17 	ldw	r3,-4(fp)
   33b64:	008000f4 	movhi	r2,3
   33b68:	10919604 	addi	r2,r2,18008
   33b6c:	18bff62e 	bgeu	r3,r2,33b48 <_do_dtors+0x20>
}
   33b70:	0001883a 	nop
   33b74:	0001883a 	nop
   33b78:	e037883a 	mov	sp,fp
   33b7c:	dfc00117 	ldw	ra,4(sp)
   33b80:	df000017 	ldw	fp,0(sp)
   33b84:	dec00204 	addi	sp,sp,8
   33b88:	f800283a 	ret

00033b8c <alt_find_dev>:
 * "name" must be an exact match for the devices registered name for a match to
 * be found.
 */
 
alt_dev* alt_find_dev(const char* name, alt_llist* llist)
{
   33b8c:	defffa04 	addi	sp,sp,-24
   33b90:	dfc00515 	stw	ra,20(sp)
   33b94:	df000415 	stw	fp,16(sp)
   33b98:	df000404 	addi	fp,sp,16
   33b9c:	e13ffd15 	stw	r4,-12(fp)
   33ba0:	e17ffc15 	stw	r5,-16(fp)
  alt_dev* next = (alt_dev*) llist->next;
   33ba4:	e0bffc17 	ldw	r2,-16(fp)
   33ba8:	10800017 	ldw	r2,0(r2)
   33bac:	e0bfff15 	stw	r2,-4(fp)
  alt_32 len;

  len  = strlen(name) + 1;
   33bb0:	e13ffd17 	ldw	r4,-12(fp)
   33bb4:	002cebc0 	call	2cebc <strlen>
   33bb8:	10800044 	addi	r2,r2,1
   33bbc:	e0bffe15 	stw	r2,-8(fp)
  /*
   * Check each list entry in turn, until a match is found, or we reach the
   * end of the list (i.e. next winds up pointing back to the list head).
   */ 

  while (next != (alt_dev*) llist)
   33bc0:	00000d06 	br	33bf8 <alt_find_dev+0x6c>
    /* 
     * memcmp() is used here rather than strcmp() in order to reduce the size
     * of the executable.
     */

    if (!memcmp (next->name, name, len))
   33bc4:	e0bfff17 	ldw	r2,-4(fp)
   33bc8:	10800217 	ldw	r2,8(r2)
   33bcc:	e0fffe17 	ldw	r3,-8(fp)
   33bd0:	180d883a 	mov	r6,r3
   33bd4:	e17ffd17 	ldw	r5,-12(fp)
   33bd8:	1009883a 	mov	r4,r2
   33bdc:	00342640 	call	34264 <memcmp>
   33be0:	1000021e 	bne	r2,zero,33bec <alt_find_dev+0x60>
    {
      /* match found */

      return next;
   33be4:	e0bfff17 	ldw	r2,-4(fp)
   33be8:	00000706 	br	33c08 <alt_find_dev+0x7c>
    }
    next = (alt_dev*) next->llist.next;
   33bec:	e0bfff17 	ldw	r2,-4(fp)
   33bf0:	10800017 	ldw	r2,0(r2)
   33bf4:	e0bfff15 	stw	r2,-4(fp)
  while (next != (alt_dev*) llist)
   33bf8:	e0ffff17 	ldw	r3,-4(fp)
   33bfc:	e0bffc17 	ldw	r2,-16(fp)
   33c00:	18bff01e 	bne	r3,r2,33bc4 <alt_find_dev+0x38>
  }
  
  /* No match found */
  
  return NULL;
   33c04:	0005883a 	mov	r2,zero
}
   33c08:	e037883a 	mov	sp,fp
   33c0c:	dfc00117 	ldw	ra,4(sp)
   33c10:	df000017 	ldw	fp,0(sp)
   33c14:	dec00204 	addi	sp,sp,8
   33c18:	f800283a 	ret

00033c1c <alt_find_file>:
 * either '/' or '\0' is the prefix of the filename. For example the filename:
 * "/myfilesystem/junk.txt" would match: "/myfilesystem", but not: "/myfile". 
 */
 
alt_dev* alt_find_file (const char* name)
{
   33c1c:	defffb04 	addi	sp,sp,-20
   33c20:	dfc00415 	stw	ra,16(sp)
   33c24:	df000315 	stw	fp,12(sp)
   33c28:	df000304 	addi	fp,sp,12
   33c2c:	e13ffd15 	stw	r4,-12(fp)
  alt_dev* next = (alt_dev*) alt_fs_list.next;   
   33c30:	d0a00517 	ldw	r2,-32748(gp)
   33c34:	e0bfff15 	stw	r2,-4(fp)
  /*
   * Check each list entry in turn, until a match is found, or we reach the
   * end of the list (i.e. next winds up pointing back to the list head).
   */ 
 
  while (next != (alt_dev*) &alt_fs_list)
   33c38:	00003106 	br	33d00 <alt_find_file+0xe4>
  {
    len = strlen(next->name);
   33c3c:	e0bfff17 	ldw	r2,-4(fp)
   33c40:	10800217 	ldw	r2,8(r2)
   33c44:	1009883a 	mov	r4,r2
   33c48:	002cebc0 	call	2cebc <strlen>
   33c4c:	e0bffe15 	stw	r2,-8(fp)
    
    if (next->name[len-1] == '/')
   33c50:	e0bfff17 	ldw	r2,-4(fp)
   33c54:	10c00217 	ldw	r3,8(r2)
   33c58:	e0bffe17 	ldw	r2,-8(fp)
   33c5c:	10bfffc4 	addi	r2,r2,-1
   33c60:	1885883a 	add	r2,r3,r2
   33c64:	10800003 	ldbu	r2,0(r2)
   33c68:	10803fcc 	andi	r2,r2,255
   33c6c:	1080201c 	xori	r2,r2,128
   33c70:	10bfe004 	addi	r2,r2,-128
   33c74:	10800bd8 	cmpnei	r2,r2,47
   33c78:	1000031e 	bne	r2,zero,33c88 <alt_find_file+0x6c>
    {
      len -= 1;
   33c7c:	e0bffe17 	ldw	r2,-8(fp)
   33c80:	10bfffc4 	addi	r2,r2,-1
   33c84:	e0bffe15 	stw	r2,-8(fp)
    }

    if (((name[len] == '/') || (name[len] == '\0')) && 
   33c88:	e0bffe17 	ldw	r2,-8(fp)
   33c8c:	e0fffd17 	ldw	r3,-12(fp)
   33c90:	1885883a 	add	r2,r3,r2
   33c94:	10800003 	ldbu	r2,0(r2)
   33c98:	10803fcc 	andi	r2,r2,255
   33c9c:	1080201c 	xori	r2,r2,128
   33ca0:	10bfe004 	addi	r2,r2,-128
   33ca4:	10800be0 	cmpeqi	r2,r2,47
   33ca8:	1000081e 	bne	r2,zero,33ccc <alt_find_file+0xb0>
   33cac:	e0bffe17 	ldw	r2,-8(fp)
   33cb0:	e0fffd17 	ldw	r3,-12(fp)
   33cb4:	1885883a 	add	r2,r3,r2
   33cb8:	10800003 	ldbu	r2,0(r2)
   33cbc:	10803fcc 	andi	r2,r2,255
   33cc0:	1080201c 	xori	r2,r2,128
   33cc4:	10bfe004 	addi	r2,r2,-128
   33cc8:	10000a1e 	bne	r2,zero,33cf4 <alt_find_file+0xd8>
        !memcmp (next->name, name, len))
   33ccc:	e0bfff17 	ldw	r2,-4(fp)
   33cd0:	10800217 	ldw	r2,8(r2)
   33cd4:	e0fffe17 	ldw	r3,-8(fp)
   33cd8:	180d883a 	mov	r6,r3
   33cdc:	e17ffd17 	ldw	r5,-12(fp)
   33ce0:	1009883a 	mov	r4,r2
   33ce4:	00342640 	call	34264 <memcmp>
    if (((name[len] == '/') || (name[len] == '\0')) && 
   33ce8:	1000021e 	bne	r2,zero,33cf4 <alt_find_file+0xd8>
    {
      /* match found */

      return next;
   33cec:	e0bfff17 	ldw	r2,-4(fp)
   33cf0:	00000706 	br	33d10 <alt_find_file+0xf4>
    }
    next = (alt_dev*) next->llist.next;
   33cf4:	e0bfff17 	ldw	r2,-4(fp)
   33cf8:	10800017 	ldw	r2,0(r2)
   33cfc:	e0bfff15 	stw	r2,-4(fp)
  while (next != (alt_dev*) &alt_fs_list)
   33d00:	e0ffff17 	ldw	r3,-4(fp)
   33d04:	d0a00504 	addi	r2,gp,-32748
   33d08:	18bfcc1e 	bne	r3,r2,33c3c <alt_find_file+0x20>
  }
  
  /* No match found */
  
  return NULL;     
   33d0c:	0005883a 	mov	r2,zero
}
   33d10:	e037883a 	mov	sp,fp
   33d14:	dfc00117 	ldw	ra,4(sp)
   33d18:	df000017 	ldw	fp,0(sp)
   33d1c:	dec00204 	addi	sp,sp,8
   33d20:	f800283a 	ret

00033d24 <alt_get_fd>:
 * the offset of the file descriptor within the file descriptor array). A
 * negative value indicates failure.
 */

int alt_get_fd (alt_dev* dev)
{
   33d24:	defffc04 	addi	sp,sp,-16
   33d28:	df000315 	stw	fp,12(sp)
   33d2c:	df000304 	addi	fp,sp,12
   33d30:	e13ffd15 	stw	r4,-12(fp)
  alt_32 i;
  int rc = -EMFILE;
   33d34:	00bffa04 	movi	r2,-24
   33d38:	e0bffe15 	stw	r2,-8(fp)
   * indicates the highest file descriptor ever allocated. This is used to
   * improve efficency when searching the file descriptor list, and 
   * therefore reduce contention on the alt_fd_list_lock semaphore. 
   */

  for (i = 0; i < ALT_MAX_FD; i++)
   33d3c:	e03fff15 	stw	zero,-4(fp)
   33d40:	00001706 	br	33da0 <alt_get_fd+0x7c>
  {
    if (!alt_fd_list[i].dev)
   33d44:	e0bfff17 	ldw	r2,-4(fp)
   33d48:	10c00324 	muli	r3,r2,12
   33d4c:	008000f4 	movhi	r2,3
   33d50:	1885883a 	add	r2,r3,r2
   33d54:	10967417 	ldw	r2,22992(r2)
   33d58:	10000e1e 	bne	r2,zero,33d94 <alt_get_fd+0x70>
    {
      alt_fd_list[i].dev = dev;
   33d5c:	e0bfff17 	ldw	r2,-4(fp)
   33d60:	11000324 	muli	r4,r2,12
   33d64:	e0fffd17 	ldw	r3,-12(fp)
   33d68:	008000f4 	movhi	r2,3
   33d6c:	2085883a 	add	r2,r4,r2
   33d70:	10d67415 	stw	r3,22992(r2)
      if (i > alt_max_fd)
   33d74:	d0e00917 	ldw	r3,-32732(gp)
   33d78:	e0bfff17 	ldw	r2,-4(fp)
   33d7c:	1880020e 	bge	r3,r2,33d88 <alt_get_fd+0x64>
      {
        alt_max_fd = i;
   33d80:	e0bfff17 	ldw	r2,-4(fp)
   33d84:	d0a00915 	stw	r2,-32732(gp)
      }
      rc = i;
   33d88:	e0bfff17 	ldw	r2,-4(fp)
   33d8c:	e0bffe15 	stw	r2,-8(fp)
      goto alt_get_fd_exit;
   33d90:	00000706 	br	33db0 <alt_get_fd+0x8c>
  for (i = 0; i < ALT_MAX_FD; i++)
   33d94:	e0bfff17 	ldw	r2,-4(fp)
   33d98:	10800044 	addi	r2,r2,1
   33d9c:	e0bfff15 	stw	r2,-4(fp)
   33da0:	e0bfff17 	ldw	r2,-4(fp)
   33da4:	10800810 	cmplti	r2,r2,32
   33da8:	103fe61e 	bne	r2,zero,33d44 <alt_get_fd+0x20>
    }
  }

 alt_get_fd_exit:
   33dac:	0001883a 	nop
   * file descriptor pool.
   */

  ALT_SEM_POST(alt_fd_list_lock);

  return rc;
   33db0:	e0bffe17 	ldw	r2,-8(fp)
}
   33db4:	e037883a 	mov	sp,fp
   33db8:	df000017 	ldw	fp,0(sp)
   33dbc:	dec00104 	addi	sp,sp,4
   33dc0:	f800283a 	ret

00033dc4 <alt_icache_flush_all>:
/*
 * alt_icache_flush_all() is called to flush the entire instruction cache.
 */

void alt_icache_flush_all (void)
{
   33dc4:	defffe04 	addi	sp,sp,-8
   33dc8:	dfc00115 	stw	ra,4(sp)
   33dcc:	df000015 	stw	fp,0(sp)
   33dd0:	d839883a 	mov	fp,sp
#if NIOS2_ICACHE_SIZE > 0
  alt_icache_flush (0, NIOS2_ICACHE_SIZE);
   33dd4:	01440004 	movi	r5,4096
   33dd8:	0009883a 	mov	r4,zero
   33ddc:	00340f40 	call	340f4 <alt_icache_flush>
#endif
}
   33de0:	0001883a 	nop
   33de4:	e037883a 	mov	sp,fp
   33de8:	dfc00117 	ldw	ra,4(sp)
   33dec:	df000017 	ldw	fp,0(sp)
   33df0:	dec00204 	addi	sp,sp,8
   33df4:	f800283a 	ret

00033df8 <alt_open_fd>:
 * If the device can not be succesfully opened, then the input file descriptor
 * remains unchanged.
 */

static void alt_open_fd(alt_fd* fd, const char* name, int flags, int mode)
{
   33df8:	defff904 	addi	sp,sp,-28
   33dfc:	dfc00615 	stw	ra,24(sp)
   33e00:	df000515 	stw	fp,20(sp)
   33e04:	df000504 	addi	fp,sp,20
   33e08:	e13ffe15 	stw	r4,-8(fp)
   33e0c:	e17ffd15 	stw	r5,-12(fp)
   33e10:	e1bffc15 	stw	r6,-16(fp)
   33e14:	e1fffb15 	stw	r7,-20(fp)
  int old;

  old = open (name, flags, mode);
   33e18:	e1bffb17 	ldw	r6,-20(fp)
   33e1c:	e17ffc17 	ldw	r5,-16(fp)
   33e20:	e13ffd17 	ldw	r4,-12(fp)
   33e24:	00321080 	call	32108 <open>
   33e28:	e0bfff15 	stw	r2,-4(fp)

  if (old >= 0)
   33e2c:	e0bfff17 	ldw	r2,-4(fp)
   33e30:	10001716 	blt	r2,zero,33e90 <alt_open_fd+0x98>
  {
    fd->dev      = alt_fd_list[old].dev;
   33e34:	e0bfff17 	ldw	r2,-4(fp)
   33e38:	10c00324 	muli	r3,r2,12
   33e3c:	008000f4 	movhi	r2,3
   33e40:	1885883a 	add	r2,r3,r2
   33e44:	10d67417 	ldw	r3,22992(r2)
   33e48:	e0bffe17 	ldw	r2,-8(fp)
   33e4c:	10c00015 	stw	r3,0(r2)
    fd->priv     = alt_fd_list[old].priv;
   33e50:	e0bfff17 	ldw	r2,-4(fp)
   33e54:	10c00324 	muli	r3,r2,12
   33e58:	008000f4 	movhi	r2,3
   33e5c:	1885883a 	add	r2,r3,r2
   33e60:	10d67517 	ldw	r3,22996(r2)
   33e64:	e0bffe17 	ldw	r2,-8(fp)
   33e68:	10c00115 	stw	r3,4(r2)
    fd->fd_flags = alt_fd_list[old].fd_flags;
   33e6c:	e0bfff17 	ldw	r2,-4(fp)
   33e70:	10c00324 	muli	r3,r2,12
   33e74:	008000f4 	movhi	r2,3
   33e78:	1885883a 	add	r2,r3,r2
   33e7c:	10d67617 	ldw	r3,23000(r2)
   33e80:	e0bffe17 	ldw	r2,-8(fp)
   33e84:	10c00215 	stw	r3,8(r2)

    alt_release_fd (old);
   33e88:	e13fff17 	ldw	r4,-4(fp)
   33e8c:	00325f00 	call	325f0 <alt_release_fd>
  }
} 
   33e90:	0001883a 	nop
   33e94:	e037883a 	mov	sp,fp
   33e98:	dfc00117 	ldw	ra,4(sp)
   33e9c:	df000017 	ldw	fp,0(sp)
   33ea0:	dec00204 	addi	sp,sp,8
   33ea4:	f800283a 	ret

00033ea8 <alt_io_redirect>:
 */
 
void alt_io_redirect(const char* stdout_dev, 
                     const char* stdin_dev, 
                     const char* stderr_dev)
{
   33ea8:	defffb04 	addi	sp,sp,-20
   33eac:	dfc00415 	stw	ra,16(sp)
   33eb0:	df000315 	stw	fp,12(sp)
   33eb4:	df000304 	addi	fp,sp,12
   33eb8:	e13fff15 	stw	r4,-4(fp)
   33ebc:	e17ffe15 	stw	r5,-8(fp)
   33ec0:	e1bffd15 	stw	r6,-12(fp)
  /* Redirect the channels */

  alt_open_fd (&alt_fd_list[STDOUT_FILENO], stdout_dev, O_WRONLY, 0777);
   33ec4:	01c07fc4 	movi	r7,511
   33ec8:	01800044 	movi	r6,1
   33ecc:	e17fff17 	ldw	r5,-4(fp)
   33ed0:	010000f4 	movhi	r4,3
   33ed4:	21167704 	addi	r4,r4,23004
   33ed8:	0033df80 	call	33df8 <alt_open_fd>
  alt_open_fd (&alt_fd_list[STDIN_FILENO], stdin_dev, O_RDONLY, 0777);
   33edc:	01c07fc4 	movi	r7,511
   33ee0:	000d883a 	mov	r6,zero
   33ee4:	e17ffe17 	ldw	r5,-8(fp)
   33ee8:	010000f4 	movhi	r4,3
   33eec:	21167404 	addi	r4,r4,22992
   33ef0:	0033df80 	call	33df8 <alt_open_fd>
  alt_open_fd (&alt_fd_list[STDERR_FILENO], stderr_dev, O_WRONLY, 0777);
   33ef4:	01c07fc4 	movi	r7,511
   33ef8:	01800044 	movi	r6,1
   33efc:	e17ffd17 	ldw	r5,-12(fp)
   33f00:	010000f4 	movhi	r4,3
   33f04:	21167a04 	addi	r4,r4,23016
   33f08:	0033df80 	call	33df8 <alt_open_fd>
}  
   33f0c:	0001883a 	nop
   33f10:	e037883a 	mov	sp,fp
   33f14:	dfc00117 	ldw	ra,4(sp)
   33f18:	df000017 	ldw	fp,0(sp)
   33f1c:	dec00204 	addi	sp,sp,8
   33f20:	f800283a 	ret

00033f24 <alt_alarm_stop>:
 * alarms. Alternatively an alarm can unregister itself by returning zero when 
 * the alarm executes.
 */

void alt_alarm_stop (alt_alarm* alarm)
{
   33f24:	defffa04 	addi	sp,sp,-24
   33f28:	df000515 	stw	fp,20(sp)
   33f2c:	df000504 	addi	fp,sp,20
   33f30:	e13ffb15 	stw	r4,-20(fp)
  NIOS2_READ_STATUS (context);
   33f34:	0005303a 	rdctl	r2,status
   33f38:	e0bffc15 	stw	r2,-16(fp)
  NIOS2_WRITE_STATUS (context & ~NIOS2_STATUS_PIE_MSK);
   33f3c:	e0fffc17 	ldw	r3,-16(fp)
   33f40:	00bfff84 	movi	r2,-2
   33f44:	1884703a 	and	r2,r3,r2
   33f48:	1001703a 	wrctl	status,r2
  return context;
   33f4c:	e0bffc17 	ldw	r2,-16(fp)
  alt_irq_context irq_context;

  irq_context = alt_irq_disable_all();
   33f50:	e0bfff15 	stw	r2,-4(fp)
  alt_llist_remove (&alarm->llist);
   33f54:	e0bffb17 	ldw	r2,-20(fp)
   33f58:	e0bffd15 	stw	r2,-12(fp)
 * input argument is the element to remove.
 */
     
static ALT_INLINE void ALT_ALWAYS_INLINE alt_llist_remove(alt_llist* entry)
{
  entry->next->previous = entry->previous;
   33f5c:	e0bffd17 	ldw	r2,-12(fp)
   33f60:	10800017 	ldw	r2,0(r2)
   33f64:	e0fffd17 	ldw	r3,-12(fp)
   33f68:	18c00117 	ldw	r3,4(r3)
   33f6c:	10c00115 	stw	r3,4(r2)
  entry->previous->next = entry->next;
   33f70:	e0bffd17 	ldw	r2,-12(fp)
   33f74:	10800117 	ldw	r2,4(r2)
   33f78:	e0fffd17 	ldw	r3,-12(fp)
   33f7c:	18c00017 	ldw	r3,0(r3)
   33f80:	10c00015 	stw	r3,0(r2)
  /* 
   * Set the entry to point to itself, so that any further calls to
   * alt_llist_remove() are harmless.
   */

  entry->previous = entry;
   33f84:	e0bffd17 	ldw	r2,-12(fp)
   33f88:	e0fffd17 	ldw	r3,-12(fp)
   33f8c:	10c00115 	stw	r3,4(r2)
  entry->next     = entry;
   33f90:	e0bffd17 	ldw	r2,-12(fp)
   33f94:	e0fffd17 	ldw	r3,-12(fp)
   33f98:	10c00015 	stw	r3,0(r2)
} 
   33f9c:	0001883a 	nop
   33fa0:	e0bfff17 	ldw	r2,-4(fp)
   33fa4:	e0bffe15 	stw	r2,-8(fp)
  NIOS2_WRITE_STATUS (context);
   33fa8:	e0bffe17 	ldw	r2,-8(fp)
   33fac:	1001703a 	wrctl	status,r2
}
   33fb0:	0001883a 	nop
  alt_irq_enable_all (irq_context);
}
   33fb4:	0001883a 	nop
   33fb8:	e037883a 	mov	sp,fp
   33fbc:	df000017 	ldw	fp,0(sp)
   33fc0:	dec00104 	addi	sp,sp,4
   33fc4:	f800283a 	ret

00033fc8 <alt_tick>:
 * 
 * alt_tick() is expected to run at interrupt level.
 */

void alt_tick (void)
{
   33fc8:	defffb04 	addi	sp,sp,-20
   33fcc:	dfc00415 	stw	ra,16(sp)
   33fd0:	df000315 	stw	fp,12(sp)
   33fd4:	df000304 	addi	fp,sp,12
  alt_alarm* next;
  alt_alarm* alarm = (alt_alarm*) alt_alarm_list.next;
   33fd8:	d0a00d17 	ldw	r2,-32716(gp)
   33fdc:	e0bfff15 	stw	r2,-4(fp)

  alt_u32    next_callback;

  /* update the tick counter */

  _alt_nticks++;
   33fe0:	d0a72017 	ldw	r2,-25472(gp)
   33fe4:	10800044 	addi	r2,r2,1
   33fe8:	d0a72015 	stw	r2,-25472(gp)

  /* process the registered callbacks */

  while (alarm != (alt_alarm*) &alt_alarm_list)
   33fec:	00002e06 	br	340a8 <alt_tick+0xe0>
  {
    next = (alt_alarm*) alarm->llist.next;
   33ff0:	e0bfff17 	ldw	r2,-4(fp)
   33ff4:	10800017 	ldw	r2,0(r2)
   33ff8:	e0bffe15 	stw	r2,-8(fp)
    /* 
     * Upon the tick-counter rolling over it is safe to clear the 
     * roll-over flag; once the flag is cleared this (or subsequnt)
     * tick events are enabled to generate an alarm event. 
     */
    if ((alarm->rollover) && (_alt_nticks == 0))
   33ffc:	e0bfff17 	ldw	r2,-4(fp)
   34000:	10800403 	ldbu	r2,16(r2)
   34004:	10803fcc 	andi	r2,r2,255
   34008:	10000426 	beq	r2,zero,3401c <alt_tick+0x54>
   3400c:	d0a72017 	ldw	r2,-25472(gp)
   34010:	1000021e 	bne	r2,zero,3401c <alt_tick+0x54>
    {
      alarm->rollover = 0;
   34014:	e0bfff17 	ldw	r2,-4(fp)
   34018:	10000405 	stb	zero,16(r2)
    }
    
    /* if the alarm period has expired, make the callback */    
    if ((alarm->time <= _alt_nticks) && (alarm->rollover == 0))
   3401c:	e0bfff17 	ldw	r2,-4(fp)
   34020:	10800217 	ldw	r2,8(r2)
   34024:	d0e72017 	ldw	r3,-25472(gp)
   34028:	18801d36 	bltu	r3,r2,340a0 <alt_tick+0xd8>
   3402c:	e0bfff17 	ldw	r2,-4(fp)
   34030:	10800403 	ldbu	r2,16(r2)
   34034:	10803fcc 	andi	r2,r2,255
   34038:	1000191e 	bne	r2,zero,340a0 <alt_tick+0xd8>
    {
      next_callback = alarm->callback (alarm->context);
   3403c:	e0bfff17 	ldw	r2,-4(fp)
   34040:	10800317 	ldw	r2,12(r2)
   34044:	e0ffff17 	ldw	r3,-4(fp)
   34048:	18c00517 	ldw	r3,20(r3)
   3404c:	1809883a 	mov	r4,r3
   34050:	103ee83a 	callr	r2
   34054:	e0bffd15 	stw	r2,-12(fp)

      /* deactivate the alarm if the return value is zero */

      if (next_callback == 0)
   34058:	e0bffd17 	ldw	r2,-12(fp)
   3405c:	1000031e 	bne	r2,zero,3406c <alt_tick+0xa4>
      {
        alt_alarm_stop (alarm);
   34060:	e13fff17 	ldw	r4,-4(fp)
   34064:	0033f240 	call	33f24 <alt_alarm_stop>
   34068:	00000d06 	br	340a0 <alt_tick+0xd8>
      }
      else
      {
        alarm->time += next_callback;
   3406c:	e0bfff17 	ldw	r2,-4(fp)
   34070:	10c00217 	ldw	r3,8(r2)
   34074:	e0bffd17 	ldw	r2,-12(fp)
   34078:	1887883a 	add	r3,r3,r2
   3407c:	e0bfff17 	ldw	r2,-4(fp)
   34080:	10c00215 	stw	r3,8(r2)
        /* 
         * If the desired alarm time causes a roll-over, set the rollover
         * flag. This will prevent the subsequent tick event from causing
         * an alarm too early.
         */
        if(alarm->time < _alt_nticks)
   34084:	e0bfff17 	ldw	r2,-4(fp)
   34088:	10c00217 	ldw	r3,8(r2)
   3408c:	d0a72017 	ldw	r2,-25472(gp)
   34090:	1880032e 	bgeu	r3,r2,340a0 <alt_tick+0xd8>
        {
          alarm->rollover = 1;
   34094:	e0bfff17 	ldw	r2,-4(fp)
   34098:	00c00044 	movi	r3,1
   3409c:	10c00405 	stb	r3,16(r2)
        }
      }
    }
    alarm = next;
   340a0:	e0bffe17 	ldw	r2,-8(fp)
   340a4:	e0bfff15 	stw	r2,-4(fp)
  while (alarm != (alt_alarm*) &alt_alarm_list)
   340a8:	e0ffff17 	ldw	r3,-4(fp)
   340ac:	d0a00d04 	addi	r2,gp,-32716
   340b0:	18bfcf1e 	bne	r3,r2,33ff0 <alt_tick+0x28>

  /* 
   * Update the operating system specific timer facilities.
   */

  ALT_OS_TIME_TICK();
   340b4:	0001883a 	nop
}
   340b8:	0001883a 	nop
   340bc:	e037883a 	mov	sp,fp
   340c0:	dfc00117 	ldw	ra,4(sp)
   340c4:	df000017 	ldw	fp,0(sp)
   340c8:	dec00204 	addi	sp,sp,8
   340cc:	f800283a 	ret

000340d0 <altera_nios2_gen2_irq_init>:
/*
 * To initialize the internal interrupt controller, just clear the IENABLE
 * register so that all possible IRQs are disabled.
 */
void altera_nios2_gen2_irq_init(void) 
{
   340d0:	deffff04 	addi	sp,sp,-4
   340d4:	df000015 	stw	fp,0(sp)
   340d8:	d839883a 	mov	fp,sp
    NIOS2_WRITE_IENABLE(0);
   340dc:	000170fa 	wrctl	ienable,zero
}
   340e0:	0001883a 	nop
   340e4:	e037883a 	mov	sp,fp
   340e8:	df000017 	ldw	fp,0(sp)
   340ec:	dec00104 	addi	sp,sp,4
   340f0:	f800283a 	ret

000340f4 <alt_icache_flush>:
 * alt_icache_flush() is called to flush the instruction cache for a memory
 * region of length "len" bytes, starting at address "start".
 */

void alt_icache_flush (void* start, alt_u32 len)
{
   340f4:	defffb04 	addi	sp,sp,-20
   340f8:	df000415 	stw	fp,16(sp)
   340fc:	df000404 	addi	fp,sp,16
   34100:	e13ffd15 	stw	r4,-12(fp)
   34104:	e17ffc15 	stw	r5,-16(fp)

  /*
   * This is the most we would ever need to flush.
   */
 
  if (len > NIOS2_ICACHE_SIZE)
   34108:	e0bffc17 	ldw	r2,-16(fp)
   3410c:	10840070 	cmpltui	r2,r2,4097
   34110:	1000021e 	bne	r2,zero,3411c <alt_icache_flush+0x28>
  {
    len = NIOS2_ICACHE_SIZE;
   34114:	00840004 	movi	r2,4096
   34118:	e0bffc15 	stw	r2,-16(fp)
  }

  end = ((char*) start) + len;
   3411c:	e0fffd17 	ldw	r3,-12(fp)
   34120:	e0bffc17 	ldw	r2,-16(fp)
   34124:	1885883a 	add	r2,r3,r2
   34128:	e0bffe15 	stw	r2,-8(fp)

  for (i = start; i < end; i+= NIOS2_ICACHE_LINE_SIZE)
   3412c:	e0bffd17 	ldw	r2,-12(fp)
   34130:	e0bfff15 	stw	r2,-4(fp)
   34134:	00000506 	br	3414c <alt_icache_flush+0x58>
  { 
    __asm__ volatile ("flushi %0" :: "r" (i)); 
   34138:	e0bfff17 	ldw	r2,-4(fp)
   3413c:	1000603a 	flushi	r2
  for (i = start; i < end; i+= NIOS2_ICACHE_LINE_SIZE)
   34140:	e0bfff17 	ldw	r2,-4(fp)
   34144:	10800804 	addi	r2,r2,32
   34148:	e0bfff15 	stw	r2,-4(fp)
   3414c:	e0ffff17 	ldw	r3,-4(fp)
   34150:	e0bffe17 	ldw	r2,-8(fp)
   34154:	18bff836 	bltu	r3,r2,34138 <alt_icache_flush+0x44>
   * For an unaligned flush request, we've got one more line left.
   * Note that this is dependent on NIOS2_ICACHE_LINE_SIZE to be a 
   * multiple of 2 (which it always is).
   */

  if (((alt_u32) start) & (NIOS2_ICACHE_LINE_SIZE - 1))
   34158:	e0bffd17 	ldw	r2,-12(fp)
   3415c:	108007cc 	andi	r2,r2,31
   34160:	10000226 	beq	r2,zero,3416c <alt_icache_flush+0x78>
  {
    __asm__ volatile ("flushi %0" :: "r" (i));
   34164:	e0bfff17 	ldw	r2,-4(fp)
   34168:	1000603a 	flushi	r2
  /* 
   * Having flushed the cache, flush any stale instructions in the 
   * pipeline 
   */

  __asm__ volatile ("flushp");
   3416c:	0000203a 	flushp

#endif /* NIOS2_ICACHE_SIZE > 0 */
}
   34170:	0001883a 	nop
   34174:	e037883a 	mov	sp,fp
   34178:	df000017 	ldw	fp,0(sp)
   3417c:	dec00104 	addi	sp,sp,4
   34180:	f800283a 	ret

00034184 <alt_exception_cause_generated_bad_addr>:
 * Return: 1: BADADDR (bad_addr argument to handler) is valid
 *         0: BADADDR is not valid
 */
int 
alt_exception_cause_generated_bad_addr(alt_exception_cause cause)
{
   34184:	defffe04 	addi	sp,sp,-8
   34188:	df000115 	stw	fp,4(sp)
   3418c:	df000104 	addi	fp,sp,4
   34190:	e13fff15 	stw	r4,-4(fp)
   34194:	e0bfff17 	ldw	r2,-4(fp)
   34198:	10bffe84 	addi	r2,r2,-6
   3419c:	10c00428 	cmpgeui	r3,r2,16
   341a0:	1800191e 	bne	r3,zero,34208 <alt_exception_cause_generated_bad_addr+0x84>
   341a4:	100690ba 	slli	r3,r2,2
   341a8:	008000f4 	movhi	r2,3
   341ac:	1885883a 	add	r2,r3,r2
   341b0:	10906e17 	ldw	r2,16824(r2)
   341b4:	1000683a 	jmp	r2
   341b8:	000341f8 	rdprs	zero,zero,3335
   341bc:	000341f8 	rdprs	zero,zero,3335
   341c0:	00034208 	cmpgei	zero,zero,3336
   341c4:	00034208 	cmpgei	zero,zero,3336
   341c8:	00034208 	cmpgei	zero,zero,3336
   341cc:	000341f8 	rdprs	zero,zero,3335
   341d0:	00034200 	call	3420 <__alt_mem_onchip_memory-0x1cbe0>
   341d4:	00034208 	cmpgei	zero,zero,3336
   341d8:	000341f8 	rdprs	zero,zero,3335
   341dc:	000341f8 	rdprs	zero,zero,3335
   341e0:	00034208 	cmpgei	zero,zero,3336
   341e4:	000341f8 	rdprs	zero,zero,3335
   341e8:	00034200 	call	3420 <__alt_mem_onchip_memory-0x1cbe0>
   341ec:	00034208 	cmpgei	zero,zero,3336
   341f0:	00034208 	cmpgei	zero,zero,3336
   341f4:	000341f8 	rdprs	zero,zero,3335
  case NIOS2_EXCEPTION_MISALIGNED_TARGET_PC:
  case NIOS2_EXCEPTION_TLB_READ_PERM_VIOLATION:
  case NIOS2_EXCEPTION_TLB_WRITE_PERM_VIOLATION:
  case NIOS2_EXCEPTION_MPU_DATA_REGION_VIOLATION:
  case NIOS2_EXCEPTION_ECC_DATA_ERR:
    return 1;
   341f8:	00800044 	movi	r2,1
   341fc:	00000306 	br	3420c <alt_exception_cause_generated_bad_addr+0x88>

  case NIOS2_EXCEPTION_TLB_MISS:
  case NIOS2_EXCEPTION_ECC_TLB_ERR:
    return 0;
   34200:	0005883a 	mov	r2,zero
   34204:	00000106 	br	3420c <alt_exception_cause_generated_bad_addr+0x88>

  default:
    return 0;
   34208:	0005883a 	mov	r2,zero
  }
}
   3420c:	e037883a 	mov	sp,fp
   34210:	df000017 	ldw	fp,0(sp)
   34214:	dec00104 	addi	sp,sp,4
   34218:	f800283a 	ret

0003421c <atexit>:
   3421c:	200b883a 	mov	r5,r4
   34220:	000f883a 	mov	r7,zero
   34224:	000d883a 	mov	r6,zero
   34228:	0009883a 	mov	r4,zero
   3422c:	00342fc1 	jmpi	342fc <__register_exitproc>

00034230 <exit>:
   34230:	defffe04 	addi	sp,sp,-8
   34234:	000b883a 	mov	r5,zero
   34238:	dc000015 	stw	r16,0(sp)
   3423c:	dfc00115 	stw	ra,4(sp)
   34240:	2021883a 	mov	r16,r4
   34244:	003438c0 	call	3438c <__call_exitprocs>
   34248:	008000f4 	movhi	r2,3
   3424c:	111af717 	ldw	r4,27612(r2)
   34250:	20800f17 	ldw	r2,60(r4)
   34254:	10000126 	beq	r2,zero,3425c <exit+0x2c>
   34258:	103ee83a 	callr	r2
   3425c:	8009883a 	mov	r4,r16
   34260:	00318480 	call	31848 <_exit>

00034264 <memcmp>:
   34264:	30800130 	cmpltui	r2,r6,4
   34268:	10000b1e 	bne	r2,zero,34298 <memcmp+0x34>
   3426c:	2144b03a 	or	r2,r4,r5
   34270:	108000cc 	andi	r2,r2,3
   34274:	1000171e 	bne	r2,zero,342d4 <memcmp+0x70>
   34278:	20c00017 	ldw	r3,0(r4)
   3427c:	28800017 	ldw	r2,0(r5)
   34280:	1880141e 	bne	r3,r2,342d4 <memcmp+0x70>
   34284:	31bfff04 	addi	r6,r6,-4
   34288:	30800128 	cmpgeui	r2,r6,4
   3428c:	21000104 	addi	r4,r4,4
   34290:	29400104 	addi	r5,r5,4
   34294:	103ff81e 	bne	r2,zero,34278 <memcmp+0x14>
   34298:	30bfffc4 	addi	r2,r6,-1
   3429c:	30000b26 	beq	r6,zero,342cc <memcmp+0x68>
   342a0:	11800044 	addi	r6,r2,1
   342a4:	298d883a 	add	r6,r5,r6
   342a8:	00000106 	br	342b0 <memcmp+0x4c>
   342ac:	29800726 	beq	r5,r6,342cc <memcmp+0x68>
   342b0:	20800003 	ldbu	r2,0(r4)
   342b4:	28c00003 	ldbu	r3,0(r5)
   342b8:	21000044 	addi	r4,r4,1
   342bc:	29400044 	addi	r5,r5,1
   342c0:	10fffa26 	beq	r2,r3,342ac <memcmp+0x48>
   342c4:	10c5c83a 	sub	r2,r2,r3
   342c8:	f800283a 	ret
   342cc:	0005883a 	mov	r2,zero
   342d0:	f800283a 	ret
   342d4:	30bfffc4 	addi	r2,r6,-1
   342d8:	003ff106 	br	342a0 <memcmp+0x3c>

000342dc <_putchar_r>:
   342dc:	21800217 	ldw	r6,8(r4)
   342e0:	00344ac1 	jmpi	344ac <_putc_r>

000342e4 <putchar>:
   342e4:	008000f4 	movhi	r2,3
   342e8:	109af817 	ldw	r2,27616(r2)
   342ec:	200b883a 	mov	r5,r4
   342f0:	11800217 	ldw	r6,8(r2)
   342f4:	1009883a 	mov	r4,r2
   342f8:	00344ac1 	jmpi	344ac <_putc_r>

000342fc <__register_exitproc>:
   342fc:	008000f4 	movhi	r2,3
   34300:	10daf717 	ldw	r3,27612(r2)
   34304:	18805217 	ldw	r2,328(r3)
   34308:	10001726 	beq	r2,zero,34368 <__register_exitproc+0x6c>
   3430c:	10c00117 	ldw	r3,4(r2)
   34310:	1a000808 	cmpgei	r8,r3,32
   34314:	40001b1e 	bne	r8,zero,34384 <__register_exitproc+0x88>
   34318:	20000b26 	beq	r4,zero,34348 <__register_exitproc+0x4c>
   3431c:	181090ba 	slli	r8,r3,2
   34320:	02400044 	movi	r9,1
   34324:	48d2983a 	sll	r9,r9,r3
   34328:	1211883a 	add	r8,r2,r8
   3432c:	41802215 	stw	r6,136(r8)
   34330:	11806217 	ldw	r6,392(r2)
   34334:	21000098 	cmpnei	r4,r4,2
   34338:	324cb03a 	or	r6,r6,r9
   3433c:	11806215 	stw	r6,392(r2)
   34340:	41c04215 	stw	r7,264(r8)
   34344:	20000b26 	beq	r4,zero,34374 <__register_exitproc+0x78>
   34348:	19000084 	addi	r4,r3,2
   3434c:	200890ba 	slli	r4,r4,2
   34350:	18c00044 	addi	r3,r3,1
   34354:	10c00115 	stw	r3,4(r2)
   34358:	1105883a 	add	r2,r2,r4
   3435c:	11400015 	stw	r5,0(r2)
   34360:	0005883a 	mov	r2,zero
   34364:	f800283a 	ret
   34368:	18805304 	addi	r2,r3,332
   3436c:	18805215 	stw	r2,328(r3)
   34370:	003fe606 	br	3430c <__register_exitproc+0x10>
   34374:	11006317 	ldw	r4,396(r2)
   34378:	2252b03a 	or	r9,r4,r9
   3437c:	12406315 	stw	r9,396(r2)
   34380:	003ff106 	br	34348 <__register_exitproc+0x4c>
   34384:	00bfffc4 	movi	r2,-1
   34388:	f800283a 	ret

0003438c <__call_exitprocs>:
   3438c:	defff704 	addi	sp,sp,-36
   34390:	008000f4 	movhi	r2,3
   34394:	dcc00315 	stw	r19,12(sp)
   34398:	14daf717 	ldw	r19,27612(r2)
   3439c:	dc800215 	stw	r18,8(sp)
   343a0:	dfc00815 	stw	ra,32(sp)
   343a4:	9c805217 	ldw	r18,328(r19)
   343a8:	ddc00715 	stw	r23,28(sp)
   343ac:	dd800615 	stw	r22,24(sp)
   343b0:	dd400515 	stw	r21,20(sp)
   343b4:	dd000415 	stw	r20,16(sp)
   343b8:	dc400115 	stw	r17,4(sp)
   343bc:	dc000015 	stw	r16,0(sp)
   343c0:	90001026 	beq	r18,zero,34404 <__call_exitprocs+0x78>
   343c4:	202b883a 	mov	r21,r4
   343c8:	282d883a 	mov	r22,r5
   343cc:	05000044 	movi	r20,1
   343d0:	94000117 	ldw	r16,4(r18)
   343d4:	847fffc4 	addi	r17,r16,-1
   343d8:	88000a16 	blt	r17,zero,34404 <__call_exitprocs+0x78>
   343dc:	84000044 	addi	r16,r16,1
   343e0:	802090ba 	slli	r16,r16,2
   343e4:	9421883a 	add	r16,r18,r16
   343e8:	b0001126 	beq	r22,zero,34430 <__call_exitprocs+0xa4>
   343ec:	80804017 	ldw	r2,256(r16)
   343f0:	15800f26 	beq	r2,r22,34430 <__call_exitprocs+0xa4>
   343f4:	8c7fffc4 	addi	r17,r17,-1
   343f8:	88bfffd8 	cmpnei	r2,r17,-1
   343fc:	843fff04 	addi	r16,r16,-4
   34400:	103ff91e 	bne	r2,zero,343e8 <__call_exitprocs+0x5c>
   34404:	dfc00817 	ldw	ra,32(sp)
   34408:	ddc00717 	ldw	r23,28(sp)
   3440c:	dd800617 	ldw	r22,24(sp)
   34410:	dd400517 	ldw	r21,20(sp)
   34414:	dd000417 	ldw	r20,16(sp)
   34418:	dcc00317 	ldw	r19,12(sp)
   3441c:	dc800217 	ldw	r18,8(sp)
   34420:	dc400117 	ldw	r17,4(sp)
   34424:	dc000017 	ldw	r16,0(sp)
   34428:	dec00904 	addi	sp,sp,36
   3442c:	f800283a 	ret
   34430:	90800117 	ldw	r2,4(r18)
   34434:	81800017 	ldw	r6,0(r16)
   34438:	10bfffc4 	addi	r2,r2,-1
   3443c:	14401726 	beq	r2,r17,3449c <__call_exitprocs+0x110>
   34440:	80000015 	stw	zero,0(r16)
   34444:	303feb26 	beq	r6,zero,343f4 <__call_exitprocs+0x68>
   34448:	a446983a 	sll	r3,r20,r17
   3444c:	90806217 	ldw	r2,392(r18)
   34450:	95c00117 	ldw	r23,4(r18)
   34454:	1884703a 	and	r2,r3,r2
   34458:	1000081e 	bne	r2,zero,3447c <__call_exitprocs+0xf0>
   3445c:	303ee83a 	callr	r6
   34460:	90c00117 	ldw	r3,4(r18)
   34464:	98805217 	ldw	r2,328(r19)
   34468:	1dc0011e 	bne	r3,r23,34470 <__call_exitprocs+0xe4>
   3446c:	90bfe126 	beq	r18,r2,343f4 <__call_exitprocs+0x68>
   34470:	103fe426 	beq	r2,zero,34404 <__call_exitprocs+0x78>
   34474:	1025883a 	mov	r18,r2
   34478:	003fd506 	br	343d0 <__call_exitprocs+0x44>
   3447c:	90806317 	ldw	r2,396(r18)
   34480:	81002017 	ldw	r4,128(r16)
   34484:	1886703a 	and	r3,r3,r2
   34488:	1800061e 	bne	r3,zero,344a4 <__call_exitprocs+0x118>
   3448c:	200b883a 	mov	r5,r4
   34490:	a809883a 	mov	r4,r21
   34494:	303ee83a 	callr	r6
   34498:	003ff106 	br	34460 <__call_exitprocs+0xd4>
   3449c:	94400115 	stw	r17,4(r18)
   344a0:	003fe806 	br	34444 <__call_exitprocs+0xb8>
   344a4:	303ee83a 	callr	r6
   344a8:	003fed06 	br	34460 <__call_exitprocs+0xd4>

000344ac <_putc_r>:
   344ac:	defffc04 	addi	sp,sp,-16
   344b0:	dc400215 	stw	r17,8(sp)
   344b4:	dfc00315 	stw	ra,12(sp)
   344b8:	2023883a 	mov	r17,r4
   344bc:	20000226 	beq	r4,zero,344c8 <_putc_r+0x1c>
   344c0:	20800e17 	ldw	r2,56(r4)
   344c4:	10000e26 	beq	r2,zero,34500 <_putc_r+0x54>
   344c8:	30800217 	ldw	r2,8(r6)
   344cc:	10bfffc4 	addi	r2,r2,-1
   344d0:	30800215 	stw	r2,8(r6)
   344d4:	10001316 	blt	r2,zero,34524 <_putc_r+0x78>
   344d8:	30800017 	ldw	r2,0(r6)
   344dc:	11400005 	stb	r5,0(r2)
   344e0:	30800017 	ldw	r2,0(r6)
   344e4:	10c00044 	addi	r3,r2,1
   344e8:	30c00015 	stw	r3,0(r6)
   344ec:	10800003 	ldbu	r2,0(r2)
   344f0:	dfc00317 	ldw	ra,12(sp)
   344f4:	dc400217 	ldw	r17,8(sp)
   344f8:	dec00404 	addi	sp,sp,16
   344fc:	f800283a 	ret
   34500:	d9800115 	stw	r6,4(sp)
   34504:	d9400015 	stw	r5,0(sp)
   34508:	0022de40 	call	22de4 <__sinit>
   3450c:	d9800117 	ldw	r6,4(sp)
   34510:	d9400017 	ldw	r5,0(sp)
   34514:	30800217 	ldw	r2,8(r6)
   34518:	10bfffc4 	addi	r2,r2,-1
   3451c:	30800215 	stw	r2,8(r6)
   34520:	103fed0e 	bge	r2,zero,344d8 <_putc_r+0x2c>
   34524:	30c00617 	ldw	r3,24(r6)
   34528:	10c00e16 	blt	r2,r3,34564 <_putc_r+0xb8>
   3452c:	30800017 	ldw	r2,0(r6)
   34530:	11400005 	stb	r5,0(r2)
   34534:	30c00017 	ldw	r3,0(r6)
   34538:	18800003 	ldbu	r2,0(r3)
   3453c:	108002a0 	cmpeqi	r2,r2,10
   34540:	1000071e 	bne	r2,zero,34560 <_putc_r+0xb4>
   34544:	18800044 	addi	r2,r3,1
   34548:	30800015 	stw	r2,0(r6)
   3454c:	18800003 	ldbu	r2,0(r3)
   34550:	dfc00317 	ldw	ra,12(sp)
   34554:	dc400217 	ldw	r17,8(sp)
   34558:	dec00404 	addi	sp,sp,16
   3455c:	f800283a 	ret
   34560:	01400284 	movi	r5,10
   34564:	8809883a 	mov	r4,r17
   34568:	dfc00317 	ldw	ra,12(sp)
   3456c:	dc400217 	ldw	r17,8(sp)
   34570:	dec00404 	addi	sp,sp,16
   34574:	002e8141 	jmpi	2e814 <__swbuf_r>

00034578 <putc>:
   34578:	defffc04 	addi	sp,sp,-16
   3457c:	008000f4 	movhi	r2,3
   34580:	dc800215 	stw	r18,8(sp)
   34584:	149af817 	ldw	r18,27616(r2)
   34588:	dc400115 	stw	r17,4(sp)
   3458c:	dfc00315 	stw	ra,12(sp)
   34590:	2023883a 	mov	r17,r4
   34594:	90000226 	beq	r18,zero,345a0 <putc+0x28>
   34598:	90800e17 	ldw	r2,56(r18)
   3459c:	10000f26 	beq	r2,zero,345dc <putc+0x64>
   345a0:	28800217 	ldw	r2,8(r5)
   345a4:	10bfffc4 	addi	r2,r2,-1
   345a8:	28800215 	stw	r2,8(r5)
   345ac:	10001316 	blt	r2,zero,345fc <putc+0x84>
   345b0:	28800017 	ldw	r2,0(r5)
   345b4:	14400005 	stb	r17,0(r2)
   345b8:	28800017 	ldw	r2,0(r5)
   345bc:	10c00044 	addi	r3,r2,1
   345c0:	28c00015 	stw	r3,0(r5)
   345c4:	10800003 	ldbu	r2,0(r2)
   345c8:	dfc00317 	ldw	ra,12(sp)
   345cc:	dc800217 	ldw	r18,8(sp)
   345d0:	dc400117 	ldw	r17,4(sp)
   345d4:	dec00404 	addi	sp,sp,16
   345d8:	f800283a 	ret
   345dc:	9009883a 	mov	r4,r18
   345e0:	d9400015 	stw	r5,0(sp)
   345e4:	0022de40 	call	22de4 <__sinit>
   345e8:	d9400017 	ldw	r5,0(sp)
   345ec:	28800217 	ldw	r2,8(r5)
   345f0:	10bfffc4 	addi	r2,r2,-1
   345f4:	28800215 	stw	r2,8(r5)
   345f8:	103fed0e 	bge	r2,zero,345b0 <putc+0x38>
   345fc:	28c00617 	ldw	r3,24(r5)
   34600:	10c00a16 	blt	r2,r3,3462c <putc+0xb4>
   34604:	28800017 	ldw	r2,0(r5)
   34608:	14400005 	stb	r17,0(r2)
   3460c:	28c00017 	ldw	r3,0(r5)
   34610:	18800003 	ldbu	r2,0(r3)
   34614:	108002a0 	cmpeqi	r2,r2,10
   34618:	10000c1e 	bne	r2,zero,3464c <putc+0xd4>
   3461c:	18800044 	addi	r2,r3,1
   34620:	28800015 	stw	r2,0(r5)
   34624:	18800003 	ldbu	r2,0(r3)
   34628:	003fe706 	br	345c8 <putc+0x50>
   3462c:	280d883a 	mov	r6,r5
   34630:	880b883a 	mov	r5,r17
   34634:	9009883a 	mov	r4,r18
   34638:	dfc00317 	ldw	ra,12(sp)
   3463c:	dc800217 	ldw	r18,8(sp)
   34640:	dc400117 	ldw	r17,4(sp)
   34644:	dec00404 	addi	sp,sp,16
   34648:	002e8141 	jmpi	2e814 <__swbuf_r>
   3464c:	280d883a 	mov	r6,r5
   34650:	01400284 	movi	r5,10
   34654:	003ff706 	br	34634 <putc+0xbc>
