
nik_controller.elf:     file format elf32-littlenios2
nik_controller.elf
architecture: nios2:r1, flags 0x00000112:
EXEC_P, HAS_SYMS, D_PAGED
start address 0x00020228

Program Header:
    LOAD off    0x00001000 vaddr 0x00020000 paddr 0x00020000 align 2**12
         filesz 0x00000020 memsz 0x00000020 flags r-x
    LOAD off    0x00001020 vaddr 0x00020020 paddr 0x00020020 align 2**12
         filesz 0x00010674 memsz 0x00010674 flags r-x
    LOAD off    0x00011694 vaddr 0x00030694 paddr 0x000322d0 align 2**12
         filesz 0x00001c3c memsz 0x00001c3c flags rw-
    LOAD off    0x00013f0c vaddr 0x00033f0c paddr 0x00033f0c align 2**12
         filesz 0x00000000 memsz 0x0000017c flags rw-

Sections:
Idx Name          Size      VMA       LMA       File off  Algn
  0 .entry        00000020  00020000  00020000  00001000  2**5
                  CONTENTS, ALLOC, LOAD, READONLY, CODE
  1 .exceptions   00000208  00020020  00020020  00001020  2**2
                  CONTENTS, ALLOC, LOAD, READONLY, CODE
  2 .text         0000fca8  00020228  00020228  00001228  2**2
                  CONTENTS, ALLOC, LOAD, READONLY, CODE
  3 .rodata       000007c4  0002fed0  0002fed0  00010ed0  2**2
                  CONTENTS, ALLOC, LOAD, READONLY, DATA
  4 .rwdata       00001c3c  00030694  000322d0  00011694  2**2
                  CONTENTS, ALLOC, LOAD, DATA, SMALL_DATA
  5 .bss          0000017c  00033f0c  00033f0c  00013f0c  2**2
                  ALLOC, SMALL_DATA
  6 .onchip_memory 00000000  00034088  00034088  000132d0  2**0
                  CONTENTS
  7 .comment      0000002c  00000000  00000000  000132d0  2**0
                  CONTENTS, READONLY
  8 .debug_aranges 00001370  00000000  00000000  00013300  2**3
                  CONTENTS, READONLY, DEBUGGING
  9 .debug_info   000574bf  00000000  00000000  00014670  2**0
                  CONTENTS, READONLY, DEBUGGING
 10 .debug_abbrev 00012319  00000000  00000000  0006bb2f  2**0
                  CONTENTS, READONLY, DEBUGGING
 11 .debug_line   0001c096  00000000  00000000  0007de48  2**0
                  CONTENTS, READONLY, DEBUGGING
 12 .debug_frame  000029f4  00000000  00000000  00099ee0  2**2
                  CONTENTS, READONLY, DEBUGGING
 13 .debug_str    00004a97  00000000  00000000  0009c8d4  2**0
                  CONTENTS, READONLY, DEBUGGING
 14 .debug_loc    0001cd0f  00000000  00000000  000a136b  2**0
                  CONTENTS, READONLY, DEBUGGING
 15 .debug_alt_sim_info 00000010  00000000  00000000  000be07c  2**2
                  CONTENTS, READONLY, DEBUGGING
 16 .debug_ranges 00001fa0  00000000  00000000  000be090  2**3
                  CONTENTS, READONLY, DEBUGGING
 17 .thread_model 00000003  00000000  00000000  000c3c15  2**0
                  CONTENTS, READONLY
 18 .cpu          00000003  00000000  00000000  000c3c18  2**0
                  CONTENTS, READONLY
 19 .qsys         00000001  00000000  00000000  000c3c1b  2**0
                  CONTENTS, READONLY
 20 .simulation_enabled 00000001  00000000  00000000  000c3c1c  2**0
                  CONTENTS, READONLY
 21 .sysid_hash   00000004  00000000  00000000  000c3c1d  2**0
                  CONTENTS, READONLY
 22 .sysid_base   00000004  00000000  00000000  000c3c21  2**0
                  CONTENTS, READONLY
 23 .sysid_time   00000004  00000000  00000000  000c3c25  2**0
                  CONTENTS, READONLY
 24 .stderr_dev   00000009  00000000  00000000  000c3c29  2**0
                  CONTENTS, READONLY
 25 .stdin_dev    00000009  00000000  00000000  000c3c32  2**0
                  CONTENTS, READONLY
 26 .stdout_dev   00000009  00000000  00000000  000c3c3b  2**0
                  CONTENTS, READONLY
 27 .sopc_system_name 0000000f  00000000  00000000  000c3c44  2**0
                  CONTENTS, READONLY
 28 .quartus_project_dir 00000033  00000000  00000000  000c3c53  2**0
                  CONTENTS, READONLY
 29 .sopcinfo     0006bc9e  00000000  00000000  000c3c86  2**0
                  CONTENTS, READONLY
SYMBOL TABLE:
00020000 l    d  .entry	00000000 .entry
00020020 l    d  .exceptions	00000000 .exceptions
00020228 l    d  .text	00000000 .text
0002fed0 l    d  .rodata	00000000 .rodata
00030694 l    d  .rwdata	00000000 .rwdata
00033f0c l    d  .bss	00000000 .bss
00034088 l    d  .onchip_memory	00000000 .onchip_memory
00000000 l    d  .comment	00000000 .comment
00000000 l    d  .debug_aranges	00000000 .debug_aranges
00000000 l    d  .debug_info	00000000 .debug_info
00000000 l    d  .debug_abbrev	00000000 .debug_abbrev
00000000 l    d  .debug_line	00000000 .debug_line
00000000 l    d  .debug_frame	00000000 .debug_frame
00000000 l    d  .debug_str	00000000 .debug_str
00000000 l    d  .debug_loc	00000000 .debug_loc
00000000 l    d  .debug_alt_sim_info	00000000 .debug_alt_sim_info
00000000 l    d  .debug_ranges	00000000 .debug_ranges
00000000 l    df *ABS*	00000000 ../nik_controller_bsp//obj/HAL/src/crt0.o
00020260 l       .text	00000000 alt_after_alt_main
00000000 l    df *ABS*	00000000 alt_irq_handler.c
00000000 l    df *ABS*	00000000 alt_instruction_exception_entry.c
00000000 l    df *ABS*	00000000 hello_world.c
00000000 l    df *ABS*	00000000 fixdfsi.c
00000000 l    df *ABS*	00000000 atof.c
00000000 l    df *ABS*	00000000 fopen.c
00000000 l    df *ABS*	00000000 fseek.c
00000000 l    df *ABS*	00000000 fseeko.c
00000000 l    df *ABS*	00000000 fstatr.c
00000000 l    df *ABS*	00000000 getc.c
00000000 l    df *ABS*	00000000 impure.c
000306b8 l     O .rwdata	00000424 impure_data
00000000 l    df *ABS*	00000000 int_errno.c
00000000 l    df *ABS*	00000000 makebuf.c
00000000 l    df *ABS*	00000000 malloc.c
00000000 l    df *ABS*	00000000 mallocr.c
00000000 l    df *ABS*	00000000 openr.c
00000000 l    df *ABS*	00000000 refill.c
00021b9c l     F .text	0000001c lflush
00000000 l    df *ABS*	00000000 rget.c
00000000 l    df *ABS*	00000000 sbrkr.c
00000000 l    df *ABS*	00000000 stdio.c
00000000 l    df *ABS*	00000000 strtod.c
00021fa0 l     F .text	00000064 sulp
0002ff38 l     O .rodata	00000028 tinytens
0002ff24 l     O .rodata	00000014 fpi.4065
0002ff10 l     O .rodata	00000014 fpinan.4101
00000000 l    df *ABS*	00000000 writer.c
00000000 l    df *ABS*	00000000 closer.c
00000000 l    df *ABS*	00000000 fflush.c
00000000 l    df *ABS*	00000000 findfp.c
00023bc0 l     F .text	00000008 __fp_lock
00023bd4 l     F .text	00000168 __sinit.part.0
00023d3c l     F .text	00000008 __fp_unlock
00000000 l    df *ABS*	00000000 flags.c
00000000 l    df *ABS*	00000000 mallocr.c
00000000 l    df *ABS*	00000000 fwalk.c
00000000 l    df *ABS*	00000000 gdtoa-gethex.c
00024524 l     F .text	000000dc rshift
00000000 l    df *ABS*	00000000 gdtoa-hexnan.c
00000000 l    df *ABS*	00000000 isattyr.c
00000000 l    df *ABS*	00000000 lnumeric.c
000322a4 l     O .rwdata	00000002 numempty
00000000 l    df *ABS*	00000000 locale.c
00000000 l    df *ABS*	00000000 lseekr.c
00000000 l    df *ABS*	00000000 mbtowc_r.c
00000000 l    df *ABS*	00000000 memcpy.c
00000000 l    df *ABS*	00000000 memset.c
00000000 l    df *ABS*	00000000 mprec.c
00030118 l     O .rodata	0000000c p05.3991
00000000 l    df *ABS*	00000000 readr.c
00000000 l    df *ABS*	00000000 strcmp.c
00000000 l    df *ABS*	00000000 strlen.c
00000000 l    df *ABS*	00000000 strncmp.c
00000000 l    df *ABS*	00000000 wctomb_r.c
00000000 l    df *ABS*	00000000 assert.c
00000000 l    df *ABS*	00000000 mallocr.c
00000000 l    df *ABS*	00000000 ctype_.c
00000000 l    df *ABS*	00000000 fclose.c
00000000 l    df *ABS*	00000000 fiprintf.c
00000000 l    df *ABS*	00000000 vfiprintfr_1.c
00000000 l    df *ABS*	00000000 abort.c
00000000 l    df *ABS*	00000000 signal.c
00026b3c l     F .text	0000004c _init_signal_r.part.0
00000000 l    df *ABS*	00000000 signalr.c
00000000 l    df *ABS*	00000000 vfprintf.c
00026e54 l     F .text	000000f4 __sprint_r.part.0
00028290 l     F .text	000000c0 __sbprintf
00030540 l     O .rodata	00000010 blanks.5153
00030530 l     O .rodata	00000010 zeroes.5154
00000000 l    df *ABS*	00000000 wsetup.c
00000000 l    df *ABS*	00000000 fputwc.c
00000000 l    df *ABS*	00000000 fvwrite.c
00000000 l    df *ABS*	00000000 memchr.c
00000000 l    df *ABS*	00000000 memmove.c
00000000 l    df *ABS*	00000000 mallocr.c
00000000 l    df *ABS*	00000000 wbuf.c
00000000 l    df *ABS*	00000000 wcrtomb.c
00000000 l    df *ABS*	00000000 libgcc2.c
00000000 l    df *ABS*	00000000 libgcc2.c
00000000 l    df *ABS*	00000000 libgcc2.c
00000000 l    df *ABS*	00000000 libgcc2.c
00000000 l    df *ABS*	00000000 libgcc2.c
00000000 l    df *ABS*	00000000 libgcc2.c
00000000 l    df *ABS*	00000000 lib2-divmod.c
00000000 l    df *ABS*	00000000 lib2-mul.c
00000000 l    df *ABS*	00000000 eqsf2.c
00000000 l    df *ABS*	00000000 lesf2.c
00000000 l    df *ABS*	00000000 unordsf2.c
00000000 l    df *ABS*	00000000 adddf3.c
00000000 l    df *ABS*	00000000 divdf3.c
00000000 l    df *ABS*	00000000 eqdf2.c
00000000 l    df *ABS*	00000000 gedf2.c
00000000 l    df *ABS*	00000000 ledf2.c
00000000 l    df *ABS*	00000000 muldf3.c
00000000 l    df *ABS*	00000000 subdf3.c
00000000 l    df *ABS*	00000000 unorddf2.c
00000000 l    df *ABS*	00000000 floatsidf.c
00000000 l    df *ABS*	00000000 floatunsidf.c
00000000 l    df *ABS*	00000000 truncdfsf2.c
00000000 l    df *ABS*	00000000 libgcc2.c
00000000 l    df *ABS*	00000000 libgcc2.c
00000000 l    df *ABS*	00000000 alt_close.c
0002cfa4 l     F .text	0000003c alt_get_errno
00000000 l    df *ABS*	00000000 alt_dev.c
0002d0bc l     F .text	0000002c alt_dev_null_write
00000000 l    df *ABS*	00000000 alt_errno.c
00000000 l    df *ABS*	00000000 alt_exit.c
00000000 l    df *ABS*	00000000 alt_fstat.c
0002d120 l     F .text	0000003c alt_get_errno
00000000 l    df *ABS*	00000000 alt_getpid.c
00000000 l    df *ABS*	00000000 alt_irq_register.c
00000000 l    df *ABS*	00000000 alt_irq_vars.c
00000000 l    df *ABS*	00000000 alt_isatty.c
0002d3b8 l     F .text	0000003c alt_get_errno
00000000 l    df *ABS*	00000000 alt_kill.c
0002d4a4 l     F .text	0000003c alt_get_errno
00000000 l    df *ABS*	00000000 alt_load.c
0002d60c l     F .text	00000068 alt_load_section
00000000 l    df *ABS*	00000000 alt_lseek.c
0002d6f8 l     F .text	0000003c alt_get_errno
00000000 l    df *ABS*	00000000 alt_main.c
00000000 l    df *ABS*	00000000 alt_malloc_lock.c
00000000 l    df *ABS*	00000000 alt_open.c
0002d8d8 l     F .text	0000003c alt_get_errno
0002d914 l     F .text	000000dc alt_file_locked
00000000 l    df *ABS*	00000000 alt_printf.c
00000000 l    df *ABS*	00000000 alt_putchar.c
00000000 l    df *ABS*	00000000 alt_read.c
0002ddac l     F .text	0000003c alt_get_errno
00000000 l    df *ABS*	00000000 alt_release_fd.c
00000000 l    df *ABS*	00000000 alt_sbrk.c
000322c4 l     O .rwdata	00000004 heap_end
00000000 l    df *ABS*	00000000 alt_write.c
0002e018 l     F .text	0000003c alt_get_errno
00000000 l    df *ABS*	00000000 alt_sys_init.c
0002e158 l     F .text	00000034 alt_dev_reg
000311f8 l     O .rwdata	00001060 jtag_uart
00032258 l     O .rwdata	0000002c accelerometer_spi
00000000 l    df *ABS*	00000000 altera_avalon_jtag_uart_fd.c
00000000 l    df *ABS*	00000000 altera_avalon_jtag_uart_init.c
0002e450 l     F .text	00000210 altera_avalon_jtag_uart_irq
0002e660 l     F .text	000000a0 altera_avalon_jtag_uart_timeout
00000000 l    df *ABS*	00000000 altera_avalon_jtag_uart_ioctl.c
00000000 l    df *ABS*	00000000 altera_avalon_jtag_uart_read.c
00000000 l    df *ABS*	00000000 altera_avalon_jtag_uart_write.c
00000000 l    df *ABS*	00000000 altera_avalon_timer_sc.c
0002eca4 l     F .text	00000080 alt_avalon_timer_sc_irq
00000000 l    df *ABS*	00000000 altera_up_avalon_accelerometer_spi.c
00000000 l    df *ABS*	00000000 alt_alarm_start.c
00000000 l    df *ABS*	00000000 alt_dcache_flush_all.c
00000000 l    df *ABS*	00000000 alt_dev_llist_insert.c
0002f2c0 l     F .text	0000003c alt_get_errno
00000000 l    df *ABS*	00000000 alt_do_ctors.c
00000000 l    df *ABS*	00000000 alt_do_dtors.c
00000000 l    df *ABS*	00000000 alt_find_dev.c
00000000 l    df *ABS*	00000000 alt_find_file.c
00000000 l    df *ABS*	00000000 alt_get_fd.c
00000000 l    df *ABS*	00000000 alt_icache_flush_all.c
00000000 l    df *ABS*	00000000 alt_io_redirect.c
0002f6dc l     F .text	000000d4 alt_open_fd
00000000 l    df *ABS*	00000000 alt_tick.c
00000000 l    df *ABS*	00000000 altera_nios2_gen2_irq.c
00000000 l    df *ABS*	00000000 atexit.c
00000000 l    df *ABS*	00000000 exit.c
00000000 l    df *ABS*	00000000 memcmp.c
00000000 l    df *ABS*	00000000 putchar.c
00000000 l    df *ABS*	00000000 __atexit.c
00000000 l    df *ABS*	00000000 __call_atexit.c
00000000 l    df *ABS*	00000000 putc.c
00033f44 g     O .bss	00000004 alt_instruction_exception_handler
0002fb5c g     F .text	00000018 putchar
00026494 g     F .text	00000070 _mprec_log10
00026570 g     F .text	00000060 __any_on
000250fc g     F .text	00000058 _isatty_r
00030124 g     O .rodata	00000028 __mprec_tinytens
0002d814 g     F .text	0000007c alt_main
00033f88 g     O .bss	00000100 alt_irq
000251f4 g     F .text	00000064 _lseek_r
0003228c g     O .rwdata	00000004 en_f
000322d0 g       *ABS*	00000000 __flash_rwdata_start
00023f14 g     F .text	000000b8 __sflags
0002b904 g     F .text	00000080 .hidden __eqdf2
00034088 g       *ABS*	00000000 __alt_heap_start
000296a8 g     F .text	00000070 .hidden __floatdidf
00026df0 g     F .text	00000060 _kill_r
0002943c g     F .text	0000006c _wcrtomb_r
00026b9c g     F .text	00000084 _signal_r
00021f3c g     F .text	0000005c __sseek
00023ecc g     F .text	00000010 __sinit
000292dc g     F .text	00000148 __swbuf_r
0002515c g     F .text	00000074 _setlocale_r
00023d44 g     F .text	00000078 __sfmoreglue
0002d8b4 g     F .text	00000024 __malloc_unlock
00023590 g     F .text	0000000c _strtod_r
00028c4c g     F .text	0000012c memmove
00023eb8 g     F .text	00000014 _cleanup
00025498 g     F .text	000000a4 _Balloc
000202e0 g     F .text	00000034 sys_timer_isr
000306ac g     O .rwdata	0000000c inact_thresh_coef
0002b984 g     F .text	000000f0 .hidden __gtdf2
0002f9d8 g     F .text	00000024 altera_nios2_gen2_irq_init
00020000 g     F .entry	0000000c __reset
0002eef0 g     F .text	000000d4 alt_up_accelerometer_spi_read_x_axis
00020020 g       *ABS*	00000000 __flash_exceptions_start
00020ff4 g     F .text	00000060 _fstat_r
00033f18 g     O .bss	00000004 errno
00021df8 g     F .text	00000010 __srget
00021eb4 g     F .text	00000008 __seofread
00033f34 g     O .bss	00000004 alt_argv
0003a284 g       *ABS*	00000000 _gp
0002d218 g     F .text	00000020 getpid
00032284 g     O .rwdata	00000006 output
00033f48 g     O .bss	0000000c xyz
00031078 g     O .rwdata	00000180 alt_fd_list
00021054 g     F .text	0000007c _getc_r
000210d0 g     F .text	00000090 getc
0002fb54 g     F .text	00000008 _putchar_r
0002f46c g     F .text	00000090 alt_find_dev
000252a8 g     F .text	00000100 memcpy
00024e94 g     F .text	00000268 __hexnan
00023bc8 g     F .text	0000000c _cleanup_r
0002cc94 g     F .text	000000bc .hidden __floatsidf
0002f7b0 g     F .text	0000007c alt_io_redirect
0002ba74 g     F .text	000000f0 .hidden __ltdf2
0002fed0 g       *ABS*	00000000 __DTOR_END__
0002f9fc g     F .text	00000098 alt_exception_cause_generated_bad_addr
00030694 g     O .rwdata	00000018 act_thresh_coef
000263f0 g     F .text	000000a4 __ratio
00028274 g     F .text	0000001c __vfiprintf_internal
00032290 g     O .rwdata	00000004 nox
0002e85c g     F .text	00000220 altera_avalon_jtag_uart_read
00021338 g     F .text	00000010 malloc
0002a3ec g     F .text	00000064 .hidden __udivsi3
0002d3f4 g     F .text	000000b0 isatty
00026c20 g     F .text	000000c4 _raise_r
00026884 g     F .text	00000064 __assert_func
00030174 g     O .rodata	000000c8 __mprec_tens
00020380 g     F .text	0000006c read_accelerometer
0002a54c g     F .text	000000c0 .hidden __lesf2
00029530 g     F .text	00000074 .hidden __fixunsdfsi
00033f24 g     O .bss	00000004 __malloc_top_pad
00026e50 g     F .text	00000004 _getpid_r
000286ac g     F .text	000004cc __sfvwrite_r
00025908 g     F .text	00000054 __i2b
00026ce4 g     F .text	000000b8 __sigtramp_r
00021e08 g     F .text	00000058 _sbrk_r
000265d0 g     F .text	00000064 _read_r
000322b8 g     O .rwdata	00000004 alt_max_fd
000269c0 g     F .text	000000f8 _fclose_r
00023b98 g     F .text	00000028 fflush
00033f20 g     O .bss	00000004 __malloc_max_sbrked_mem
0002d238 g     F .text	00000180 alt_irq_register
0002a658 g     F .text	00000978 .hidden __adddf3
0002a4d4 g     F .text	00000078 .hidden __nesf2
00026188 g     F .text	00000104 __b2d
00029d34 g     F .text	000005c4 .hidden __umoddi3
0002d734 g     F .text	000000e0 lseek
00032294 g     O .rwdata	00000004 _global_impure_ptr
00028d78 g     F .text	00000564 _realloc_r
00034088 g       *ABS*	00000000 __bss_end
0002f8d0 g     F .text	00000108 alt_tick
0002ffbc g     O .rodata	00000100 __hexdig
00029718 g     F .text	0000061c .hidden __udivdi3
00028610 g     F .text	00000024 _fputwc_r
0003014c g     O .rodata	00000028 __mprec_bigtens
000256bc g     F .text	00000138 __s2b
00026b24 g     F .text	00000018 abort
0002cd50 g     F .text	00000090 .hidden __floatunsidf
00025ea8 g     F .text	00000058 __mcmp
00023eec g     F .text	00000014 __fp_lock_all
0002f82c g     F .text	000000a4 alt_alarm_stop
00033f2c g     O .bss	00000004 alt_irq_active
00020b84 g     F .text	00000454 _fseeko_r
000200fc g     F .exceptions	000000cc alt_irq_handler
00031050 g     O .rwdata	00000028 alt_dev_null
00022004 g     F .text	0000158c _strtod_l
00024e44 g     F .text	00000050 __match
000206c8 g     F .text	00000084 detect_INACT
0002f2a0 g     F .text	00000020 alt_dcache_flush_all
000257f4 g     F .text	00000064 __hi0bits
000209d4 g     F .text	00000080 .hidden __fixdfsi
000235b8 g     F .text	00000020 strtod
000322d0 g       *ABS*	00000000 __ram_rwdata_end
00020264 g     F .text	0000007c timer_init
00020000 g       *ABS*	00000000 __alt_mem_onchip_memory
000322b0 g     O .rwdata	00000008 alt_dev_list
0002e054 g     F .text	00000104 write
0002fd24 g     F .text	000000cc _putc_r
00020a54 g     F .text	00000008 atof
00030694 g       *ABS*	00000000 __ram_rodata_end
0002d15c g     F .text	000000bc fstat
00020314 g     F .text	0000006c shift_xyz
0002d4e0 g     F .text	0000012c kill
0002ba74 g     F .text	000000f0 .hidden __ledf2
000235d8 g     F .text	00000120 strtof_l
00025c08 g     F .text	00000118 __pow5mult
0003228a g     O .rwdata	00000001 led
00026f60 g     F .text	00001314 ___vfiprintf_internal_r
0002a450 g     F .text	0000005c .hidden __umodsi3
00034088 g       *ABS*	00000000 end
00020fd8 g     F .text	0000001c fseeko
00020b68 g     F .text	0000001c fseek
0002e39c g     F .text	000000b4 altera_avalon_jtag_uart_init
000201c8 g     F .exceptions	00000060 alt_instruction_exception_entry
0002fed0 g       *ABS*	00000000 __CTOR_LIST__
00040000 g       *ABS*	00000000 __alt_stack_pointer
0002ed24 g     F .text	0000007c alt_avalon_timer_sc_init
0002cf50 g     F .text	00000054 .hidden __clzsi2
0002ea7c g     F .text	00000228 altera_avalon_jtag_uart_write
00023edc g     F .text	00000004 __sfp_lock_acquire
00028b78 g     F .text	000000d4 memchr
000240e8 g     F .text	000002fc _free_r
0002db50 g     F .text	0000022c alt_printf
00030380 g     O .rodata	00000180 _ctype_b
000251d0 g     F .text	0000000c __locale_mb_cur_max
0002fc04 g     F .text	00000120 __call_exitprocs
00021d84 g     F .text	00000074 __srget_r
0003229c g     O .rwdata	00000004 __malloc_sbrk_base
00020228 g     F .text	0000003c _start
00033f3c g     O .bss	00000004 _alt_tick_rate
00025d20 g     F .text	00000188 __lshift
00033f40 g     O .bss	00000004 _alt_nticks
00026dac g     F .text	00000018 signal
0002dde8 g     F .text	00000108 read
0002e1c8 g     F .text	00000070 alt_sys_init
0002eddc g     F .text	00000044 alt_up_accelerometer_spi_read_address_register
00021b38 g     F .text	00000064 _open_r
0002fb74 g     F .text	00000090 __register_exitproc
00026784 g     F .text	000000c4 strncmp
0002595c g     F .text	000002ac __multiply
0002e700 g     F .text	00000068 altera_avalon_jtag_uart_close
0002a4ac g     F .text	00000028 .hidden __mulsi3
00030694 g       *ABS*	00000000 __ram_rwdata_start
0002fed0 g       *ABS*	00000000 __ram_rodata_start
00033f60 g     O .bss	00000028 __malloc_current_mallinfo
0002a4d4 g     F .text	00000078 .hidden __eqsf2
0002628c g     F .text	00000164 __d2b
0002e238 g     F .text	00000060 altera_avalon_jtag_uart_read_fd
0002f604 g     F .text	000000b8 alt_get_fd
0002efc4 g     F .text	000000d4 alt_up_accelerometer_spi_read_y_axis
000238b8 g     F .text	00000058 _close_r
000203ec g     F .text	000000bc max
0002fadc g     F .text	00000078 memcmp
0002e2f8 g     F .text	00000050 altera_avalon_jtag_uart_close_fd
00034088 g       *ABS*	00000000 __alt_stack_base
0002e348 g     F .text	00000054 altera_avalon_jtag_uart_ioctl_fd
00028350 g     F .text	0000015c __swsetup_r
0002afd0 g     F .text	00000934 .hidden __divdf3
00023dbc g     F .text	000000fc __sfp
00026504 g     F .text	0000006c __copybits
00030adc g     O .rwdata	00000408 __malloc_av_
00023ee8 g     F .text	00000004 __sinit_lock_release
0002bb64 g     F .text	000007a8 .hidden __muldf3
00021e60 g     F .text	00000054 __sread
0002f4fc g     F .text	00000108 alt_find_file
0002f2fc g     F .text	000000a8 alt_dev_llist_insert
0002d890 g     F .text	00000024 __malloc_lock
0002df60 g     F .text	000000b8 sbrk
00023b38 g     F .text	00000060 _fflush_r
000268fc g     F .text	000000c4 _calloc_r
00020b4c g     F .text	00000018 fopen
00033f0c g       *ABS*	00000000 __bss_start
000253a8 g     F .text	000000f0 memset
000207b4 g     F .text	00000220 main
00033f38 g     O .bss	00000004 alt_envp
00033f1c g     O .bss	00000004 __malloc_max_total_mem
0002e298 g     F .text	00000060 altera_avalon_jtag_uart_write_fd
00029424 g     F .text	00000018 __swbuf
0002a54c g     F .text	000000c0 .hidden __ltsf2
00021f98 g     F .text	00000008 __sclose
00040000 g       *ABS*	00000000 __alt_heap_limit
00026ab8 g     F .text	00000010 fclose
0002cde0 g     F .text	00000170 .hidden __truncdfsf2
00021358 g     F .text	000007e0 _malloc_r
00026854 g     F .text	00000030 __ascii_wctomb
000322bc g     O .rwdata	00000004 alt_errno
00026ac8 g     F .text	00000020 _fiprintf_r
00026dc4 g     F .text	0000001c _init_signal
000243e4 g     F .text	00000098 _fwalk
00025258 g     F .text	0000000c _mbtowc_r
0002fdf0 g     F .text	000000e0 putc
0002a2f8 g     F .text	00000080 .hidden __divsi3
00023fcc g     F .text	0000011c _malloc_trim_r
0002fed0 g       *ABS*	00000000 __CTOR_END__
00026634 g     F .text	000000b8 strcmp
0002fed0 g       *ABS*	00000000 __flash_rodata_start
0002fed0 g       *ABS*	00000000 __DTOR_LIST__
000204a8 g     F .text	000000bc min
00029618 g     F .text	00000090 .hidden __fixunsdfdi
0002b904 g     F .text	00000080 .hidden __nedf2
00033f10 g     O .bss	00000004 inact_counter
0002e18c g     F .text	0000003c alt_irq_init
0002def0 g     F .text	00000070 alt_release_fd
00030550 g     O .rodata	00000100 .hidden __clz_tab
00033f28 g     O .bss	00000004 _PathLocale
000295a4 g     F .text	00000074 .hidden __fixdfdi
000236f8 g     F .text	0000015c strtof
0002359c g     F .text	0000001c strtod_l
0002fa94 g     F .text	00000014 atexit
00020564 g     F .text	00000164 detect_ACT
00023854 g     F .text	00000064 _write_r
000251dc g     F .text	00000018 setlocale
00032298 g     O .rwdata	00000004 _impure_ptr
00033f30 g     O .bss	00000004 alt_argc
00023910 g     F .text	00000228 __sflush_r
0002f408 g     F .text	00000064 _do_dtors
00020b64 g     F .text	00000004 _fseek_r
00021bb8 g     F .text	000001cc __srefill_r
00020020 g       .exceptions	00000000 alt_irq_entry
00025264 g     F .text	00000044 __ascii_mbtowc
0002612c g     F .text	0000005c __ulp
00023f00 g     F .text	00000014 __fp_unlock_all
000300c0 g     O .rodata	0000000c _C_numeric_locale
000322a8 g     O .rwdata	00000008 alt_fs_list
00020020 g       *ABS*	00000000 __ram_exceptions_start
0002eda0 g     F .text	0000003c alt_up_accelerometer_spi_open_dev
00021160 g     F .text	00000098 __swhatbuf_r
00033f54 g     O .bss	0000000c xyz_prev
000322d0 g       *ABS*	00000000 _edata
00034088 g       *ABS*	00000000 _end
0002a60c g     F .text	0000004c .hidden __unordsf2
000284ac g     F .text	00000164 __fputwc
00020228 g       *ABS*	00000000 __ram_exceptions_end
0002e768 g     F .text	000000f4 altera_avalon_jtag_uart_ioctl
00021ebc g     F .text	00000080 __swrite
000322a0 g     O .rwdata	00000004 __malloc_trim_threshold
0002faa8 g     F .text	00000034 exit
00026ae8 g     F .text	00000038 fiprintf
00026b20 g     F .text	00000004 _vfiprintf_r
0002447c g     F .text	000000a8 _fwalk_reent
00025f00 g     F .text	0000022c __mdiff
0002a378 g     F .text	00000074 .hidden __modsi3
0002f098 g     F .text	000000d4 alt_up_accelerometer_spi_read_z_axis
00040000 g       *ABS*	00000000 __alt_data_end
00020020 g     F .exceptions	00000000 alt_exception
00023ee0 g     F .text	00000004 __sfp_lock_release
00033f0c g     O .bss	00000004 timer_f
0003027c g     O .rodata	00000101 _ctype_
0002074c g     F .text	00000068 wait_INACT
0002cc40 g     F .text	00000054 .hidden __unorddf2
00020a5c g     F .text	000000f0 _fopen_r
0002d0e8 g     F .text	00000038 _exit
0002f16c g     F .text	00000134 alt_alarm_start
0002ee20 g     F .text	00000068 alt_up_accelerometer_spi_read
0002ee88 g     F .text	00000068 alt_up_accelerometer_spi_write
000211f8 g     F .text	00000140 __smakebuf_r
000266ec g     F .text	00000098 strlen
00026b88 g     F .text	00000014 _init_signal_r
0002d9f0 g     F .text	00000160 open
0002b984 g     F .text	000000f0 .hidden __gedf2
0002dd7c g     F .text	00000030 alt_putchar
00024600 g     F .text	00000844 __gethex
000268e8 g     F .text	00000014 __assert
00026f48 g     F .text	00000018 __sprint_r
0002f6bc g     F .text	00000020 alt_icache_flush_all
00025154 g     F .text	00000008 __numeric_load_locale
000322c0 g     O .rwdata	00000004 alt_priority_mask
00026848 g     F .text	0000000c _wctomb_r
0002c30c g     F .text	00000934 .hidden __subdf3
00033f14 g     O .bss	00000004 acc_dev
00025858 g     F .text	000000b0 __lo0bits
000322c8 g     O .rwdata	00000008 alt_alarm_list
0002f3a4 g     F .text	00000064 _do_ctors
00026de0 g     F .text	00000010 __sigtramp
000294a8 g     F .text	00000088 wcrtomb
0002cfe0 g     F .text	000000dc close
00030ee4 g     O .rwdata	0000016c __global_locale
0002d674 g     F .text	00000084 alt_load
00028634 g     F .text	00000078 fputwc
00026d9c g     F .text	00000010 raise
00021348 g     F .text	00000010 free
00023ee4 g     F .text	00000004 __sinit_lock_acquire
00025560 g     F .text	0000015c __multadd
0002553c g     F .text	00000024 _Bfree



Disassembly of section .entry:

00020000 <__reset>:
 * Jump to the _start entry point in the .text section if reset code
 * is allowed or if optimizing for RTL simulation.
 */
#if defined(ALT_ALLOW_CODE_AT_RESET) || defined(ALT_SIM_OPTIMIZE)
    /* Jump to the _start entry point in the .text section. */
    movhi r1, %hi(_start)
   20000:	004000b4 	movhi	at,2
    ori r1, r1, %lo(_start)
   20004:	08408a14 	ori	at,at,552
    jmp r1
   20008:	0800683a 	jmp	at
	...

Disassembly of section .exceptions:

00020020 <alt_exception>:

#else /* ALT_EXCEPTION_STACK disabled */
        /* 
         * Reserve space on normal stack for registers about to be pushed.
         */
        addi  sp, sp, -76
   20020:	deffed04 	addi	sp,sp,-76
         * documentation for details).
         *
         * Leave a gap in the stack frame at 4(sp) for the muldiv handler to
         * store zero into.
         */
        stw   ra,  0(sp)
   20024:	dfc00015 	stw	ra,0(sp)
        stw   r1,   8(sp)
   20028:	d8400215 	stw	at,8(sp)
        stw   r2,  12(sp)
   2002c:	d8800315 	stw	r2,12(sp)
        stw   r3,  16(sp)
   20030:	d8c00415 	stw	r3,16(sp)
        stw   r4,  20(sp)
   20034:	d9000515 	stw	r4,20(sp)
        stw   r5,  24(sp)
   20038:	d9400615 	stw	r5,24(sp)
        stw   r6,  28(sp)
   2003c:	d9800715 	stw	r6,28(sp)
        stw   r7,  32(sp)
   20040:	d9c00815 	stw	r7,32(sp)
        rdctl r5, estatus   /* Read early to avoid usage stall */
   20044:	000b307a 	rdctl	r5,estatus
        stw   r8,  36(sp)
   20048:	da000915 	stw	r8,36(sp)
        stw   r9,  40(sp)
   2004c:	da400a15 	stw	r9,40(sp)
        stw   r10, 44(sp)
   20050:	da800b15 	stw	r10,44(sp)
        stw   r11, 48(sp)
   20054:	dac00c15 	stw	r11,48(sp)
        stw   r12, 52(sp)
   20058:	db000d15 	stw	r12,52(sp)
        stw   r13, 56(sp)
   2005c:	db400e15 	stw	r13,56(sp)
        stw   r14, 60(sp)
   20060:	db800f15 	stw	r14,60(sp)
        stw   r15, 64(sp)
   20064:	dbc01015 	stw	r15,64(sp)
        /*
         * ea-4 contains the address of the instruction being executed
         * when the exception occured. For interrupt exceptions, we will
         * will be re-issue the isntruction. Store it in 72(sp)
         */
        stw   r5,  68(sp)  /* estatus */
   20068:	d9401115 	stw	r5,68(sp)
        addi  r15, ea, -4  /* instruction that caused exception */
   2006c:	ebffff04 	addi	r15,ea,-4
        stw   r15,  72(sp)
   20070:	dbc01215 	stw	r15,72(sp)
#else
        /*
         * Test to see if the exception was a software exception or caused 
         * by an external interrupt, and vector accordingly.
         */
        rdctl r4, ipending
   20074:	0009313a 	rdctl	r4,ipending
        andi  r2, r5, 1
   20078:	2880004c 	andi	r2,r5,1
        beq   r2, zero, .Lnot_irq
   2007c:	10000326 	beq	r2,zero,2008c <alt_exception+0x6c>
        beq   r4, zero, .Lnot_irq
   20080:	20000226 	beq	r4,zero,2008c <alt_exception+0x6c>
        /*
         * Now that all necessary registers have been preserved, call 
         * alt_irq_handler() to process the interrupts.
         */

        call alt_irq_handler
   20084:	00200fc0 	call	200fc <alt_irq_handler>

        .section .exceptions.irqreturn, "xa"

        br    .Lexception_exit
   20088:	00000706 	br	200a8 <alt_exception+0x88>
         * upon completion, so we write ea (address of instruction *after*
         * the one where the exception occured) into 72(sp). The actual
         * instruction that caused the exception is written in r2, which these
         * handlers will utilize.
         */
        stw ea, 72(sp) /* EA is PC+4 so will skip over instruction causing exception */
   2008c:	df401215 	stw	ea,72(sp)
.Lunknown_16bit:
        addi.n r4, r4, 2 /* Need PC+2 to skip over instruction causing exception */
        stw r4, 72(sp)

#else /* CDX is not Enabled and all instructions are 32bits */
        ldw r2, -4(ea) /* Instruction value that caused exception */
   20090:	e8bfff17 	ldw	r2,-4(ea)
         * debugger is present) or go into an infinite loop since the
         * handling behavior is undefined; in that case we will not return here.
         */

        /* Load exception-causing address as first argument (r4) */
        addi   r4, ea, -4
   20094:	e93fff04 	addi	r4,ea,-4

        /* Call the instruction-exception entry */
        call   alt_instruction_exception_entry
   20098:	00201c80 	call	201c8 <alt_instruction_exception_entry>
         * instruction
         *
         * Return code was 0: Skip. The instruction after the exception is
         * already stored in 72(sp).
         */
        bne   r2, r0, .Lexception_exit
   2009c:	1000021e 	bne	r2,zero,200a8 <alt_exception+0x88>

        /*
         * Otherwise, modify 72(sp) to re-issue the instruction that caused the
         * exception.
         */
        addi  r15, ea, -4  /* instruction that caused exception */
   200a0:	ebffff04 	addi	r15,ea,-4
        stw   r15,  72(sp)
   200a4:	dbc01215 	stw	r15,72(sp)
        /* 
         * Restore the saved registers, so that all general purpose registers 
         * have been restored to their state at the time the interrupt occured.
         */

        ldw   r5,  68(sp)
   200a8:	d9401117 	ldw	r5,68(sp)
        ldw   ea,  72(sp)  /* This becomes the PC once eret is executed */
   200ac:	df401217 	ldw	ea,72(sp)
        ldw   ra,   0(sp)
   200b0:	dfc00017 	ldw	ra,0(sp)

        wrctl estatus, r5
   200b4:	2801707a 	wrctl	estatus,r5

        ldw   r1,   8(sp)
   200b8:	d8400217 	ldw	at,8(sp)
        ldw   r2,  12(sp)
   200bc:	d8800317 	ldw	r2,12(sp)
        ldw   r3,  16(sp)
   200c0:	d8c00417 	ldw	r3,16(sp)
        ldw   r4,  20(sp)
   200c4:	d9000517 	ldw	r4,20(sp)
        ldw   r5,  24(sp)
   200c8:	d9400617 	ldw	r5,24(sp)
        ldw   r6,  28(sp)
   200cc:	d9800717 	ldw	r6,28(sp)
        ldw   r7,  32(sp)
   200d0:	d9c00817 	ldw	r7,32(sp)

#if defined(ALT_EXCEPTION_STACK) && defined(ALT_STACK_CHECK)
        ldw   et, %gprel(alt_exception_old_stack_limit)(gp)
#endif

        ldw   r8,  36(sp)
   200d4:	da000917 	ldw	r8,36(sp)
        ldw   r9,  40(sp)
   200d8:	da400a17 	ldw	r9,40(sp)
        ldw   r10, 44(sp)
   200dc:	da800b17 	ldw	r10,44(sp)
        ldw   r11, 48(sp)
   200e0:	dac00c17 	ldw	r11,48(sp)
        ldw   r12, 52(sp)
   200e4:	db000d17 	ldw	r12,52(sp)
        ldw   r13, 56(sp)
   200e8:	db400e17 	ldw	r13,56(sp)
        ldw   r14, 60(sp)
   200ec:	db800f17 	ldw	r14,60(sp)
        ldw   r15, 64(sp)
   200f0:	dbc01017 	ldw	r15,64(sp)
        stw   et, %gprel(alt_stack_limit_value)(gp)
        stw   zero, %gprel(alt_exception_old_stack_limit)(gp)
#endif /* ALT_STACK_CHECK */
        ldw   sp,  76(sp)
#else /* ALT_EXCEPTION_STACK disabled */
        addi  sp, sp, 76
   200f4:	dec01304 	addi	sp,sp,76

        /*
         * Return to the interrupted instruction.
         */

        eret
   200f8:	ef80083a 	eret

000200fc <alt_irq_handler>:
 * instruction is present if the macro ALT_CI_INTERRUPT_VECTOR defined.
 */

void alt_irq_handler (void) __attribute__ ((section (".exceptions")));
void alt_irq_handler (void)
{
   200fc:	defff904 	addi	sp,sp,-28
   20100:	dfc00615 	stw	ra,24(sp)
   20104:	df000515 	stw	fp,20(sp)
   20108:	df000504 	addi	fp,sp,20
  
  /*
   * Notify the operating system that we are at interrupt level.
   */ 
  
  ALT_OS_INT_ENTER();
   2010c:	0001883a 	nop
#ifndef NIOS2_EIC_PRESENT
static ALT_INLINE alt_u32 ALT_ALWAYS_INLINE alt_irq_pending (void)
{
  alt_u32 active;

  NIOS2_READ_IPENDING (active);
   20110:	0005313a 	rdctl	r2,ipending
   20114:	e0bffc15 	stw	r2,-16(fp)

  return active;
   20118:	e0bffc17 	ldw	r2,-16(fp)
   * Consider the case where the high priority interupt is asserted during
   * the interrupt entry sequence for a lower priority interrupt to see why
   * this is the case.
   */

  active = alt_irq_pending ();
   2011c:	e0bfff15 	stw	r2,-4(fp)

  do
  {
    i = 0;
   20120:	e03ffd15 	stw	zero,-12(fp)
    mask = 1;
   20124:	00800044 	movi	r2,1
   20128:	e0bffe15 	stw	r2,-8(fp)
     * called to clear the interrupt condition.
     */

    do
    {
      if (active & mask)
   2012c:	e0ffff17 	ldw	r3,-4(fp)
   20130:	e0bffe17 	ldw	r2,-8(fp)
   20134:	1884703a 	and	r2,r3,r2
   20138:	10001226 	beq	r2,zero,20184 <alt_irq_handler+0x88>
      { 
#ifdef ALT_ENHANCED_INTERRUPT_API_PRESENT
        alt_irq[i].handler(alt_irq[i].context); 
#else
        alt_irq[i].handler(alt_irq[i].context, i); 
   2013c:	e0bffd17 	ldw	r2,-12(fp)
   20140:	100690fa 	slli	r3,r2,3
   20144:	008000f4 	movhi	r2,3
   20148:	1885883a 	add	r2,r3,r2
   2014c:	10cfe217 	ldw	r3,16264(r2)
   20150:	e0bffd17 	ldw	r2,-12(fp)
   20154:	100890fa 	slli	r4,r2,3
   20158:	008000f4 	movhi	r2,3
   2015c:	2085883a 	add	r2,r4,r2
   20160:	108fe317 	ldw	r2,16268(r2)
   20164:	e17ffd17 	ldw	r5,-12(fp)
   20168:	1009883a 	mov	r4,r2
   2016c:	183ee83a 	callr	r3
#endif
        break;
   20170:	0001883a 	nop
  NIOS2_READ_IPENDING (active);
   20174:	0005313a 	rdctl	r2,ipending
   20178:	e0bffb15 	stw	r2,-20(fp)
  return active;
   2017c:	e0bffb17 	ldw	r2,-20(fp)
   20180:	00000706 	br	201a0 <alt_irq_handler+0xa4>
      }
      mask <<= 1;
   20184:	e0bffe17 	ldw	r2,-8(fp)
   20188:	1085883a 	add	r2,r2,r2
   2018c:	e0bffe15 	stw	r2,-8(fp)
      i++;
   20190:	e0bffd17 	ldw	r2,-12(fp)
   20194:	10800044 	addi	r2,r2,1
   20198:	e0bffd15 	stw	r2,-12(fp)
      if (active & mask)
   2019c:	003fe306 	br	2012c <alt_irq_handler+0x30>

    } while (1);

    active = alt_irq_pending ();
   201a0:	e0bfff15 	stw	r2,-4(fp)
    
  } while (active);
   201a4:	e0bfff17 	ldw	r2,-4(fp)
   201a8:	103fdd1e 	bne	r2,zero,20120 <alt_irq_handler+0x24>

  /*
   * Notify the operating system that interrupt processing is complete.
   */ 

  ALT_OS_INT_EXIT();
   201ac:	0001883a 	nop
}
   201b0:	0001883a 	nop
   201b4:	e037883a 	mov	sp,fp
   201b8:	dfc00117 	ldw	ra,4(sp)
   201bc:	df000017 	ldw	fp,0(sp)
   201c0:	dec00204 	addi	sp,sp,8
   201c4:	f800283a 	ret

000201c8 <alt_instruction_exception_entry>:
 * that handler if it has been registered. Absent a handler, it will
 * break break or hang as discussed below.
 */
int 
alt_instruction_exception_entry (alt_u32 exception_pc)
{
   201c8:	defffb04 	addi	sp,sp,-20
   201cc:	dfc00415 	stw	ra,16(sp)
   201d0:	df000315 	stw	fp,12(sp)
   201d4:	df000304 	addi	fp,sp,12
   201d8:	e13ffd15 	stw	r4,-12(fp)
  cause = ( (cause & NIOS2_EXCEPTION_REG_CAUSE_MASK) >>
              NIOS2_EXCEPTION_REG_CAUSE_OFST );

  NIOS2_READ_BADADDR(badaddr);
#else
  cause = NIOS2_EXCEPTION_CAUSE_NOT_PRESENT;
   201dc:	00bfffc4 	movi	r2,-1
   201e0:	e0bfff15 	stw	r2,-4(fp)
  badaddr = 0;
   201e4:	e03ffe15 	stw	zero,-8(fp)
#endif /* NIOS2_HAS_EXTRA_EXCEPTION_INFO */

  if(alt_instruction_exception_handler) {
   201e8:	d0a73017 	ldw	r2,-25408(gp)
   201ec:	10000726 	beq	r2,zero,2020c <alt_instruction_exception_entry+0x44>
     * Call handler. Its return value indicates whether the exception-causing
     * instruction should be re-issued. The code that called us,
     * alt_eceptions_entry.S, will look at this value and adjust the ea
     * register as necessary
     */
    return alt_instruction_exception_handler(cause, exception_pc, badaddr);
   201f0:	d0a73017 	ldw	r2,-25408(gp)
   201f4:	e0ffff17 	ldw	r3,-4(fp)
   201f8:	e1bffe17 	ldw	r6,-8(fp)
   201fc:	e17ffd17 	ldw	r5,-12(fp)
   20200:	1809883a 	mov	r4,r3
   20204:	103ee83a 	callr	r2
   20208:	00000206 	br	20214 <alt_instruction_exception_entry+0x4c>
   *    (a peripheral which negates its interrupt output before its
   *    interrupt handler has been executed will cause spurious interrupts)
   */
  else {
#ifdef NIOS2_HAS_DEBUG_STUB
    NIOS2_BREAK();
   2020c:	003da03a 	break	0
      ;
#endif /* NIOS2_HAS_DEBUG_STUB */
  }

  /* We should not get here. Remove compiler warning. */
  return NIOS2_EXCEPTION_RETURN_REISSUE_INST;
   20210:	0005883a 	mov	r2,zero
}
   20214:	e037883a 	mov	sp,fp
   20218:	dfc00117 	ldw	ra,4(sp)
   2021c:	df000017 	ldw	fp,0(sp)
   20220:	dec00204 	addi	sp,sp,8
   20224:	f800283a 	ret

Disassembly of section .text:

00020228 <_start>:

    /*
     * Now that the caches are initialized, set up the stack pointer and global pointer.
     * The values provided by the linker are assumed to be correctly aligned.
     */
    movhi sp, %hi(__alt_stack_pointer)
   20228:	06c00134 	movhi	sp,4
    ori sp, sp, %lo(__alt_stack_pointer)
   2022c:	dec00014 	ori	sp,sp,0
    movhi gp, %hi(_gp)
   20230:	068000f4 	movhi	gp,3
    ori gp, gp, %lo(_gp)
   20234:	d6a8a114 	ori	gp,gp,41604
 */
#ifndef ALT_SIM_OPTIMIZE
    /* Log that the BSS is about to be cleared. */
    ALT_LOG_PUTS(alt_log_msg_bss)

    movhi r2, %hi(__bss_start)
   20238:	008000f4 	movhi	r2,3
    ori r2, r2, %lo(__bss_start)
   2023c:	108fc314 	ori	r2,r2,16140

    movhi r3, %hi(__bss_end)
   20240:	00c000f4 	movhi	r3,3
    ori r3, r3, %lo(__bss_end)
   20244:	18d02214 	ori	r3,r3,16520

    beq r2, r3, 1f
   20248:	10c00326 	beq	r2,r3,20258 <_start+0x30>

0:
    stw zero, (r2)
   2024c:	10000015 	stw	zero,0(r2)
    addi r2, r2, 4
   20250:	10800104 	addi	r2,r2,4
    bltu r2, r3, 0b
   20254:	10fffd36 	bltu	r2,r3,2024c <_start+0x24>
     * section aren't defined until alt_load() has been called).
     */
    mov   et, zero
#endif

    call alt_load
   20258:	002d6740 	call	2d674 <alt_load>

    /* Log that alt_main is about to be called. */
    ALT_LOG_PUTS(alt_log_msg_alt_main)

    /* Call the C entry point. It should never return. */
    call alt_main
   2025c:	002d8140 	call	2d814 <alt_main>

00020260 <alt_after_alt_main>:

    /* Wait in infinite loop in case alt_main does return. */
alt_after_alt_main:
    br alt_after_alt_main
   20260:	003fff06 	br	20260 <alt_after_alt_main>

00020264 <timer_init>:
int inact_counter = 0;
int nox = 1; //flag to exclude F/B from detection
alt_up_accelerometer_spi_dev * acc_dev;

//Timer is used to regulate the maximum rate of data input to the game.
void timer_init(void * isr) { //initialises timer and specifies interrupt service routine
   20264:	defffd04 	addi	sp,sp,-12
   20268:	dfc00215 	stw	ra,8(sp)
   2026c:	df000115 	stw	fp,4(sp)
   20270:	df000104 	addi	fp,sp,4
   20274:	e13fff15 	stw	r4,-4(fp)
    IOWR_ALTERA_AVALON_TIMER_CONTROL(TIMER_BASE, 0x0003);
   20278:	00c000c4 	movi	r3,3
   2027c:	00800134 	movhi	r2,4
   20280:	10c40135 	stwio	r3,4100(r2)
    IOWR_ALTERA_AVALON_TIMER_STATUS(TIMER_BASE, 0);
   20284:	0007883a 	mov	r3,zero
   20288:	00800134 	movhi	r2,4
   2028c:	10c40035 	stwio	r3,4096(r2)
    IOWR_ALTERA_AVALON_TIMER_PERIODL(TIMER_BASE, 0x0000); //change period of timer with these two registers
   20290:	0007883a 	mov	r3,zero
   20294:	00800134 	movhi	r2,4
   20298:	10c40235 	stwio	r3,4104(r2)
    IOWR_ALTERA_AVALON_TIMER_PERIODH(TIMER_BASE, 0x0008); // PERIOD = {PERIODH,PERIODL} (concatenated)
   2029c:	00c00204 	movi	r3,8
   202a0:	00800134 	movhi	r2,4
   202a4:	10c40335 	stwio	r3,4108(r2)
    alt_irq_register(TIMER_IRQ, 0, isr);
   202a8:	e0bfff17 	ldw	r2,-4(fp)
   202ac:	100d883a 	mov	r6,r2
   202b0:	000b883a 	mov	r5,zero
   202b4:	0009883a 	mov	r4,zero
   202b8:	002d2380 	call	2d238 <alt_irq_register>
    IOWR_ALTERA_AVALON_TIMER_CONTROL(TIMER_BASE, 0x0007);
   202bc:	00c001c4 	movi	r3,7
   202c0:	00800134 	movhi	r2,4
   202c4:	10c40135 	stwio	r3,4100(r2)
}
   202c8:	0001883a 	nop
   202cc:	e037883a 	mov	sp,fp
   202d0:	dfc00117 	ldw	ra,4(sp)
   202d4:	df000017 	ldw	fp,0(sp)
   202d8:	dec00204 	addi	sp,sp,8
   202dc:	f800283a 	ret

000202e0 <sys_timer_isr>:

void sys_timer_isr() { //interrupt service routine
   202e0:	deffff04 	addi	sp,sp,-4
   202e4:	df000015 	stw	fp,0(sp)
   202e8:	d839883a 	mov	fp,sp
	IOWR_ALTERA_AVALON_TIMER_STATUS(TIMER_BASE, 0);
   202ec:	0007883a 	mov	r3,zero
   202f0:	00800134 	movhi	r2,4
   202f4:	10c40035 	stwio	r3,4096(r2)
	timer_f = 1;
   202f8:	00800044 	movi	r2,1
   202fc:	d0a72215 	stw	r2,-25464(gp)
}
   20300:	0001883a 	nop
   20304:	e037883a 	mov	sp,fp
   20308:	df000017 	ldw	fp,0(sp)
   2030c:	dec00104 	addi	sp,sp,4
   20310:	f800283a 	ret

00020314 <shift_xyz>:

void shift_xyz() {
   20314:	defffe04 	addi	sp,sp,-8
   20318:	df000115 	stw	fp,4(sp)
   2031c:	df000104 	addi	fp,sp,4
	//SHIFT SAMPLE
	for (int i=0; i<3; i++) {
   20320:	e03fff15 	stw	zero,-4(fp)
   20324:	00000d06 	br	2035c <shift_xyz+0x48>
		xyz_prev[i] = xyz[i];
   20328:	e0bfff17 	ldw	r2,-4(fp)
   2032c:	100690ba 	slli	r3,r2,2
   20330:	008000f4 	movhi	r2,3
   20334:	1885883a 	add	r2,r3,r2
   20338:	10cfd217 	ldw	r3,16200(r2)
   2033c:	e0bfff17 	ldw	r2,-4(fp)
   20340:	100890ba 	slli	r4,r2,2
   20344:	008000f4 	movhi	r2,3
   20348:	2085883a 	add	r2,r4,r2
   2034c:	10cfd515 	stw	r3,16212(r2)
	for (int i=0; i<3; i++) {
   20350:	e0bfff17 	ldw	r2,-4(fp)
   20354:	10800044 	addi	r2,r2,1
   20358:	e0bfff15 	stw	r2,-4(fp)
   2035c:	e0bfff17 	ldw	r2,-4(fp)
   20360:	108000d0 	cmplti	r2,r2,3
   20364:	103ff01e 	bne	r2,zero,20328 <shift_xyz+0x14>
	}
}
   20368:	0001883a 	nop
   2036c:	0001883a 	nop
   20370:	e037883a 	mov	sp,fp
   20374:	df000017 	ldw	fp,0(sp)
   20378:	dec00104 	addi	sp,sp,4
   2037c:	f800283a 	ret

00020380 <read_accelerometer>:

void read_accelerometer(alt_32* xyz) {
   20380:	defffd04 	addi	sp,sp,-12
   20384:	dfc00215 	stw	ra,8(sp)
   20388:	df000115 	stw	fp,4(sp)
   2038c:	df000104 	addi	fp,sp,4
   20390:	e13fff15 	stw	r4,-4(fp)
	//readings for all axes
	alt_up_accelerometer_spi_read_x_axis(acc_dev, xyz);
   20394:	d0a72417 	ldw	r2,-25456(gp)
   20398:	e17fff17 	ldw	r5,-4(fp)
   2039c:	1009883a 	mov	r4,r2
   203a0:	002eef00 	call	2eef0 <alt_up_accelerometer_spi_read_x_axis>
	alt_up_accelerometer_spi_read_y_axis(acc_dev, xyz+1);
   203a4:	d0e72417 	ldw	r3,-25456(gp)
   203a8:	e0bfff17 	ldw	r2,-4(fp)
   203ac:	10800104 	addi	r2,r2,4
   203b0:	100b883a 	mov	r5,r2
   203b4:	1809883a 	mov	r4,r3
   203b8:	002efc40 	call	2efc4 <alt_up_accelerometer_spi_read_y_axis>
	alt_up_accelerometer_spi_read_z_axis(acc_dev, xyz+2);
   203bc:	d0e72417 	ldw	r3,-25456(gp)
   203c0:	e0bfff17 	ldw	r2,-4(fp)
   203c4:	10800204 	addi	r2,r2,8
   203c8:	100b883a 	mov	r5,r2
   203cc:	1809883a 	mov	r4,r3
   203d0:	002f0980 	call	2f098 <alt_up_accelerometer_spi_read_z_axis>
}
   203d4:	0001883a 	nop
   203d8:	e037883a 	mov	sp,fp
   203dc:	dfc00117 	ldw	ra,4(sp)
   203e0:	df000017 	ldw	fp,0(sp)
   203e4:	dec00204 	addi	sp,sp,8
   203e8:	f800283a 	ret

000203ec <max>:

int max() { //returns index of the maximum reading out of the 3 axes (current sample)
   203ec:	defffc04 	addi	sp,sp,-16
   203f0:	df000315 	stw	fp,12(sp)
   203f4:	df000304 	addi	fp,sp,12
	int max = abs(xyz[nox]);
   203f8:	d0a00317 	ldw	r2,-32756(gp)
   203fc:	100690ba 	slli	r3,r2,2
   20400:	008000f4 	movhi	r2,3
   20404:	1885883a 	add	r2,r3,r2
   20408:	108fd217 	ldw	r2,16200(r2)
   2040c:	1000010e 	bge	r2,zero,20414 <max+0x28>
   20410:	0085c83a 	sub	r2,zero,r2
   20414:	e0bfff15 	stw	r2,-4(fp)
	int index = nox;
   20418:	d0a00317 	ldw	r2,-32756(gp)
   2041c:	e0bffe15 	stw	r2,-8(fp)
	for (int i=1; i<3; i++) {
   20420:	00800044 	movi	r2,1
   20424:	e0bffd15 	stw	r2,-12(fp)
   20428:	00001706 	br	20488 <max+0x9c>
		if (abs(xyz[i]) > max) {
   2042c:	e0bffd17 	ldw	r2,-12(fp)
   20430:	100690ba 	slli	r3,r2,2
   20434:	008000f4 	movhi	r2,3
   20438:	1885883a 	add	r2,r3,r2
   2043c:	108fd217 	ldw	r2,16200(r2)
   20440:	1000010e 	bge	r2,zero,20448 <max+0x5c>
   20444:	0085c83a 	sub	r2,zero,r2
   20448:	1007883a 	mov	r3,r2
   2044c:	e0bfff17 	ldw	r2,-4(fp)
   20450:	10c00a0e 	bge	r2,r3,2047c <max+0x90>
			max = abs(xyz[i]);
   20454:	e0bffd17 	ldw	r2,-12(fp)
   20458:	100690ba 	slli	r3,r2,2
   2045c:	008000f4 	movhi	r2,3
   20460:	1885883a 	add	r2,r3,r2
   20464:	108fd217 	ldw	r2,16200(r2)
   20468:	1000010e 	bge	r2,zero,20470 <max+0x84>
   2046c:	0085c83a 	sub	r2,zero,r2
   20470:	e0bfff15 	stw	r2,-4(fp)
			index = i;
   20474:	e0bffd17 	ldw	r2,-12(fp)
   20478:	e0bffe15 	stw	r2,-8(fp)
	for (int i=1; i<3; i++) {
   2047c:	e0bffd17 	ldw	r2,-12(fp)
   20480:	10800044 	addi	r2,r2,1
   20484:	e0bffd15 	stw	r2,-12(fp)
   20488:	e0bffd17 	ldw	r2,-12(fp)
   2048c:	108000d0 	cmplti	r2,r2,3
   20490:	103fe61e 	bne	r2,zero,2042c <max+0x40>
		}
	}
	return index;
   20494:	e0bffe17 	ldw	r2,-8(fp)
}
   20498:	e037883a 	mov	sp,fp
   2049c:	df000017 	ldw	fp,0(sp)
   204a0:	dec00104 	addi	sp,sp,4
   204a4:	f800283a 	ret

000204a8 <min>:

int min() { //returns index of the maximum reading out of the 3 axes (current sample)
   204a8:	defffc04 	addi	sp,sp,-16
   204ac:	df000315 	stw	fp,12(sp)
   204b0:	df000304 	addi	fp,sp,12
	int min = abs(xyz[nox]);
   204b4:	d0a00317 	ldw	r2,-32756(gp)
   204b8:	100690ba 	slli	r3,r2,2
   204bc:	008000f4 	movhi	r2,3
   204c0:	1885883a 	add	r2,r3,r2
   204c4:	108fd217 	ldw	r2,16200(r2)
   204c8:	1000010e 	bge	r2,zero,204d0 <min+0x28>
   204cc:	0085c83a 	sub	r2,zero,r2
   204d0:	e0bfff15 	stw	r2,-4(fp)
	int index = nox;
   204d4:	d0a00317 	ldw	r2,-32756(gp)
   204d8:	e0bffe15 	stw	r2,-8(fp)
	for (int i=1; i<3; i++) {
   204dc:	00800044 	movi	r2,1
   204e0:	e0bffd15 	stw	r2,-12(fp)
   204e4:	00001706 	br	20544 <min+0x9c>
		if (abs(xyz[i]) < min) {
   204e8:	e0bffd17 	ldw	r2,-12(fp)
   204ec:	100690ba 	slli	r3,r2,2
   204f0:	008000f4 	movhi	r2,3
   204f4:	1885883a 	add	r2,r3,r2
   204f8:	108fd217 	ldw	r2,16200(r2)
   204fc:	1000010e 	bge	r2,zero,20504 <min+0x5c>
   20500:	0085c83a 	sub	r2,zero,r2
   20504:	1007883a 	mov	r3,r2
   20508:	e0bfff17 	ldw	r2,-4(fp)
   2050c:	18800a0e 	bge	r3,r2,20538 <min+0x90>
			min = abs(xyz[i]);
   20510:	e0bffd17 	ldw	r2,-12(fp)
   20514:	100690ba 	slli	r3,r2,2
   20518:	008000f4 	movhi	r2,3
   2051c:	1885883a 	add	r2,r3,r2
   20520:	108fd217 	ldw	r2,16200(r2)
   20524:	1000010e 	bge	r2,zero,2052c <min+0x84>
   20528:	0085c83a 	sub	r2,zero,r2
   2052c:	e0bfff15 	stw	r2,-4(fp)
			index = i;
   20530:	e0bffd17 	ldw	r2,-12(fp)
   20534:	e0bffe15 	stw	r2,-8(fp)
	for (int i=1; i<3; i++) {
   20538:	e0bffd17 	ldw	r2,-12(fp)
   2053c:	10800044 	addi	r2,r2,1
   20540:	e0bffd15 	stw	r2,-12(fp)
   20544:	e0bffd17 	ldw	r2,-12(fp)
   20548:	108000d0 	cmplti	r2,r2,3
   2054c:	103fe61e 	bne	r2,zero,204e8 <min+0x40>
		}
	}
	return index;
   20550:	e0bffe17 	ldw	r2,-8(fp)
}
   20554:	e037883a 	mov	sp,fp
   20558:	df000017 	ldw	fp,0(sp)
   2055c:	dec00104 	addi	sp,sp,4
   20560:	f800283a 	ret

00020564 <detect_ACT>:

int detect_ACT(FILE* uart) {
   20564:	defffc04 	addi	sp,sp,-16
   20568:	dfc00315 	stw	ra,12(sp)
   2056c:	df000215 	stw	fp,8(sp)
   20570:	df000204 	addi	fp,sp,8
   20574:	e13ffe15 	stw	r4,-8(fp)
	int i = max();
   20578:	00203ec0 	call	203ec <max>
   2057c:	e0bfff15 	stw	r2,-4(fp)

	//output char if the |acceleration|>threshold and gradient has same polarity
	if (xyz[i]*10 > (act_thresh_coef[i][0]*THRESHOLD_1G)) { //multiplied by 10 to fine-tune threshold
   20580:	e0bfff17 	ldw	r2,-4(fp)
   20584:	100690ba 	slli	r3,r2,2
   20588:	008000f4 	movhi	r2,3
   2058c:	1885883a 	add	r2,r3,r2
   20590:	10cfd217 	ldw	r3,16200(r2)
   20594:	1805883a 	mov	r2,r3
   20598:	100490ba 	slli	r2,r2,2
   2059c:	10c5883a 	add	r2,r2,r3
   205a0:	1085883a 	add	r2,r2,r2
   205a4:	1009883a 	mov	r4,r2
   205a8:	e0bfff17 	ldw	r2,-4(fp)
   205ac:	100690fa 	slli	r3,r2,3
   205b0:	008000f4 	movhi	r2,3
   205b4:	1885883a 	add	r2,r3,r2
   205b8:	10c1a517 	ldw	r3,1684(r2)
   205bc:	1805883a 	mov	r2,r3
   205c0:	1004923a 	slli	r2,r2,8
   205c4:	10c5c83a 	sub	r2,r2,r3
   205c8:	1100130e 	bge	r2,r4,20618 <detect_ACT+0xb4>
		if (uart) { alt_printf("%c\n", output[i][0]); }
   205cc:	e0bffe17 	ldw	r2,-8(fp)
   205d0:	10000c26 	beq	r2,zero,20604 <detect_ACT+0xa0>
   205d4:	e0bfff17 	ldw	r2,-4(fp)
   205d8:	1087883a 	add	r3,r2,r2
   205dc:	d0a00004 	addi	r2,gp,-32768
   205e0:	1885883a 	add	r2,r3,r2
   205e4:	10800003 	ldbu	r2,0(r2)
   205e8:	10803fcc 	andi	r2,r2,255
   205ec:	1080201c 	xori	r2,r2,128
   205f0:	10bfe004 	addi	r2,r2,-128
   205f4:	100b883a 	mov	r5,r2
   205f8:	010000f4 	movhi	r4,3
   205fc:	213fb404 	addi	r4,r4,-304
   20600:	002db500 	call	2db50 <alt_printf>
		led++;
   20604:	d0a00183 	ldbu	r2,-32762(gp)
   20608:	10800044 	addi	r2,r2,1
   2060c:	d0a00185 	stb	r2,-32762(gp)
		return 1;
   20610:	00800044 	movi	r2,1
   20614:	00002706 	br	206b4 <detect_ACT+0x150>
	} else if ((xyz[i]*10 < -(act_thresh_coef[i][1]*THRESHOLD_1G))) { //Threshold cannot be below 255 as tilting the controller can cause reading abs(255) in any axis
   20618:	e0bfff17 	ldw	r2,-4(fp)
   2061c:	100690ba 	slli	r3,r2,2
   20620:	008000f4 	movhi	r2,3
   20624:	1885883a 	add	r2,r3,r2
   20628:	10cfd217 	ldw	r3,16200(r2)
   2062c:	1805883a 	mov	r2,r3
   20630:	100490ba 	slli	r2,r2,2
   20634:	10c5883a 	add	r2,r2,r3
   20638:	1085883a 	add	r2,r2,r2
   2063c:	1009883a 	mov	r4,r2
   20640:	e0bfff17 	ldw	r2,-4(fp)
   20644:	100690fa 	slli	r3,r2,3
   20648:	008000f4 	movhi	r2,3
   2064c:	1885883a 	add	r2,r3,r2
   20650:	1081a617 	ldw	r2,1688(r2)
   20654:	1007883a 	mov	r3,r2
   20658:	1004923a 	slli	r2,r2,8
   2065c:	1885c83a 	sub	r2,r3,r2
   20660:	2080130e 	bge	r4,r2,206b0 <detect_ACT+0x14c>
		if (uart) { alt_printf("%c\n", output[i][1]); }
   20664:	e0bffe17 	ldw	r2,-8(fp)
   20668:	10000c26 	beq	r2,zero,2069c <detect_ACT+0x138>
   2066c:	e0bfff17 	ldw	r2,-4(fp)
   20670:	1087883a 	add	r3,r2,r2
   20674:	d0a00044 	addi	r2,gp,-32767
   20678:	1885883a 	add	r2,r3,r2
   2067c:	10800003 	ldbu	r2,0(r2)
   20680:	10803fcc 	andi	r2,r2,255
   20684:	1080201c 	xori	r2,r2,128
   20688:	10bfe004 	addi	r2,r2,-128
   2068c:	100b883a 	mov	r5,r2
   20690:	010000f4 	movhi	r4,3
   20694:	213fb404 	addi	r4,r4,-304
   20698:	002db500 	call	2db50 <alt_printf>
		led++;
   2069c:	d0a00183 	ldbu	r2,-32762(gp)
   206a0:	10800044 	addi	r2,r2,1
   206a4:	d0a00185 	stb	r2,-32762(gp)
		return 1;
   206a8:	00800044 	movi	r2,1
   206ac:	00000106 	br	206b4 <detect_ACT+0x150>
	} else {
//		putchar('0');
//		printf("\n");
		return 0; //return 0 if reading magnitude too small
   206b0:	0005883a 	mov	r2,zero
	}
}
   206b4:	e037883a 	mov	sp,fp
   206b8:	dfc00117 	ldw	ra,4(sp)
   206bc:	df000017 	ldw	fp,0(sp)
   206c0:	dec00204 	addi	sp,sp,8
   206c4:	f800283a 	ret

000206c8 <detect_INACT>:

int detect_INACT(int i){
   206c8:	defffe04 	addi	sp,sp,-8
   206cc:	df000115 	stw	fp,4(sp)
   206d0:	df000104 	addi	fp,sp,4
   206d4:	e13fff15 	stw	r4,-4(fp)
	if ((abs(xyz[i])*10) < (inact_thresh_coef[i]*THRESHOLD_1G)) { //multiplied by 10 to fine-tune threshold
   206d8:	e0bfff17 	ldw	r2,-4(fp)
   206dc:	100690ba 	slli	r3,r2,2
   206e0:	008000f4 	movhi	r2,3
   206e4:	1885883a 	add	r2,r3,r2
   206e8:	108fd217 	ldw	r2,16200(r2)
   206ec:	1000010e 	bge	r2,zero,206f4 <detect_INACT+0x2c>
   206f0:	0085c83a 	sub	r2,zero,r2
   206f4:	1007883a 	mov	r3,r2
   206f8:	1805883a 	mov	r2,r3
   206fc:	100490ba 	slli	r2,r2,2
   20700:	10c5883a 	add	r2,r2,r3
   20704:	1085883a 	add	r2,r2,r2
   20708:	1009883a 	mov	r4,r2
   2070c:	e0bfff17 	ldw	r2,-4(fp)
   20710:	100690ba 	slli	r3,r2,2
   20714:	008000f4 	movhi	r2,3
   20718:	1885883a 	add	r2,r3,r2
   2071c:	10c1ab17 	ldw	r3,1708(r2)
   20720:	1805883a 	mov	r2,r3
   20724:	1004923a 	slli	r2,r2,8
   20728:	10c5c83a 	sub	r2,r2,r3
   2072c:	2080020e 	bge	r4,r2,20738 <detect_INACT+0x70>
		return 1;
   20730:	00800044 	movi	r2,1
   20734:	00000106 	br	2073c <detect_INACT+0x74>
	} else {
		return 0; //return 0 if reading magnitude too large
   20738:	0005883a 	mov	r2,zero
	}
}
   2073c:	e037883a 	mov	sp,fp
   20740:	df000017 	ldw	fp,0(sp)
   20744:	dec00104 	addi	sp,sp,4
   20748:	f800283a 	ret

0002074c <wait_INACT>:

int wait_INACT() {
   2074c:	defffd04 	addi	sp,sp,-12
   20750:	dfc00215 	stw	ra,8(sp)
   20754:	df000115 	stw	fp,4(sp)
   20758:	df000104 	addi	fp,sp,4
	int i = min();
   2075c:	00204a80 	call	204a8 <min>
   20760:	e0bfff15 	stw	r2,-4(fp)
	if (inact_counter < INACT_SAMPLES) {
   20764:	d0a72317 	ldw	r2,-25460(gp)
   20768:	1080fa08 	cmpgei	r2,r2,1000
   2076c:	10000a1e 	bne	r2,zero,20798 <wait_INACT+0x4c>
		if (detect_INACT(i)) {
   20770:	e13fff17 	ldw	r4,-4(fp)
   20774:	00206c80 	call	206c8 <detect_INACT>
   20778:	10000426 	beq	r2,zero,2078c <wait_INACT+0x40>
			inact_counter++;
   2077c:	d0a72317 	ldw	r2,-25460(gp)
   20780:	10800044 	addi	r2,r2,1
   20784:	d0a72315 	stw	r2,-25460(gp)
   20788:	00000106 	br	20790 <wait_INACT+0x44>
		} else {
			inact_counter = 0;
   2078c:	d0272315 	stw	zero,-25460(gp)
		}
		return 0;
   20790:	0005883a 	mov	r2,zero
   20794:	00000206 	br	207a0 <wait_INACT+0x54>
	} else {
		inact_counter = 0;
   20798:	d0272315 	stw	zero,-25460(gp)
		return 1;
   2079c:	00800044 	movi	r2,1
	}

}
   207a0:	e037883a 	mov	sp,fp
   207a4:	dfc00117 	ldw	ra,4(sp)
   207a8:	df000017 	ldw	fp,0(sp)
   207ac:	dec00204 	addi	sp,sp,8
   207b0:	f800283a 	ret

000207b4 <main>:

int main(){
   207b4:	defff604 	addi	sp,sp,-40
   207b8:	dfc00915 	stw	ra,36(sp)
   207bc:	df000815 	stw	fp,32(sp)
   207c0:	df000804 	addi	fp,sp,32
	//INITIATING FILE FOR SENDING
	FILE* fp;
	char prompt;
	char* score = malloc(4);
   207c4:	01000104 	movi	r4,4
   207c8:	00213380 	call	21338 <malloc>
   207cc:	e0bffd15 	stw	r2,-12(fp)
	strcpy(score, "0000");
   207d0:	e0bffd17 	ldw	r2,-12(fp)
   207d4:	00c00c04 	movi	r3,48
   207d8:	10c00005 	stb	r3,0(r2)
   207dc:	00c00c04 	movi	r3,48
   207e0:	10c00045 	stb	r3,1(r2)
   207e4:	00c00c04 	movi	r3,48
   207e8:	10c00085 	stb	r3,2(r2)
   207ec:	00c00c04 	movi	r3,48
   207f0:	10c000c5 	stb	r3,3(r2)
   207f4:	10000105 	stb	zero,4(r2)
	fp = fopen ("/dev/jtag_uart", "r+");
   207f8:	014000f4 	movhi	r5,3
   207fc:	297fb504 	addi	r5,r5,-300
   20800:	010000f4 	movhi	r4,3
   20804:	213fb604 	addi	r4,r4,-296
   20808:	0020b4c0 	call	20b4c <fopen>
   2080c:	e0bffc15 	stw	r2,-16(fp)

	acc_dev = alt_up_accelerometer_spi_open_dev("/dev/accelerometer_spi");
   20810:	010000f4 	movhi	r4,3
   20814:	213fba04 	addi	r4,r4,-280
   20818:	002eda00 	call	2eda0 <alt_up_accelerometer_spi_open_dev>
   2081c:	d0a72415 	stw	r2,-25456(gp)
	if (acc_dev == NULL) { // if return 1, check if the spi ip name is "accelerometer_spi"
   20820:	d0a72417 	ldw	r2,-25456(gp)
   20824:	1000021e 	bne	r2,zero,20830 <main+0x7c>
		return 1;
   20828:	00800044 	movi	r2,1
   2082c:	00006406 	br	209c0 <main+0x20c>
	}
	alt_up_accelerometer_spi_write(acc_dev, 0x1F, -63);
   20830:	d0a72417 	ldw	r2,-25456(gp)
   20834:	01803044 	movi	r6,193
   20838:	014007c4 	movi	r5,31
   2083c:	1009883a 	mov	r4,r2
   20840:	002ee880 	call	2ee88 <alt_up_accelerometer_spi_write>
	//By default accelerometer reads 0g,0g,1g
	//writing to Z OFFSET register on accelerometer, accounting for 1g caused by gravity.
	//The offset is scaled by a factor of 2 so (127 - 2*-63=0)(127=1G according to datasheet)
	//The output is scaled to 8 bits (255=1G), difference is confusing but worked.

	timer_init(sys_timer_isr); //initialising timer with isr
   20844:	010000b4 	movhi	r4,2
   20848:	2100b804 	addi	r4,r4,736
   2084c:	00202640 	call	20264 <timer_init>

	while(1){
		//READ DATA

		for (int j = 0; j < 1000; j++) {
   20850:	e03fff15 	stw	zero,-4(fp)
   20854:	00003e06 	br	20950 <main+0x19c>
			alt_32 xyz_raw[] = {0,0,0};
   20858:	e03ff815 	stw	zero,-32(fp)
   2085c:	e03ff915 	stw	zero,-28(fp)
   20860:	e03ffa15 	stw	zero,-24(fp)
			read_accelerometer(xyz_raw);
   20864:	e0bff804 	addi	r2,fp,-32
   20868:	1009883a 	mov	r4,r2
   2086c:	00203800 	call	20380 <read_accelerometer>

			//FILTER DATA
			IOWR_ALTERA_AVALON_PIO_DATA(FILTER_X_IN_BASE, xyz_raw[0]);
   20870:	e0fff817 	ldw	r3,-32(fp)
   20874:	00800134 	movhi	r2,4
   20878:	10c41835 	stwio	r3,4192(r2)
			IOWR_ALTERA_AVALON_PIO_DATA(FILTER_Y_IN_BASE, xyz_raw[1]);
   2087c:	e0fff917 	ldw	r3,-28(fp)
   20880:	00800134 	movhi	r2,4
   20884:	10c41435 	stwio	r3,4176(r2)
			IOWR_ALTERA_AVALON_PIO_DATA(FILTER_Z_IN_BASE, xyz_raw[2]);
   20888:	e0fffa17 	ldw	r3,-24(fp)
   2088c:	00800134 	movhi	r2,4
   20890:	10c40c35 	stwio	r3,4144(r2)

			xyz[0] = IORD_ALTERA_AVALON_PIO_DATA(FILTER_X_OUT_BASE);
   20894:	00800134 	movhi	r2,4
   20898:	10c41c37 	ldwio	r3,4208(r2)
   2089c:	008000f4 	movhi	r2,3
   208a0:	10cfd215 	stw	r3,16200(r2)
			xyz[1] = IORD_ALTERA_AVALON_PIO_DATA(FILTER_Y_OUT_BASE);
   208a4:	00800134 	movhi	r2,4
   208a8:	10c41037 	ldwio	r3,4160(r2)
   208ac:	008000f4 	movhi	r2,3
   208b0:	10cfd315 	stw	r3,16204(r2)
			xyz[2] = IORD_ALTERA_AVALON_PIO_DATA(FILTER_Z_OUT_BASE);
   208b4:	00800134 	movhi	r2,4
   208b8:	10c40837 	ldwio	r3,4128(r2)
   208bc:	008000f4 	movhi	r2,3
   208c0:	10cfd415 	stw	r3,16208(r2)

			//SUBROUTINE TRIGGERED BY TIMER
			if (timer_f & en_f) {
   208c4:	d0e72217 	ldw	r3,-25464(gp)
   208c8:	d0a00217 	ldw	r2,-32760(gp)
   208cc:	1884703a 	and	r2,r3,r2
   208d0:	10000826 	beq	r2,zero,208f4 <main+0x140>
				en_f = !detect_ACT(fp);
   208d4:	e13ffc17 	ldw	r4,-16(fp)
   208d8:	00205640 	call	20564 <detect_ACT>
   208dc:	1005003a 	cmpeq	r2,r2,zero
   208e0:	10803fcc 	andi	r2,r2,255
   208e4:	d0a00215 	stw	r2,-32760(gp)
				shift_xyz();
   208e8:	00203140 	call	20314 <shift_xyz>
				timer_f = 0;
   208ec:	d0272215 	stw	zero,-25464(gp)
   208f0:	00000406 	br	20904 <main+0x150>
			} else if (!en_f) {
   208f4:	d0a00217 	ldw	r2,-32760(gp)
   208f8:	1000021e 	bne	r2,zero,20904 <main+0x150>
				en_f = wait_INACT();
   208fc:	002074c0 	call	2074c <wait_INACT>
   20900:	d0a00215 	stw	r2,-32760(gp)
			}

			//TESTING HEX OUTPUTS
			IOWR_ALTERA_AVALON_PIO_DATA(HEX_DISPLAY_BASE, abs(atof(score)));
   20904:	e13ffd17 	ldw	r4,-12(fp)
   20908:	0020a540 	call	20a54 <atof>
   2090c:	100d883a 	mov	r6,r2
   20910:	180f883a 	mov	r7,r3
   20914:	3009883a 	mov	r4,r6
   20918:	380b883a 	mov	r5,r7
   2091c:	00209d40 	call	209d4 <__fixdfsi>
   20920:	1000010e 	bge	r2,zero,20928 <main+0x174>
   20924:	0085c83a 	sub	r2,zero,r2
   20928:	1007883a 	mov	r3,r2
   2092c:	00800134 	movhi	r2,4
   20930:	10c42035 	stwio	r3,4224(r2)
			IOWR_ALTERA_AVALON_PIO_DATA(LED_BASE, led);
   20934:	d0a00183 	ldbu	r2,-32762(gp)
   20938:	10c03fcc 	andi	r3,r2,255
   2093c:	00800134 	movhi	r2,4
   20940:	10c42435 	stwio	r3,4240(r2)
		for (int j = 0; j < 1000; j++) {
   20944:	e0bfff17 	ldw	r2,-4(fp)
   20948:	10800044 	addi	r2,r2,1
   2094c:	e0bfff15 	stw	r2,-4(fp)
   20950:	e0bfff17 	ldw	r2,-4(fp)
   20954:	1080fa10 	cmplti	r2,r2,1000
   20958:	103fbf1e 	bne	r2,zero,20858 <main+0xa4>
		}

		if (fp) {
   2095c:	e0bffc17 	ldw	r2,-16(fp)
   20960:	103fbb26 	beq	r2,zero,20850 <main+0x9c>
			prompt = getc(fp);
   20964:	e13ffc17 	ldw	r4,-16(fp)
   20968:	00210d00 	call	210d0 <getc>
   2096c:	e0bffbc5 	stb	r2,-17(fp)
		//	fprintf(fp, "FPGA: %c\n", prompt);
			if (prompt == 's') {
   20970:	e0bffbc7 	ldb	r2,-17(fp)
   20974:	10801cd8 	cmpnei	r2,r2,115
   20978:	103fb51e 	bne	r2,zero,20850 <main+0x9c>
			// fprintf(fp, "FPGA: %c\n", prompt);
			// fprintf(fp, "detected: %c\n", prompt);
			// ASSIGN NEXT 4 CHARACTERS TO SCORE
				for(int s = 0; s < 4; s++){
   2097c:	e03ffe15 	stw	zero,-8(fp)
   20980:	00000b06 	br	209b0 <main+0x1fc>
					prompt = getc(fp);
   20984:	e13ffc17 	ldw	r4,-16(fp)
   20988:	00210d00 	call	210d0 <getc>
   2098c:	e0bffbc5 	stb	r2,-17(fp)
				    // fprintf(fp, "FPGA: %c\n", prompt);
				    score[s] = prompt;
   20990:	e0bffe17 	ldw	r2,-8(fp)
   20994:	e0fffd17 	ldw	r3,-12(fp)
   20998:	1885883a 	add	r2,r3,r2
   2099c:	e0fffbc3 	ldbu	r3,-17(fp)
   209a0:	10c00005 	stb	r3,0(r2)
				for(int s = 0; s < 4; s++){
   209a4:	e0bffe17 	ldw	r2,-8(fp)
   209a8:	10800044 	addi	r2,r2,1
   209ac:	e0bffe15 	stw	r2,-8(fp)
   209b0:	e0bffe17 	ldw	r2,-8(fp)
   209b4:	10800110 	cmplti	r2,r2,4
   209b8:	103ff21e 	bne	r2,zero,20984 <main+0x1d0>
		for (int j = 0; j < 1000; j++) {
   209bc:	003fa406 	br	20850 <main+0x9c>
		// fprintf(fp, "score: %s\n", score);

	}

	return 0;
}
   209c0:	e037883a 	mov	sp,fp
   209c4:	dfc00117 	ldw	ra,4(sp)
   209c8:	df000017 	ldw	fp,0(sp)
   209cc:	dec00204 	addi	sp,sp,8
   209d0:	f800283a 	ret

000209d4 <__fixdfsi>:
   209d4:	2806d53a 	srli	r3,r5,20
   209d8:	01800434 	movhi	r6,16
   209dc:	31bfffc4 	addi	r6,r6,-1
   209e0:	18c1ffcc 	andi	r3,r3,2047
   209e4:	19c0ffd0 	cmplti	r7,r3,1023
   209e8:	2810d7fa 	srli	r8,r5,31
   209ec:	298a703a 	and	r5,r5,r6
   209f0:	3800061e 	bne	r7,zero,20a0c <__fixdfsi+0x38>
   209f4:	18810790 	cmplti	r2,r3,1054
   209f8:	1000061e 	bne	r2,zero,20a14 <__fixdfsi+0x40>
   209fc:	00a00034 	movhi	r2,32768
   20a00:	10bfffc4 	addi	r2,r2,-1
   20a04:	4085883a 	add	r2,r8,r2
   20a08:	f800283a 	ret
   20a0c:	0005883a 	mov	r2,zero
   20a10:	f800283a 	ret
   20a14:	01810cc4 	movi	r6,1075
   20a18:	30cdc83a 	sub	r6,r6,r3
   20a1c:	30800808 	cmpgei	r2,r6,32
   20a20:	29400434 	orhi	r5,r5,16
   20a24:	1000071e 	bne	r2,zero,20a44 <__fixdfsi+0x70>
   20a28:	18befb44 	addi	r2,r3,-1043
   20a2c:	2884983a 	sll	r2,r5,r2
   20a30:	2188d83a 	srl	r4,r4,r6
   20a34:	1104b03a 	or	r2,r2,r4
   20a38:	403ff526 	beq	r8,zero,20a10 <__fixdfsi+0x3c>
   20a3c:	0085c83a 	sub	r2,zero,r2
   20a40:	f800283a 	ret
   20a44:	008104c4 	movi	r2,1043
   20a48:	10c5c83a 	sub	r2,r2,r3
   20a4c:	2884d83a 	srl	r2,r5,r2
   20a50:	003ff906 	br	20a38 <__fixdfsi+0x64>

00020a54 <atof>:
   20a54:	000b883a 	mov	r5,zero
   20a58:	00235b81 	jmpi	235b8 <strtod>

00020a5c <_fopen_r>:
   20a5c:	defffa04 	addi	sp,sp,-24
   20a60:	3007883a 	mov	r3,r6
   20a64:	dcc00415 	stw	r19,16(sp)
   20a68:	d80d883a 	mov	r6,sp
   20a6c:	2827883a 	mov	r19,r5
   20a70:	180b883a 	mov	r5,r3
   20a74:	dc800315 	stw	r18,12(sp)
   20a78:	dfc00515 	stw	ra,20(sp)
   20a7c:	dc400215 	stw	r17,8(sp)
   20a80:	dc000115 	stw	r16,4(sp)
   20a84:	2025883a 	mov	r18,r4
   20a88:	0023f140 	call	23f14 <__sflags>
   20a8c:	10002726 	beq	r2,zero,20b2c <_fopen_r+0xd0>
   20a90:	9009883a 	mov	r4,r18
   20a94:	1023883a 	mov	r17,r2
   20a98:	0023dbc0 	call	23dbc <__sfp>
   20a9c:	1021883a 	mov	r16,r2
   20aa0:	10002226 	beq	r2,zero,20b2c <_fopen_r+0xd0>
   20aa4:	d9800017 	ldw	r6,0(sp)
   20aa8:	01c06d84 	movi	r7,438
   20aac:	980b883a 	mov	r5,r19
   20ab0:	9009883a 	mov	r4,r18
   20ab4:	0021b380 	call	21b38 <_open_r>
   20ab8:	10001916 	blt	r2,zero,20b20 <_fopen_r+0xc4>
   20abc:	018000b4 	movhi	r6,2
   20ac0:	014000b4 	movhi	r5,2
   20ac4:	010000b4 	movhi	r4,2
   20ac8:	00c000b4 	movhi	r3,2
   20acc:	31879804 	addi	r6,r6,7776
   20ad0:	2947af04 	addi	r5,r5,7868
   20ad4:	2107cf04 	addi	r4,r4,7996
   20ad8:	18c7e604 	addi	r3,r3,8088
   20adc:	8440030d 	sth	r17,12(r16)
   20ae0:	8080038d 	sth	r2,14(r16)
   20ae4:	84000715 	stw	r16,28(r16)
   20ae8:	81800815 	stw	r6,32(r16)
   20aec:	81400915 	stw	r5,36(r16)
   20af0:	81000a15 	stw	r4,40(r16)
   20af4:	80c00b15 	stw	r3,44(r16)
   20af8:	8c40400c 	andi	r17,r17,256
   20afc:	88000d1e 	bne	r17,zero,20b34 <_fopen_r+0xd8>
   20b00:	8005883a 	mov	r2,r16
   20b04:	dfc00517 	ldw	ra,20(sp)
   20b08:	dcc00417 	ldw	r19,16(sp)
   20b0c:	dc800317 	ldw	r18,12(sp)
   20b10:	dc400217 	ldw	r17,8(sp)
   20b14:	dc000117 	ldw	r16,4(sp)
   20b18:	dec00604 	addi	sp,sp,24
   20b1c:	f800283a 	ret
   20b20:	0023edc0 	call	23edc <__sfp_lock_acquire>
   20b24:	8000030d 	sth	zero,12(r16)
   20b28:	0023ee00 	call	23ee0 <__sfp_lock_release>
   20b2c:	0021883a 	mov	r16,zero
   20b30:	003ff306 	br	20b00 <_fopen_r+0xa4>
   20b34:	01c00084 	movi	r7,2
   20b38:	000d883a 	mov	r6,zero
   20b3c:	800b883a 	mov	r5,r16
   20b40:	9009883a 	mov	r4,r18
   20b44:	0020b640 	call	20b64 <_fseek_r>
   20b48:	003fed06 	br	20b00 <_fopen_r+0xa4>

00020b4c <fopen>:
   20b4c:	00c000f4 	movhi	r3,3
   20b50:	2005883a 	mov	r2,r4
   20b54:	1908a617 	ldw	r4,8856(r3)
   20b58:	280d883a 	mov	r6,r5
   20b5c:	100b883a 	mov	r5,r2
   20b60:	0020a5c1 	jmpi	20a5c <_fopen_r>

00020b64 <_fseek_r>:
   20b64:	0020b841 	jmpi	20b84 <_fseeko_r>

00020b68 <fseek>:
   20b68:	00c000f4 	movhi	r3,3
   20b6c:	2005883a 	mov	r2,r4
   20b70:	1908a617 	ldw	r4,8856(r3)
   20b74:	300f883a 	mov	r7,r6
   20b78:	280d883a 	mov	r6,r5
   20b7c:	100b883a 	mov	r5,r2
   20b80:	0020b841 	jmpi	20b84 <_fseeko_r>

00020b84 <_fseeko_r>:
   20b84:	deffe504 	addi	sp,sp,-108
   20b88:	dd401715 	stw	r21,92(sp)
   20b8c:	dcc01515 	stw	r19,84(sp)
   20b90:	dc401315 	stw	r17,76(sp)
   20b94:	dc001215 	stw	r16,72(sp)
   20b98:	dfc01a15 	stw	ra,104(sp)
   20b9c:	ddc01915 	stw	r23,100(sp)
   20ba0:	dd801815 	stw	r22,96(sp)
   20ba4:	dd001615 	stw	r20,88(sp)
   20ba8:	dc801415 	stw	r18,80(sp)
   20bac:	2023883a 	mov	r17,r4
   20bb0:	2821883a 	mov	r16,r5
   20bb4:	3027883a 	mov	r19,r6
   20bb8:	382b883a 	mov	r21,r7
   20bbc:	20000226 	beq	r4,zero,20bc8 <_fseeko_r+0x44>
   20bc0:	20800e17 	ldw	r2,56(r4)
   20bc4:	10001a26 	beq	r2,zero,20c30 <_fseeko_r+0xac>
   20bc8:	8080030b 	ldhu	r2,12(r16)
   20bcc:	1080420c 	andi	r2,r2,264
   20bd0:	10804218 	cmpnei	r2,r2,264
   20bd4:	10001b26 	beq	r2,zero,20c44 <_fseeko_r+0xc0>
   20bd8:	85000a17 	ldw	r20,40(r16)
   20bdc:	a000fa26 	beq	r20,zero,20fc8 <_fseeko_r+0x444>
   20be0:	a8800060 	cmpeqi	r2,r21,1
   20be4:	10004a1e 	bne	r2,zero,20d10 <_fseeko_r+0x18c>
   20be8:	04bfff44 	movi	r18,-3
   20bec:	aca4703a 	and	r18,r21,r18
   20bf0:	90001826 	beq	r18,zero,20c54 <_fseeko_r+0xd0>
   20bf4:	00800584 	movi	r2,22
   20bf8:	88800015 	stw	r2,0(r17)
   20bfc:	04bfffc4 	movi	r18,-1
   20c00:	9005883a 	mov	r2,r18
   20c04:	dfc01a17 	ldw	ra,104(sp)
   20c08:	ddc01917 	ldw	r23,100(sp)
   20c0c:	dd801817 	ldw	r22,96(sp)
   20c10:	dd401717 	ldw	r21,92(sp)
   20c14:	dd001617 	ldw	r20,88(sp)
   20c18:	dcc01517 	ldw	r19,84(sp)
   20c1c:	dc801417 	ldw	r18,80(sp)
   20c20:	dc401317 	ldw	r17,76(sp)
   20c24:	dc001217 	ldw	r16,72(sp)
   20c28:	dec01b04 	addi	sp,sp,108
   20c2c:	f800283a 	ret
   20c30:	0023ecc0 	call	23ecc <__sinit>
   20c34:	8080030b 	ldhu	r2,12(r16)
   20c38:	1080420c 	andi	r2,r2,264
   20c3c:	10804218 	cmpnei	r2,r2,264
   20c40:	103fe51e 	bne	r2,zero,20bd8 <_fseeko_r+0x54>
   20c44:	800b883a 	mov	r5,r16
   20c48:	8809883a 	mov	r4,r17
   20c4c:	0023b380 	call	23b38 <_fflush_r>
   20c50:	003fe106 	br	20bd8 <_fseeko_r+0x54>
   20c54:	81000417 	ldw	r4,16(r16)
   20c58:	002f883a 	mov	r23,zero
   20c5c:	20004826 	beq	r4,zero,20d80 <_fseeko_r+0x1fc>
   20c60:	8080030b 	ldhu	r2,12(r16)
   20c64:	10c2068c 	andi	r3,r2,2074
   20c68:	1800071e 	bne	r3,zero,20c88 <_fseeko_r+0x104>
   20c6c:	10c1000c 	andi	r3,r2,1024
   20c70:	1800561e 	bne	r3,zero,20dcc <_fseeko_r+0x248>
   20c74:	00c000b4 	movhi	r3,2
   20c78:	18c7cf04 	addi	r3,r3,7996
   20c7c:	a0c04426 	beq	r20,r3,20d90 <_fseeko_r+0x20c>
   20c80:	10820014 	ori	r2,r2,2048
   20c84:	8080030d 	sth	r2,12(r16)
   20c88:	800b883a 	mov	r5,r16
   20c8c:	8809883a 	mov	r4,r17
   20c90:	0023b380 	call	23b38 <_fflush_r>
   20c94:	1025883a 	mov	r18,r2
   20c98:	103fd81e 	bne	r2,zero,20bfc <_fseeko_r+0x78>
   20c9c:	81400717 	ldw	r5,28(r16)
   20ca0:	a80f883a 	mov	r7,r21
   20ca4:	980d883a 	mov	r6,r19
   20ca8:	8809883a 	mov	r4,r17
   20cac:	a03ee83a 	callr	r20
   20cb0:	10bfffe0 	cmpeqi	r2,r2,-1
   20cb4:	103fd11e 	bne	r2,zero,20bfc <_fseeko_r+0x78>
   20cb8:	81400c17 	ldw	r5,48(r16)
   20cbc:	28000526 	beq	r5,zero,20cd4 <_fseeko_r+0x150>
   20cc0:	80801004 	addi	r2,r16,64
   20cc4:	28800226 	beq	r5,r2,20cd0 <_fseeko_r+0x14c>
   20cc8:	8809883a 	mov	r4,r17
   20ccc:	00240e80 	call	240e8 <_free_r>
   20cd0:	80000c15 	stw	zero,48(r16)
   20cd4:	8080030b 	ldhu	r2,12(r16)
   20cd8:	80c00417 	ldw	r3,16(r16)
   20cdc:	80000115 	stw	zero,4(r16)
   20ce0:	10bdf7cc 	andi	r2,r2,63455
   20ce4:	80c00015 	stw	r3,0(r16)
   20ce8:	8080030d 	sth	r2,12(r16)
   20cec:	80001705 	stb	zero,92(r16)
   20cf0:	80001745 	stb	zero,93(r16)
   20cf4:	80001785 	stb	zero,94(r16)
   20cf8:	800017c5 	stb	zero,95(r16)
   20cfc:	80001805 	stb	zero,96(r16)
   20d00:	80001845 	stb	zero,97(r16)
   20d04:	80001885 	stb	zero,98(r16)
   20d08:	800018c5 	stb	zero,99(r16)
   20d0c:	003fbc06 	br	20c00 <_fseeko_r+0x7c>
   20d10:	800b883a 	mov	r5,r16
   20d14:	8809883a 	mov	r4,r17
   20d18:	0023b380 	call	23b38 <_fflush_r>
   20d1c:	8080030b 	ldhu	r2,12(r16)
   20d20:	10c4000c 	andi	r3,r2,4096
   20d24:	18006e1e 	bne	r3,zero,20ee0 <_fseeko_r+0x35c>
   20d28:	81400717 	ldw	r5,28(r16)
   20d2c:	01c00044 	movi	r7,1
   20d30:	000d883a 	mov	r6,zero
   20d34:	8809883a 	mov	r4,r17
   20d38:	a03ee83a 	callr	r20
   20d3c:	1025883a 	mov	r18,r2
   20d40:	10bfffd8 	cmpnei	r2,r2,-1
   20d44:	103fad26 	beq	r2,zero,20bfc <_fseeko_r+0x78>
   20d48:	8080030b 	ldhu	r2,12(r16)
   20d4c:	81000417 	ldw	r4,16(r16)
   20d50:	10c0010c 	andi	r3,r2,4
   20d54:	18006626 	beq	r3,zero,20ef0 <_fseeko_r+0x36c>
   20d58:	80c00117 	ldw	r3,4(r16)
   20d5c:	80800c17 	ldw	r2,48(r16)
   20d60:	90e5c83a 	sub	r18,r18,r3
   20d64:	10000226 	beq	r2,zero,20d70 <_fseeko_r+0x1ec>
   20d68:	81800f17 	ldw	r6,60(r16)
   20d6c:	91a5c83a 	sub	r18,r18,r6
   20d70:	9ca7883a 	add	r19,r19,r18
   20d74:	05c00044 	movi	r23,1
   20d78:	002b883a 	mov	r21,zero
   20d7c:	203fb81e 	bne	r4,zero,20c60 <_fseeko_r+0xdc>
   20d80:	800b883a 	mov	r5,r16
   20d84:	8809883a 	mov	r4,r17
   20d88:	00211f80 	call	211f8 <__smakebuf_r>
   20d8c:	003fb406 	br	20c60 <_fseeko_r+0xdc>
   20d90:	8140038f 	ldh	r5,14(r16)
   20d94:	283fba16 	blt	r5,zero,20c80 <_fseeko_r+0xfc>
   20d98:	d80d883a 	mov	r6,sp
   20d9c:	8809883a 	mov	r4,r17
   20da0:	0020ff40 	call	20ff4 <_fstat_r>
   20da4:	1000761e 	bne	r2,zero,20f80 <_fseeko_r+0x3fc>
   20da8:	d8c00117 	ldw	r3,4(sp)
   20dac:	01200014 	movui	r4,32768
   20db0:	8080030b 	ldhu	r2,12(r16)
   20db4:	18fc000c 	andi	r3,r3,61440
   20db8:	193fb11e 	bne	r3,r4,20c80 <_fseeko_r+0xfc>
   20dbc:	10810014 	ori	r2,r2,1024
   20dc0:	00c10004 	movi	r3,1024
   20dc4:	80c01315 	stw	r3,76(r16)
   20dc8:	8080030d 	sth	r2,12(r16)
   20dcc:	a8004f1e 	bne	r21,zero,20f0c <_fseeko_r+0x388>
   20dd0:	982d883a 	mov	r22,r19
   20dd4:	b800551e 	bne	r23,zero,20f2c <_fseeko_r+0x3a8>
   20dd8:	8080030b 	ldhu	r2,12(r16)
   20ddc:	1084000c 	andi	r2,r2,4096
   20de0:	10005f26 	beq	r2,zero,20f60 <_fseeko_r+0x3dc>
   20de4:	80801417 	ldw	r2,80(r16)
   20de8:	80c00117 	ldw	r3,4(r16)
   20dec:	81400c17 	ldw	r5,48(r16)
   20df0:	1809883a 	mov	r4,r3
   20df4:	10e5c83a 	sub	r18,r2,r3
   20df8:	28005226 	beq	r5,zero,20f44 <_fseeko_r+0x3c0>
   20dfc:	81800f17 	ldw	r6,60(r16)
   20e00:	91a5c83a 	sub	r18,r18,r6
   20e04:	80800e17 	ldw	r2,56(r16)
   20e08:	81c00417 	ldw	r7,16(r16)
   20e0c:	90e5883a 	add	r18,r18,r3
   20e10:	11c5c83a 	sub	r2,r2,r7
   20e14:	90a5c83a 	sub	r18,r18,r2
   20e18:	1185883a 	add	r2,r2,r6
   20e1c:	b4800216 	blt	r22,r18,20e28 <_fseeko_r+0x2a4>
   20e20:	9087883a 	add	r3,r18,r2
   20e24:	b0c05836 	bltu	r22,r3,20f88 <_fseeko_r+0x404>
   20e28:	84801317 	ldw	r18,76(r16)
   20e2c:	81400717 	ldw	r5,28(r16)
   20e30:	000f883a 	mov	r7,zero
   20e34:	04a5c83a 	sub	r18,zero,r18
   20e38:	95a4703a 	and	r18,r18,r22
   20e3c:	900d883a 	mov	r6,r18
   20e40:	8809883a 	mov	r4,r17
   20e44:	a03ee83a 	callr	r20
   20e48:	10bfffe0 	cmpeqi	r2,r2,-1
   20e4c:	103f8e1e 	bne	r2,zero,20c88 <_fseeko_r+0x104>
   20e50:	80800417 	ldw	r2,16(r16)
   20e54:	81400c17 	ldw	r5,48(r16)
   20e58:	80000115 	stw	zero,4(r16)
   20e5c:	80800015 	stw	r2,0(r16)
   20e60:	28000526 	beq	r5,zero,20e78 <_fseeko_r+0x2f4>
   20e64:	80801004 	addi	r2,r16,64
   20e68:	28800226 	beq	r5,r2,20e74 <_fseeko_r+0x2f0>
   20e6c:	8809883a 	mov	r4,r17
   20e70:	00240e80 	call	240e8 <_free_r>
   20e74:	80000c15 	stw	zero,48(r16)
   20e78:	8080030b 	ldhu	r2,12(r16)
   20e7c:	b4afc83a 	sub	r23,r22,r18
   20e80:	10bff7cc 	andi	r2,r2,65503
   20e84:	8080030d 	sth	r2,12(r16)
   20e88:	b4800b26 	beq	r22,r18,20eb8 <_fseeko_r+0x334>
   20e8c:	800b883a 	mov	r5,r16
   20e90:	8809883a 	mov	r4,r17
   20e94:	0021bb80 	call	21bb8 <__srefill_r>
   20e98:	103f7b1e 	bne	r2,zero,20c88 <_fseeko_r+0x104>
   20e9c:	80800117 	ldw	r2,4(r16)
   20ea0:	15ff7936 	bltu	r2,r23,20c88 <_fseeko_r+0x104>
   20ea4:	80c00017 	ldw	r3,0(r16)
   20ea8:	15c5c83a 	sub	r2,r2,r23
   20eac:	80800115 	stw	r2,4(r16)
   20eb0:	1def883a 	add	r23,r3,r23
   20eb4:	85c00015 	stw	r23,0(r16)
   20eb8:	80001705 	stb	zero,92(r16)
   20ebc:	80001745 	stb	zero,93(r16)
   20ec0:	80001785 	stb	zero,94(r16)
   20ec4:	800017c5 	stb	zero,95(r16)
   20ec8:	80001805 	stb	zero,96(r16)
   20ecc:	80001845 	stb	zero,97(r16)
   20ed0:	80001885 	stb	zero,98(r16)
   20ed4:	800018c5 	stb	zero,99(r16)
   20ed8:	0025883a 	mov	r18,zero
   20edc:	003f4806 	br	20c00 <_fseeko_r+0x7c>
   20ee0:	10c0010c 	andi	r3,r2,4
   20ee4:	84801417 	ldw	r18,80(r16)
   20ee8:	81000417 	ldw	r4,16(r16)
   20eec:	183f9a1e 	bne	r3,zero,20d58 <_fseeko_r+0x1d4>
   20ef0:	1080020c 	andi	r2,r2,8
   20ef4:	103f9e26 	beq	r2,zero,20d70 <_fseeko_r+0x1ec>
   20ef8:	80800017 	ldw	r2,0(r16)
   20efc:	103f9c26 	beq	r2,zero,20d70 <_fseeko_r+0x1ec>
   20f00:	1105c83a 	sub	r2,r2,r4
   20f04:	90a5883a 	add	r18,r18,r2
   20f08:	003f9906 	br	20d70 <_fseeko_r+0x1ec>
   20f0c:	8140038f 	ldh	r5,14(r16)
   20f10:	d80d883a 	mov	r6,sp
   20f14:	8809883a 	mov	r4,r17
   20f18:	0020ff40 	call	20ff4 <_fstat_r>
   20f1c:	103f5a1e 	bne	r2,zero,20c88 <_fseeko_r+0x104>
   20f20:	dd800417 	ldw	r22,16(sp)
   20f24:	9dad883a 	add	r22,r19,r22
   20f28:	b83fab26 	beq	r23,zero,20dd8 <_fseeko_r+0x254>
   20f2c:	81400c17 	ldw	r5,48(r16)
   20f30:	28000326 	beq	r5,zero,20f40 <_fseeko_r+0x3bc>
   20f34:	80c00117 	ldw	r3,4(r16)
   20f38:	81800f17 	ldw	r6,60(r16)
   20f3c:	003fb106 	br	20e04 <_fseeko_r+0x280>
   20f40:	81000117 	ldw	r4,4(r16)
   20f44:	80800017 	ldw	r2,0(r16)
   20f48:	81c00417 	ldw	r7,16(r16)
   20f4c:	000b883a 	mov	r5,zero
   20f50:	11c5c83a 	sub	r2,r2,r7
   20f54:	90a5c83a 	sub	r18,r18,r2
   20f58:	2085883a 	add	r2,r4,r2
   20f5c:	003faf06 	br	20e1c <_fseeko_r+0x298>
   20f60:	81400717 	ldw	r5,28(r16)
   20f64:	01c00044 	movi	r7,1
   20f68:	000d883a 	mov	r6,zero
   20f6c:	8809883a 	mov	r4,r17
   20f70:	a03ee83a 	callr	r20
   20f74:	10ffffe0 	cmpeqi	r3,r2,-1
   20f78:	183f9b26 	beq	r3,zero,20de8 <_fseeko_r+0x264>
   20f7c:	003f4206 	br	20c88 <_fseeko_r+0x104>
   20f80:	8080030b 	ldhu	r2,12(r16)
   20f84:	003f3e06 	br	20c80 <_fseeko_r+0xfc>
   20f88:	b4a5c83a 	sub	r18,r22,r18
   20f8c:	3c8f883a 	add	r7,r7,r18
   20f90:	14a5c83a 	sub	r18,r2,r18
   20f94:	81c00015 	stw	r7,0(r16)
   20f98:	84800115 	stw	r18,4(r16)
   20f9c:	28000526 	beq	r5,zero,20fb4 <_fseeko_r+0x430>
   20fa0:	80801004 	addi	r2,r16,64
   20fa4:	28800226 	beq	r5,r2,20fb0 <_fseeko_r+0x42c>
   20fa8:	8809883a 	mov	r4,r17
   20fac:	00240e80 	call	240e8 <_free_r>
   20fb0:	80000c15 	stw	zero,48(r16)
   20fb4:	80c0030b 	ldhu	r3,12(r16)
   20fb8:	80001705 	stb	zero,92(r16)
   20fbc:	18fff7cc 	andi	r3,r3,65503
   20fc0:	80c0030d 	sth	r3,12(r16)
   20fc4:	003fbd06 	br	20ebc <_fseeko_r+0x338>
   20fc8:	00800744 	movi	r2,29
   20fcc:	88800015 	stw	r2,0(r17)
   20fd0:	04bfffc4 	movi	r18,-1
   20fd4:	003f0a06 	br	20c00 <_fseeko_r+0x7c>

00020fd8 <fseeko>:
   20fd8:	00c000f4 	movhi	r3,3
   20fdc:	2005883a 	mov	r2,r4
   20fe0:	1908a617 	ldw	r4,8856(r3)
   20fe4:	300f883a 	mov	r7,r6
   20fe8:	280d883a 	mov	r6,r5
   20fec:	100b883a 	mov	r5,r2
   20ff0:	0020b841 	jmpi	20b84 <_fseeko_r>

00020ff4 <_fstat_r>:
   20ff4:	2807883a 	mov	r3,r5
   20ff8:	defffe04 	addi	sp,sp,-8
   20ffc:	dc000015 	stw	r16,0(sp)
   21000:	008000f4 	movhi	r2,3
   21004:	300b883a 	mov	r5,r6
   21008:	2021883a 	mov	r16,r4
   2100c:	1809883a 	mov	r4,r3
   21010:	dfc00115 	stw	ra,4(sp)
   21014:	100fc615 	stw	zero,16152(r2)
   21018:	002d15c0 	call	2d15c <fstat>
   2101c:	10ffffd8 	cmpnei	r3,r2,-1
   21020:	18000426 	beq	r3,zero,21034 <_fstat_r+0x40>
   21024:	dfc00117 	ldw	ra,4(sp)
   21028:	dc000017 	ldw	r16,0(sp)
   2102c:	dec00204 	addi	sp,sp,8
   21030:	f800283a 	ret
   21034:	00c000f4 	movhi	r3,3
   21038:	18cfc617 	ldw	r3,16152(r3)
   2103c:	183ff926 	beq	r3,zero,21024 <_fstat_r+0x30>
   21040:	80c00015 	stw	r3,0(r16)
   21044:	dfc00117 	ldw	ra,4(sp)
   21048:	dc000017 	ldw	r16,0(sp)
   2104c:	dec00204 	addi	sp,sp,8
   21050:	f800283a 	ret

00021054 <_getc_r>:
   21054:	defffd04 	addi	sp,sp,-12
   21058:	dc000115 	stw	r16,4(sp)
   2105c:	dfc00215 	stw	ra,8(sp)
   21060:	2021883a 	mov	r16,r4
   21064:	20000226 	beq	r4,zero,21070 <_getc_r+0x1c>
   21068:	20800e17 	ldw	r2,56(r4)
   2106c:	10000c26 	beq	r2,zero,210a0 <_getc_r+0x4c>
   21070:	28800117 	ldw	r2,4(r5)
   21074:	10bfffc4 	addi	r2,r2,-1
   21078:	28800115 	stw	r2,4(r5)
   2107c:	10000f16 	blt	r2,zero,210bc <_getc_r+0x68>
   21080:	28800017 	ldw	r2,0(r5)
   21084:	10c00044 	addi	r3,r2,1
   21088:	28c00015 	stw	r3,0(r5)
   2108c:	10800003 	ldbu	r2,0(r2)
   21090:	dfc00217 	ldw	ra,8(sp)
   21094:	dc000117 	ldw	r16,4(sp)
   21098:	dec00304 	addi	sp,sp,12
   2109c:	f800283a 	ret
   210a0:	d9400015 	stw	r5,0(sp)
   210a4:	0023ecc0 	call	23ecc <__sinit>
   210a8:	d9400017 	ldw	r5,0(sp)
   210ac:	28800117 	ldw	r2,4(r5)
   210b0:	10bfffc4 	addi	r2,r2,-1
   210b4:	28800115 	stw	r2,4(r5)
   210b8:	103ff10e 	bge	r2,zero,21080 <_getc_r+0x2c>
   210bc:	8009883a 	mov	r4,r16
   210c0:	dfc00217 	ldw	ra,8(sp)
   210c4:	dc000117 	ldw	r16,4(sp)
   210c8:	dec00304 	addi	sp,sp,12
   210cc:	0021d841 	jmpi	21d84 <__srget_r>

000210d0 <getc>:
   210d0:	defffd04 	addi	sp,sp,-12
   210d4:	008000f4 	movhi	r2,3
   210d8:	dc400115 	stw	r17,4(sp)
   210dc:	1448a617 	ldw	r17,8856(r2)
   210e0:	dc000015 	stw	r16,0(sp)
   210e4:	dfc00215 	stw	ra,8(sp)
   210e8:	2021883a 	mov	r16,r4
   210ec:	88000226 	beq	r17,zero,210f8 <getc+0x28>
   210f0:	88800e17 	ldw	r2,56(r17)
   210f4:	10000d26 	beq	r2,zero,2112c <getc+0x5c>
   210f8:	80800117 	ldw	r2,4(r16)
   210fc:	10bfffc4 	addi	r2,r2,-1
   21100:	80800115 	stw	r2,4(r16)
   21104:	10000f16 	blt	r2,zero,21144 <getc+0x74>
   21108:	80800017 	ldw	r2,0(r16)
   2110c:	10c00044 	addi	r3,r2,1
   21110:	80c00015 	stw	r3,0(r16)
   21114:	10800003 	ldbu	r2,0(r2)
   21118:	dfc00217 	ldw	ra,8(sp)
   2111c:	dc400117 	ldw	r17,4(sp)
   21120:	dc000017 	ldw	r16,0(sp)
   21124:	dec00304 	addi	sp,sp,12
   21128:	f800283a 	ret
   2112c:	8809883a 	mov	r4,r17
   21130:	0023ecc0 	call	23ecc <__sinit>
   21134:	80800117 	ldw	r2,4(r16)
   21138:	10bfffc4 	addi	r2,r2,-1
   2113c:	80800115 	stw	r2,4(r16)
   21140:	103ff10e 	bge	r2,zero,21108 <getc+0x38>
   21144:	800b883a 	mov	r5,r16
   21148:	8809883a 	mov	r4,r17
   2114c:	dfc00217 	ldw	ra,8(sp)
   21150:	dc400117 	ldw	r17,4(sp)
   21154:	dc000017 	ldw	r16,0(sp)
   21158:	dec00304 	addi	sp,sp,12
   2115c:	0021d841 	jmpi	21d84 <__srget_r>

00021160 <__swhatbuf_r>:
   21160:	deffea04 	addi	sp,sp,-88
   21164:	dc001215 	stw	r16,72(sp)
   21168:	2821883a 	mov	r16,r5
   2116c:	2940038f 	ldh	r5,14(r5)
   21170:	dc801415 	stw	r18,80(sp)
   21174:	dc401315 	stw	r17,76(sp)
   21178:	dfc01515 	stw	ra,84(sp)
   2117c:	3023883a 	mov	r17,r6
   21180:	3825883a 	mov	r18,r7
   21184:	28001016 	blt	r5,zero,211c8 <__swhatbuf_r+0x68>
   21188:	d80d883a 	mov	r6,sp
   2118c:	0020ff40 	call	20ff4 <_fstat_r>
   21190:	10000d16 	blt	r2,zero,211c8 <__swhatbuf_r+0x68>
   21194:	d8c00117 	ldw	r3,4(sp)
   21198:	00820004 	movi	r2,2048
   2119c:	18fc000c 	andi	r3,r3,61440
   211a0:	18c80020 	cmpeqi	r3,r3,8192
   211a4:	90c00015 	stw	r3,0(r18)
   211a8:	00c10004 	movi	r3,1024
   211ac:	88c00015 	stw	r3,0(r17)
   211b0:	dfc01517 	ldw	ra,84(sp)
   211b4:	dc801417 	ldw	r18,80(sp)
   211b8:	dc401317 	ldw	r17,76(sp)
   211bc:	dc001217 	ldw	r16,72(sp)
   211c0:	dec01604 	addi	sp,sp,88
   211c4:	f800283a 	ret
   211c8:	8080030b 	ldhu	r2,12(r16)
   211cc:	90000015 	stw	zero,0(r18)
   211d0:	1080200c 	andi	r2,r2,128
   211d4:	10000426 	beq	r2,zero,211e8 <__swhatbuf_r+0x88>
   211d8:	00801004 	movi	r2,64
   211dc:	88800015 	stw	r2,0(r17)
   211e0:	0005883a 	mov	r2,zero
   211e4:	003ff206 	br	211b0 <__swhatbuf_r+0x50>
   211e8:	00810004 	movi	r2,1024
   211ec:	88800015 	stw	r2,0(r17)
   211f0:	0005883a 	mov	r2,zero
   211f4:	003fee06 	br	211b0 <__swhatbuf_r+0x50>

000211f8 <__smakebuf_r>:
   211f8:	2880030b 	ldhu	r2,12(r5)
   211fc:	defffa04 	addi	sp,sp,-24
   21200:	dc000215 	stw	r16,8(sp)
   21204:	dfc00515 	stw	ra,20(sp)
   21208:	dc800415 	stw	r18,16(sp)
   2120c:	dc400315 	stw	r17,12(sp)
   21210:	1080008c 	andi	r2,r2,2
   21214:	2821883a 	mov	r16,r5
   21218:	10000b26 	beq	r2,zero,21248 <__smakebuf_r+0x50>
   2121c:	288010c4 	addi	r2,r5,67
   21220:	28800015 	stw	r2,0(r5)
   21224:	28800415 	stw	r2,16(r5)
   21228:	00800044 	movi	r2,1
   2122c:	28800515 	stw	r2,20(r5)
   21230:	dfc00517 	ldw	ra,20(sp)
   21234:	dc800417 	ldw	r18,16(sp)
   21238:	dc400317 	ldw	r17,12(sp)
   2123c:	dc000217 	ldw	r16,8(sp)
   21240:	dec00604 	addi	sp,sp,24
   21244:	f800283a 	ret
   21248:	d9c00104 	addi	r7,sp,4
   2124c:	d80d883a 	mov	r6,sp
   21250:	2023883a 	mov	r17,r4
   21254:	00211600 	call	21160 <__swhatbuf_r>
   21258:	d9000117 	ldw	r4,4(sp)
   2125c:	1025883a 	mov	r18,r2
   21260:	2000131e 	bne	r4,zero,212b0 <__smakebuf_r+0xb8>
   21264:	d9400017 	ldw	r5,0(sp)
   21268:	8809883a 	mov	r4,r17
   2126c:	00213580 	call	21358 <_malloc_r>
   21270:	10001c26 	beq	r2,zero,212e4 <__smakebuf_r+0xec>
   21274:	010000b4 	movhi	r4,2
   21278:	210ef204 	addi	r4,r4,15304
   2127c:	80c0030b 	ldhu	r3,12(r16)
   21280:	89000f15 	stw	r4,60(r17)
   21284:	80800015 	stw	r2,0(r16)
   21288:	80800415 	stw	r2,16(r16)
   2128c:	d8800017 	ldw	r2,0(sp)
   21290:	d9400117 	ldw	r5,4(sp)
   21294:	18c02014 	ori	r3,r3,128
   21298:	80c0030d 	sth	r3,12(r16)
   2129c:	80800515 	stw	r2,20(r16)
   212a0:	28001d1e 	bne	r5,zero,21318 <__smakebuf_r+0x120>
   212a4:	90c6b03a 	or	r3,r18,r3
   212a8:	80c0030d 	sth	r3,12(r16)
   212ac:	003fe006 	br	21230 <__smakebuf_r+0x38>
   212b0:	8140038f 	ldh	r5,14(r16)
   212b4:	8809883a 	mov	r4,r17
   212b8:	00250fc0 	call	250fc <_isatty_r>
   212bc:	103fe926 	beq	r2,zero,21264 <__smakebuf_r+0x6c>
   212c0:	8080030b 	ldhu	r2,12(r16)
   212c4:	80c010c4 	addi	r3,r16,67
   212c8:	80c00015 	stw	r3,0(r16)
   212cc:	10800054 	ori	r2,r2,1
   212d0:	8080030d 	sth	r2,12(r16)
   212d4:	00800044 	movi	r2,1
   212d8:	80c00415 	stw	r3,16(r16)
   212dc:	80800515 	stw	r2,20(r16)
   212e0:	003fe006 	br	21264 <__smakebuf_r+0x6c>
   212e4:	8080030b 	ldhu	r2,12(r16)
   212e8:	10c0800c 	andi	r3,r2,512
   212ec:	183fd01e 	bne	r3,zero,21230 <__smakebuf_r+0x38>
   212f0:	00ffff04 	movi	r3,-4
   212f4:	10c4703a 	and	r2,r2,r3
   212f8:	10800094 	ori	r2,r2,2
   212fc:	80c010c4 	addi	r3,r16,67
   21300:	8080030d 	sth	r2,12(r16)
   21304:	00800044 	movi	r2,1
   21308:	80c00015 	stw	r3,0(r16)
   2130c:	80c00415 	stw	r3,16(r16)
   21310:	80800515 	stw	r2,20(r16)
   21314:	003fc606 	br	21230 <__smakebuf_r+0x38>
   21318:	8140038f 	ldh	r5,14(r16)
   2131c:	8809883a 	mov	r4,r17
   21320:	00250fc0 	call	250fc <_isatty_r>
   21324:	80c0030b 	ldhu	r3,12(r16)
   21328:	103fde26 	beq	r2,zero,212a4 <__smakebuf_r+0xac>
   2132c:	18ffff0c 	andi	r3,r3,65532
   21330:	18c00054 	ori	r3,r3,1
   21334:	003fdb06 	br	212a4 <__smakebuf_r+0xac>

00021338 <malloc>:
   21338:	008000f4 	movhi	r2,3
   2133c:	200b883a 	mov	r5,r4
   21340:	1108a617 	ldw	r4,8856(r2)
   21344:	00213581 	jmpi	21358 <_malloc_r>

00021348 <free>:
   21348:	008000f4 	movhi	r2,3
   2134c:	200b883a 	mov	r5,r4
   21350:	1108a617 	ldw	r4,8856(r2)
   21354:	00240e81 	jmpi	240e8 <_free_r>

00021358 <_malloc_r>:
   21358:	defff604 	addi	sp,sp,-40
   2135c:	dc400115 	stw	r17,4(sp)
   21360:	2c4002c4 	addi	r17,r5,11
   21364:	dc800215 	stw	r18,8(sp)
   21368:	dfc00915 	stw	ra,36(sp)
   2136c:	df000815 	stw	fp,32(sp)
   21370:	ddc00715 	stw	r23,28(sp)
   21374:	dd800615 	stw	r22,24(sp)
   21378:	dd400515 	stw	r21,20(sp)
   2137c:	dd000415 	stw	r20,16(sp)
   21380:	dcc00315 	stw	r19,12(sp)
   21384:	dc000015 	stw	r16,0(sp)
   21388:	888005e8 	cmpgeui	r2,r17,23
   2138c:	2025883a 	mov	r18,r4
   21390:	10001b1e 	bne	r2,zero,21400 <_malloc_r+0xa8>
   21394:	29400468 	cmpgeui	r5,r5,17
   21398:	2800821e 	bne	r5,zero,215a4 <_malloc_r+0x24c>
   2139c:	002d8900 	call	2d890 <__malloc_lock>
   213a0:	04400404 	movi	r17,16
   213a4:	01c00084 	movi	r7,2
   213a8:	00800604 	movi	r2,24
   213ac:	04c000f4 	movhi	r19,3
   213b0:	9cc2b704 	addi	r19,r19,2780
   213b4:	9885883a 	add	r2,r19,r2
   213b8:	14000117 	ldw	r16,4(r2)
   213bc:	10fffe04 	addi	r3,r2,-8
   213c0:	80c08b26 	beq	r16,r3,215f0 <_malloc_r+0x298>
   213c4:	80800117 	ldw	r2,4(r16)
   213c8:	81000317 	ldw	r4,12(r16)
   213cc:	00ffff04 	movi	r3,-4
   213d0:	10c4703a 	and	r2,r2,r3
   213d4:	81400217 	ldw	r5,8(r16)
   213d8:	8085883a 	add	r2,r16,r2
   213dc:	10c00117 	ldw	r3,4(r2)
   213e0:	29000315 	stw	r4,12(r5)
   213e4:	21400215 	stw	r5,8(r4)
   213e8:	18c00054 	ori	r3,r3,1
   213ec:	10c00115 	stw	r3,4(r2)
   213f0:	9009883a 	mov	r4,r18
   213f4:	002d8b40 	call	2d8b4 <__malloc_unlock>
   213f8:	80800204 	addi	r2,r16,8
   213fc:	00006c06 	br	215b0 <_malloc_r+0x258>
   21400:	00bffe04 	movi	r2,-8
   21404:	88a2703a 	and	r17,r17,r2
   21408:	88006616 	blt	r17,zero,215a4 <_malloc_r+0x24c>
   2140c:	89406536 	bltu	r17,r5,215a4 <_malloc_r+0x24c>
   21410:	002d8900 	call	2d890 <__malloc_lock>
   21414:	88807e28 	cmpgeui	r2,r17,504
   21418:	10012226 	beq	r2,zero,218a4 <_malloc_r+0x54c>
   2141c:	8804d27a 	srli	r2,r17,9
   21420:	10006f26 	beq	r2,zero,215e0 <_malloc_r+0x288>
   21424:	10c00168 	cmpgeui	r3,r2,5
   21428:	1800fe1e 	bne	r3,zero,21824 <_malloc_r+0x4cc>
   2142c:	8804d1ba 	srli	r2,r17,6
   21430:	11c00e44 	addi	r7,r2,57
   21434:	380890fa 	slli	r4,r7,3
   21438:	12000e04 	addi	r8,r2,56
   2143c:	04c000f4 	movhi	r19,3
   21440:	9cc2b704 	addi	r19,r19,2780
   21444:	9909883a 	add	r4,r19,r4
   21448:	24000117 	ldw	r16,4(r4)
   2144c:	213ffe04 	addi	r4,r4,-8
   21450:	24000b26 	beq	r4,r16,21480 <_malloc_r+0x128>
   21454:	01bfff04 	movi	r6,-4
   21458:	00000306 	br	21468 <_malloc_r+0x110>
   2145c:	1800d60e 	bge	r3,zero,217b8 <_malloc_r+0x460>
   21460:	84000317 	ldw	r16,12(r16)
   21464:	24000626 	beq	r4,r16,21480 <_malloc_r+0x128>
   21468:	80800117 	ldw	r2,4(r16)
   2146c:	1184703a 	and	r2,r2,r6
   21470:	1447c83a 	sub	r3,r2,r17
   21474:	19400408 	cmpgei	r5,r3,16
   21478:	283ff826 	beq	r5,zero,2145c <_malloc_r+0x104>
   2147c:	400f883a 	mov	r7,r8
   21480:	9c000417 	ldw	r16,16(r19)
   21484:	024000f4 	movhi	r9,3
   21488:	4a42b904 	addi	r9,r9,2788
   2148c:	82405f26 	beq	r16,r9,2160c <_malloc_r+0x2b4>
   21490:	80c00117 	ldw	r3,4(r16)
   21494:	00bfff04 	movi	r2,-4
   21498:	1884703a 	and	r2,r3,r2
   2149c:	1447c83a 	sub	r3,r2,r17
   214a0:	19000410 	cmplti	r4,r3,16
   214a4:	20010a26 	beq	r4,zero,218d0 <_malloc_r+0x578>
   214a8:	9a400515 	stw	r9,20(r19)
   214ac:	9a400415 	stw	r9,16(r19)
   214b0:	1800ff0e 	bge	r3,zero,218b0 <_malloc_r+0x558>
   214b4:	10c08028 	cmpgeui	r3,r2,512
   214b8:	1800c11e 	bne	r3,zero,217c0 <_malloc_r+0x468>
   214bc:	1006d0fa 	srli	r3,r2,3
   214c0:	1008d17a 	srli	r4,r2,5
   214c4:	00800044 	movi	r2,1
   214c8:	18c00044 	addi	r3,r3,1
   214cc:	180690fa 	slli	r3,r3,3
   214d0:	99400117 	ldw	r5,4(r19)
   214d4:	1104983a 	sll	r2,r2,r4
   214d8:	98c7883a 	add	r3,r19,r3
   214dc:	19000017 	ldw	r4,0(r3)
   214e0:	1144b03a 	or	r2,r2,r5
   214e4:	197ffe04 	addi	r5,r3,-8
   214e8:	81400315 	stw	r5,12(r16)
   214ec:	81000215 	stw	r4,8(r16)
   214f0:	98800115 	stw	r2,4(r19)
   214f4:	1c000015 	stw	r16,0(r3)
   214f8:	24000315 	stw	r16,12(r4)
   214fc:	3807d0ba 	srai	r3,r7,2
   21500:	01000044 	movi	r4,1
   21504:	20c8983a 	sll	r4,r4,r3
   21508:	11004536 	bltu	r2,r4,21620 <_malloc_r+0x2c8>
   2150c:	2086703a 	and	r3,r4,r2
   21510:	18000a1e 	bne	r3,zero,2153c <_malloc_r+0x1e4>
   21514:	00ffff04 	movi	r3,-4
   21518:	2109883a 	add	r4,r4,r4
   2151c:	38ce703a 	and	r7,r7,r3
   21520:	2086703a 	and	r3,r4,r2
   21524:	39c00104 	addi	r7,r7,4
   21528:	1800041e 	bne	r3,zero,2153c <_malloc_r+0x1e4>
   2152c:	2109883a 	add	r4,r4,r4
   21530:	2086703a 	and	r3,r4,r2
   21534:	39c00104 	addi	r7,r7,4
   21538:	183ffc26 	beq	r3,zero,2152c <_malloc_r+0x1d4>
   2153c:	02bfff04 	movi	r10,-4
   21540:	381690fa 	slli	r11,r7,3
   21544:	3819883a 	mov	r12,r7
   21548:	9ad7883a 	add	r11,r19,r11
   2154c:	5811883a 	mov	r8,r11
   21550:	40800317 	ldw	r2,12(r8)
   21554:	4080bc26 	beq	r8,r2,21848 <_malloc_r+0x4f0>
   21558:	10c00117 	ldw	r3,4(r2)
   2155c:	1021883a 	mov	r16,r2
   21560:	10800317 	ldw	r2,12(r2)
   21564:	1a86703a 	and	r3,r3,r10
   21568:	1c4bc83a 	sub	r5,r3,r17
   2156c:	29800410 	cmplti	r6,r5,16
   21570:	3000ba26 	beq	r6,zero,2185c <_malloc_r+0x504>
   21574:	283ff716 	blt	r5,zero,21554 <_malloc_r+0x1fc>
   21578:	80c7883a 	add	r3,r16,r3
   2157c:	19400117 	ldw	r5,4(r3)
   21580:	81800217 	ldw	r6,8(r16)
   21584:	9009883a 	mov	r4,r18
   21588:	29400054 	ori	r5,r5,1
   2158c:	19400115 	stw	r5,4(r3)
   21590:	30800315 	stw	r2,12(r6)
   21594:	11800215 	stw	r6,8(r2)
   21598:	002d8b40 	call	2d8b4 <__malloc_unlock>
   2159c:	80800204 	addi	r2,r16,8
   215a0:	00000306 	br	215b0 <_malloc_r+0x258>
   215a4:	00800304 	movi	r2,12
   215a8:	90800015 	stw	r2,0(r18)
   215ac:	0005883a 	mov	r2,zero
   215b0:	dfc00917 	ldw	ra,36(sp)
   215b4:	df000817 	ldw	fp,32(sp)
   215b8:	ddc00717 	ldw	r23,28(sp)
   215bc:	dd800617 	ldw	r22,24(sp)
   215c0:	dd400517 	ldw	r21,20(sp)
   215c4:	dd000417 	ldw	r20,16(sp)
   215c8:	dcc00317 	ldw	r19,12(sp)
   215cc:	dc800217 	ldw	r18,8(sp)
   215d0:	dc400117 	ldw	r17,4(sp)
   215d4:	dc000017 	ldw	r16,0(sp)
   215d8:	dec00a04 	addi	sp,sp,40
   215dc:	f800283a 	ret
   215e0:	01008004 	movi	r4,512
   215e4:	01c01004 	movi	r7,64
   215e8:	02000fc4 	movi	r8,63
   215ec:	003f9306 	br	2143c <_malloc_r+0xe4>
   215f0:	14000317 	ldw	r16,12(r2)
   215f4:	39c00084 	addi	r7,r7,2
   215f8:	143f721e 	bne	r2,r16,213c4 <_malloc_r+0x6c>
   215fc:	9c000417 	ldw	r16,16(r19)
   21600:	024000f4 	movhi	r9,3
   21604:	4a42b904 	addi	r9,r9,2788
   21608:	827fa11e 	bne	r16,r9,21490 <_malloc_r+0x138>
   2160c:	3807d0ba 	srai	r3,r7,2
   21610:	01000044 	movi	r4,1
   21614:	98800117 	ldw	r2,4(r19)
   21618:	20c8983a 	sll	r4,r4,r3
   2161c:	113fbb2e 	bgeu	r2,r4,2150c <_malloc_r+0x1b4>
   21620:	9c000217 	ldw	r16,8(r19)
   21624:	00bfff04 	movi	r2,-4
   21628:	85400117 	ldw	r21,4(r16)
   2162c:	a8ac703a 	and	r22,r21,r2
   21630:	b4400336 	bltu	r22,r17,21640 <_malloc_r+0x2e8>
   21634:	b445c83a 	sub	r2,r22,r17
   21638:	10c00408 	cmpgei	r3,r2,16
   2163c:	1800541e 	bne	r3,zero,21790 <_malloc_r+0x438>
   21640:	008000f4 	movhi	r2,3
   21644:	1088a717 	ldw	r2,8860(r2)
   21648:	00c000f4 	movhi	r3,3
   2164c:	1d4fc917 	ldw	r21,16164(r3)
   21650:	10bfffd8 	cmpnei	r2,r2,-1
   21654:	85b9883a 	add	fp,r16,r22
   21658:	8d6b883a 	add	r21,r17,r21
   2165c:	1000d626 	beq	r2,zero,219b8 <_malloc_r+0x660>
   21660:	ad4403c4 	addi	r21,r21,4111
   21664:	00bc0004 	movi	r2,-4096
   21668:	a8aa703a 	and	r21,r21,r2
   2166c:	a80b883a 	mov	r5,r21
   21670:	9009883a 	mov	r4,r18
   21674:	0021e080 	call	21e08 <_sbrk_r>
   21678:	102f883a 	mov	r23,r2
   2167c:	10bfffd8 	cmpnei	r2,r2,-1
   21680:	1000a826 	beq	r2,zero,21924 <_malloc_r+0x5cc>
   21684:	bf00a636 	bltu	r23,fp,21920 <_malloc_r+0x5c8>
   21688:	008000f4 	movhi	r2,3
   2168c:	150fd817 	ldw	r20,16224(r2)
   21690:	ad29883a 	add	r20,r21,r20
   21694:	150fd815 	stw	r20,16224(r2)
   21698:	a007883a 	mov	r3,r20
   2169c:	e5c0ec26 	beq	fp,r23,21a50 <_malloc_r+0x6f8>
   216a0:	008000f4 	movhi	r2,3
   216a4:	1088a717 	ldw	r2,8860(r2)
   216a8:	10bfffd8 	cmpnei	r2,r2,-1
   216ac:	1000ef26 	beq	r2,zero,21a6c <_malloc_r+0x714>
   216b0:	bf39c83a 	sub	fp,r23,fp
   216b4:	e0c7883a 	add	r3,fp,r3
   216b8:	008000f4 	movhi	r2,3
   216bc:	10cfd815 	stw	r3,16224(r2)
   216c0:	bf0001cc 	andi	fp,r23,7
   216c4:	e000c526 	beq	fp,zero,219dc <_malloc_r+0x684>
   216c8:	bf2fc83a 	sub	r23,r23,fp
   216cc:	bdc00204 	addi	r23,r23,8
   216d0:	05040204 	movi	r20,4104
   216d4:	a729c83a 	sub	r20,r20,fp
   216d8:	bd6b883a 	add	r21,r23,r21
   216dc:	a569c83a 	sub	r20,r20,r21
   216e0:	a503ffcc 	andi	r20,r20,4095
   216e4:	a00b883a 	mov	r5,r20
   216e8:	9009883a 	mov	r4,r18
   216ec:	0021e080 	call	21e08 <_sbrk_r>
   216f0:	10ffffe0 	cmpeqi	r3,r2,-1
   216f4:	1800f31e 	bne	r3,zero,21ac4 <_malloc_r+0x76c>
   216f8:	15c5c83a 	sub	r2,r2,r23
   216fc:	152b883a 	add	r21,r2,r20
   21700:	008000f4 	movhi	r2,3
   21704:	114fd817 	ldw	r5,16224(r2)
   21708:	9dc00215 	stw	r23,8(r19)
   2170c:	ad400054 	ori	r21,r21,1
   21710:	a169883a 	add	r20,r20,r5
   21714:	150fd815 	stw	r20,16224(r2)
   21718:	bd400115 	stw	r21,4(r23)
   2171c:	84c0d626 	beq	r16,r19,21a78 <_malloc_r+0x720>
   21720:	b0800428 	cmpgeui	r2,r22,16
   21724:	1000d626 	beq	r2,zero,21a80 <_malloc_r+0x728>
   21728:	80c00117 	ldw	r3,4(r16)
   2172c:	013ffe04 	movi	r4,-8
   21730:	b0bffd04 	addi	r2,r22,-12
   21734:	1104703a 	and	r2,r2,r4
   21738:	18c0004c 	andi	r3,r3,1
   2173c:	1886b03a 	or	r3,r3,r2
   21740:	80c00115 	stw	r3,4(r16)
   21744:	01000144 	movi	r4,5
   21748:	8087883a 	add	r3,r16,r2
   2174c:	19000115 	stw	r4,4(r3)
   21750:	19000215 	stw	r4,8(r3)
   21754:	10800428 	cmpgeui	r2,r2,16
   21758:	1000df1e 	bne	r2,zero,21ad8 <_malloc_r+0x780>
   2175c:	bd400117 	ldw	r21,4(r23)
   21760:	b821883a 	mov	r16,r23
   21764:	008000f4 	movhi	r2,3
   21768:	108fc817 	ldw	r2,16160(r2)
   2176c:	1500022e 	bgeu	r2,r20,21778 <_malloc_r+0x420>
   21770:	008000f4 	movhi	r2,3
   21774:	150fc815 	stw	r20,16160(r2)
   21778:	008000f4 	movhi	r2,3
   2177c:	108fc717 	ldw	r2,16156(r2)
   21780:	15006a2e 	bgeu	r2,r20,2192c <_malloc_r+0x5d4>
   21784:	008000f4 	movhi	r2,3
   21788:	150fc715 	stw	r20,16156(r2)
   2178c:	00006706 	br	2192c <_malloc_r+0x5d4>
   21790:	88c00054 	ori	r3,r17,1
   21794:	80c00115 	stw	r3,4(r16)
   21798:	8463883a 	add	r17,r16,r17
   2179c:	10800054 	ori	r2,r2,1
   217a0:	9c400215 	stw	r17,8(r19)
   217a4:	88800115 	stw	r2,4(r17)
   217a8:	9009883a 	mov	r4,r18
   217ac:	002d8b40 	call	2d8b4 <__malloc_unlock>
   217b0:	80800204 	addi	r2,r16,8
   217b4:	003f7e06 	br	215b0 <_malloc_r+0x258>
   217b8:	81000317 	ldw	r4,12(r16)
   217bc:	003f0506 	br	213d4 <_malloc_r+0x7c>
   217c0:	1006d27a 	srli	r3,r2,9
   217c4:	19000168 	cmpgeui	r4,r3,5
   217c8:	20005026 	beq	r4,zero,2190c <_malloc_r+0x5b4>
   217cc:	19000568 	cmpgeui	r4,r3,21
   217d0:	20008c1e 	bne	r4,zero,21a04 <_malloc_r+0x6ac>
   217d4:	19401704 	addi	r5,r3,92
   217d8:	280a90fa 	slli	r5,r5,3
   217dc:	190016c4 	addi	r4,r3,91
   217e0:	994b883a 	add	r5,r19,r5
   217e4:	28c00017 	ldw	r3,0(r5)
   217e8:	297ffe04 	addi	r5,r5,-8
   217ec:	28c07426 	beq	r5,r3,219c0 <_malloc_r+0x668>
   217f0:	01bfff04 	movi	r6,-4
   217f4:	19000117 	ldw	r4,4(r3)
   217f8:	2188703a 	and	r4,r4,r6
   217fc:	1100022e 	bgeu	r2,r4,21808 <_malloc_r+0x4b0>
   21800:	18c00217 	ldw	r3,8(r3)
   21804:	28fffb1e 	bne	r5,r3,217f4 <_malloc_r+0x49c>
   21808:	19400317 	ldw	r5,12(r3)
   2180c:	98800117 	ldw	r2,4(r19)
   21810:	81400315 	stw	r5,12(r16)
   21814:	80c00215 	stw	r3,8(r16)
   21818:	2c000215 	stw	r16,8(r5)
   2181c:	1c000315 	stw	r16,12(r3)
   21820:	003f3606 	br	214fc <_malloc_r+0x1a4>
   21824:	10c00568 	cmpgeui	r3,r2,21
   21828:	18004a26 	beq	r3,zero,21954 <_malloc_r+0x5fc>
   2182c:	10c01568 	cmpgeui	r3,r2,85
   21830:	18007b1e 	bne	r3,zero,21a20 <_malloc_r+0x6c8>
   21834:	8804d33a 	srli	r2,r17,12
   21838:	11c01bc4 	addi	r7,r2,111
   2183c:	380890fa 	slli	r4,r7,3
   21840:	12001b84 	addi	r8,r2,110
   21844:	003efd06 	br	2143c <_malloc_r+0xe4>
   21848:	63000044 	addi	r12,r12,1
   2184c:	608000cc 	andi	r2,r12,3
   21850:	42000204 	addi	r8,r8,8
   21854:	103f3e1e 	bne	r2,zero,21550 <_malloc_r+0x1f8>
   21858:	00004506 	br	21970 <_malloc_r+0x618>
   2185c:	81000217 	ldw	r4,8(r16)
   21860:	89800054 	ori	r6,r17,1
   21864:	81800115 	stw	r6,4(r16)
   21868:	20800315 	stw	r2,12(r4)
   2186c:	11000215 	stw	r4,8(r2)
   21870:	8463883a 	add	r17,r16,r17
   21874:	9c400515 	stw	r17,20(r19)
   21878:	9c400415 	stw	r17,16(r19)
   2187c:	28800054 	ori	r2,r5,1
   21880:	88800115 	stw	r2,4(r17)
   21884:	8a400315 	stw	r9,12(r17)
   21888:	8a400215 	stw	r9,8(r17)
   2188c:	80c7883a 	add	r3,r16,r3
   21890:	19400015 	stw	r5,0(r3)
   21894:	9009883a 	mov	r4,r18
   21898:	002d8b40 	call	2d8b4 <__malloc_unlock>
   2189c:	80800204 	addi	r2,r16,8
   218a0:	003f4306 	br	215b0 <_malloc_r+0x258>
   218a4:	880ed0fa 	srli	r7,r17,3
   218a8:	88800204 	addi	r2,r17,8
   218ac:	003ebf06 	br	213ac <_malloc_r+0x54>
   218b0:	8085883a 	add	r2,r16,r2
   218b4:	10c00117 	ldw	r3,4(r2)
   218b8:	9009883a 	mov	r4,r18
   218bc:	18c00054 	ori	r3,r3,1
   218c0:	10c00115 	stw	r3,4(r2)
   218c4:	002d8b40 	call	2d8b4 <__malloc_unlock>
   218c8:	80800204 	addi	r2,r16,8
   218cc:	003f3806 	br	215b0 <_malloc_r+0x258>
   218d0:	89000054 	ori	r4,r17,1
   218d4:	81000115 	stw	r4,4(r16)
   218d8:	8463883a 	add	r17,r16,r17
   218dc:	9c400515 	stw	r17,20(r19)
   218e0:	9c400415 	stw	r17,16(r19)
   218e4:	19000054 	ori	r4,r3,1
   218e8:	89000115 	stw	r4,4(r17)
   218ec:	8085883a 	add	r2,r16,r2
   218f0:	8a400315 	stw	r9,12(r17)
   218f4:	8a400215 	stw	r9,8(r17)
   218f8:	10c00015 	stw	r3,0(r2)
   218fc:	9009883a 	mov	r4,r18
   21900:	002d8b40 	call	2d8b4 <__malloc_unlock>
   21904:	80800204 	addi	r2,r16,8
   21908:	003f2906 	br	215b0 <_malloc_r+0x258>
   2190c:	1006d1ba 	srli	r3,r2,6
   21910:	19400e44 	addi	r5,r3,57
   21914:	280a90fa 	slli	r5,r5,3
   21918:	19000e04 	addi	r4,r3,56
   2191c:	003fb006 	br	217e0 <_malloc_r+0x488>
   21920:	84c04626 	beq	r16,r19,21a3c <_malloc_r+0x6e4>
   21924:	9c000217 	ldw	r16,8(r19)
   21928:	85400117 	ldw	r21,4(r16)
   2192c:	00bfff04 	movi	r2,-4
   21930:	a8aa703a 	and	r21,r21,r2
   21934:	ac45c83a 	sub	r2,r21,r17
   21938:	ac400236 	bltu	r21,r17,21944 <_malloc_r+0x5ec>
   2193c:	10c00408 	cmpgei	r3,r2,16
   21940:	183f931e 	bne	r3,zero,21790 <_malloc_r+0x438>
   21944:	9009883a 	mov	r4,r18
   21948:	002d8b40 	call	2d8b4 <__malloc_unlock>
   2194c:	0005883a 	mov	r2,zero
   21950:	003f1706 	br	215b0 <_malloc_r+0x258>
   21954:	11c01704 	addi	r7,r2,92
   21958:	380890fa 	slli	r4,r7,3
   2195c:	120016c4 	addi	r8,r2,91
   21960:	003eb606 	br	2143c <_malloc_r+0xe4>
   21964:	58800217 	ldw	r2,8(r11)
   21968:	39ffffc4 	addi	r7,r7,-1
   2196c:	12c0701e 	bne	r2,r11,21b30 <_malloc_r+0x7d8>
   21970:	388000cc 	andi	r2,r7,3
   21974:	5afffe04 	addi	r11,r11,-8
   21978:	103ffa1e 	bne	r2,zero,21964 <_malloc_r+0x60c>
   2197c:	98c00117 	ldw	r3,4(r19)
   21980:	0104303a 	nor	r2,zero,r4
   21984:	10c4703a 	and	r2,r2,r3
   21988:	98800115 	stw	r2,4(r19)
   2198c:	2109883a 	add	r4,r4,r4
   21990:	113f2336 	bltu	r2,r4,21620 <_malloc_r+0x2c8>
   21994:	203f2226 	beq	r4,zero,21620 <_malloc_r+0x2c8>
   21998:	2086703a 	and	r3,r4,r2
   2199c:	1800041e 	bne	r3,zero,219b0 <_malloc_r+0x658>
   219a0:	2109883a 	add	r4,r4,r4
   219a4:	2086703a 	and	r3,r4,r2
   219a8:	63000104 	addi	r12,r12,4
   219ac:	183ffc26 	beq	r3,zero,219a0 <_malloc_r+0x648>
   219b0:	600f883a 	mov	r7,r12
   219b4:	003ee206 	br	21540 <_malloc_r+0x1e8>
   219b8:	ad400404 	addi	r21,r21,16
   219bc:	003f2b06 	br	2166c <_malloc_r+0x314>
   219c0:	2009d0ba 	srai	r4,r4,2
   219c4:	00800044 	movi	r2,1
   219c8:	99800117 	ldw	r6,4(r19)
   219cc:	1104983a 	sll	r2,r2,r4
   219d0:	1184b03a 	or	r2,r2,r6
   219d4:	98800115 	stw	r2,4(r19)
   219d8:	003f8d06 	br	21810 <_malloc_r+0x4b8>
   219dc:	bd69883a 	add	r20,r23,r21
   219e0:	0529c83a 	sub	r20,zero,r20
   219e4:	a503ffcc 	andi	r20,r20,4095
   219e8:	a00b883a 	mov	r5,r20
   219ec:	9009883a 	mov	r4,r18
   219f0:	0021e080 	call	21e08 <_sbrk_r>
   219f4:	10ffffe0 	cmpeqi	r3,r2,-1
   219f8:	183f3f26 	beq	r3,zero,216f8 <_malloc_r+0x3a0>
   219fc:	0029883a 	mov	r20,zero
   21a00:	003f3f06 	br	21700 <_malloc_r+0x3a8>
   21a04:	19001568 	cmpgeui	r4,r3,85
   21a08:	2000201e 	bne	r4,zero,21a8c <_malloc_r+0x734>
   21a0c:	1006d33a 	srli	r3,r2,12
   21a10:	19401bc4 	addi	r5,r3,111
   21a14:	280a90fa 	slli	r5,r5,3
   21a18:	19001b84 	addi	r4,r3,110
   21a1c:	003f7006 	br	217e0 <_malloc_r+0x488>
   21a20:	10c05568 	cmpgeui	r3,r2,341
   21a24:	1800201e 	bne	r3,zero,21aa8 <_malloc_r+0x750>
   21a28:	8804d3fa 	srli	r2,r17,15
   21a2c:	11c01e04 	addi	r7,r2,120
   21a30:	380890fa 	slli	r4,r7,3
   21a34:	12001dc4 	addi	r8,r2,119
   21a38:	003e8006 	br	2143c <_malloc_r+0xe4>
   21a3c:	008000f4 	movhi	r2,3
   21a40:	10cfd817 	ldw	r3,16224(r2)
   21a44:	a8c7883a 	add	r3,r21,r3
   21a48:	10cfd815 	stw	r3,16224(r2)
   21a4c:	003f1406 	br	216a0 <_malloc_r+0x348>
   21a50:	e083ffcc 	andi	r2,fp,4095
   21a54:	103f121e 	bne	r2,zero,216a0 <_malloc_r+0x348>
   21a58:	9c000217 	ldw	r16,8(r19)
   21a5c:	b56b883a 	add	r21,r22,r21
   21a60:	ad400054 	ori	r21,r21,1
   21a64:	85400115 	stw	r21,4(r16)
   21a68:	003f3e06 	br	21764 <_malloc_r+0x40c>
   21a6c:	008000f4 	movhi	r2,3
   21a70:	15c8a715 	stw	r23,8860(r2)
   21a74:	003f1206 	br	216c0 <_malloc_r+0x368>
   21a78:	b821883a 	mov	r16,r23
   21a7c:	003f3906 	br	21764 <_malloc_r+0x40c>
   21a80:	00800044 	movi	r2,1
   21a84:	b8800115 	stw	r2,4(r23)
   21a88:	003fae06 	br	21944 <_malloc_r+0x5ec>
   21a8c:	19005568 	cmpgeui	r4,r3,341
   21a90:	2000191e 	bne	r4,zero,21af8 <_malloc_r+0x7a0>
   21a94:	1006d3fa 	srli	r3,r2,15
   21a98:	19401e04 	addi	r5,r3,120
   21a9c:	280a90fa 	slli	r5,r5,3
   21aa0:	19001dc4 	addi	r4,r3,119
   21aa4:	003f4e06 	br	217e0 <_malloc_r+0x488>
   21aa8:	10815568 	cmpgeui	r2,r2,1365
   21aac:	1000191e 	bne	r2,zero,21b14 <_malloc_r+0x7bc>
   21ab0:	8804d4ba 	srli	r2,r17,18
   21ab4:	11c01f44 	addi	r7,r2,125
   21ab8:	380890fa 	slli	r4,r7,3
   21abc:	12001f04 	addi	r8,r2,124
   21ac0:	003e5e06 	br	2143c <_malloc_r+0xe4>
   21ac4:	e73ffe04 	addi	fp,fp,-8
   21ac8:	af2b883a 	add	r21,r21,fp
   21acc:	adebc83a 	sub	r21,r21,r23
   21ad0:	0029883a 	mov	r20,zero
   21ad4:	003f0a06 	br	21700 <_malloc_r+0x3a8>
   21ad8:	81400204 	addi	r5,r16,8
   21adc:	9009883a 	mov	r4,r18
   21ae0:	00240e80 	call	240e8 <_free_r>
   21ae4:	9c000217 	ldw	r16,8(r19)
   21ae8:	008000f4 	movhi	r2,3
   21aec:	150fd817 	ldw	r20,16224(r2)
   21af0:	85400117 	ldw	r21,4(r16)
   21af4:	003f1b06 	br	21764 <_malloc_r+0x40c>
   21af8:	18c15568 	cmpgeui	r3,r3,1365
   21afc:	1800091e 	bne	r3,zero,21b24 <_malloc_r+0x7cc>
   21b00:	1006d4ba 	srli	r3,r2,18
   21b04:	19401f44 	addi	r5,r3,125
   21b08:	280a90fa 	slli	r5,r5,3
   21b0c:	19001f04 	addi	r4,r3,124
   21b10:	003f3306 	br	217e0 <_malloc_r+0x488>
   21b14:	0100fe04 	movi	r4,1016
   21b18:	01c01fc4 	movi	r7,127
   21b1c:	02001f84 	movi	r8,126
   21b20:	003e4606 	br	2143c <_malloc_r+0xe4>
   21b24:	0140fe04 	movi	r5,1016
   21b28:	01001f84 	movi	r4,126
   21b2c:	003f2c06 	br	217e0 <_malloc_r+0x488>
   21b30:	98800117 	ldw	r2,4(r19)
   21b34:	003f9506 	br	2198c <_malloc_r+0x634>

00021b38 <_open_r>:
   21b38:	2807883a 	mov	r3,r5
   21b3c:	defffe04 	addi	sp,sp,-8
   21b40:	dc000015 	stw	r16,0(sp)
   21b44:	300b883a 	mov	r5,r6
   21b48:	008000f4 	movhi	r2,3
   21b4c:	380d883a 	mov	r6,r7
   21b50:	2021883a 	mov	r16,r4
   21b54:	1809883a 	mov	r4,r3
   21b58:	dfc00115 	stw	ra,4(sp)
   21b5c:	100fc615 	stw	zero,16152(r2)
   21b60:	002d9f00 	call	2d9f0 <open>
   21b64:	10ffffd8 	cmpnei	r3,r2,-1
   21b68:	18000426 	beq	r3,zero,21b7c <_open_r+0x44>
   21b6c:	dfc00117 	ldw	ra,4(sp)
   21b70:	dc000017 	ldw	r16,0(sp)
   21b74:	dec00204 	addi	sp,sp,8
   21b78:	f800283a 	ret
   21b7c:	00c000f4 	movhi	r3,3
   21b80:	18cfc617 	ldw	r3,16152(r3)
   21b84:	183ff926 	beq	r3,zero,21b6c <_open_r+0x34>
   21b88:	80c00015 	stw	r3,0(r16)
   21b8c:	dfc00117 	ldw	ra,4(sp)
   21b90:	dc000017 	ldw	r16,0(sp)
   21b94:	dec00204 	addi	sp,sp,8
   21b98:	f800283a 	ret

00021b9c <lflush>:
   21b9c:	2080030b 	ldhu	r2,12(r4)
   21ba0:	1080024c 	andi	r2,r2,9
   21ba4:	10800258 	cmpnei	r2,r2,9
   21ba8:	10000226 	beq	r2,zero,21bb4 <lflush+0x18>
   21bac:	0005883a 	mov	r2,zero
   21bb0:	f800283a 	ret
   21bb4:	0023b981 	jmpi	23b98 <fflush>

00021bb8 <__srefill_r>:
   21bb8:	defffc04 	addi	sp,sp,-16
   21bbc:	dc400115 	stw	r17,4(sp)
   21bc0:	dc000015 	stw	r16,0(sp)
   21bc4:	dfc00315 	stw	ra,12(sp)
   21bc8:	dc800215 	stw	r18,8(sp)
   21bcc:	2023883a 	mov	r17,r4
   21bd0:	2821883a 	mov	r16,r5
   21bd4:	20000226 	beq	r4,zero,21be0 <__srefill_r+0x28>
   21bd8:	20800e17 	ldw	r2,56(r4)
   21bdc:	10003a26 	beq	r2,zero,21cc8 <__srefill_r+0x110>
   21be0:	80c0030b 	ldhu	r3,12(r16)
   21be4:	1908000c 	andi	r4,r3,8192
   21be8:	1805883a 	mov	r2,r3
   21bec:	2000071e 	bne	r4,zero,21c0c <__srefill_r+0x54>
   21bf0:	81001917 	ldw	r4,100(r16)
   21bf4:	18880014 	ori	r2,r3,8192
   21bf8:	00f7ffc4 	movi	r3,-8193
   21bfc:	20c8703a 	and	r4,r4,r3
   21c00:	8080030d 	sth	r2,12(r16)
   21c04:	1007883a 	mov	r3,r2
   21c08:	81001915 	stw	r4,100(r16)
   21c0c:	80000115 	stw	zero,4(r16)
   21c10:	1100080c 	andi	r4,r2,32
   21c14:	20004d1e 	bne	r4,zero,21d4c <__srefill_r+0x194>
   21c18:	1100010c 	andi	r4,r2,4
   21c1c:	20001c1e 	bne	r4,zero,21c90 <__srefill_r+0xd8>
   21c20:	1100040c 	andi	r4,r2,16
   21c24:	20005126 	beq	r4,zero,21d6c <__srefill_r+0x1b4>
   21c28:	1080020c 	andi	r2,r2,8
   21c2c:	1000371e 	bne	r2,zero,21d0c <__srefill_r+0x154>
   21c30:	18c00114 	ori	r3,r3,4
   21c34:	80c0030d 	sth	r3,12(r16)
   21c38:	80800417 	ldw	r2,16(r16)
   21c3c:	10003c26 	beq	r2,zero,21d30 <__srefill_r+0x178>
   21c40:	8480030b 	ldhu	r18,12(r16)
   21c44:	908000cc 	andi	r2,r18,3
   21c48:	1000211e 	bne	r2,zero,21cd0 <__srefill_r+0x118>
   21c4c:	81800417 	ldw	r6,16(r16)
   21c50:	80800817 	ldw	r2,32(r16)
   21c54:	81c00517 	ldw	r7,20(r16)
   21c58:	81400717 	ldw	r5,28(r16)
   21c5c:	81800015 	stw	r6,0(r16)
   21c60:	8809883a 	mov	r4,r17
   21c64:	103ee83a 	callr	r2
   21c68:	1007883a 	mov	r3,r2
   21c6c:	80800115 	stw	r2,4(r16)
   21c70:	0005883a 	mov	r2,zero
   21c74:	00c0370e 	bge	zero,r3,21d54 <__srefill_r+0x19c>
   21c78:	dfc00317 	ldw	ra,12(sp)
   21c7c:	dc800217 	ldw	r18,8(sp)
   21c80:	dc400117 	ldw	r17,4(sp)
   21c84:	dc000017 	ldw	r16,0(sp)
   21c88:	dec00404 	addi	sp,sp,16
   21c8c:	f800283a 	ret
   21c90:	81400c17 	ldw	r5,48(r16)
   21c94:	283fe826 	beq	r5,zero,21c38 <__srefill_r+0x80>
   21c98:	80801004 	addi	r2,r16,64
   21c9c:	28800226 	beq	r5,r2,21ca8 <__srefill_r+0xf0>
   21ca0:	8809883a 	mov	r4,r17
   21ca4:	00240e80 	call	240e8 <_free_r>
   21ca8:	80800f17 	ldw	r2,60(r16)
   21cac:	80000c15 	stw	zero,48(r16)
   21cb0:	80800115 	stw	r2,4(r16)
   21cb4:	103fe026 	beq	r2,zero,21c38 <__srefill_r+0x80>
   21cb8:	80c00e17 	ldw	r3,56(r16)
   21cbc:	0005883a 	mov	r2,zero
   21cc0:	80c00015 	stw	r3,0(r16)
   21cc4:	003fec06 	br	21c78 <__srefill_r+0xc0>
   21cc8:	0023ecc0 	call	23ecc <__sinit>
   21ccc:	003fc406 	br	21be0 <__srefill_r+0x28>
   21cd0:	008000f4 	movhi	r2,3
   21cd4:	1108a517 	ldw	r4,8852(r2)
   21cd8:	014000b4 	movhi	r5,2
   21cdc:	00800044 	movi	r2,1
   21ce0:	8080030d 	sth	r2,12(r16)
   21ce4:	2946e704 	addi	r5,r5,7068
   21ce8:	00243e40 	call	243e4 <_fwalk>
   21cec:	9080024c 	andi	r2,r18,9
   21cf0:	8480030d 	sth	r18,12(r16)
   21cf4:	10800258 	cmpnei	r2,r2,9
   21cf8:	103fd41e 	bne	r2,zero,21c4c <__srefill_r+0x94>
   21cfc:	800b883a 	mov	r5,r16
   21d00:	8809883a 	mov	r4,r17
   21d04:	00239100 	call	23910 <__sflush_r>
   21d08:	003fd006 	br	21c4c <__srefill_r+0x94>
   21d0c:	800b883a 	mov	r5,r16
   21d10:	8809883a 	mov	r4,r17
   21d14:	0023b380 	call	23b38 <_fflush_r>
   21d18:	10000c1e 	bne	r2,zero,21d4c <__srefill_r+0x194>
   21d1c:	80c0030b 	ldhu	r3,12(r16)
   21d20:	80000215 	stw	zero,8(r16)
   21d24:	80000615 	stw	zero,24(r16)
   21d28:	18fffdcc 	andi	r3,r3,65527
   21d2c:	003fc006 	br	21c30 <__srefill_r+0x78>
   21d30:	800b883a 	mov	r5,r16
   21d34:	8809883a 	mov	r4,r17
   21d38:	00211f80 	call	211f8 <__smakebuf_r>
   21d3c:	003fc006 	br	21c40 <__srefill_r+0x88>
   21d40:	10801014 	ori	r2,r2,64
   21d44:	80000115 	stw	zero,4(r16)
   21d48:	8080030d 	sth	r2,12(r16)
   21d4c:	00bfffc4 	movi	r2,-1
   21d50:	003fc906 	br	21c78 <__srefill_r+0xc0>
   21d54:	8080030b 	ldhu	r2,12(r16)
   21d58:	183ff91e 	bne	r3,zero,21d40 <__srefill_r+0x188>
   21d5c:	10800814 	ori	r2,r2,32
   21d60:	8080030d 	sth	r2,12(r16)
   21d64:	00bfffc4 	movi	r2,-1
   21d68:	003fc306 	br	21c78 <__srefill_r+0xc0>
   21d6c:	00800244 	movi	r2,9
   21d70:	88800015 	stw	r2,0(r17)
   21d74:	18c01014 	ori	r3,r3,64
   21d78:	80c0030d 	sth	r3,12(r16)
   21d7c:	00bfffc4 	movi	r2,-1
   21d80:	003fbd06 	br	21c78 <__srefill_r+0xc0>

00021d84 <__srget_r>:
   21d84:	defffd04 	addi	sp,sp,-12
   21d88:	dc400115 	stw	r17,4(sp)
   21d8c:	dc000015 	stw	r16,0(sp)
   21d90:	dfc00215 	stw	ra,8(sp)
   21d94:	2023883a 	mov	r17,r4
   21d98:	2821883a 	mov	r16,r5
   21d9c:	20000226 	beq	r4,zero,21da8 <__srget_r+0x24>
   21da0:	20800e17 	ldw	r2,56(r4)
   21da4:	10001026 	beq	r2,zero,21de8 <__srget_r+0x64>
   21da8:	800b883a 	mov	r5,r16
   21dac:	8809883a 	mov	r4,r17
   21db0:	0021bb80 	call	21bb8 <__srefill_r>
   21db4:	10000e1e 	bne	r2,zero,21df0 <__srget_r+0x6c>
   21db8:	80c00017 	ldw	r3,0(r16)
   21dbc:	80800117 	ldw	r2,4(r16)
   21dc0:	19000044 	addi	r4,r3,1
   21dc4:	10bfffc4 	addi	r2,r2,-1
   21dc8:	80800115 	stw	r2,4(r16)
   21dcc:	81000015 	stw	r4,0(r16)
   21dd0:	18800003 	ldbu	r2,0(r3)
   21dd4:	dfc00217 	ldw	ra,8(sp)
   21dd8:	dc400117 	ldw	r17,4(sp)
   21ddc:	dc000017 	ldw	r16,0(sp)
   21de0:	dec00304 	addi	sp,sp,12
   21de4:	f800283a 	ret
   21de8:	0023ecc0 	call	23ecc <__sinit>
   21dec:	003fee06 	br	21da8 <__srget_r+0x24>
   21df0:	00bfffc4 	movi	r2,-1
   21df4:	003ff706 	br	21dd4 <__srget_r+0x50>

00021df8 <__srget>:
   21df8:	008000f4 	movhi	r2,3
   21dfc:	200b883a 	mov	r5,r4
   21e00:	1108a617 	ldw	r4,8856(r2)
   21e04:	0021d841 	jmpi	21d84 <__srget_r>

00021e08 <_sbrk_r>:
   21e08:	defffe04 	addi	sp,sp,-8
   21e0c:	dc000015 	stw	r16,0(sp)
   21e10:	008000f4 	movhi	r2,3
   21e14:	2021883a 	mov	r16,r4
   21e18:	2809883a 	mov	r4,r5
   21e1c:	dfc00115 	stw	ra,4(sp)
   21e20:	100fc615 	stw	zero,16152(r2)
   21e24:	002df600 	call	2df60 <sbrk>
   21e28:	10ffffd8 	cmpnei	r3,r2,-1
   21e2c:	18000426 	beq	r3,zero,21e40 <_sbrk_r+0x38>
   21e30:	dfc00117 	ldw	ra,4(sp)
   21e34:	dc000017 	ldw	r16,0(sp)
   21e38:	dec00204 	addi	sp,sp,8
   21e3c:	f800283a 	ret
   21e40:	00c000f4 	movhi	r3,3
   21e44:	18cfc617 	ldw	r3,16152(r3)
   21e48:	183ff926 	beq	r3,zero,21e30 <_sbrk_r+0x28>
   21e4c:	80c00015 	stw	r3,0(r16)
   21e50:	dfc00117 	ldw	ra,4(sp)
   21e54:	dc000017 	ldw	r16,0(sp)
   21e58:	dec00204 	addi	sp,sp,8
   21e5c:	f800283a 	ret

00021e60 <__sread>:
   21e60:	defffe04 	addi	sp,sp,-8
   21e64:	dc000015 	stw	r16,0(sp)
   21e68:	2821883a 	mov	r16,r5
   21e6c:	2940038f 	ldh	r5,14(r5)
   21e70:	dfc00115 	stw	ra,4(sp)
   21e74:	00265d00 	call	265d0 <_read_r>
   21e78:	10000716 	blt	r2,zero,21e98 <__sread+0x38>
   21e7c:	80c01417 	ldw	r3,80(r16)
   21e80:	1887883a 	add	r3,r3,r2
   21e84:	80c01415 	stw	r3,80(r16)
   21e88:	dfc00117 	ldw	ra,4(sp)
   21e8c:	dc000017 	ldw	r16,0(sp)
   21e90:	dec00204 	addi	sp,sp,8
   21e94:	f800283a 	ret
   21e98:	80c0030b 	ldhu	r3,12(r16)
   21e9c:	18fbffcc 	andi	r3,r3,61439
   21ea0:	80c0030d 	sth	r3,12(r16)
   21ea4:	dfc00117 	ldw	ra,4(sp)
   21ea8:	dc000017 	ldw	r16,0(sp)
   21eac:	dec00204 	addi	sp,sp,8
   21eb0:	f800283a 	ret

00021eb4 <__seofread>:
   21eb4:	0005883a 	mov	r2,zero
   21eb8:	f800283a 	ret

00021ebc <__swrite>:
   21ebc:	2880030b 	ldhu	r2,12(r5)
   21ec0:	defffb04 	addi	sp,sp,-20
   21ec4:	dcc00315 	stw	r19,12(sp)
   21ec8:	dc800215 	stw	r18,8(sp)
   21ecc:	dc400115 	stw	r17,4(sp)
   21ed0:	dc000015 	stw	r16,0(sp)
   21ed4:	dfc00415 	stw	ra,16(sp)
   21ed8:	10c0400c 	andi	r3,r2,256
   21edc:	2821883a 	mov	r16,r5
   21ee0:	2023883a 	mov	r17,r4
   21ee4:	2940038f 	ldh	r5,14(r5)
   21ee8:	3025883a 	mov	r18,r6
   21eec:	3827883a 	mov	r19,r7
   21ef0:	18000c1e 	bne	r3,zero,21f24 <__swrite+0x68>
   21ef4:	10bbffcc 	andi	r2,r2,61439
   21ef8:	980f883a 	mov	r7,r19
   21efc:	900d883a 	mov	r6,r18
   21f00:	8809883a 	mov	r4,r17
   21f04:	8080030d 	sth	r2,12(r16)
   21f08:	dfc00417 	ldw	ra,16(sp)
   21f0c:	dcc00317 	ldw	r19,12(sp)
   21f10:	dc800217 	ldw	r18,8(sp)
   21f14:	dc400117 	ldw	r17,4(sp)
   21f18:	dc000017 	ldw	r16,0(sp)
   21f1c:	dec00504 	addi	sp,sp,20
   21f20:	00238541 	jmpi	23854 <_write_r>
   21f24:	01c00084 	movi	r7,2
   21f28:	000d883a 	mov	r6,zero
   21f2c:	00251f40 	call	251f4 <_lseek_r>
   21f30:	8080030b 	ldhu	r2,12(r16)
   21f34:	8140038f 	ldh	r5,14(r16)
   21f38:	003fee06 	br	21ef4 <__swrite+0x38>

00021f3c <__sseek>:
   21f3c:	defffe04 	addi	sp,sp,-8
   21f40:	dc000015 	stw	r16,0(sp)
   21f44:	2821883a 	mov	r16,r5
   21f48:	2940038f 	ldh	r5,14(r5)
   21f4c:	dfc00115 	stw	ra,4(sp)
   21f50:	00251f40 	call	251f4 <_lseek_r>
   21f54:	10ffffd8 	cmpnei	r3,r2,-1
   21f58:	18000826 	beq	r3,zero,21f7c <__sseek+0x40>
   21f5c:	80c0030b 	ldhu	r3,12(r16)
   21f60:	80801415 	stw	r2,80(r16)
   21f64:	18c40014 	ori	r3,r3,4096
   21f68:	80c0030d 	sth	r3,12(r16)
   21f6c:	dfc00117 	ldw	ra,4(sp)
   21f70:	dc000017 	ldw	r16,0(sp)
   21f74:	dec00204 	addi	sp,sp,8
   21f78:	f800283a 	ret
   21f7c:	80c0030b 	ldhu	r3,12(r16)
   21f80:	18fbffcc 	andi	r3,r3,61439
   21f84:	80c0030d 	sth	r3,12(r16)
   21f88:	dfc00117 	ldw	ra,4(sp)
   21f8c:	dc000017 	ldw	r16,0(sp)
   21f90:	dec00204 	addi	sp,sp,8
   21f94:	f800283a 	ret

00021f98 <__sclose>:
   21f98:	2940038f 	ldh	r5,14(r5)
   21f9c:	00238b81 	jmpi	238b8 <_close_r>

00021fa0 <sulp>:
   21fa0:	defffd04 	addi	sp,sp,-12
   21fa4:	dc400115 	stw	r17,4(sp)
   21fa8:	3023883a 	mov	r17,r6
   21fac:	dc000015 	stw	r16,0(sp)
   21fb0:	dfc00215 	stw	ra,8(sp)
   21fb4:	2821883a 	mov	r16,r5
   21fb8:	002612c0 	call	2612c <__ulp>
   21fbc:	88000c26 	beq	r17,zero,21ff0 <sulp+0x50>
   21fc0:	8020d53a 	srli	r16,r16,20
   21fc4:	01c01ac4 	movi	r7,107
   21fc8:	8401ffcc 	andi	r16,r16,2047
   21fcc:	3c21c83a 	sub	r16,r7,r16
   21fd0:	0400070e 	bge	zero,r16,21ff0 <sulp+0x50>
   21fd4:	8020953a 	slli	r16,r16,20
   21fd8:	01cffc34 	movhi	r7,16368
   21fdc:	1009883a 	mov	r4,r2
   21fe0:	180b883a 	mov	r5,r3
   21fe4:	000d883a 	mov	r6,zero
   21fe8:	81cf883a 	add	r7,r16,r7
   21fec:	002bb640 	call	2bb64 <__muldf3>
   21ff0:	dfc00217 	ldw	ra,8(sp)
   21ff4:	dc400117 	ldw	r17,4(sp)
   21ff8:	dc000017 	ldw	r16,0(sp)
   21ffc:	dec00304 	addi	sp,sp,12
   22000:	f800283a 	ret

00022004 <_strtod_l>:
   22004:	deffdf04 	addi	sp,sp,-132
   22008:	008000f4 	movhi	r2,3
   2200c:	dd401c15 	stw	r21,112(sp)
   22010:	15403017 	ldw	r21,192(r2)
   22014:	dc001715 	stw	r16,92(sp)
   22018:	2021883a 	mov	r16,r4
   2201c:	a809883a 	mov	r4,r21
   22020:	dd801d15 	stw	r22,116(sp)
   22024:	dd001b15 	stw	r20,108(sp)
   22028:	282d883a 	mov	r22,r5
   2202c:	dc801915 	stw	r18,100(sp)
   22030:	dc401815 	stw	r17,96(sp)
   22034:	d9800315 	stw	r6,12(sp)
   22038:	dfc02015 	stw	ra,128(sp)
   2203c:	df001f15 	stw	fp,124(sp)
   22040:	ddc01e15 	stw	r23,120(sp)
   22044:	dcc01a15 	stw	r19,104(sp)
   22048:	3829883a 	mov	r20,r7
   2204c:	d8001315 	stw	zero,76(sp)
   22050:	00266ec0 	call	266ec <strlen>
   22054:	100d883a 	mov	r6,r2
   22058:	0025883a 	mov	r18,zero
   2205c:	0023883a 	mov	r17,zero
   22060:	dd801215 	stw	r22,72(sp)
   22064:	b007883a 	mov	r3,r22
   22068:	1cc00003 	ldbu	r19,0(r3)
   2206c:	010000b4 	movhi	r4,2
   22070:	1813883a 	mov	r9,r3
   22074:	98803fcc 	andi	r2,r19,255
   22078:	100a90ba 	slli	r5,r2,2
   2207c:	10800ba8 	cmpgeui	r2,r2,46
   22080:	1000311e 	bne	r2,zero,22148 <_strtod_l+0x144>
   22084:	2909883a 	add	r4,r5,r4
   22088:	20882417 	ldw	r2,8336(r4)
   2208c:	1000683a 	jmp	r2
   22090:	000221fc 	xorhi	zero,zero,2183
   22094:	00022148 	cmpgei	zero,zero,2181
   22098:	00022148 	cmpgei	zero,zero,2181
   2209c:	00022148 	cmpgei	zero,zero,2181
   220a0:	00022148 	cmpgei	zero,zero,2181
   220a4:	00022148 	cmpgei	zero,zero,2181
   220a8:	00022148 	cmpgei	zero,zero,2181
   220ac:	00022148 	cmpgei	zero,zero,2181
   220b0:	00022148 	cmpgei	zero,zero,2181
   220b4:	0002224c 	andi	zero,zero,2185
   220b8:	0002224c 	andi	zero,zero,2185
   220bc:	0002224c 	andi	zero,zero,2185
   220c0:	0002224c 	andi	zero,zero,2185
   220c4:	0002224c 	andi	zero,zero,2185
   220c8:	00022148 	cmpgei	zero,zero,2181
   220cc:	00022148 	cmpgei	zero,zero,2181
   220d0:	00022148 	cmpgei	zero,zero,2181
   220d4:	00022148 	cmpgei	zero,zero,2181
   220d8:	00022148 	cmpgei	zero,zero,2181
   220dc:	00022148 	cmpgei	zero,zero,2181
   220e0:	00022148 	cmpgei	zero,zero,2181
   220e4:	00022148 	cmpgei	zero,zero,2181
   220e8:	00022148 	cmpgei	zero,zero,2181
   220ec:	00022148 	cmpgei	zero,zero,2181
   220f0:	00022148 	cmpgei	zero,zero,2181
   220f4:	00022148 	cmpgei	zero,zero,2181
   220f8:	00022148 	cmpgei	zero,zero,2181
   220fc:	00022148 	cmpgei	zero,zero,2181
   22100:	00022148 	cmpgei	zero,zero,2181
   22104:	00022148 	cmpgei	zero,zero,2181
   22108:	00022148 	cmpgei	zero,zero,2181
   2210c:	00022148 	cmpgei	zero,zero,2181
   22110:	0002224c 	andi	zero,zero,2185
   22114:	00022148 	cmpgei	zero,zero,2181
   22118:	00022148 	cmpgei	zero,zero,2181
   2211c:	00022148 	cmpgei	zero,zero,2181
   22120:	00022148 	cmpgei	zero,zero,2181
   22124:	00022148 	cmpgei	zero,zero,2181
   22128:	00022148 	cmpgei	zero,zero,2181
   2212c:	00022148 	cmpgei	zero,zero,2181
   22130:	00022148 	cmpgei	zero,zero,2181
   22134:	00022148 	cmpgei	zero,zero,2181
   22138:	00022148 	cmpgei	zero,zero,2181
   2213c:	00022e54 	movui	zero,2233
   22140:	00022148 	cmpgei	zero,zero,2181
   22144:	00022e30 	cmpltui	zero,zero,2232
   22148:	9cc03fcc 	andi	r19,r19,255
   2214c:	9cc0201c 	xori	r19,r19,128
   22150:	d8000415 	stw	zero,16(sp)
   22154:	9cffe004 	addi	r19,r19,-128
   22158:	98800c18 	cmpnei	r2,r19,48
   2215c:	10008426 	beq	r2,zero,22370 <_strtod_l+0x36c>
   22160:	0023883a 	mov	r17,zero
   22164:	98800c08 	cmpgei	r2,r19,48
   22168:	9825883a 	mov	r18,r19
   2216c:	1003d526 	beq	r2,zero,230c4 <_strtod_l+0x10c0>
   22170:	4829883a 	mov	r20,r9
   22174:	0011883a 	mov	r8,zero
   22178:	0039883a 	mov	fp,zero
   2217c:	002f883a 	mov	r23,zero
   22180:	00000806 	br	221a4 <_strtod_l+0x1a0>
   22184:	1f3ff404 	addi	fp,r3,-48
   22188:	a5000044 	addi	r20,r20,1
   2218c:	dd001215 	stw	r20,72(sp)
   22190:	a4800007 	ldb	r18,0(r20)
   22194:	bdc00044 	addi	r23,r23,1
   22198:	90800c10 	cmplti	r2,r18,48
   2219c:	9027883a 	mov	r19,r18
   221a0:	1000881e 	bne	r2,zero,223c4 <_strtod_l+0x3c0>
   221a4:	e00690ba 	slli	r3,fp,2
   221a8:	400490ba 	slli	r2,r8,2
   221ac:	99000e90 	cmplti	r4,r19,58
   221b0:	1f07883a 	add	r3,r3,fp
   221b4:	1205883a 	add	r2,r2,r8
   221b8:	18c7883a 	add	r3,r3,r3
   221bc:	1085883a 	add	r2,r2,r2
   221c0:	b9400248 	cmpgei	r5,r23,9
   221c4:	1cc7883a 	add	r3,r3,r19
   221c8:	14c5883a 	add	r2,r2,r19
   221cc:	20002226 	beq	r4,zero,22258 <_strtod_l+0x254>
   221d0:	283fec26 	beq	r5,zero,22184 <_strtod_l+0x180>
   221d4:	123ff404 	addi	r8,r2,-48
   221d8:	003feb06 	br	22188 <_strtod_l+0x184>
   221dc:	90c01960 	cmpeqi	r3,r18,101
   221e0:	01c00044 	movi	r7,1
   221e4:	1800c01e 	bne	r3,zero,224e8 <_strtod_l+0x4e4>
   221e8:	90c01160 	cmpeqi	r3,r18,69
   221ec:	18008326 	beq	r3,zero,223fc <_strtod_l+0x3f8>
   221f0:	b800bd1e 	bne	r23,zero,224e8 <_strtod_l+0x4e4>
   221f4:	8886b03a 	or	r3,r17,r2
   221f8:	1800ba1e 	bne	r3,zero,224e4 <_strtod_l+0x4e0>
   221fc:	d8800317 	ldw	r2,12(sp)
   22200:	10000226 	beq	r2,zero,2220c <_strtod_l+0x208>
   22204:	d8800317 	ldw	r2,12(sp)
   22208:	15800015 	stw	r22,0(r2)
   2220c:	002d883a 	mov	r22,zero
   22210:	002b883a 	mov	r21,zero
   22214:	b005883a 	mov	r2,r22
   22218:	a807883a 	mov	r3,r21
   2221c:	dfc02017 	ldw	ra,128(sp)
   22220:	df001f17 	ldw	fp,124(sp)
   22224:	ddc01e17 	ldw	r23,120(sp)
   22228:	dd801d17 	ldw	r22,116(sp)
   2222c:	dd401c17 	ldw	r21,112(sp)
   22230:	dd001b17 	ldw	r20,108(sp)
   22234:	dcc01a17 	ldw	r19,104(sp)
   22238:	dc801917 	ldw	r18,100(sp)
   2223c:	dc401817 	ldw	r17,96(sp)
   22240:	dc001717 	ldw	r16,92(sp)
   22244:	dec02104 	addi	sp,sp,132
   22248:	f800283a 	ret
   2224c:	18c00044 	addi	r3,r3,1
   22250:	d8c01215 	stw	r3,72(sp)
   22254:	003f8406 	br	22068 <_strtod_l+0x64>
   22258:	a80b883a 	mov	r5,r21
   2225c:	a009883a 	mov	r4,r20
   22260:	da000615 	stw	r8,24(sp)
   22264:	da400515 	stw	r9,20(sp)
   22268:	d9800715 	stw	r6,28(sp)
   2226c:	00267840 	call	26784 <strncmp>
   22270:	da400517 	ldw	r9,20(sp)
   22274:	da000617 	ldw	r8,24(sp)
   22278:	10004b1e 	bne	r2,zero,223a8 <_strtod_l+0x3a4>
   2227c:	d9800717 	ldw	r6,28(sp)
   22280:	a18d883a 	add	r6,r20,r6
   22284:	d9801215 	stw	r6,72(sp)
   22288:	34800007 	ldb	r18,0(r6)
   2228c:	b803f81e 	bne	r23,zero,23270 <_strtod_l+0x126c>
   22290:	90800c18 	cmpnei	r2,r18,48
   22294:	1003ae1e 	bne	r2,zero,23150 <_strtod_l+0x114c>
   22298:	d8c01217 	ldw	r3,72(sp)
   2229c:	01400044 	movi	r5,1
   222a0:	28cbc83a 	sub	r5,r5,r3
   222a4:	1945883a 	add	r2,r3,r5
   222a8:	18c00044 	addi	r3,r3,1
   222ac:	d8c01215 	stw	r3,72(sp)
   222b0:	1c800007 	ldb	r18,0(r3)
   222b4:	91000c20 	cmpeqi	r4,r18,48
   222b8:	203ffa1e 	bne	r4,zero,222a4 <_strtod_l+0x2a0>
   222bc:	90fff3c4 	addi	r3,r18,-49
   222c0:	18c00268 	cmpgeui	r3,r3,9
   222c4:	1802851e 	bne	r3,zero,22cdc <_strtod_l+0xcd8>
   222c8:	da401217 	ldw	r9,72(sp)
   222cc:	94bff404 	addi	r18,r18,-48
   222d0:	15000044 	addi	r20,r2,1
   222d4:	480f883a 	mov	r7,r9
   222d8:	002b883a 	mov	r21,zero
   222dc:	05c00044 	movi	r23,1
   222e0:	e00690ba 	slli	r3,fp,2
   222e4:	0005883a 	mov	r2,zero
   222e8:	1f39883a 	add	fp,r3,fp
   222ec:	e739883a 	add	fp,fp,fp
   222f0:	9739883a 	add	fp,r18,fp
   222f4:	38c00044 	addi	r3,r7,1
   222f8:	d8c01215 	stw	r3,72(sp)
   222fc:	3c800047 	ldb	r18,1(r7)
   22300:	91bff404 	addi	r6,r18,-48
   22304:	30c002b0 	cmpltui	r3,r6,10
   22308:	183fb426 	beq	r3,zero,221dc <_strtod_l+0x1d8>
   2230c:	d9c01217 	ldw	r7,72(sp)
   22310:	10800044 	addi	r2,r2,1
   22314:	3025883a 	mov	r18,r6
   22318:	303ff626 	beq	r6,zero,222f4 <_strtod_l+0x2f0>
   2231c:	10c00060 	cmpeqi	r3,r2,1
   22320:	b9000044 	addi	r4,r23,1
   22324:	a0a9883a 	add	r20,r20,r2
   22328:	1804961e 	bne	r3,zero,23584 <_strtod_l+0x1580>
   2232c:	15c5883a 	add	r2,r2,r23
   22330:	12ffffc4 	addi	r11,r2,-1
   22334:	00000306 	br	22344 <_strtod_l+0x340>
   22338:	18f9883a 	add	fp,r3,r3
   2233c:	282f883a 	mov	r23,r5
   22340:	2ac35426 	beq	r5,r11,23094 <_strtod_l+0x1090>
   22344:	e00690ba 	slli	r3,fp,2
   22348:	b9400044 	addi	r5,r23,1
   2234c:	b9000248 	cmpgei	r4,r23,9
   22350:	1f07883a 	add	r3,r3,fp
   22354:	2a800448 	cmpgei	r10,r5,17
   22358:	203ff726 	beq	r4,zero,22338 <_strtod_l+0x334>
   2235c:	400690ba 	slli	r3,r8,2
   22360:	503ff61e 	bne	r10,zero,2233c <_strtod_l+0x338>
   22364:	1a11883a 	add	r8,r3,r8
   22368:	4211883a 	add	r8,r8,r8
   2236c:	003ff306 	br	2233c <_strtod_l+0x338>
   22370:	48800043 	ldbu	r2,1(r9)
   22374:	4dc00044 	addi	r23,r9,1
   22378:	108037cc 	andi	r2,r2,223
   2237c:	10801618 	cmpnei	r2,r2,88
   22380:	10032c26 	beq	r2,zero,23034 <_strtod_l+0x1030>
   22384:	ddc01215 	stw	r23,72(sp)
   22388:	bcc00007 	ldb	r19,0(r23)
   2238c:	b813883a 	mov	r9,r23
   22390:	bdc00044 	addi	r23,r23,1
   22394:	98800c20 	cmpeqi	r2,r19,48
   22398:	103ffa1e 	bne	r2,zero,22384 <_strtod_l+0x380>
   2239c:	98009d26 	beq	r19,zero,22614 <_strtod_l+0x610>
   223a0:	04400044 	movi	r17,1
   223a4:	003f6f06 	br	22164 <_strtod_l+0x160>
   223a8:	9cc01960 	cmpeqi	r19,r19,101
   223ac:	b82b883a 	mov	r21,r23
   223b0:	0005883a 	mov	r2,zero
   223b4:	0029883a 	mov	r20,zero
   223b8:	000f883a 	mov	r7,zero
   223bc:	983f8c1e 	bne	r19,zero,221f0 <_strtod_l+0x1ec>
   223c0:	003f8906 	br	221e8 <_strtod_l+0x1e4>
   223c4:	a80b883a 	mov	r5,r21
   223c8:	a009883a 	mov	r4,r20
   223cc:	da400715 	stw	r9,28(sp)
   223d0:	da000615 	stw	r8,24(sp)
   223d4:	d9800515 	stw	r6,20(sp)
   223d8:	00267840 	call	26784 <strncmp>
   223dc:	d9800517 	ldw	r6,20(sp)
   223e0:	da000617 	ldw	r8,24(sp)
   223e4:	da400717 	ldw	r9,28(sp)
   223e8:	10009426 	beq	r2,zero,2263c <_strtod_l+0x638>
   223ec:	b82b883a 	mov	r21,r23
   223f0:	000f883a 	mov	r7,zero
   223f4:	0029883a 	mov	r20,zero
   223f8:	0005883a 	mov	r2,zero
   223fc:	0027883a 	mov	r19,zero
   22400:	b8006d26 	beq	r23,zero,225b8 <_strtod_l+0x5b4>
   22404:	9d05c83a 	sub	r2,r19,r20
   22408:	d8800915 	stw	r2,36(sp)
   2240c:	a800011e 	bne	r21,zero,22414 <_strtod_l+0x410>
   22410:	b82b883a 	mov	r21,r23
   22414:	b8800450 	cmplti	r2,r23,17
   22418:	b82d883a 	mov	r22,r23
   2241c:	1000011e 	bne	r2,zero,22424 <_strtod_l+0x420>
   22420:	05800404 	movi	r22,16
   22424:	e009883a 	mov	r4,fp
   22428:	da400515 	stw	r9,20(sp)
   2242c:	da000615 	stw	r8,24(sp)
   22430:	002cd500 	call	2cd50 <__floatunsidf>
   22434:	b9000290 	cmplti	r4,r23,10
   22438:	da400517 	ldw	r9,20(sp)
   2243c:	1025883a 	mov	r18,r2
   22440:	1823883a 	mov	r17,r3
   22444:	2000171e 	bne	r4,zero,224a4 <_strtod_l+0x4a0>
   22448:	b0bffdc4 	addi	r2,r22,-9
   2244c:	100690fa 	slli	r3,r2,3
   22450:	008000f4 	movhi	r2,3
   22454:	10805d04 	addi	r2,r2,372
   22458:	10c5883a 	add	r2,r2,r3
   2245c:	11800017 	ldw	r6,0(r2)
   22460:	11c00117 	ldw	r7,4(r2)
   22464:	880b883a 	mov	r5,r17
   22468:	9009883a 	mov	r4,r18
   2246c:	002bb640 	call	2bb64 <__muldf3>
   22470:	da000617 	ldw	r8,24(sp)
   22474:	1025883a 	mov	r18,r2
   22478:	1823883a 	mov	r17,r3
   2247c:	4009883a 	mov	r4,r8
   22480:	002cd500 	call	2cd50 <__floatunsidf>
   22484:	9009883a 	mov	r4,r18
   22488:	880b883a 	mov	r5,r17
   2248c:	100d883a 	mov	r6,r2
   22490:	180f883a 	mov	r7,r3
   22494:	002a6580 	call	2a658 <__adddf3>
   22498:	da400517 	ldw	r9,20(sp)
   2249c:	1025883a 	mov	r18,r2
   224a0:	1823883a 	mov	r17,r3
   224a4:	b8800408 	cmpgei	r2,r23,16
   224a8:	10006a1e 	bne	r2,zero,22654 <_strtod_l+0x650>
   224ac:	9d05c83a 	sub	r2,r19,r20
   224b0:	1002f526 	beq	r2,zero,23088 <_strtod_l+0x1084>
   224b4:	9d05c83a 	sub	r2,r19,r20
   224b8:	0082720e 	bge	zero,r2,22e84 <_strtod_l+0xe80>
   224bc:	108005c8 	cmpgei	r2,r2,23
   224c0:	10035e26 	beq	r2,zero,2323c <_strtod_l+0x1238>
   224c4:	00800944 	movi	r2,37
   224c8:	15c5c83a 	sub	r2,r2,r23
   224cc:	9d07c83a 	sub	r3,r19,r20
   224d0:	10c36f0e 	bge	r2,r3,23290 <_strtod_l+0x128c>
   224d4:	bdadc83a 	sub	r22,r23,r22
   224d8:	9d05c83a 	sub	r2,r19,r20
   224dc:	b0ad883a 	add	r22,r22,r2
   224e0:	00006006 	br	22664 <_strtod_l+0x660>
   224e4:	002f883a 	mov	r23,zero
   224e8:	dd801217 	ldw	r22,72(sp)
   224ec:	b0c00044 	addi	r3,r22,1
   224f0:	d8c01215 	stw	r3,72(sp)
   224f4:	b4800047 	ldb	r18,1(r22)
   224f8:	90c00ae0 	cmpeqi	r3,r18,43
   224fc:	1801f51e 	bne	r3,zero,22cd4 <_strtod_l+0xcd0>
   22500:	90c00b60 	cmpeqi	r3,r18,45
   22504:	1801c11e 	bne	r3,zero,22c0c <_strtod_l+0xc08>
   22508:	0015883a 	mov	r10,zero
   2250c:	90fff404 	addi	r3,r18,-48
   22510:	18c002a8 	cmpgeui	r3,r3,10
   22514:	1801ba1e 	bne	r3,zero,22c00 <_strtod_l+0xbfc>
   22518:	90c00c18 	cmpnei	r3,r18,48
   2251c:	1800071e 	bne	r3,zero,2253c <_strtod_l+0x538>
   22520:	d8c01217 	ldw	r3,72(sp)
   22524:	18c00044 	addi	r3,r3,1
   22528:	d8c01215 	stw	r3,72(sp)
   2252c:	1c800007 	ldb	r18,0(r3)
   22530:	18c00044 	addi	r3,r3,1
   22534:	91000c20 	cmpeqi	r4,r18,48
   22538:	203ffb1e 	bne	r4,zero,22528 <_strtod_l+0x524>
   2253c:	90fff3c4 	addi	r3,r18,-49
   22540:	18c00268 	cmpgeui	r3,r3,9
   22544:	183fad1e 	bne	r3,zero,223fc <_strtod_l+0x3f8>
   22548:	dac01217 	ldw	r11,72(sp)
   2254c:	94fff404 	addi	r19,r18,-48
   22550:	59000044 	addi	r4,r11,1
   22554:	d9001215 	stw	r4,72(sp)
   22558:	5c800047 	ldb	r18,1(r11)
   2255c:	90c00c08 	cmpgei	r3,r18,48
   22560:	1800071e 	bne	r3,zero,22580 <_strtod_l+0x57c>
   22564:	0002e406 	br	230f8 <_strtod_l+0x10f4>
   22568:	21000044 	addi	r4,r4,1
   2256c:	d9001215 	stw	r4,72(sp)
   22570:	34800047 	ldb	r18,1(r6)
   22574:	1cfff404 	addi	r19,r3,-48
   22578:	90c00c08 	cmpgei	r3,r18,48
   2257c:	18000726 	beq	r3,zero,2259c <_strtod_l+0x598>
   22580:	980690ba 	slli	r3,r19,2
   22584:	91400e90 	cmplti	r5,r18,58
   22588:	200d883a 	mov	r6,r4
   2258c:	1cc7883a 	add	r3,r3,r19
   22590:	18c7883a 	add	r3,r3,r3
   22594:	1c87883a 	add	r3,r3,r18
   22598:	283ff31e 	bne	r5,zero,22568 <_strtod_l+0x564>
   2259c:	22c9c83a 	sub	r4,r4,r11
   225a0:	20c00248 	cmpgei	r3,r4,9
   225a4:	1802d426 	beq	r3,zero,230f8 <_strtod_l+0x10f4>
   225a8:	04d387c4 	movi	r19,19999
   225ac:	503f9426 	beq	r10,zero,22400 <_strtod_l+0x3fc>
   225b0:	04e7c83a 	sub	r19,zero,r19
   225b4:	b83f931e 	bne	r23,zero,22404 <_strtod_l+0x400>
   225b8:	8884b03a 	or	r2,r17,r2
   225bc:	1000151e 	bne	r2,zero,22614 <_strtod_l+0x610>
   225c0:	383f0e1e 	bne	r7,zero,221fc <_strtod_l+0x1f8>
   225c4:	90801a60 	cmpeqi	r2,r18,105
   225c8:	1002d01e 	bne	r2,zero,2310c <_strtod_l+0x1108>
   225cc:	90801a88 	cmpgei	r2,r18,106
   225d0:	1002401e 	bne	r2,zero,22ed4 <_strtod_l+0xed0>
   225d4:	90801260 	cmpeqi	r2,r18,73
   225d8:	1002cc1e 	bne	r2,zero,2310c <_strtod_l+0x1108>
   225dc:	948013a0 	cmpeqi	r18,r18,78
   225e0:	903f0626 	beq	r18,zero,221fc <_strtod_l+0x1f8>
   225e4:	014000f4 	movhi	r5,3
   225e8:	297fc304 	addi	r5,r5,-244
   225ec:	d9001204 	addi	r4,sp,72
   225f0:	0024e440 	call	24e44 <__match>
   225f4:	103f0126 	beq	r2,zero,221fc <_strtod_l+0x1f8>
   225f8:	d8801217 	ldw	r2,72(sp)
   225fc:	10800007 	ldb	r2,0(r2)
   22600:	10800a18 	cmpnei	r2,r2,40
   22604:	10039826 	beq	r2,zero,23468 <_strtod_l+0x1464>
   22608:	002d883a 	mov	r22,zero
   2260c:	055ffe34 	movhi	r21,32760
   22610:	00000206 	br	2261c <_strtod_l+0x618>
   22614:	002d883a 	mov	r22,zero
   22618:	002b883a 	mov	r21,zero
   2261c:	d8c00317 	ldw	r3,12(sp)
   22620:	18000226 	beq	r3,zero,2262c <_strtod_l+0x628>
   22624:	d8801217 	ldw	r2,72(sp)
   22628:	18800015 	stw	r2,0(r3)
   2262c:	d8800417 	ldw	r2,16(sp)
   22630:	103ef826 	beq	r2,zero,22214 <_strtod_l+0x210>
   22634:	ad60003c 	xorhi	r21,r21,32768
   22638:	003ef606 	br	22214 <_strtod_l+0x210>
   2263c:	a18d883a 	add	r6,r20,r6
   22640:	d9801215 	stw	r6,72(sp)
   22644:	34800007 	ldb	r18,0(r6)
   22648:	b82b883a 	mov	r21,r23
   2264c:	0029883a 	mov	r20,zero
   22650:	003f2b06 	br	22300 <_strtod_l+0x2fc>
   22654:	bdadc83a 	sub	r22,r23,r22
   22658:	9d05c83a 	sub	r2,r19,r20
   2265c:	b0ad883a 	add	r22,r22,r2
   22660:	05821f0e 	bge	zero,r22,22ee0 <_strtod_l+0xedc>
   22664:	b08003cc 	andi	r2,r22,15
   22668:	10000d26 	beq	r2,zero,226a0 <_strtod_l+0x69c>
   2266c:	100690fa 	slli	r3,r2,3
   22670:	008000f4 	movhi	r2,3
   22674:	10805d04 	addi	r2,r2,372
   22678:	10c5883a 	add	r2,r2,r3
   2267c:	11000017 	ldw	r4,0(r2)
   22680:	11400117 	ldw	r5,4(r2)
   22684:	900d883a 	mov	r6,r18
   22688:	880f883a 	mov	r7,r17
   2268c:	da400515 	stw	r9,20(sp)
   22690:	002bb640 	call	2bb64 <__muldf3>
   22694:	da400517 	ldw	r9,20(sp)
   22698:	1025883a 	mov	r18,r2
   2269c:	1823883a 	mov	r17,r3
   226a0:	023ffc04 	movi	r8,-16
   226a4:	b210703a 	and	r8,r22,r8
   226a8:	40003f26 	beq	r8,zero,227a8 <_strtod_l+0x7a4>
   226ac:	40804d50 	cmplti	r2,r8,309
   226b0:	10025b26 	beq	r2,zero,23020 <_strtod_l+0x101c>
   226b4:	4011d13a 	srai	r8,r8,4
   226b8:	40800090 	cmplti	r2,r8,2
   226bc:	1003651e 	bne	r2,zero,23454 <_strtod_l+0x1450>
   226c0:	008000f4 	movhi	r2,3
   226c4:	10805304 	addi	r2,r2,332
   226c8:	002d883a 	mov	r22,zero
   226cc:	9009883a 	mov	r4,r18
   226d0:	880b883a 	mov	r5,r17
   226d4:	dc000715 	stw	r16,28(sp)
   226d8:	dc800815 	stw	r18,32(sp)
   226dc:	d8800515 	stw	r2,20(sp)
   226e0:	b025883a 	mov	r18,r22
   226e4:	0007883a 	mov	r3,zero
   226e8:	882d883a 	mov	r22,r17
   226ec:	da400615 	stw	r9,24(sp)
   226f0:	4021883a 	mov	r16,r8
   226f4:	1023883a 	mov	r17,r2
   226f8:	8080004c 	andi	r2,r16,1
   226fc:	8021d07a 	srai	r16,r16,1
   22700:	10000626 	beq	r2,zero,2271c <_strtod_l+0x718>
   22704:	89800017 	ldw	r6,0(r17)
   22708:	89c00117 	ldw	r7,4(r17)
   2270c:	002bb640 	call	2bb64 <__muldf3>
   22710:	180b883a 	mov	r5,r3
   22714:	1009883a 	mov	r4,r2
   22718:	00c00044 	movi	r3,1
   2271c:	81800058 	cmpnei	r6,r16,1
   22720:	94800044 	addi	r18,r18,1
   22724:	8c400204 	addi	r17,r17,8
   22728:	303ff31e 	bne	r6,zero,226f8 <_strtod_l+0x6f4>
   2272c:	18c03fcc 	andi	r3,r3,255
   22730:	b023883a 	mov	r17,r22
   22734:	da400617 	ldw	r9,24(sp)
   22738:	902d883a 	mov	r22,r18
   2273c:	dc000717 	ldw	r16,28(sp)
   22740:	dc800817 	ldw	r18,32(sp)
   22744:	18000226 	beq	r3,zero,22750 <_strtod_l+0x74c>
   22748:	2025883a 	mov	r18,r4
   2274c:	2823883a 	mov	r17,r5
   22750:	d8800517 	ldw	r2,20(sp)
   22754:	b01690fa 	slli	r11,r22,3
   22758:	01ff2c34 	movhi	r7,64688
   2275c:	900d883a 	mov	r6,r18
   22760:	12d7883a 	add	r11,r2,r11
   22764:	59000017 	ldw	r4,0(r11)
   22768:	59400117 	ldw	r5,4(r11)
   2276c:	89cf883a 	add	r7,r17,r7
   22770:	da400615 	stw	r9,24(sp)
   22774:	002bb640 	call	2bb64 <__muldf3>
   22778:	191ffc2c 	andhi	r4,r3,32752
   2277c:	015f2834 	movhi	r5,31904
   22780:	1025883a 	mov	r18,r2
   22784:	29022636 	bltu	r5,r4,23020 <_strtod_l+0x101c>
   22788:	009f2434 	movhi	r2,31888
   2278c:	da400617 	ldw	r9,24(sp)
   22790:	1103022e 	bgeu	r2,r4,2339c <_strtod_l+0x1398>
   22794:	045ffc34 	movhi	r17,32752
   22798:	8c7fffc4 	addi	r17,r17,-1
   2279c:	04bfffc4 	movi	r18,-1
   227a0:	d8001015 	stw	zero,64(sp)
   227a4:	00000106 	br	227ac <_strtod_l+0x7a8>
   227a8:	d8001015 	stw	zero,64(sp)
   227ac:	df000015 	stw	fp,0(sp)
   227b0:	b80f883a 	mov	r7,r23
   227b4:	a80d883a 	mov	r6,r21
   227b8:	480b883a 	mov	r5,r9
   227bc:	8009883a 	mov	r4,r16
   227c0:	00256bc0 	call	256bc <__s2b>
   227c4:	d8800715 	stw	r2,28(sp)
   227c8:	10021526 	beq	r2,zero,23020 <_strtod_l+0x101c>
   227cc:	d8c00917 	ldw	r3,36(sp)
   227d0:	a4e7c83a 	sub	r19,r20,r19
   227d4:	1805d7fa 	srai	r2,r3,31
   227d8:	d8c00815 	stw	r3,32(sp)
   227dc:	9884703a 	and	r2,r19,r2
   227e0:	d8800515 	stw	r2,20(sp)
   227e4:	18019d16 	blt	r3,zero,22e5c <_strtod_l+0xe58>
   227e8:	d8c00717 	ldw	r3,28(sp)
   227ec:	00800434 	movhi	r2,16
   227f0:	dd401017 	ldw	r21,64(sp)
   227f4:	18c00304 	addi	r3,r3,12
   227f8:	10bfffc4 	addi	r2,r2,-1
   227fc:	002f883a 	mov	r23,zero
   22800:	0027883a 	mov	r19,zero
   22804:	d8c00d15 	stw	r3,52(sp)
   22808:	d8801115 	stw	r2,68(sp)
   2280c:	dd800717 	ldw	r22,28(sp)
   22810:	8009883a 	mov	r4,r16
   22814:	b1400117 	ldw	r5,4(r22)
   22818:	00254980 	call	25498 <_Balloc>
   2281c:	1029883a 	mov	r20,r2
   22820:	1000ce26 	beq	r2,zero,22b5c <_strtod_l+0xb58>
   22824:	b1800417 	ldw	r6,16(r22)
   22828:	d9400d17 	ldw	r5,52(sp)
   2282c:	11000304 	addi	r4,r2,12
   22830:	31800084 	addi	r6,r6,2
   22834:	300c90ba 	slli	r6,r6,2
   22838:	dc800b15 	stw	r18,44(sp)
   2283c:	dc400a15 	stw	r17,40(sp)
   22840:	00252a80 	call	252a8 <memcpy>
   22844:	d8801504 	addi	r2,sp,84
   22848:	d9c01404 	addi	r7,sp,80
   2284c:	d8800015 	stw	r2,0(sp)
   22850:	900b883a 	mov	r5,r18
   22854:	880d883a 	mov	r6,r17
   22858:	8009883a 	mov	r4,r16
   2285c:	002628c0 	call	2628c <__d2b>
   22860:	d8801315 	stw	r2,76(sp)
   22864:	1000b526 	beq	r2,zero,22b3c <_strtod_l+0xb38>
   22868:	01400044 	movi	r5,1
   2286c:	8009883a 	mov	r4,r16
   22870:	00259080 	call	25908 <__i2b>
   22874:	1027883a 	mov	r19,r2
   22878:	1000b826 	beq	r2,zero,22b5c <_strtod_l+0xb58>
   2287c:	d8801417 	ldw	r2,80(sp)
   22880:	1000d316 	blt	r2,zero,22bd0 <_strtod_l+0xbcc>
   22884:	d8c00517 	ldw	r3,20(sp)
   22888:	d9c00817 	ldw	r7,32(sp)
   2288c:	10f9883a 	add	fp,r2,r3
   22890:	d9001517 	ldw	r4,84(sp)
   22894:	1545c83a 	sub	r2,r2,r21
   22898:	00c00d84 	movi	r3,54
   2289c:	1105883a 	add	r2,r2,r4
   228a0:	10bfffc4 	addi	r2,r2,-1
   228a4:	117f0088 	cmpgei	r5,r2,-1022
   228a8:	1907c83a 	sub	r3,r3,r4
   228ac:	2800b81e 	bne	r5,zero,22b90 <_strtod_l+0xb8c>
   228b0:	05bf0084 	movi	r22,-1022
   228b4:	b089c83a 	sub	r4,r22,r2
   228b8:	21400808 	cmpgei	r5,r4,32
   228bc:	1907c83a 	sub	r3,r3,r4
   228c0:	2800c71e 	bne	r5,zero,22be0 <_strtod_l+0xbdc>
   228c4:	05800044 	movi	r22,1
   228c8:	b104983a 	sll	r2,r22,r4
   228cc:	d8000e15 	stw	zero,56(sp)
   228d0:	d8800c15 	stw	r2,48(sp)
   228d4:	38cf883a 	add	r7,r7,r3
   228d8:	e0c7883a 	add	r3,fp,r3
   228dc:	a9ed883a 	add	r22,r21,r7
   228e0:	e005883a 	mov	r2,fp
   228e4:	1f00010e 	bge	r3,fp,228ec <_strtod_l+0x8e8>
   228e8:	1805883a 	mov	r2,r3
   228ec:	b080010e 	bge	r22,r2,228f4 <_strtod_l+0x8f0>
   228f0:	b005883a 	mov	r2,r22
   228f4:	0080030e 	bge	zero,r2,22904 <_strtod_l+0x900>
   228f8:	1887c83a 	sub	r3,r3,r2
   228fc:	b0adc83a 	sub	r22,r22,r2
   22900:	e0b9c83a 	sub	fp,fp,r2
   22904:	d9800517 	ldw	r6,20(sp)
   22908:	01806f16 	blt	zero,r6,22ac8 <_strtod_l+0xac4>
   2290c:	00c08516 	blt	zero,r3,22b24 <_strtod_l+0xb20>
   22910:	d8800917 	ldw	r2,36(sp)
   22914:	00808b16 	blt	zero,r2,22b44 <_strtod_l+0xb40>
   22918:	05809616 	blt	zero,r22,22b74 <_strtod_l+0xb70>
   2291c:	0700060e 	bge	zero,fp,22938 <_strtod_l+0x934>
   22920:	980b883a 	mov	r5,r19
   22924:	e00d883a 	mov	r6,fp
   22928:	8009883a 	mov	r4,r16
   2292c:	0025d200 	call	25d20 <__lshift>
   22930:	1027883a 	mov	r19,r2
   22934:	10008926 	beq	r2,zero,22b5c <_strtod_l+0xb58>
   22938:	d9401317 	ldw	r5,76(sp)
   2293c:	a00d883a 	mov	r6,r20
   22940:	8009883a 	mov	r4,r16
   22944:	0025f000 	call	25f00 <__mdiff>
   22948:	102f883a 	mov	r23,r2
   2294c:	10008326 	beq	r2,zero,22b5c <_strtod_l+0xb58>
   22950:	10800317 	ldw	r2,12(r2)
   22954:	980b883a 	mov	r5,r19
   22958:	b8000315 	stw	zero,12(r23)
   2295c:	b809883a 	mov	r4,r23
   22960:	d8800615 	stw	r2,24(sp)
   22964:	0025ea80 	call	25ea8 <__mcmp>
   22968:	10029016 	blt	r2,zero,233ac <_strtod_l+0x13a8>
   2296c:	10026126 	beq	r2,zero,232f4 <_strtod_l+0x12f0>
   22970:	980b883a 	mov	r5,r19
   22974:	b809883a 	mov	r4,r23
   22978:	00263f00 	call	263f0 <__ratio>
   2297c:	000d883a 	mov	r6,zero
   22980:	01d00034 	movhi	r7,16384
   22984:	1009883a 	mov	r4,r2
   22988:	180b883a 	mov	r5,r3
   2298c:	1039883a 	mov	fp,r2
   22990:	182d883a 	mov	r22,r3
   22994:	002ba740 	call	2ba74 <__ledf2>
   22998:	00808116 	blt	zero,r2,22ba0 <_strtod_l+0xb9c>
   2299c:	d8800617 	ldw	r2,24(sp)
   229a0:	10009f26 	beq	r2,zero,22c20 <_strtod_l+0xc1c>
   229a4:	0011883a 	mov	r8,zero
   229a8:	024ffc34 	movhi	r9,16368
   229ac:	d8000c15 	stw	zero,48(sp)
   229b0:	058ffc34 	movhi	r22,16368
   229b4:	8f1ffc2c 	andhi	fp,r17,32752
   229b8:	009ff834 	movhi	r2,32736
   229bc:	e080a326 	beq	fp,r2,22c4c <_strtod_l+0xc48>
   229c0:	a8001d26 	beq	r21,zero,22a38 <_strtod_l+0xa34>
   229c4:	0081a834 	movhi	r2,1696
   229c8:	17001b36 	bltu	r2,fp,22a38 <_strtod_l+0xa34>
   229cc:	d9000c17 	ldw	r4,48(sp)
   229d0:	01d07834 	movhi	r7,16864
   229d4:	01bff034 	movhi	r6,65472
   229d8:	39ffffc4 	addi	r7,r7,-1
   229dc:	b00b883a 	mov	r5,r22
   229e0:	da400b15 	stw	r9,44(sp)
   229e4:	da000a15 	stw	r8,40(sp)
   229e8:	002ba740 	call	2ba74 <__ledf2>
   229ec:	da000a17 	ldw	r8,40(sp)
   229f0:	da400b17 	ldw	r9,44(sp)
   229f4:	00800d16 	blt	zero,r2,22a2c <_strtod_l+0xa28>
   229f8:	d9000c17 	ldw	r4,48(sp)
   229fc:	b00b883a 	mov	r5,r22
   22a00:	00295300 	call	29530 <__fixunsdfsi>
   22a04:	1009883a 	mov	r4,r2
   22a08:	1000011e 	bne	r2,zero,22a10 <_strtod_l+0xa0c>
   22a0c:	01000044 	movi	r4,1
   22a10:	002cd500 	call	2cd50 <__floatunsidf>
   22a14:	1011883a 	mov	r8,r2
   22a18:	d8800c15 	stw	r2,48(sp)
   22a1c:	d8800617 	ldw	r2,24(sp)
   22a20:	182d883a 	mov	r22,r3
   22a24:	1001b71e 	bne	r2,zero,23104 <_strtod_l+0x1100>
   22a28:	1a60003c 	xorhi	r9,r3,32768
   22a2c:	0081ac34 	movhi	r2,1712
   22a30:	4893883a 	add	r9,r9,r2
   22a34:	4f13c83a 	sub	r9,r9,fp
   22a38:	9009883a 	mov	r4,r18
   22a3c:	880b883a 	mov	r5,r17
   22a40:	da400b15 	stw	r9,44(sp)
   22a44:	da000a15 	stw	r8,40(sp)
   22a48:	002612c0 	call	2612c <__ulp>
   22a4c:	da000a17 	ldw	r8,40(sp)
   22a50:	da400b17 	ldw	r9,44(sp)
   22a54:	100d883a 	mov	r6,r2
   22a58:	4009883a 	mov	r4,r8
   22a5c:	480b883a 	mov	r5,r9
   22a60:	180f883a 	mov	r7,r3
   22a64:	002bb640 	call	2bb64 <__muldf3>
   22a68:	900d883a 	mov	r6,r18
   22a6c:	880f883a 	mov	r7,r17
   22a70:	1009883a 	mov	r4,r2
   22a74:	180b883a 	mov	r5,r3
   22a78:	002a6580 	call	2a658 <__adddf3>
   22a7c:	1823883a 	mov	r17,r3
   22a80:	1025883a 	mov	r18,r2
   22a84:	1811883a 	mov	r8,r3
   22a88:	a800021e 	bne	r21,zero,22a94 <_strtod_l+0xa90>
   22a8c:	409ffc2c 	andhi	r2,r8,32752
   22a90:	e0809826 	beq	fp,r2,22cf4 <_strtod_l+0xcf0>
   22a94:	d9401317 	ldw	r5,76(sp)
   22a98:	8009883a 	mov	r4,r16
   22a9c:	002553c0 	call	2553c <_Bfree>
   22aa0:	a00b883a 	mov	r5,r20
   22aa4:	8009883a 	mov	r4,r16
   22aa8:	002553c0 	call	2553c <_Bfree>
   22aac:	980b883a 	mov	r5,r19
   22ab0:	8009883a 	mov	r4,r16
   22ab4:	002553c0 	call	2553c <_Bfree>
   22ab8:	b80b883a 	mov	r5,r23
   22abc:	8009883a 	mov	r4,r16
   22ac0:	002553c0 	call	2553c <_Bfree>
   22ac4:	003f5106 	br	2280c <_strtod_l+0x808>
   22ac8:	980b883a 	mov	r5,r19
   22acc:	8009883a 	mov	r4,r16
   22ad0:	d8c00615 	stw	r3,24(sp)
   22ad4:	0025c080 	call	25c08 <__pow5mult>
   22ad8:	d8c00617 	ldw	r3,24(sp)
   22adc:	1027883a 	mov	r19,r2
   22ae0:	10001e26 	beq	r2,zero,22b5c <_strtod_l+0xb58>
   22ae4:	d9801317 	ldw	r6,76(sp)
   22ae8:	100b883a 	mov	r5,r2
   22aec:	8009883a 	mov	r4,r16
   22af0:	d8c00615 	stw	r3,24(sp)
   22af4:	002595c0 	call	2595c <__multiply>
   22af8:	d8c00617 	ldw	r3,24(sp)
   22afc:	10001726 	beq	r2,zero,22b5c <_strtod_l+0xb58>
   22b00:	d9401317 	ldw	r5,76(sp)
   22b04:	8009883a 	mov	r4,r16
   22b08:	d8800f15 	stw	r2,60(sp)
   22b0c:	d8c00615 	stw	r3,24(sp)
   22b10:	002553c0 	call	2553c <_Bfree>
   22b14:	d8800f17 	ldw	r2,60(sp)
   22b18:	d8c00617 	ldw	r3,24(sp)
   22b1c:	d8801315 	stw	r2,76(sp)
   22b20:	00ff7b0e 	bge	zero,r3,22910 <_strtod_l+0x90c>
   22b24:	d9401317 	ldw	r5,76(sp)
   22b28:	180d883a 	mov	r6,r3
   22b2c:	8009883a 	mov	r4,r16
   22b30:	0025d200 	call	25d20 <__lshift>
   22b34:	d8801315 	stw	r2,76(sp)
   22b38:	103f751e 	bne	r2,zero,22910 <_strtod_l+0x90c>
   22b3c:	1013883a 	mov	r9,r2
   22b40:	00000706 	br	22b60 <_strtod_l+0xb5c>
   22b44:	d9800817 	ldw	r6,32(sp)
   22b48:	a00b883a 	mov	r5,r20
   22b4c:	8009883a 	mov	r4,r16
   22b50:	0025c080 	call	25c08 <__pow5mult>
   22b54:	1029883a 	mov	r20,r2
   22b58:	103f6f1e 	bne	r2,zero,22918 <_strtod_l+0x914>
   22b5c:	da401317 	ldw	r9,76(sp)
   22b60:	00800884 	movi	r2,34
   22b64:	80800015 	stw	r2,0(r16)
   22b68:	002d883a 	mov	r22,zero
   22b6c:	055ffc34 	movhi	r21,32752
   22b70:	00008806 	br	22d94 <_strtod_l+0xd90>
   22b74:	a00b883a 	mov	r5,r20
   22b78:	b00d883a 	mov	r6,r22
   22b7c:	8009883a 	mov	r4,r16
   22b80:	0025d200 	call	25d20 <__lshift>
   22b84:	1029883a 	mov	r20,r2
   22b88:	103f641e 	bne	r2,zero,2291c <_strtod_l+0x918>
   22b8c:	003ff306 	br	22b5c <_strtod_l+0xb58>
   22b90:	00800044 	movi	r2,1
   22b94:	d8000e15 	stw	zero,56(sp)
   22b98:	d8800c15 	stw	r2,48(sp)
   22b9c:	003f4d06 	br	228d4 <_strtod_l+0x8d0>
   22ba0:	b00b883a 	mov	r5,r22
   22ba4:	000d883a 	mov	r6,zero
   22ba8:	01cff834 	movhi	r7,16352
   22bac:	e009883a 	mov	r4,fp
   22bb0:	002bb640 	call	2bb64 <__muldf3>
   22bb4:	1011883a 	mov	r8,r2
   22bb8:	d8800c15 	stw	r2,48(sp)
   22bbc:	d8800617 	ldw	r2,24(sp)
   22bc0:	182d883a 	mov	r22,r3
   22bc4:	10001f1e 	bne	r2,zero,22c44 <_strtod_l+0xc40>
   22bc8:	1a60003c 	xorhi	r9,r3,32768
   22bcc:	003f7906 	br	229b4 <_strtod_l+0x9b0>
   22bd0:	d8c00817 	ldw	r3,32(sp)
   22bd4:	df000517 	ldw	fp,20(sp)
   22bd8:	188fc83a 	sub	r7,r3,r2
   22bdc:	003f2c06 	br	22890 <_strtod_l+0x88c>
   22be0:	013ef884 	movi	r4,-1054
   22be4:	2085c83a 	sub	r2,r4,r2
   22be8:	01000044 	movi	r4,1
   22bec:	2084983a 	sll	r2,r4,r2
   22bf0:	d8800e15 	stw	r2,56(sp)
   22bf4:	00800044 	movi	r2,1
   22bf8:	d8800c15 	stw	r2,48(sp)
   22bfc:	003f3506 	br	228d4 <_strtod_l+0x8d0>
   22c00:	dd801215 	stw	r22,72(sp)
   22c04:	0027883a 	mov	r19,zero
   22c08:	003dfd06 	br	22400 <_strtod_l+0x3fc>
   22c0c:	02800044 	movi	r10,1
   22c10:	b0c00084 	addi	r3,r22,2
   22c14:	d8c01215 	stw	r3,72(sp)
   22c18:	b4800087 	ldb	r18,2(r22)
   22c1c:	003e3b06 	br	2250c <_strtod_l+0x508>
   22c20:	90006c26 	beq	r18,zero,22dd4 <_strtod_l+0xdd0>
   22c24:	90800058 	cmpnei	r2,r18,1
   22c28:	1000011e 	bne	r2,zero,22c30 <_strtod_l+0xc2c>
   22c2c:	88022726 	beq	r17,zero,234cc <_strtod_l+0x14c8>
   22c30:	0011883a 	mov	r8,zero
   22c34:	026ffc34 	movhi	r9,49136
   22c38:	d8000c15 	stw	zero,48(sp)
   22c3c:	058ffc34 	movhi	r22,16368
   22c40:	003f5c06 	br	229b4 <_strtod_l+0x9b0>
   22c44:	1813883a 	mov	r9,r3
   22c48:	003f5a06 	br	229b4 <_strtod_l+0x9b0>
   22c4c:	00bf2c34 	movhi	r2,64688
   22c50:	88a3883a 	add	r17,r17,r2
   22c54:	9009883a 	mov	r4,r18
   22c58:	880b883a 	mov	r5,r17
   22c5c:	da400f15 	stw	r9,60(sp)
   22c60:	da000e15 	stw	r8,56(sp)
   22c64:	002612c0 	call	2612c <__ulp>
   22c68:	da000e17 	ldw	r8,56(sp)
   22c6c:	da400f17 	ldw	r9,60(sp)
   22c70:	100d883a 	mov	r6,r2
   22c74:	4009883a 	mov	r4,r8
   22c78:	480b883a 	mov	r5,r9
   22c7c:	180f883a 	mov	r7,r3
   22c80:	002bb640 	call	2bb64 <__muldf3>
   22c84:	900d883a 	mov	r6,r18
   22c88:	1009883a 	mov	r4,r2
   22c8c:	180b883a 	mov	r5,r3
   22c90:	880f883a 	mov	r7,r17
   22c94:	002a6580 	call	2a658 <__adddf3>
   22c98:	195ffc2c 	andhi	r5,r3,32752
   22c9c:	011f2834 	movhi	r4,31904
   22ca0:	1025883a 	mov	r18,r2
   22ca4:	29005e36 	bltu	r5,r4,22e20 <_strtod_l+0xe1c>
   22ca8:	d8c00a17 	ldw	r3,40(sp)
   22cac:	009ffc34 	movhi	r2,32752
   22cb0:	10bfffc4 	addi	r2,r2,-1
   22cb4:	1880031e 	bne	r3,r2,22cc4 <_strtod_l+0xcc0>
   22cb8:	d8800b17 	ldw	r2,44(sp)
   22cbc:	10bfffd8 	cmpnei	r2,r2,-1
   22cc0:	103fa626 	beq	r2,zero,22b5c <_strtod_l+0xb58>
   22cc4:	045ffc34 	movhi	r17,32752
   22cc8:	8c7fffc4 	addi	r17,r17,-1
   22ccc:	04bfffc4 	movi	r18,-1
   22cd0:	003f7006 	br	22a94 <_strtod_l+0xa90>
   22cd4:	0015883a 	mov	r10,zero
   22cd8:	003fcd06 	br	22c10 <_strtod_l+0xc0c>
   22cdc:	90c01960 	cmpeqi	r3,r18,101
   22ce0:	1800781e 	bne	r3,zero,22ec4 <_strtod_l+0xec0>
   22ce4:	90c01160 	cmpeqi	r3,r18,69
   22ce8:	1800761e 	bne	r3,zero,22ec4 <_strtod_l+0xec0>
   22cec:	01c00044 	movi	r7,1
   22cf0:	003e3106 	br	225b8 <_strtod_l+0x5b4>
   22cf4:	df000c17 	ldw	fp,48(sp)
   22cf8:	b00b883a 	mov	r5,r22
   22cfc:	da000a15 	stw	r8,40(sp)
   22d00:	e009883a 	mov	r4,fp
   22d04:	00295a40 	call	295a4 <__fixdfdi>
   22d08:	1009883a 	mov	r4,r2
   22d0c:	180b883a 	mov	r5,r3
   22d10:	00296a80 	call	296a8 <__floatdidf>
   22d14:	e009883a 	mov	r4,fp
   22d18:	b00b883a 	mov	r5,r22
   22d1c:	100d883a 	mov	r6,r2
   22d20:	180f883a 	mov	r7,r3
   22d24:	002c30c0 	call	2c30c <__subdf3>
   22d28:	d9000617 	ldw	r4,24(sp)
   22d2c:	d9401117 	ldw	r5,68(sp)
   22d30:	da000a17 	ldw	r8,40(sp)
   22d34:	2488b03a 	or	r4,r4,r18
   22d38:	1039883a 	mov	fp,r2
   22d3c:	4150703a 	and	r8,r8,r5
   22d40:	2210b03a 	or	r8,r4,r8
   22d44:	182d883a 	mov	r22,r3
   22d48:	01a52834 	movhi	r6,38048
   22d4c:	40004526 	beq	r8,zero,22e64 <_strtod_l+0xe60>
   22d50:	01cff834 	movhi	r7,16352
   22d54:	318d6544 	addi	r6,r6,13717
   22d58:	39ffffc4 	addi	r7,r7,-1
   22d5c:	1009883a 	mov	r4,r2
   22d60:	180b883a 	mov	r5,r3
   22d64:	002ba740 	call	2ba74 <__ledf2>
   22d68:	10000716 	blt	r2,zero,22d88 <_strtod_l+0xd84>
   22d6c:	018d6c34 	movhi	r6,13744
   22d70:	31b94d44 	addi	r6,r6,-6859
   22d74:	01cff834 	movhi	r7,16352
   22d78:	e009883a 	mov	r4,fp
   22d7c:	b00b883a 	mov	r5,r22
   22d80:	002b9840 	call	2b984 <__gedf2>
   22d84:	00bf430e 	bge	zero,r2,22a94 <_strtod_l+0xa90>
   22d88:	da401317 	ldw	r9,76(sp)
   22d8c:	902d883a 	mov	r22,r18
   22d90:	882b883a 	mov	r21,r17
   22d94:	480b883a 	mov	r5,r9
   22d98:	8009883a 	mov	r4,r16
   22d9c:	002553c0 	call	2553c <_Bfree>
   22da0:	a00b883a 	mov	r5,r20
   22da4:	8009883a 	mov	r4,r16
   22da8:	002553c0 	call	2553c <_Bfree>
   22dac:	980b883a 	mov	r5,r19
   22db0:	8009883a 	mov	r4,r16
   22db4:	002553c0 	call	2553c <_Bfree>
   22db8:	d9400717 	ldw	r5,28(sp)
   22dbc:	8009883a 	mov	r4,r16
   22dc0:	002553c0 	call	2553c <_Bfree>
   22dc4:	b80b883a 	mov	r5,r23
   22dc8:	8009883a 	mov	r4,r16
   22dcc:	002553c0 	call	2553c <_Bfree>
   22dd0:	003e1206 	br	2261c <_strtod_l+0x618>
   22dd4:	d8801117 	ldw	r2,68(sp)
   22dd8:	8884703a 	and	r2,r17,r2
   22ddc:	103f941e 	bne	r2,zero,22c30 <_strtod_l+0xc2c>
   22de0:	000d883a 	mov	r6,zero
   22de4:	01cffc34 	movhi	r7,16368
   22de8:	e009883a 	mov	r4,fp
   22dec:	b00b883a 	mov	r5,r22
   22df0:	002ba740 	call	2ba74 <__ledf2>
   22df4:	10012116 	blt	r2,zero,2327c <_strtod_l+0x1278>
   22df8:	b00b883a 	mov	r5,r22
   22dfc:	000d883a 	mov	r6,zero
   22e00:	01cff834 	movhi	r7,16352
   22e04:	e009883a 	mov	r4,fp
   22e08:	002bb640 	call	2bb64 <__muldf3>
   22e0c:	d8800c15 	stw	r2,48(sp)
   22e10:	182d883a 	mov	r22,r3
   22e14:	1011883a 	mov	r8,r2
   22e18:	1a60003c 	xorhi	r9,r3,32768
   22e1c:	003ee506 	br	229b4 <_strtod_l+0x9b0>
   22e20:	0440d434 	movhi	r17,848
   22e24:	1c63883a 	add	r17,r3,r17
   22e28:	8811883a 	mov	r8,r17
   22e2c:	003f1606 	br	22a88 <_strtod_l+0xa84>
   22e30:	00800044 	movi	r2,1
   22e34:	d8800415 	stw	r2,16(sp)
   22e38:	1a400044 	addi	r9,r3,1
   22e3c:	da401215 	stw	r9,72(sp)
   22e40:	1cc00047 	ldb	r19,1(r3)
   22e44:	983cc41e 	bne	r19,zero,22158 <_strtod_l+0x154>
   22e48:	d8800317 	ldw	r2,12(sp)
   22e4c:	103ced1e 	bne	r2,zero,22204 <_strtod_l+0x200>
   22e50:	003cee06 	br	2220c <_strtod_l+0x208>
   22e54:	d8000415 	stw	zero,16(sp)
   22e58:	003ff706 	br	22e38 <_strtod_l+0xe34>
   22e5c:	d8000815 	stw	zero,32(sp)
   22e60:	003e6106 	br	227e8 <_strtod_l+0x7e4>
   22e64:	01cff434 	movhi	r7,16336
   22e68:	318d6544 	addi	r6,r6,13717
   22e6c:	39ffffc4 	addi	r7,r7,-1
   22e70:	1009883a 	mov	r4,r2
   22e74:	180b883a 	mov	r5,r3
   22e78:	002ba740 	call	2ba74 <__ledf2>
   22e7c:	103f050e 	bge	r2,zero,22a94 <_strtod_l+0xa90>
   22e80:	003fc106 	br	22d88 <_strtod_l+0xd84>
   22e84:	9d05c83a 	sub	r2,r19,r20
   22e88:	10bffa90 	cmplti	r2,r2,-22
   22e8c:	103df11e 	bne	r2,zero,22654 <_strtod_l+0x650>
   22e90:	a4c5c83a 	sub	r2,r20,r19
   22e94:	100690fa 	slli	r3,r2,3
   22e98:	008000f4 	movhi	r2,3
   22e9c:	10805d04 	addi	r2,r2,372
   22ea0:	10c5883a 	add	r2,r2,r3
   22ea4:	11800017 	ldw	r6,0(r2)
   22ea8:	11c00117 	ldw	r7,4(r2)
   22eac:	9009883a 	mov	r4,r18
   22eb0:	880b883a 	mov	r5,r17
   22eb4:	002afd00 	call	2afd0 <__divdf3>
   22eb8:	102d883a 	mov	r22,r2
   22ebc:	182b883a 	mov	r21,r3
   22ec0:	003dd606 	br	2261c <_strtod_l+0x618>
   22ec4:	002b883a 	mov	r21,zero
   22ec8:	0029883a 	mov	r20,zero
   22ecc:	01c00044 	movi	r7,1
   22ed0:	003cc806 	br	221f4 <_strtod_l+0x1f0>
   22ed4:	94801ba0 	cmpeqi	r18,r18,110
   22ed8:	903dc21e 	bne	r18,zero,225e4 <_strtod_l+0x5e0>
   22edc:	003cc706 	br	221fc <_strtod_l+0x1f8>
   22ee0:	b03e3126 	beq	r22,zero,227a8 <_strtod_l+0x7a4>
   22ee4:	05adc83a 	sub	r22,zero,r22
   22ee8:	b08003cc 	andi	r2,r22,15
   22eec:	10000d26 	beq	r2,zero,22f24 <_strtod_l+0xf20>
   22ef0:	100490fa 	slli	r2,r2,3
   22ef4:	00c000f4 	movhi	r3,3
   22ef8:	18c05d04 	addi	r3,r3,372
   22efc:	1885883a 	add	r2,r3,r2
   22f00:	11800017 	ldw	r6,0(r2)
   22f04:	11c00117 	ldw	r7,4(r2)
   22f08:	9009883a 	mov	r4,r18
   22f0c:	880b883a 	mov	r5,r17
   22f10:	da400515 	stw	r9,20(sp)
   22f14:	002afd00 	call	2afd0 <__divdf3>
   22f18:	da400517 	ldw	r9,20(sp)
   22f1c:	1025883a 	mov	r18,r2
   22f20:	1823883a 	mov	r17,r3
   22f24:	b02dd13a 	srai	r22,r22,4
   22f28:	b03e1f26 	beq	r22,zero,227a8 <_strtod_l+0x7a4>
   22f2c:	b0800808 	cmpgei	r2,r22,32
   22f30:	1000361e 	bne	r2,zero,2300c <_strtod_l+0x1008>
   22f34:	b080040c 	andi	r2,r22,16
   22f38:	d8801015 	stw	r2,64(sp)
   22f3c:	10000226 	beq	r2,zero,22f48 <_strtod_l+0xf44>
   22f40:	00801a84 	movi	r2,106
   22f44:	d8801015 	stw	r2,64(sp)
   22f48:	020000f4 	movhi	r8,3
   22f4c:	423fce04 	addi	r8,r8,-200
   22f50:	880b883a 	mov	r5,r17
   22f54:	dc000615 	stw	r16,24(sp)
   22f58:	9009883a 	mov	r4,r18
   22f5c:	b021883a 	mov	r16,r22
   22f60:	0007883a 	mov	r3,zero
   22f64:	882d883a 	mov	r22,r17
   22f68:	da400515 	stw	r9,20(sp)
   22f6c:	4023883a 	mov	r17,r8
   22f70:	8080004c 	andi	r2,r16,1
   22f74:	8021d07a 	srai	r16,r16,1
   22f78:	10000626 	beq	r2,zero,22f94 <_strtod_l+0xf90>
   22f7c:	89800017 	ldw	r6,0(r17)
   22f80:	89c00117 	ldw	r7,4(r17)
   22f84:	002bb640 	call	2bb64 <__muldf3>
   22f88:	180b883a 	mov	r5,r3
   22f8c:	1009883a 	mov	r4,r2
   22f90:	00c00044 	movi	r3,1
   22f94:	8c400204 	addi	r17,r17,8
   22f98:	803ff51e 	bne	r16,zero,22f70 <_strtod_l+0xf6c>
   22f9c:	18c03fcc 	andi	r3,r3,255
   22fa0:	da400517 	ldw	r9,20(sp)
   22fa4:	dc000617 	ldw	r16,24(sp)
   22fa8:	b023883a 	mov	r17,r22
   22fac:	18000226 	beq	r3,zero,22fb8 <_strtod_l+0xfb4>
   22fb0:	2025883a 	mov	r18,r4
   22fb4:	2823883a 	mov	r17,r5
   22fb8:	d8801017 	ldw	r2,64(sp)
   22fbc:	10000b26 	beq	r2,zero,22fec <_strtod_l+0xfe8>
   22fc0:	8804d53a 	srli	r2,r17,20
   22fc4:	10c1ffcc 	andi	r3,r2,2047
   22fc8:	00801ac4 	movi	r2,107
   22fcc:	10c5c83a 	sub	r2,r2,r3
   22fd0:	0080060e 	bge	zero,r2,22fec <_strtod_l+0xfe8>
   22fd4:	10c00810 	cmplti	r3,r2,32
   22fd8:	1801421e 	bne	r3,zero,234e4 <_strtod_l+0x14e0>
   22fdc:	10c00d50 	cmplti	r3,r2,53
   22fe0:	0025883a 	mov	r18,zero
   22fe4:	18015f1e 	bne	r3,zero,23564 <_strtod_l+0x1560>
   22fe8:	0440dc34 	movhi	r17,880
   22fec:	000d883a 	mov	r6,zero
   22ff0:	000f883a 	mov	r7,zero
   22ff4:	9009883a 	mov	r4,r18
   22ff8:	880b883a 	mov	r5,r17
   22ffc:	da400515 	stw	r9,20(sp)
   23000:	002b9040 	call	2b904 <__eqdf2>
   23004:	da400517 	ldw	r9,20(sp)
   23008:	103de81e 	bne	r2,zero,227ac <_strtod_l+0x7a8>
   2300c:	00800884 	movi	r2,34
   23010:	80800015 	stw	r2,0(r16)
   23014:	002d883a 	mov	r22,zero
   23018:	002b883a 	mov	r21,zero
   2301c:	003d7f06 	br	2261c <_strtod_l+0x618>
   23020:	00800884 	movi	r2,34
   23024:	80800015 	stw	r2,0(r16)
   23028:	002d883a 	mov	r22,zero
   2302c:	055ffc34 	movhi	r21,32752
   23030:	003d7a06 	br	2261c <_strtod_l+0x618>
   23034:	d8800417 	ldw	r2,16(sp)
   23038:	018000f4 	movhi	r6,3
   2303c:	dd000215 	stw	r20,8(sp)
   23040:	d8800115 	stw	r2,4(sp)
   23044:	d8801304 	addi	r2,sp,76
   23048:	d8800015 	stw	r2,0(sp)
   2304c:	d9c01404 	addi	r7,sp,80
   23050:	31bfc904 	addi	r6,r6,-220
   23054:	d9401204 	addi	r5,sp,72
   23058:	8009883a 	mov	r4,r16
   2305c:	00246000 	call	24600 <__gethex>
   23060:	14c001cc 	andi	r19,r2,7
   23064:	983d6b26 	beq	r19,zero,22614 <_strtod_l+0x610>
   23068:	98c00198 	cmpnei	r3,r19,6
   2306c:	18003a1e 	bne	r3,zero,23158 <_strtod_l+0x1154>
   23070:	d8800317 	ldw	r2,12(sp)
   23074:	103c6526 	beq	r2,zero,2220c <_strtod_l+0x208>
   23078:	15c00015 	stw	r23,0(r2)
   2307c:	002d883a 	mov	r22,zero
   23080:	002b883a 	mov	r21,zero
   23084:	003c6306 	br	22214 <_strtod_l+0x210>
   23088:	902d883a 	mov	r22,r18
   2308c:	882b883a 	mov	r21,r17
   23090:	003d6206 	br	2261c <_strtod_l+0x618>
   23094:	2807883a 	mov	r3,r5
   23098:	102f883a 	mov	r23,r2
   2309c:	18c00248 	cmpgei	r3,r3,9
   230a0:	183c8f26 	beq	r3,zero,222e0 <_strtod_l+0x2dc>
   230a4:	b8800448 	cmpgei	r2,r23,17
   230a8:	1000901e 	bne	r2,zero,232ec <_strtod_l+0x12e8>
   230ac:	400690ba 	slli	r3,r8,2
   230b0:	0005883a 	mov	r2,zero
   230b4:	1a11883a 	add	r8,r3,r8
   230b8:	4211883a 	add	r8,r8,r8
   230bc:	3211883a 	add	r8,r6,r8
   230c0:	003c8c06 	br	222f4 <_strtod_l+0x2f0>
   230c4:	4809883a 	mov	r4,r9
   230c8:	a80b883a 	mov	r5,r21
   230cc:	d9800615 	stw	r6,24(sp)
   230d0:	da400515 	stw	r9,20(sp)
   230d4:	00267840 	call	26784 <strncmp>
   230d8:	da400517 	ldw	r9,20(sp)
   230dc:	d9800617 	ldw	r6,24(sp)
   230e0:	10005026 	beq	r2,zero,23224 <_strtod_l+0x1220>
   230e4:	002b883a 	mov	r21,zero
   230e8:	0011883a 	mov	r8,zero
   230ec:	0039883a 	mov	fp,zero
   230f0:	002f883a 	mov	r23,zero
   230f4:	003cbe06 	br	223f0 <_strtod_l+0x3ec>
   230f8:	98d38810 	cmplti	r3,r19,20000
   230fc:	183d2b1e 	bne	r3,zero,225ac <_strtod_l+0x5a8>
   23100:	003d2906 	br	225a8 <_strtod_l+0x5a4>
   23104:	1813883a 	mov	r9,r3
   23108:	003e4806 	br	22a2c <_strtod_l+0xa28>
   2310c:	014000f4 	movhi	r5,3
   23110:	297fc004 	addi	r5,r5,-256
   23114:	d9001204 	addi	r4,sp,72
   23118:	0024e440 	call	24e44 <__match>
   2311c:	103c3726 	beq	r2,zero,221fc <_strtod_l+0x1f8>
   23120:	d8801217 	ldw	r2,72(sp)
   23124:	014000f4 	movhi	r5,3
   23128:	297fc104 	addi	r5,r5,-252
   2312c:	10bfffc4 	addi	r2,r2,-1
   23130:	d9001204 	addi	r4,sp,72
   23134:	d8801215 	stw	r2,72(sp)
   23138:	0024e440 	call	24e44 <__match>
   2313c:	103fba1e 	bne	r2,zero,23028 <_strtod_l+0x1024>
   23140:	d8801217 	ldw	r2,72(sp)
   23144:	10800044 	addi	r2,r2,1
   23148:	d8801215 	stw	r2,72(sp)
   2314c:	003fb606 	br	23028 <_strtod_l+0x1024>
   23150:	0005883a 	mov	r2,zero
   23154:	003c5906 	br	222bc <_strtod_l+0x2b8>
   23158:	d9801317 	ldw	r6,76(sp)
   2315c:	30000826 	beq	r6,zero,23180 <_strtod_l+0x117c>
   23160:	01400d44 	movi	r5,53
   23164:	d9001504 	addi	r4,sp,84
   23168:	d8800515 	stw	r2,20(sp)
   2316c:	00265040 	call	26504 <__copybits>
   23170:	d9401317 	ldw	r5,76(sp)
   23174:	8009883a 	mov	r4,r16
   23178:	002553c0 	call	2553c <_Bfree>
   2317c:	d8800517 	ldw	r2,20(sp)
   23180:	98c001e8 	cmpgeui	r3,r19,7
   23184:	1800151e 	bne	r3,zero,231dc <_strtod_l+0x11d8>
   23188:	982690ba 	slli	r19,r19,2
   2318c:	00c000b4 	movhi	r3,2
   23190:	98c7883a 	add	r3,r19,r3
   23194:	18cc6717 	ldw	r3,12700(r3)
   23198:	1800683a 	jmp	r3
   2319c:	000231dc 	xori	zero,zero,2247
   231a0:	000231b8 	rdprs	zero,zero,2246
   231a4:	00023218 	cmpnei	zero,zero,2248
   231a8:	0002320c 	andi	zero,zero,2248
   231ac:	000231fc 	xorhi	zero,zero,2247
   231b0:	000231b8 	rdprs	zero,zero,2246
   231b4:	000231f0 	cmpltui	zero,zero,2247
   231b8:	d8c01417 	ldw	r3,80(sp)
   231bc:	dc401617 	ldw	r17,88(sp)
   231c0:	013ffc34 	movhi	r4,65520
   231c4:	18c10cc4 	addi	r3,r3,1075
   231c8:	1806953a 	slli	r3,r3,20
   231cc:	213fffc4 	addi	r4,r4,-1
   231d0:	dc801517 	ldw	r18,84(sp)
   231d4:	8922703a 	and	r17,r17,r4
   231d8:	88e2b03a 	or	r17,r17,r3
   231dc:	1080020c 	andi	r2,r2,8
   231e0:	902d883a 	mov	r22,r18
   231e4:	103fa926 	beq	r2,zero,2308c <_strtod_l+0x1088>
   231e8:	8d600034 	orhi	r21,r17,32768
   231ec:	003d0b06 	br	2261c <_strtod_l+0x618>
   231f0:	0023883a 	mov	r17,zero
   231f4:	0025883a 	mov	r18,zero
   231f8:	003ff806 	br	231dc <_strtod_l+0x11d8>
   231fc:	04600034 	movhi	r17,32768
   23200:	8c7fffc4 	addi	r17,r17,-1
   23204:	04bfffc4 	movi	r18,-1
   23208:	003ff406 	br	231dc <_strtod_l+0x11d8>
   2320c:	045ffc34 	movhi	r17,32752
   23210:	0025883a 	mov	r18,zero
   23214:	003ff106 	br	231dc <_strtod_l+0x11d8>
   23218:	dc801517 	ldw	r18,84(sp)
   2321c:	dc401617 	ldw	r17,88(sp)
   23220:	003fee06 	br	231dc <_strtod_l+0x11d8>
   23224:	498d883a 	add	r6,r9,r6
   23228:	d9801215 	stw	r6,72(sp)
   2322c:	34800007 	ldb	r18,0(r6)
   23230:	0039883a 	mov	fp,zero
   23234:	0011883a 	mov	r8,zero
   23238:	003c1506 	br	22290 <_strtod_l+0x28c>
   2323c:	d8800917 	ldw	r2,36(sp)
   23240:	900d883a 	mov	r6,r18
   23244:	880f883a 	mov	r7,r17
   23248:	100690fa 	slli	r3,r2,3
   2324c:	008000f4 	movhi	r2,3
   23250:	10805d04 	addi	r2,r2,372
   23254:	10c5883a 	add	r2,r2,r3
   23258:	11000017 	ldw	r4,0(r2)
   2325c:	11400117 	ldw	r5,4(r2)
   23260:	002bb640 	call	2bb64 <__muldf3>
   23264:	102d883a 	mov	r22,r2
   23268:	182b883a 	mov	r21,r3
   2326c:	003ceb06 	br	2261c <_strtod_l+0x618>
   23270:	b82b883a 	mov	r21,r23
   23274:	0029883a 	mov	r20,zero
   23278:	003c2106 	br	22300 <_strtod_l+0x2fc>
   2327c:	0011883a 	mov	r8,zero
   23280:	026ff834 	movhi	r9,49120
   23284:	d8000c15 	stw	zero,48(sp)
   23288:	058ff834 	movhi	r22,16352
   2328c:	003dc906 	br	229b4 <_strtod_l+0x9b0>
   23290:	008003c4 	movi	r2,15
   23294:	15efc83a 	sub	r23,r2,r23
   23298:	b80490fa 	slli	r2,r23,3
   2329c:	040000f4 	movhi	r16,3
   232a0:	84005d04 	addi	r16,r16,372
   232a4:	8085883a 	add	r2,r16,r2
   232a8:	11000017 	ldw	r4,0(r2)
   232ac:	11400117 	ldw	r5,4(r2)
   232b0:	900d883a 	mov	r6,r18
   232b4:	880f883a 	mov	r7,r17
   232b8:	002bb640 	call	2bb64 <__muldf3>
   232bc:	d9000917 	ldw	r4,36(sp)
   232c0:	180b883a 	mov	r5,r3
   232c4:	25efc83a 	sub	r23,r4,r23
   232c8:	b80c90fa 	slli	r6,r23,3
   232cc:	1009883a 	mov	r4,r2
   232d0:	81a1883a 	add	r16,r16,r6
   232d4:	81800017 	ldw	r6,0(r16)
   232d8:	81c00117 	ldw	r7,4(r16)
   232dc:	002bb640 	call	2bb64 <__muldf3>
   232e0:	102d883a 	mov	r22,r2
   232e4:	182b883a 	mov	r21,r3
   232e8:	003ccc06 	br	2261c <_strtod_l+0x618>
   232ec:	0005883a 	mov	r2,zero
   232f0:	003c0006 	br	222f4 <_strtod_l+0x2f0>
   232f4:	d9000617 	ldw	r4,24(sp)
   232f8:	00c00434 	movhi	r3,16
   232fc:	18ffffc4 	addi	r3,r3,-1
   23300:	dd800b17 	ldw	r22,44(sp)
   23304:	dd400a17 	ldw	r21,40(sp)
   23308:	88c4703a 	and	r2,r17,r3
   2330c:	20004926 	beq	r4,zero,23434 <_strtod_l+0x1430>
   23310:	10c07826 	beq	r2,r3,234f4 <_strtod_l+0x14f0>
   23314:	d8800e17 	ldw	r2,56(sp)
   23318:	10004a26 	beq	r2,zero,23444 <_strtod_l+0x1440>
   2331c:	1444703a 	and	r2,r2,r17
   23320:	10000d26 	beq	r2,zero,23358 <_strtod_l+0x1354>
   23324:	d8800617 	ldw	r2,24(sp)
   23328:	d9801017 	ldw	r6,64(sp)
   2332c:	9009883a 	mov	r4,r18
   23330:	880b883a 	mov	r5,r17
   23334:	10005726 	beq	r2,zero,23494 <_strtod_l+0x1490>
   23338:	0021fa00 	call	21fa0 <sulp>
   2333c:	100d883a 	mov	r6,r2
   23340:	180f883a 	mov	r7,r3
   23344:	9009883a 	mov	r4,r18
   23348:	880b883a 	mov	r5,r17
   2334c:	002a6580 	call	2a658 <__adddf3>
   23350:	102d883a 	mov	r22,r2
   23354:	182b883a 	mov	r21,r3
   23358:	d8801017 	ldw	r2,64(sp)
   2335c:	da401317 	ldw	r9,76(sp)
   23360:	103e8c26 	beq	r2,zero,22d94 <_strtod_l+0xd90>
   23364:	b009883a 	mov	r4,r22
   23368:	a80b883a 	mov	r5,r21
   2336c:	000d883a 	mov	r6,zero
   23370:	01ce5434 	movhi	r7,14672
   23374:	da400515 	stw	r9,20(sp)
   23378:	002bb640 	call	2bb64 <__muldf3>
   2337c:	102d883a 	mov	r22,r2
   23380:	1884b03a 	or	r2,r3,r2
   23384:	da400517 	ldw	r9,20(sp)
   23388:	182b883a 	mov	r21,r3
   2338c:	103e811e 	bne	r2,zero,22d94 <_strtod_l+0xd90>
   23390:	00800884 	movi	r2,34
   23394:	80800015 	stw	r2,0(r16)
   23398:	003e7e06 	br	22d94 <_strtod_l+0xd90>
   2339c:	0440d434 	movhi	r17,848
   233a0:	1c63883a 	add	r17,r3,r17
   233a4:	d8001015 	stw	zero,64(sp)
   233a8:	003d0006 	br	227ac <_strtod_l+0x7a8>
   233ac:	d8800617 	ldw	r2,24(sp)
   233b0:	dd800b17 	ldw	r22,44(sp)
   233b4:	dd400a17 	ldw	r21,40(sp)
   233b8:	14a4b03a 	or	r18,r2,r18
   233bc:	903fe61e 	bne	r18,zero,23358 <_strtod_l+0x1354>
   233c0:	00800434 	movhi	r2,16
   233c4:	10bfffc4 	addi	r2,r2,-1
   233c8:	8884703a 	and	r2,r17,r2
   233cc:	103fe21e 	bne	r2,zero,23358 <_strtod_l+0x1354>
   233d0:	8c5ffc2c 	andhi	r17,r17,32752
   233d4:	0081ac34 	movhi	r2,1712
   233d8:	147fdf2e 	bgeu	r2,r17,23358 <_strtod_l+0x1354>
   233dc:	b8800517 	ldw	r2,20(r23)
   233e0:	1000031e 	bne	r2,zero,233f0 <_strtod_l+0x13ec>
   233e4:	b8800417 	ldw	r2,16(r23)
   233e8:	10800090 	cmplti	r2,r2,2
   233ec:	103fda1e 	bne	r2,zero,23358 <_strtod_l+0x1354>
   233f0:	b80b883a 	mov	r5,r23
   233f4:	8009883a 	mov	r4,r16
   233f8:	01800044 	movi	r6,1
   233fc:	0025d200 	call	25d20 <__lshift>
   23400:	980b883a 	mov	r5,r19
   23404:	1009883a 	mov	r4,r2
   23408:	102f883a 	mov	r23,r2
   2340c:	0025ea80 	call	25ea8 <__mcmp>
   23410:	00bfd10e 	bge	zero,r2,23358 <_strtod_l+0x1354>
   23414:	d8801017 	ldw	r2,64(sp)
   23418:	10004b26 	beq	r2,zero,23548 <_strtod_l+0x1544>
   2341c:	0081ac34 	movhi	r2,1712
   23420:	14404916 	blt	r2,r17,23548 <_strtod_l+0x1544>
   23424:	0080dc34 	movhi	r2,880
   23428:	1440280e 	bge	r2,r17,234cc <_strtod_l+0x14c8>
   2342c:	da401317 	ldw	r9,76(sp)
   23430:	003fcc06 	br	23364 <_strtod_l+0x1360>
   23434:	1484b03a 	or	r2,r2,r18
   23438:	103fb61e 	bne	r2,zero,23314 <_strtod_l+0x1310>
   2343c:	8c5ffc2c 	andhi	r17,r17,32752
   23440:	003ff406 	br	23414 <_strtod_l+0x1410>
   23444:	d8800c17 	ldw	r2,48(sp)
   23448:	14b8703a 	and	fp,r2,r18
   2344c:	e03fc226 	beq	fp,zero,23358 <_strtod_l+0x1354>
   23450:	003fb406 	br	23324 <_strtod_l+0x1320>
   23454:	008000f4 	movhi	r2,3
   23458:	10805304 	addi	r2,r2,332
   2345c:	002d883a 	mov	r22,zero
   23460:	d8800515 	stw	r2,20(sp)
   23464:	003cba06 	br	22750 <_strtod_l+0x74c>
   23468:	014000f4 	movhi	r5,3
   2346c:	d9801504 	addi	r6,sp,84
   23470:	297fc404 	addi	r5,r5,-240
   23474:	d9001204 	addi	r4,sp,72
   23478:	0024e940 	call	24e94 <__hexnan>
   2347c:	10800158 	cmpnei	r2,r2,5
   23480:	103c611e 	bne	r2,zero,22608 <_strtod_l+0x604>
   23484:	dd401617 	ldw	r21,88(sp)
   23488:	dd801517 	ldw	r22,84(sp)
   2348c:	ad5ffc34 	orhi	r21,r21,32752
   23490:	003c6206 	br	2261c <_strtod_l+0x618>
   23494:	0021fa00 	call	21fa0 <sulp>
   23498:	100d883a 	mov	r6,r2
   2349c:	180f883a 	mov	r7,r3
   234a0:	9009883a 	mov	r4,r18
   234a4:	880b883a 	mov	r5,r17
   234a8:	002c30c0 	call	2c30c <__subdf3>
   234ac:	000d883a 	mov	r6,zero
   234b0:	000f883a 	mov	r7,zero
   234b4:	1009883a 	mov	r4,r2
   234b8:	180b883a 	mov	r5,r3
   234bc:	102d883a 	mov	r22,r2
   234c0:	182b883a 	mov	r21,r3
   234c4:	002b9040 	call	2b904 <__eqdf2>
   234c8:	103fa31e 	bne	r2,zero,23358 <_strtod_l+0x1354>
   234cc:	00800884 	movi	r2,34
   234d0:	da401317 	ldw	r9,76(sp)
   234d4:	80800015 	stw	r2,0(r16)
   234d8:	002d883a 	mov	r22,zero
   234dc:	002b883a 	mov	r21,zero
   234e0:	003e2c06 	br	22d94 <_strtod_l+0xd90>
   234e4:	00ffffc4 	movi	r3,-1
   234e8:	1884983a 	sll	r2,r3,r2
   234ec:	14a4703a 	and	r18,r2,r18
   234f0:	003ebe06 	br	22fec <_strtod_l+0xfe8>
   234f4:	d8801017 	ldw	r2,64(sp)
   234f8:	10001126 	beq	r2,zero,23540 <_strtod_l+0x153c>
   234fc:	889ffc2c 	andhi	r2,r17,32752
   23500:	00c1a834 	movhi	r3,1696
   23504:	18800e36 	bltu	r3,r2,23540 <_strtod_l+0x153c>
   23508:	1004d53a 	srli	r2,r2,20
   2350c:	00c01ac4 	movi	r3,107
   23510:	1887c83a 	sub	r3,r3,r2
   23514:	00bfffc4 	movi	r2,-1
   23518:	10c4983a 	sll	r2,r2,r3
   2351c:	90bf7d1e 	bne	r18,r2,23314 <_strtod_l+0x1310>
   23520:	009ffc34 	movhi	r2,32752
   23524:	10bfffc4 	addi	r2,r2,-1
   23528:	88801326 	beq	r17,r2,23578 <_strtod_l+0x1574>
   2352c:	8c5ffc2c 	andhi	r17,r17,32752
   23530:	00800434 	movhi	r2,16
   23534:	002d883a 	mov	r22,zero
   23538:	88ab883a 	add	r21,r17,r2
   2353c:	003f8606 	br	23358 <_strtod_l+0x1354>
   23540:	00bfffc4 	movi	r2,-1
   23544:	003ff506 	br	2351c <_strtod_l+0x1518>
   23548:	05400434 	movhi	r21,16
   2354c:	00bffc34 	movhi	r2,65520
   23550:	88a3883a 	add	r17,r17,r2
   23554:	ad7fffc4 	addi	r21,r21,-1
   23558:	05bfffc4 	movi	r22,-1
   2355c:	8d6ab03a 	or	r21,r17,r21
   23560:	003f7d06 	br	23358 <_strtod_l+0x1354>
   23564:	10bff804 	addi	r2,r2,-32
   23568:	00ffffc4 	movi	r3,-1
   2356c:	1884983a 	sll	r2,r3,r2
   23570:	1462703a 	and	r17,r2,r17
   23574:	003e9d06 	br	22fec <_strtod_l+0xfe8>
   23578:	94bfffd8 	cmpnei	r18,r18,-1
   2357c:	903feb1e 	bne	r18,zero,2352c <_strtod_l+0x1528>
   23580:	003d7606 	br	22b5c <_strtod_l+0xb58>
   23584:	b807883a 	mov	r3,r23
   23588:	202f883a 	mov	r23,r4
   2358c:	003ec306 	br	2309c <_strtod_l+0x1098>

00023590 <_strtod_r>:
   23590:	01c000f4 	movhi	r7,3
   23594:	39c3b904 	addi	r7,r7,3812
   23598:	00220041 	jmpi	22004 <_strtod_l>

0002359c <strtod_l>:
   2359c:	00c000f4 	movhi	r3,3
   235a0:	2005883a 	mov	r2,r4
   235a4:	1908a617 	ldw	r4,8856(r3)
   235a8:	300f883a 	mov	r7,r6
   235ac:	280d883a 	mov	r6,r5
   235b0:	100b883a 	mov	r5,r2
   235b4:	00220041 	jmpi	22004 <_strtod_l>

000235b8 <strtod>:
   235b8:	00c000f4 	movhi	r3,3
   235bc:	2005883a 	mov	r2,r4
   235c0:	1908a617 	ldw	r4,8856(r3)
   235c4:	01c000f4 	movhi	r7,3
   235c8:	280d883a 	mov	r6,r5
   235cc:	39c3b904 	addi	r7,r7,3812
   235d0:	100b883a 	mov	r5,r2
   235d4:	00220041 	jmpi	22004 <_strtod_l>

000235d8 <strtof_l>:
   235d8:	00c000f4 	movhi	r3,3
   235dc:	2005883a 	mov	r2,r4
   235e0:	1908a617 	ldw	r4,8856(r3)
   235e4:	defffa04 	addi	sp,sp,-24
   235e8:	300f883a 	mov	r7,r6
   235ec:	280d883a 	mov	r6,r5
   235f0:	100b883a 	mov	r5,r2
   235f4:	dc400115 	stw	r17,4(sp)
   235f8:	dc000015 	stw	r16,0(sp)
   235fc:	dfc00515 	stw	ra,20(sp)
   23600:	dd000415 	stw	r20,16(sp)
   23604:	dcc00315 	stw	r19,12(sp)
   23608:	dc800215 	stw	r18,8(sp)
   2360c:	00220040 	call	22004 <_strtod_l>
   23610:	100d883a 	mov	r6,r2
   23614:	180f883a 	mov	r7,r3
   23618:	1009883a 	mov	r4,r2
   2361c:	180b883a 	mov	r5,r3
   23620:	1023883a 	mov	r17,r2
   23624:	1821883a 	mov	r16,r3
   23628:	002cc400 	call	2cc40 <__unorddf2>
   2362c:	10002d1e 	bne	r2,zero,236e4 <strtof_l+0x10c>
   23630:	8809883a 	mov	r4,r17
   23634:	800b883a 	mov	r5,r16
   23638:	04a00034 	movhi	r18,32768
   2363c:	002cde00 	call	2cde0 <__truncdfsf2>
   23640:	94bfffc4 	addi	r18,r18,-1
   23644:	90a8703a 	and	r20,r18,r2
   23648:	015fe034 	movhi	r5,32640
   2364c:	297fffc4 	addi	r5,r5,-1
   23650:	a009883a 	mov	r4,r20
   23654:	1027883a 	mov	r19,r2
   23658:	002a60c0 	call	2a60c <__unordsf2>
   2365c:	1000181e 	bne	r2,zero,236c0 <strtof_l+0xe8>
   23660:	015fe034 	movhi	r5,32640
   23664:	297fffc4 	addi	r5,r5,-1
   23668:	a009883a 	mov	r4,r20
   2366c:	002a54c0 	call	2a54c <__lesf2>
   23670:	0080130e 	bge	zero,r2,236c0 <strtof_l+0xe8>
   23674:	84a0703a 	and	r16,r16,r18
   23678:	01dffc34 	movhi	r7,32752
   2367c:	01bfffc4 	movi	r6,-1
   23680:	39ffffc4 	addi	r7,r7,-1
   23684:	8809883a 	mov	r4,r17
   23688:	800b883a 	mov	r5,r16
   2368c:	002cc400 	call	2cc40 <__unorddf2>
   23690:	1000071e 	bne	r2,zero,236b0 <strtof_l+0xd8>
   23694:	01dffc34 	movhi	r7,32752
   23698:	01bfffc4 	movi	r6,-1
   2369c:	39ffffc4 	addi	r7,r7,-1
   236a0:	8809883a 	mov	r4,r17
   236a4:	800b883a 	mov	r5,r16
   236a8:	002ba740 	call	2ba74 <__ledf2>
   236ac:	00800416 	blt	zero,r2,236c0 <strtof_l+0xe8>
   236b0:	008000f4 	movhi	r2,3
   236b4:	1088a617 	ldw	r2,8856(r2)
   236b8:	00c00884 	movi	r3,34
   236bc:	10c00015 	stw	r3,0(r2)
   236c0:	9805883a 	mov	r2,r19
   236c4:	dfc00517 	ldw	ra,20(sp)
   236c8:	dd000417 	ldw	r20,16(sp)
   236cc:	dcc00317 	ldw	r19,12(sp)
   236d0:	dc800217 	ldw	r18,8(sp)
   236d4:	dc400117 	ldw	r17,4(sp)
   236d8:	dc000017 	ldw	r16,0(sp)
   236dc:	dec00604 	addi	sp,sp,24
   236e0:	f800283a 	ret
   236e4:	8000020e 	bge	r16,zero,236f0 <strtof_l+0x118>
   236e8:	04fff034 	movhi	r19,65472
   236ec:	003ff406 	br	236c0 <strtof_l+0xe8>
   236f0:	04dff034 	movhi	r19,32704
   236f4:	003ff206 	br	236c0 <strtof_l+0xe8>

000236f8 <strtof>:
   236f8:	00c000f4 	movhi	r3,3
   236fc:	2005883a 	mov	r2,r4
   23700:	1908a617 	ldw	r4,8856(r3)
   23704:	01c000f4 	movhi	r7,3
   23708:	defff904 	addi	sp,sp,-28
   2370c:	280d883a 	mov	r6,r5
   23710:	39c3b904 	addi	r7,r7,3812
   23714:	100b883a 	mov	r5,r2
   23718:	dc400115 	stw	r17,4(sp)
   2371c:	dc000015 	stw	r16,0(sp)
   23720:	dfc00615 	stw	ra,24(sp)
   23724:	dd400515 	stw	r21,20(sp)
   23728:	dd000415 	stw	r20,16(sp)
   2372c:	dcc00315 	stw	r19,12(sp)
   23730:	dc800215 	stw	r18,8(sp)
   23734:	00220040 	call	22004 <_strtod_l>
   23738:	100d883a 	mov	r6,r2
   2373c:	180f883a 	mov	r7,r3
   23740:	1009883a 	mov	r4,r2
   23744:	180b883a 	mov	r5,r3
   23748:	1021883a 	mov	r16,r2
   2374c:	1823883a 	mov	r17,r3
   23750:	002cc400 	call	2cc40 <__unorddf2>
   23754:	10003a1e 	bne	r2,zero,23840 <strtof+0x148>
   23758:	8009883a 	mov	r4,r16
   2375c:	880b883a 	mov	r5,r17
   23760:	04a00034 	movhi	r18,32768
   23764:	002cde00 	call	2cde0 <__truncdfsf2>
   23768:	94bfffc4 	addi	r18,r18,-1
   2376c:	90a8703a 	and	r20,r18,r2
   23770:	015fe034 	movhi	r5,32640
   23774:	297fffc4 	addi	r5,r5,-1
   23778:	a009883a 	mov	r4,r20
   2377c:	1027883a 	mov	r19,r2
   23780:	002a60c0 	call	2a60c <__unordsf2>
   23784:	982b883a 	mov	r21,r19
   23788:	1000221e 	bne	r2,zero,23814 <strtof+0x11c>
   2378c:	015fe034 	movhi	r5,32640
   23790:	297fffc4 	addi	r5,r5,-1
   23794:	a009883a 	mov	r4,r20
   23798:	002a54c0 	call	2a54c <__lesf2>
   2379c:	00801d0e 	bge	zero,r2,23814 <strtof+0x11c>
   237a0:	8ca4703a 	and	r18,r17,r18
   237a4:	01dffc34 	movhi	r7,32752
   237a8:	01bfffc4 	movi	r6,-1
   237ac:	39ffffc4 	addi	r7,r7,-1
   237b0:	8009883a 	mov	r4,r16
   237b4:	900b883a 	mov	r5,r18
   237b8:	002cc400 	call	2cc40 <__unorddf2>
   237bc:	1000071e 	bne	r2,zero,237dc <strtof+0xe4>
   237c0:	01dffc34 	movhi	r7,32752
   237c4:	01bfffc4 	movi	r6,-1
   237c8:	39ffffc4 	addi	r7,r7,-1
   237cc:	8009883a 	mov	r4,r16
   237d0:	900b883a 	mov	r5,r18
   237d4:	002ba740 	call	2ba74 <__ledf2>
   237d8:	00800e16 	blt	zero,r2,23814 <strtof+0x11c>
   237dc:	008000f4 	movhi	r2,3
   237e0:	1088a617 	ldw	r2,8856(r2)
   237e4:	00c00884 	movi	r3,34
   237e8:	10c00015 	stw	r3,0(r2)
   237ec:	a805883a 	mov	r2,r21
   237f0:	dfc00617 	ldw	ra,24(sp)
   237f4:	dd400517 	ldw	r21,20(sp)
   237f8:	dd000417 	ldw	r20,16(sp)
   237fc:	dcc00317 	ldw	r19,12(sp)
   23800:	dc800217 	ldw	r18,8(sp)
   23804:	dc400117 	ldw	r17,4(sp)
   23808:	dc000017 	ldw	r16,0(sp)
   2380c:	dec00704 	addi	sp,sp,28
   23810:	f800283a 	ret
   23814:	000b883a 	mov	r5,zero
   23818:	9809883a 	mov	r4,r19
   2381c:	002a4d40 	call	2a4d4 <__eqsf2>
   23820:	103ff21e 	bne	r2,zero,237ec <strtof+0xf4>
   23824:	000d883a 	mov	r6,zero
   23828:	000f883a 	mov	r7,zero
   2382c:	8009883a 	mov	r4,r16
   23830:	880b883a 	mov	r5,r17
   23834:	002b9040 	call	2b904 <__eqdf2>
   23838:	103fec26 	beq	r2,zero,237ec <strtof+0xf4>
   2383c:	003fe706 	br	237dc <strtof+0xe4>
   23840:	8800020e 	bge	r17,zero,2384c <strtof+0x154>
   23844:	057ff034 	movhi	r21,65472
   23848:	003fe806 	br	237ec <strtof+0xf4>
   2384c:	055ff034 	movhi	r21,32704
   23850:	003fe606 	br	237ec <strtof+0xf4>

00023854 <_write_r>:
   23854:	2807883a 	mov	r3,r5
   23858:	defffe04 	addi	sp,sp,-8
   2385c:	dc000015 	stw	r16,0(sp)
   23860:	300b883a 	mov	r5,r6
   23864:	008000f4 	movhi	r2,3
   23868:	380d883a 	mov	r6,r7
   2386c:	2021883a 	mov	r16,r4
   23870:	1809883a 	mov	r4,r3
   23874:	dfc00115 	stw	ra,4(sp)
   23878:	100fc615 	stw	zero,16152(r2)
   2387c:	002e0540 	call	2e054 <write>
   23880:	10ffffd8 	cmpnei	r3,r2,-1
   23884:	18000426 	beq	r3,zero,23898 <_write_r+0x44>
   23888:	dfc00117 	ldw	ra,4(sp)
   2388c:	dc000017 	ldw	r16,0(sp)
   23890:	dec00204 	addi	sp,sp,8
   23894:	f800283a 	ret
   23898:	00c000f4 	movhi	r3,3
   2389c:	18cfc617 	ldw	r3,16152(r3)
   238a0:	183ff926 	beq	r3,zero,23888 <_write_r+0x34>
   238a4:	80c00015 	stw	r3,0(r16)
   238a8:	dfc00117 	ldw	ra,4(sp)
   238ac:	dc000017 	ldw	r16,0(sp)
   238b0:	dec00204 	addi	sp,sp,8
   238b4:	f800283a 	ret

000238b8 <_close_r>:
   238b8:	defffe04 	addi	sp,sp,-8
   238bc:	dc000015 	stw	r16,0(sp)
   238c0:	008000f4 	movhi	r2,3
   238c4:	2021883a 	mov	r16,r4
   238c8:	2809883a 	mov	r4,r5
   238cc:	dfc00115 	stw	ra,4(sp)
   238d0:	100fc615 	stw	zero,16152(r2)
   238d4:	002cfe00 	call	2cfe0 <close>
   238d8:	10ffffd8 	cmpnei	r3,r2,-1
   238dc:	18000426 	beq	r3,zero,238f0 <_close_r+0x38>
   238e0:	dfc00117 	ldw	ra,4(sp)
   238e4:	dc000017 	ldw	r16,0(sp)
   238e8:	dec00204 	addi	sp,sp,8
   238ec:	f800283a 	ret
   238f0:	00c000f4 	movhi	r3,3
   238f4:	18cfc617 	ldw	r3,16152(r3)
   238f8:	183ff926 	beq	r3,zero,238e0 <_close_r+0x28>
   238fc:	80c00015 	stw	r3,0(r16)
   23900:	dfc00117 	ldw	ra,4(sp)
   23904:	dc000017 	ldw	r16,0(sp)
   23908:	dec00204 	addi	sp,sp,8
   2390c:	f800283a 	ret

00023910 <__sflush_r>:
   23910:	2880030b 	ldhu	r2,12(r5)
   23914:	defffb04 	addi	sp,sp,-20
   23918:	dcc00315 	stw	r19,12(sp)
   2391c:	dc000015 	stw	r16,0(sp)
   23920:	dfc00415 	stw	ra,16(sp)
   23924:	dc800215 	stw	r18,8(sp)
   23928:	dc400115 	stw	r17,4(sp)
   2392c:	10c0020c 	andi	r3,r2,8
   23930:	2821883a 	mov	r16,r5
   23934:	2027883a 	mov	r19,r4
   23938:	18003f1e 	bne	r3,zero,23a38 <__sflush_r+0x128>
   2393c:	28c00117 	ldw	r3,4(r5)
   23940:	10820014 	ori	r2,r2,2048
   23944:	2880030d 	sth	r2,12(r5)
   23948:	00c0550e 	bge	zero,r3,23aa0 <__sflush_r+0x190>
   2394c:	82000a17 	ldw	r8,40(r16)
   23950:	40003126 	beq	r8,zero,23a18 <__sflush_r+0x108>
   23954:	9c400017 	ldw	r17,0(r19)
   23958:	1104000c 	andi	r4,r2,4096
   2395c:	98000015 	stw	zero,0(r19)
   23960:	81400717 	ldw	r5,28(r16)
   23964:	1007883a 	mov	r3,r2
   23968:	2000521e 	bne	r4,zero,23ab4 <__sflush_r+0x1a4>
   2396c:	01c00044 	movi	r7,1
   23970:	000d883a 	mov	r6,zero
   23974:	9809883a 	mov	r4,r19
   23978:	403ee83a 	callr	r8
   2397c:	10ffffd8 	cmpnei	r3,r2,-1
   23980:	18005826 	beq	r3,zero,23ae4 <__sflush_r+0x1d4>
   23984:	80c0030b 	ldhu	r3,12(r16)
   23988:	82000a17 	ldw	r8,40(r16)
   2398c:	81400717 	ldw	r5,28(r16)
   23990:	18c0010c 	andi	r3,r3,4
   23994:	18000626 	beq	r3,zero,239b0 <__sflush_r+0xa0>
   23998:	81000117 	ldw	r4,4(r16)
   2399c:	80c00c17 	ldw	r3,48(r16)
   239a0:	1105c83a 	sub	r2,r2,r4
   239a4:	18000226 	beq	r3,zero,239b0 <__sflush_r+0xa0>
   239a8:	80c00f17 	ldw	r3,60(r16)
   239ac:	10c5c83a 	sub	r2,r2,r3
   239b0:	100d883a 	mov	r6,r2
   239b4:	000f883a 	mov	r7,zero
   239b8:	9809883a 	mov	r4,r19
   239bc:	403ee83a 	callr	r8
   239c0:	10ffffd8 	cmpnei	r3,r2,-1
   239c4:	18003d1e 	bne	r3,zero,23abc <__sflush_r+0x1ac>
   239c8:	99000017 	ldw	r4,0(r19)
   239cc:	80c0030b 	ldhu	r3,12(r16)
   239d0:	20004e26 	beq	r4,zero,23b0c <__sflush_r+0x1fc>
   239d4:	21400760 	cmpeqi	r5,r4,29
   239d8:	2800021e 	bne	r5,zero,239e4 <__sflush_r+0xd4>
   239dc:	210005a0 	cmpeqi	r4,r4,22
   239e0:	20002c26 	beq	r4,zero,23a94 <__sflush_r+0x184>
   239e4:	80800417 	ldw	r2,16(r16)
   239e8:	18fdffcc 	andi	r3,r3,63487
   239ec:	80c0030d 	sth	r3,12(r16)
   239f0:	80000115 	stw	zero,4(r16)
   239f4:	80800015 	stw	r2,0(r16)
   239f8:	81400c17 	ldw	r5,48(r16)
   239fc:	9c400015 	stw	r17,0(r19)
   23a00:	28000526 	beq	r5,zero,23a18 <__sflush_r+0x108>
   23a04:	80801004 	addi	r2,r16,64
   23a08:	28800226 	beq	r5,r2,23a14 <__sflush_r+0x104>
   23a0c:	9809883a 	mov	r4,r19
   23a10:	00240e80 	call	240e8 <_free_r>
   23a14:	80000c15 	stw	zero,48(r16)
   23a18:	0005883a 	mov	r2,zero
   23a1c:	dfc00417 	ldw	ra,16(sp)
   23a20:	dcc00317 	ldw	r19,12(sp)
   23a24:	dc800217 	ldw	r18,8(sp)
   23a28:	dc400117 	ldw	r17,4(sp)
   23a2c:	dc000017 	ldw	r16,0(sp)
   23a30:	dec00504 	addi	sp,sp,20
   23a34:	f800283a 	ret
   23a38:	2c800417 	ldw	r18,16(r5)
   23a3c:	903ff626 	beq	r18,zero,23a18 <__sflush_r+0x108>
   23a40:	2c400017 	ldw	r17,0(r5)
   23a44:	108000cc 	andi	r2,r2,3
   23a48:	2c800015 	stw	r18,0(r5)
   23a4c:	8ca3c83a 	sub	r17,r17,r18
   23a50:	1000161e 	bne	r2,zero,23aac <__sflush_r+0x19c>
   23a54:	28800517 	ldw	r2,20(r5)
   23a58:	80800215 	stw	r2,8(r16)
   23a5c:	04400316 	blt	zero,r17,23a6c <__sflush_r+0x15c>
   23a60:	003fed06 	br	23a18 <__sflush_r+0x108>
   23a64:	90a5883a 	add	r18,r18,r2
   23a68:	047feb0e 	bge	zero,r17,23a18 <__sflush_r+0x108>
   23a6c:	80800917 	ldw	r2,36(r16)
   23a70:	81400717 	ldw	r5,28(r16)
   23a74:	880f883a 	mov	r7,r17
   23a78:	900d883a 	mov	r6,r18
   23a7c:	9809883a 	mov	r4,r19
   23a80:	103ee83a 	callr	r2
   23a84:	88a3c83a 	sub	r17,r17,r2
   23a88:	00bff616 	blt	zero,r2,23a64 <__sflush_r+0x154>
   23a8c:	80c0030b 	ldhu	r3,12(r16)
   23a90:	00bfffc4 	movi	r2,-1
   23a94:	18c01014 	ori	r3,r3,64
   23a98:	80c0030d 	sth	r3,12(r16)
   23a9c:	003fdf06 	br	23a1c <__sflush_r+0x10c>
   23aa0:	28c00f17 	ldw	r3,60(r5)
   23aa4:	00ffa916 	blt	zero,r3,2394c <__sflush_r+0x3c>
   23aa8:	003fdb06 	br	23a18 <__sflush_r+0x108>
   23aac:	0005883a 	mov	r2,zero
   23ab0:	003fe906 	br	23a58 <__sflush_r+0x148>
   23ab4:	80801417 	ldw	r2,80(r16)
   23ab8:	003fb506 	br	23990 <__sflush_r+0x80>
   23abc:	80c0030b 	ldhu	r3,12(r16)
   23ac0:	81000417 	ldw	r4,16(r16)
   23ac4:	80000115 	stw	zero,4(r16)
   23ac8:	197dffcc 	andi	r5,r3,63487
   23acc:	8140030d 	sth	r5,12(r16)
   23ad0:	81000015 	stw	r4,0(r16)
   23ad4:	18c4000c 	andi	r3,r3,4096
   23ad8:	183fc726 	beq	r3,zero,239f8 <__sflush_r+0xe8>
   23adc:	80801415 	stw	r2,80(r16)
   23ae0:	003fc506 	br	239f8 <__sflush_r+0xe8>
   23ae4:	98c00017 	ldw	r3,0(r19)
   23ae8:	183fa626 	beq	r3,zero,23984 <__sflush_r+0x74>
   23aec:	19000760 	cmpeqi	r4,r3,29
   23af0:	20000e1e 	bne	r4,zero,23b2c <__sflush_r+0x21c>
   23af4:	18c00598 	cmpnei	r3,r3,22
   23af8:	18000c26 	beq	r3,zero,23b2c <__sflush_r+0x21c>
   23afc:	80c0030b 	ldhu	r3,12(r16)
   23b00:	18c01014 	ori	r3,r3,64
   23b04:	80c0030d 	sth	r3,12(r16)
   23b08:	003fc406 	br	23a1c <__sflush_r+0x10c>
   23b0c:	81000417 	ldw	r4,16(r16)
   23b10:	197dffcc 	andi	r5,r3,63487
   23b14:	8140030d 	sth	r5,12(r16)
   23b18:	80000115 	stw	zero,4(r16)
   23b1c:	81000015 	stw	r4,0(r16)
   23b20:	18c4000c 	andi	r3,r3,4096
   23b24:	183fb426 	beq	r3,zero,239f8 <__sflush_r+0xe8>
   23b28:	003fec06 	br	23adc <__sflush_r+0x1cc>
   23b2c:	9c400015 	stw	r17,0(r19)
   23b30:	0005883a 	mov	r2,zero
   23b34:	003fb906 	br	23a1c <__sflush_r+0x10c>

00023b38 <_fflush_r>:
   23b38:	defffd04 	addi	sp,sp,-12
   23b3c:	dc000115 	stw	r16,4(sp)
   23b40:	dfc00215 	stw	ra,8(sp)
   23b44:	2021883a 	mov	r16,r4
   23b48:	20000226 	beq	r4,zero,23b54 <_fflush_r+0x1c>
   23b4c:	20800e17 	ldw	r2,56(r4)
   23b50:	10000726 	beq	r2,zero,23b70 <_fflush_r+0x38>
   23b54:	2880030f 	ldh	r2,12(r5)
   23b58:	10000a1e 	bne	r2,zero,23b84 <_fflush_r+0x4c>
   23b5c:	0005883a 	mov	r2,zero
   23b60:	dfc00217 	ldw	ra,8(sp)
   23b64:	dc000117 	ldw	r16,4(sp)
   23b68:	dec00304 	addi	sp,sp,12
   23b6c:	f800283a 	ret
   23b70:	d9400015 	stw	r5,0(sp)
   23b74:	0023ecc0 	call	23ecc <__sinit>
   23b78:	d9400017 	ldw	r5,0(sp)
   23b7c:	2880030f 	ldh	r2,12(r5)
   23b80:	103ff626 	beq	r2,zero,23b5c <_fflush_r+0x24>
   23b84:	8009883a 	mov	r4,r16
   23b88:	dfc00217 	ldw	ra,8(sp)
   23b8c:	dc000117 	ldw	r16,4(sp)
   23b90:	dec00304 	addi	sp,sp,12
   23b94:	00239101 	jmpi	23910 <__sflush_r>

00023b98 <fflush>:
   23b98:	200b883a 	mov	r5,r4
   23b9c:	20000326 	beq	r4,zero,23bac <fflush+0x14>
   23ba0:	008000f4 	movhi	r2,3
   23ba4:	1108a617 	ldw	r4,8856(r2)
   23ba8:	0023b381 	jmpi	23b38 <_fflush_r>
   23bac:	008000f4 	movhi	r2,3
   23bb0:	1108a517 	ldw	r4,8852(r2)
   23bb4:	014000b4 	movhi	r5,2
   23bb8:	294ece04 	addi	r5,r5,15160
   23bbc:	002447c1 	jmpi	2447c <_fwalk_reent>

00023bc0 <__fp_lock>:
   23bc0:	0005883a 	mov	r2,zero
   23bc4:	f800283a 	ret

00023bc8 <_cleanup_r>:
   23bc8:	014000b4 	movhi	r5,2
   23bcc:	295a7004 	addi	r5,r5,27072
   23bd0:	002447c1 	jmpi	2447c <_fwalk_reent>

00023bd4 <__sinit.part.0>:
   23bd4:	00c000b4 	movhi	r3,2
   23bd8:	20800117 	ldw	r2,4(r4)
   23bdc:	18cef204 	addi	r3,r3,15304
   23be0:	20c00f15 	stw	r3,60(r4)
   23be4:	2140bb04 	addi	r5,r4,748
   23be8:	00c000c4 	movi	r3,3
   23bec:	20c0b915 	stw	r3,740(r4)
   23bf0:	2140ba15 	stw	r5,744(r4)
   23bf4:	2000b815 	stw	zero,736(r4)
   23bf8:	10001705 	stb	zero,92(r2)
   23bfc:	10001745 	stb	zero,93(r2)
   23c00:	10001785 	stb	zero,94(r2)
   23c04:	100017c5 	stb	zero,95(r2)
   23c08:	10001805 	stb	zero,96(r2)
   23c0c:	10001845 	stb	zero,97(r2)
   23c10:	10001885 	stb	zero,98(r2)
   23c14:	100018c5 	stb	zero,99(r2)
   23c18:	00c00104 	movi	r3,4
   23c1c:	10c00315 	stw	r3,12(r2)
   23c20:	020000b4 	movhi	r8,2
   23c24:	20c00217 	ldw	r3,8(r4)
   23c28:	01c000b4 	movhi	r7,2
   23c2c:	018000b4 	movhi	r6,2
   23c30:	014000b4 	movhi	r5,2
   23c34:	42079804 	addi	r8,r8,7776
   23c38:	39c7af04 	addi	r7,r7,7868
   23c3c:	3187cf04 	addi	r6,r6,7996
   23c40:	2947e604 	addi	r5,r5,8088
   23c44:	02400074 	movhi	r9,1
   23c48:	10001915 	stw	zero,100(r2)
   23c4c:	10000015 	stw	zero,0(r2)
   23c50:	10000115 	stw	zero,4(r2)
   23c54:	10000215 	stw	zero,8(r2)
   23c58:	10000415 	stw	zero,16(r2)
   23c5c:	10000515 	stw	zero,20(r2)
   23c60:	10000615 	stw	zero,24(r2)
   23c64:	10800715 	stw	r2,28(r2)
   23c68:	12000815 	stw	r8,32(r2)
   23c6c:	11c00915 	stw	r7,36(r2)
   23c70:	11800a15 	stw	r6,40(r2)
   23c74:	11400b15 	stw	r5,44(r2)
   23c78:	4a400284 	addi	r9,r9,10
   23c7c:	1a400315 	stw	r9,12(r3)
   23c80:	18001915 	stw	zero,100(r3)
   23c84:	18000015 	stw	zero,0(r3)
   23c88:	18000115 	stw	zero,4(r3)
   23c8c:	18000215 	stw	zero,8(r3)
   23c90:	18000415 	stw	zero,16(r3)
   23c94:	18001705 	stb	zero,92(r3)
   23c98:	18001745 	stb	zero,93(r3)
   23c9c:	18001785 	stb	zero,94(r3)
   23ca0:	180017c5 	stb	zero,95(r3)
   23ca4:	18001805 	stb	zero,96(r3)
   23ca8:	18001845 	stb	zero,97(r3)
   23cac:	18001885 	stb	zero,98(r3)
   23cb0:	180018c5 	stb	zero,99(r3)
   23cb4:	20800317 	ldw	r2,12(r4)
   23cb8:	024000b4 	movhi	r9,2
   23cbc:	18000515 	stw	zero,20(r3)
   23cc0:	18000615 	stw	zero,24(r3)
   23cc4:	18c00715 	stw	r3,28(r3)
   23cc8:	1a000815 	stw	r8,32(r3)
   23ccc:	19c00915 	stw	r7,36(r3)
   23cd0:	19800a15 	stw	r6,40(r3)
   23cd4:	19400b15 	stw	r5,44(r3)
   23cd8:	4a400484 	addi	r9,r9,18
   23cdc:	10001915 	stw	zero,100(r2)
   23ce0:	10000015 	stw	zero,0(r2)
   23ce4:	10000115 	stw	zero,4(r2)
   23ce8:	10000215 	stw	zero,8(r2)
   23cec:	12400315 	stw	r9,12(r2)
   23cf0:	10000415 	stw	zero,16(r2)
   23cf4:	10000515 	stw	zero,20(r2)
   23cf8:	10000615 	stw	zero,24(r2)
   23cfc:	10001705 	stb	zero,92(r2)
   23d00:	10001745 	stb	zero,93(r2)
   23d04:	10001785 	stb	zero,94(r2)
   23d08:	100017c5 	stb	zero,95(r2)
   23d0c:	10001805 	stb	zero,96(r2)
   23d10:	10001845 	stb	zero,97(r2)
   23d14:	10001885 	stb	zero,98(r2)
   23d18:	100018c5 	stb	zero,99(r2)
   23d1c:	10800715 	stw	r2,28(r2)
   23d20:	12000815 	stw	r8,32(r2)
   23d24:	11c00915 	stw	r7,36(r2)
   23d28:	11800a15 	stw	r6,40(r2)
   23d2c:	11400b15 	stw	r5,44(r2)
   23d30:	00800044 	movi	r2,1
   23d34:	20800e15 	stw	r2,56(r4)
   23d38:	f800283a 	ret

00023d3c <__fp_unlock>:
   23d3c:	0005883a 	mov	r2,zero
   23d40:	f800283a 	ret

00023d44 <__sfmoreglue>:
   23d44:	defffc04 	addi	sp,sp,-16
   23d48:	dc800215 	stw	r18,8(sp)
   23d4c:	2825883a 	mov	r18,r5
   23d50:	dc000015 	stw	r16,0(sp)
   23d54:	01401a04 	movi	r5,104
   23d58:	2021883a 	mov	r16,r4
   23d5c:	913fffc4 	addi	r4,r18,-1
   23d60:	dfc00315 	stw	ra,12(sp)
   23d64:	dc400115 	stw	r17,4(sp)
   23d68:	002a4ac0 	call	2a4ac <__mulsi3>
   23d6c:	8009883a 	mov	r4,r16
   23d70:	11401d04 	addi	r5,r2,116
   23d74:	1023883a 	mov	r17,r2
   23d78:	00213580 	call	21358 <_malloc_r>
   23d7c:	1021883a 	mov	r16,r2
   23d80:	10000726 	beq	r2,zero,23da0 <__sfmoreglue+0x5c>
   23d84:	11000304 	addi	r4,r2,12
   23d88:	10000015 	stw	zero,0(r2)
   23d8c:	14800115 	stw	r18,4(r2)
   23d90:	11000215 	stw	r4,8(r2)
   23d94:	89801a04 	addi	r6,r17,104
   23d98:	000b883a 	mov	r5,zero
   23d9c:	00253a80 	call	253a8 <memset>
   23da0:	8005883a 	mov	r2,r16
   23da4:	dfc00317 	ldw	ra,12(sp)
   23da8:	dc800217 	ldw	r18,8(sp)
   23dac:	dc400117 	ldw	r17,4(sp)
   23db0:	dc000017 	ldw	r16,0(sp)
   23db4:	dec00404 	addi	sp,sp,16
   23db8:	f800283a 	ret

00023dbc <__sfp>:
   23dbc:	defffd04 	addi	sp,sp,-12
   23dc0:	008000f4 	movhi	r2,3
   23dc4:	dc000015 	stw	r16,0(sp)
   23dc8:	1408a517 	ldw	r16,8852(r2)
   23dcc:	dc400115 	stw	r17,4(sp)
   23dd0:	dfc00215 	stw	ra,8(sp)
   23dd4:	80800e17 	ldw	r2,56(r16)
   23dd8:	2023883a 	mov	r17,r4
   23ddc:	10002b26 	beq	r2,zero,23e8c <__sfp+0xd0>
   23de0:	8400b804 	addi	r16,r16,736
   23de4:	80c00117 	ldw	r3,4(r16)
   23de8:	80800217 	ldw	r2,8(r16)
   23dec:	18ffffc4 	addi	r3,r3,-1
   23df0:	1800030e 	bge	r3,zero,23e00 <__sfp+0x44>
   23df4:	00002106 	br	23e7c <__sfp+0xc0>
   23df8:	10801a04 	addi	r2,r2,104
   23dfc:	30001f26 	beq	r6,zero,23e7c <__sfp+0xc0>
   23e00:	1140030f 	ldh	r5,12(r2)
   23e04:	18ffffc4 	addi	r3,r3,-1
   23e08:	19bfffd8 	cmpnei	r6,r3,-1
   23e0c:	283ffa1e 	bne	r5,zero,23df8 <__sfp+0x3c>
   23e10:	00fffff4 	movhi	r3,65535
   23e14:	18c00044 	addi	r3,r3,1
   23e18:	10001915 	stw	zero,100(r2)
   23e1c:	10000015 	stw	zero,0(r2)
   23e20:	10000115 	stw	zero,4(r2)
   23e24:	10000215 	stw	zero,8(r2)
   23e28:	10c00315 	stw	r3,12(r2)
   23e2c:	10000415 	stw	zero,16(r2)
   23e30:	10000515 	stw	zero,20(r2)
   23e34:	10000615 	stw	zero,24(r2)
   23e38:	10001705 	stb	zero,92(r2)
   23e3c:	10001745 	stb	zero,93(r2)
   23e40:	10001785 	stb	zero,94(r2)
   23e44:	100017c5 	stb	zero,95(r2)
   23e48:	10001805 	stb	zero,96(r2)
   23e4c:	10001845 	stb	zero,97(r2)
   23e50:	10001885 	stb	zero,98(r2)
   23e54:	100018c5 	stb	zero,99(r2)
   23e58:	10000c15 	stw	zero,48(r2)
   23e5c:	10000d15 	stw	zero,52(r2)
   23e60:	10001115 	stw	zero,68(r2)
   23e64:	10001215 	stw	zero,72(r2)
   23e68:	dfc00217 	ldw	ra,8(sp)
   23e6c:	dc400117 	ldw	r17,4(sp)
   23e70:	dc000017 	ldw	r16,0(sp)
   23e74:	dec00304 	addi	sp,sp,12
   23e78:	f800283a 	ret
   23e7c:	80800017 	ldw	r2,0(r16)
   23e80:	10000526 	beq	r2,zero,23e98 <__sfp+0xdc>
   23e84:	1021883a 	mov	r16,r2
   23e88:	003fd606 	br	23de4 <__sfp+0x28>
   23e8c:	8009883a 	mov	r4,r16
   23e90:	0023bd40 	call	23bd4 <__sinit.part.0>
   23e94:	003fd206 	br	23de0 <__sfp+0x24>
   23e98:	01400104 	movi	r5,4
   23e9c:	8809883a 	mov	r4,r17
   23ea0:	0023d440 	call	23d44 <__sfmoreglue>
   23ea4:	80800015 	stw	r2,0(r16)
   23ea8:	103ff61e 	bne	r2,zero,23e84 <__sfp+0xc8>
   23eac:	00c00304 	movi	r3,12
   23eb0:	88c00015 	stw	r3,0(r17)
   23eb4:	003fec06 	br	23e68 <__sfp+0xac>

00023eb8 <_cleanup>:
   23eb8:	008000f4 	movhi	r2,3
   23ebc:	1108a517 	ldw	r4,8852(r2)
   23ec0:	014000b4 	movhi	r5,2
   23ec4:	295a7004 	addi	r5,r5,27072
   23ec8:	002447c1 	jmpi	2447c <_fwalk_reent>

00023ecc <__sinit>:
   23ecc:	20800e17 	ldw	r2,56(r4)
   23ed0:	10000126 	beq	r2,zero,23ed8 <__sinit+0xc>
   23ed4:	f800283a 	ret
   23ed8:	0023bd41 	jmpi	23bd4 <__sinit.part.0>

00023edc <__sfp_lock_acquire>:
   23edc:	f800283a 	ret

00023ee0 <__sfp_lock_release>:
   23ee0:	f800283a 	ret

00023ee4 <__sinit_lock_acquire>:
   23ee4:	f800283a 	ret

00023ee8 <__sinit_lock_release>:
   23ee8:	f800283a 	ret

00023eec <__fp_lock_all>:
   23eec:	008000f4 	movhi	r2,3
   23ef0:	1108a617 	ldw	r4,8856(r2)
   23ef4:	014000b4 	movhi	r5,2
   23ef8:	294ef004 	addi	r5,r5,15296
   23efc:	00243e41 	jmpi	243e4 <_fwalk>

00023f00 <__fp_unlock_all>:
   23f00:	008000f4 	movhi	r2,3
   23f04:	1108a617 	ldw	r4,8856(r2)
   23f08:	014000b4 	movhi	r5,2
   23f0c:	294f4f04 	addi	r5,r5,15676
   23f10:	00243e41 	jmpi	243e4 <_fwalk>

00023f14 <__sflags>:
   23f14:	28800007 	ldb	r2,0(r5)
   23f18:	10c01ca0 	cmpeqi	r3,r2,114
   23f1c:	1800271e 	bne	r3,zero,23fbc <__sflags+0xa8>
   23f20:	10c01de0 	cmpeqi	r3,r2,119
   23f24:	1800061e 	bne	r3,zero,23f40 <__sflags+0x2c>
   23f28:	10801860 	cmpeqi	r2,r2,97
   23f2c:	10001f1e 	bne	r2,zero,23fac <__sflags+0x98>
   23f30:	00800584 	movi	r2,22
   23f34:	20800015 	stw	r2,0(r4)
   23f38:	0005883a 	mov	r2,zero
   23f3c:	f800283a 	ret
   23f40:	02018004 	movi	r8,1536
   23f44:	01000044 	movi	r4,1
   23f48:	00800204 	movi	r2,8
   23f4c:	28c00047 	ldb	r3,1(r5)
   23f50:	29400044 	addi	r5,r5,1
   23f54:	18001226 	beq	r3,zero,23fa0 <__sflags+0x8c>
   23f58:	02bff8c4 	movi	r10,-29
   23f5c:	027fff04 	movi	r9,-4
   23f60:	00000506 	br	23f78 <__sflags+0x64>
   23f64:	18000126 	beq	r3,zero,23f6c <__sflags+0x58>
   23f68:	21020014 	ori	r4,r4,2048
   23f6c:	28c00047 	ldb	r3,1(r5)
   23f70:	29400044 	addi	r5,r5,1
   23f74:	18000a26 	beq	r3,zero,23fa0 <__sflags+0x8c>
   23f78:	19c00ae0 	cmpeqi	r7,r3,43
   23f7c:	18c01e20 	cmpeqi	r3,r3,120
   23f80:	383ff826 	beq	r7,zero,23f64 <__sflags+0x50>
   23f84:	28c00047 	ldb	r3,1(r5)
   23f88:	1284703a 	and	r2,r2,r10
   23f8c:	2248703a 	and	r4,r4,r9
   23f90:	10800414 	ori	r2,r2,16
   23f94:	21000094 	ori	r4,r4,2
   23f98:	29400044 	addi	r5,r5,1
   23f9c:	183ff61e 	bne	r3,zero,23f78 <__sflags+0x64>
   23fa0:	4108b03a 	or	r4,r8,r4
   23fa4:	31000015 	stw	r4,0(r6)
   23fa8:	f800283a 	ret
   23fac:	02008204 	movi	r8,520
   23fb0:	01000044 	movi	r4,1
   23fb4:	00804204 	movi	r2,264
   23fb8:	003fe406 	br	23f4c <__sflags+0x38>
   23fbc:	0011883a 	mov	r8,zero
   23fc0:	0009883a 	mov	r4,zero
   23fc4:	00800104 	movi	r2,4
   23fc8:	003fe006 	br	23f4c <__sflags+0x38>

00023fcc <_malloc_trim_r>:
   23fcc:	defffb04 	addi	sp,sp,-20
   23fd0:	dcc00315 	stw	r19,12(sp)
   23fd4:	04c000f4 	movhi	r19,3
   23fd8:	dc800215 	stw	r18,8(sp)
   23fdc:	dc400115 	stw	r17,4(sp)
   23fe0:	dc000015 	stw	r16,0(sp)
   23fe4:	dfc00415 	stw	ra,16(sp)
   23fe8:	2821883a 	mov	r16,r5
   23fec:	9cc2b704 	addi	r19,r19,2780
   23ff0:	2025883a 	mov	r18,r4
   23ff4:	002d8900 	call	2d890 <__malloc_lock>
   23ff8:	98800217 	ldw	r2,8(r19)
   23ffc:	14400117 	ldw	r17,4(r2)
   24000:	00bfff04 	movi	r2,-4
   24004:	88a2703a 	and	r17,r17,r2
   24008:	8c21c83a 	sub	r16,r17,r16
   2400c:	8403fbc4 	addi	r16,r16,4079
   24010:	8020d33a 	srli	r16,r16,12
   24014:	843fffc4 	addi	r16,r16,-1
   24018:	8020933a 	slli	r16,r16,12
   2401c:	80840008 	cmpgei	r2,r16,4096
   24020:	10000626 	beq	r2,zero,2403c <_malloc_trim_r+0x70>
   24024:	000b883a 	mov	r5,zero
   24028:	9009883a 	mov	r4,r18
   2402c:	0021e080 	call	21e08 <_sbrk_r>
   24030:	98c00217 	ldw	r3,8(r19)
   24034:	1c47883a 	add	r3,r3,r17
   24038:	10c00a26 	beq	r2,r3,24064 <_malloc_trim_r+0x98>
   2403c:	9009883a 	mov	r4,r18
   24040:	002d8b40 	call	2d8b4 <__malloc_unlock>
   24044:	0005883a 	mov	r2,zero
   24048:	dfc00417 	ldw	ra,16(sp)
   2404c:	dcc00317 	ldw	r19,12(sp)
   24050:	dc800217 	ldw	r18,8(sp)
   24054:	dc400117 	ldw	r17,4(sp)
   24058:	dc000017 	ldw	r16,0(sp)
   2405c:	dec00504 	addi	sp,sp,20
   24060:	f800283a 	ret
   24064:	040bc83a 	sub	r5,zero,r16
   24068:	9009883a 	mov	r4,r18
   2406c:	0021e080 	call	21e08 <_sbrk_r>
   24070:	10bfffd8 	cmpnei	r2,r2,-1
   24074:	10000d26 	beq	r2,zero,240ac <_malloc_trim_r+0xe0>
   24078:	008000f4 	movhi	r2,3
   2407c:	108fd817 	ldw	r2,16224(r2)
   24080:	98c00217 	ldw	r3,8(r19)
   24084:	8c23c83a 	sub	r17,r17,r16
   24088:	8c400054 	ori	r17,r17,1
   2408c:	1421c83a 	sub	r16,r2,r16
   24090:	1c400115 	stw	r17,4(r3)
   24094:	008000f4 	movhi	r2,3
   24098:	9009883a 	mov	r4,r18
   2409c:	140fd815 	stw	r16,16224(r2)
   240a0:	002d8b40 	call	2d8b4 <__malloc_unlock>
   240a4:	00800044 	movi	r2,1
   240a8:	003fe706 	br	24048 <_malloc_trim_r+0x7c>
   240ac:	000b883a 	mov	r5,zero
   240b0:	9009883a 	mov	r4,r18
   240b4:	0021e080 	call	21e08 <_sbrk_r>
   240b8:	99000217 	ldw	r4,8(r19)
   240bc:	1107c83a 	sub	r3,r2,r4
   240c0:	19400410 	cmplti	r5,r3,16
   240c4:	283fdd1e 	bne	r5,zero,2403c <_malloc_trim_r+0x70>
   240c8:	014000f4 	movhi	r5,3
   240cc:	2948a717 	ldw	r5,8860(r5)
   240d0:	18c00054 	ori	r3,r3,1
   240d4:	20c00115 	stw	r3,4(r4)
   240d8:	1145c83a 	sub	r2,r2,r5
   240dc:	014000f4 	movhi	r5,3
   240e0:	288fd815 	stw	r2,16224(r5)
   240e4:	003fd506 	br	2403c <_malloc_trim_r+0x70>

000240e8 <_free_r>:
   240e8:	28004f26 	beq	r5,zero,24228 <_free_r+0x140>
   240ec:	defffd04 	addi	sp,sp,-12
   240f0:	dc400115 	stw	r17,4(sp)
   240f4:	dc000015 	stw	r16,0(sp)
   240f8:	2023883a 	mov	r17,r4
   240fc:	2821883a 	mov	r16,r5
   24100:	dfc00215 	stw	ra,8(sp)
   24104:	002d8900 	call	2d890 <__malloc_lock>
   24108:	81ffff17 	ldw	r7,-4(r16)
   2410c:	00bfff84 	movi	r2,-2
   24110:	80fffe04 	addi	r3,r16,-8
   24114:	3884703a 	and	r2,r7,r2
   24118:	010000f4 	movhi	r4,3
   2411c:	188d883a 	add	r6,r3,r2
   24120:	2102b704 	addi	r4,r4,2780
   24124:	31400117 	ldw	r5,4(r6)
   24128:	22000217 	ldw	r8,8(r4)
   2412c:	027fff04 	movi	r9,-4
   24130:	2a4a703a 	and	r5,r5,r9
   24134:	41806426 	beq	r8,r6,242c8 <_free_r+0x1e0>
   24138:	31400115 	stw	r5,4(r6)
   2413c:	39c0004c 	andi	r7,r7,1
   24140:	3151883a 	add	r8,r6,r5
   24144:	3800281e 	bne	r7,zero,241e8 <_free_r+0x100>
   24148:	82bffe17 	ldw	r10,-8(r16)
   2414c:	42000117 	ldw	r8,4(r8)
   24150:	01c000f4 	movhi	r7,3
   24154:	1a87c83a 	sub	r3,r3,r10
   24158:	1a400217 	ldw	r9,8(r3)
   2415c:	39c2b904 	addi	r7,r7,2788
   24160:	1285883a 	add	r2,r2,r10
   24164:	4200004c 	andi	r8,r8,1
   24168:	49c04c26 	beq	r9,r7,2429c <_free_r+0x1b4>
   2416c:	1a800317 	ldw	r10,12(r3)
   24170:	4a800315 	stw	r10,12(r9)
   24174:	52400215 	stw	r9,8(r10)
   24178:	40007126 	beq	r8,zero,24340 <_free_r+0x258>
   2417c:	11400054 	ori	r5,r2,1
   24180:	19400115 	stw	r5,4(r3)
   24184:	30800015 	stw	r2,0(r6)
   24188:	11408028 	cmpgeui	r5,r2,512
   2418c:	28002c1e 	bne	r5,zero,24240 <_free_r+0x158>
   24190:	100ad0fa 	srli	r5,r2,3
   24194:	100cd17a 	srli	r6,r2,5
   24198:	00800044 	movi	r2,1
   2419c:	29400044 	addi	r5,r5,1
   241a0:	280a90fa 	slli	r5,r5,3
   241a4:	21c00117 	ldw	r7,4(r4)
   241a8:	1184983a 	sll	r2,r2,r6
   241ac:	214b883a 	add	r5,r4,r5
   241b0:	29800017 	ldw	r6,0(r5)
   241b4:	11c4b03a 	or	r2,r2,r7
   241b8:	29fffe04 	addi	r7,r5,-8
   241bc:	19c00315 	stw	r7,12(r3)
   241c0:	19800215 	stw	r6,8(r3)
   241c4:	20800115 	stw	r2,4(r4)
   241c8:	28c00015 	stw	r3,0(r5)
   241cc:	30c00315 	stw	r3,12(r6)
   241d0:	8809883a 	mov	r4,r17
   241d4:	dfc00217 	ldw	ra,8(sp)
   241d8:	dc400117 	ldw	r17,4(sp)
   241dc:	dc000017 	ldw	r16,0(sp)
   241e0:	dec00304 	addi	sp,sp,12
   241e4:	002d8b41 	jmpi	2d8b4 <__malloc_unlock>
   241e8:	41c00117 	ldw	r7,4(r8)
   241ec:	39c0004c 	andi	r7,r7,1
   241f0:	38000e1e 	bne	r7,zero,2422c <_free_r+0x144>
   241f4:	01c000f4 	movhi	r7,3
   241f8:	1145883a 	add	r2,r2,r5
   241fc:	39c2b904 	addi	r7,r7,2788
   24200:	31400217 	ldw	r5,8(r6)
   24204:	12400054 	ori	r9,r2,1
   24208:	1891883a 	add	r8,r3,r2
   2420c:	29c05226 	beq	r5,r7,24358 <_free_r+0x270>
   24210:	31800317 	ldw	r6,12(r6)
   24214:	29800315 	stw	r6,12(r5)
   24218:	31400215 	stw	r5,8(r6)
   2421c:	1a400115 	stw	r9,4(r3)
   24220:	40800015 	stw	r2,0(r8)
   24224:	003fd806 	br	24188 <_free_r+0xa0>
   24228:	f800283a 	ret
   2422c:	11400054 	ori	r5,r2,1
   24230:	817fff15 	stw	r5,-4(r16)
   24234:	30800015 	stw	r2,0(r6)
   24238:	11408028 	cmpgeui	r5,r2,512
   2423c:	283fd426 	beq	r5,zero,24190 <_free_r+0xa8>
   24240:	100ad27a 	srli	r5,r2,9
   24244:	29800168 	cmpgeui	r6,r5,5
   24248:	3000341e 	bne	r6,zero,2431c <_free_r+0x234>
   2424c:	100ad1ba 	srli	r5,r2,6
   24250:	29800e44 	addi	r6,r5,57
   24254:	300c90fa 	slli	r6,r6,3
   24258:	29c00e04 	addi	r7,r5,56
   2425c:	218d883a 	add	r6,r4,r6
   24260:	31400017 	ldw	r5,0(r6)
   24264:	31bffe04 	addi	r6,r6,-8
   24268:	31404226 	beq	r6,r5,24374 <_free_r+0x28c>
   2426c:	01ffff04 	movi	r7,-4
   24270:	29000117 	ldw	r4,4(r5)
   24274:	21c8703a 	and	r4,r4,r7
   24278:	1100022e 	bgeu	r2,r4,24284 <_free_r+0x19c>
   2427c:	29400217 	ldw	r5,8(r5)
   24280:	317ffb1e 	bne	r6,r5,24270 <_free_r+0x188>
   24284:	29800317 	ldw	r6,12(r5)
   24288:	19800315 	stw	r6,12(r3)
   2428c:	19400215 	stw	r5,8(r3)
   24290:	30c00215 	stw	r3,8(r6)
   24294:	28c00315 	stw	r3,12(r5)
   24298:	003fcd06 	br	241d0 <_free_r+0xe8>
   2429c:	40004d1e 	bne	r8,zero,243d4 <_free_r+0x2ec>
   242a0:	31000317 	ldw	r4,12(r6)
   242a4:	31800217 	ldw	r6,8(r6)
   242a8:	2885883a 	add	r2,r5,r2
   242ac:	11400054 	ori	r5,r2,1
   242b0:	31000315 	stw	r4,12(r6)
   242b4:	21800215 	stw	r6,8(r4)
   242b8:	19400115 	stw	r5,4(r3)
   242bc:	1887883a 	add	r3,r3,r2
   242c0:	18800015 	stw	r2,0(r3)
   242c4:	003fc206 	br	241d0 <_free_r+0xe8>
   242c8:	39c0004c 	andi	r7,r7,1
   242cc:	1145883a 	add	r2,r2,r5
   242d0:	3800071e 	bne	r7,zero,242f0 <_free_r+0x208>
   242d4:	81fffe17 	ldw	r7,-8(r16)
   242d8:	19c7c83a 	sub	r3,r3,r7
   242dc:	19400317 	ldw	r5,12(r3)
   242e0:	19800217 	ldw	r6,8(r3)
   242e4:	11c5883a 	add	r2,r2,r7
   242e8:	31400315 	stw	r5,12(r6)
   242ec:	29800215 	stw	r6,8(r5)
   242f0:	014000f4 	movhi	r5,3
   242f4:	11800054 	ori	r6,r2,1
   242f8:	2948a817 	ldw	r5,8864(r5)
   242fc:	19800115 	stw	r6,4(r3)
   24300:	20c00215 	stw	r3,8(r4)
   24304:	117fb236 	bltu	r2,r5,241d0 <_free_r+0xe8>
   24308:	008000f4 	movhi	r2,3
   2430c:	114fc917 	ldw	r5,16164(r2)
   24310:	8809883a 	mov	r4,r17
   24314:	0023fcc0 	call	23fcc <_malloc_trim_r>
   24318:	003fad06 	br	241d0 <_free_r+0xe8>
   2431c:	29800568 	cmpgeui	r6,r5,21
   24320:	30000926 	beq	r6,zero,24348 <_free_r+0x260>
   24324:	29801568 	cmpgeui	r6,r5,85
   24328:	3000191e 	bne	r6,zero,24390 <_free_r+0x2a8>
   2432c:	100ad33a 	srli	r5,r2,12
   24330:	29801bc4 	addi	r6,r5,111
   24334:	300c90fa 	slli	r6,r6,3
   24338:	29c01b84 	addi	r7,r5,110
   2433c:	003fc706 	br	2425c <_free_r+0x174>
   24340:	1145883a 	add	r2,r2,r5
   24344:	003fae06 	br	24200 <_free_r+0x118>
   24348:	29801704 	addi	r6,r5,92
   2434c:	300c90fa 	slli	r6,r6,3
   24350:	29c016c4 	addi	r7,r5,91
   24354:	003fc106 	br	2425c <_free_r+0x174>
   24358:	20c00515 	stw	r3,20(r4)
   2435c:	20c00415 	stw	r3,16(r4)
   24360:	19c00315 	stw	r7,12(r3)
   24364:	19c00215 	stw	r7,8(r3)
   24368:	1a400115 	stw	r9,4(r3)
   2436c:	40800015 	stw	r2,0(r8)
   24370:	003f9706 	br	241d0 <_free_r+0xe8>
   24374:	380fd0ba 	srai	r7,r7,2
   24378:	00800044 	movi	r2,1
   2437c:	22000117 	ldw	r8,4(r4)
   24380:	11ce983a 	sll	r7,r2,r7
   24384:	3a0eb03a 	or	r7,r7,r8
   24388:	21c00115 	stw	r7,4(r4)
   2438c:	003fbe06 	br	24288 <_free_r+0x1a0>
   24390:	29805568 	cmpgeui	r6,r5,341
   24394:	3000051e 	bne	r6,zero,243ac <_free_r+0x2c4>
   24398:	100ad3fa 	srli	r5,r2,15
   2439c:	29801e04 	addi	r6,r5,120
   243a0:	300c90fa 	slli	r6,r6,3
   243a4:	29c01dc4 	addi	r7,r5,119
   243a8:	003fac06 	br	2425c <_free_r+0x174>
   243ac:	29415568 	cmpgeui	r5,r5,1365
   243b0:	2800051e 	bne	r5,zero,243c8 <_free_r+0x2e0>
   243b4:	100ad4ba 	srli	r5,r2,18
   243b8:	29801f44 	addi	r6,r5,125
   243bc:	300c90fa 	slli	r6,r6,3
   243c0:	29c01f04 	addi	r7,r5,124
   243c4:	003fa506 	br	2425c <_free_r+0x174>
   243c8:	0180fe04 	movi	r6,1016
   243cc:	01c01f84 	movi	r7,126
   243d0:	003fa206 	br	2425c <_free_r+0x174>
   243d4:	11000054 	ori	r4,r2,1
   243d8:	19000115 	stw	r4,4(r3)
   243dc:	30800015 	stw	r2,0(r6)
   243e0:	003f7b06 	br	241d0 <_free_r+0xe8>

000243e4 <_fwalk>:
   243e4:	defffa04 	addi	sp,sp,-24
   243e8:	dd000415 	stw	r20,16(sp)
   243ec:	dcc00315 	stw	r19,12(sp)
   243f0:	dc800215 	stw	r18,8(sp)
   243f4:	dfc00515 	stw	ra,20(sp)
   243f8:	dc400115 	stw	r17,4(sp)
   243fc:	dc000015 	stw	r16,0(sp)
   24400:	2827883a 	mov	r19,r5
   24404:	2480b804 	addi	r18,r4,736
   24408:	0029883a 	mov	r20,zero
   2440c:	94400117 	ldw	r17,4(r18)
   24410:	94000217 	ldw	r16,8(r18)
   24414:	8c7fffc4 	addi	r17,r17,-1
   24418:	88000d16 	blt	r17,zero,24450 <_fwalk+0x6c>
   2441c:	8080030b 	ldhu	r2,12(r16)
   24420:	8c7fffc4 	addi	r17,r17,-1
   24424:	108000b0 	cmpltui	r2,r2,2
   24428:	1000061e 	bne	r2,zero,24444 <_fwalk+0x60>
   2442c:	8080038f 	ldh	r2,14(r16)
   24430:	8009883a 	mov	r4,r16
   24434:	10bfffe0 	cmpeqi	r2,r2,-1
   24438:	1000021e 	bne	r2,zero,24444 <_fwalk+0x60>
   2443c:	983ee83a 	callr	r19
   24440:	a0a8b03a 	or	r20,r20,r2
   24444:	88bfffd8 	cmpnei	r2,r17,-1
   24448:	84001a04 	addi	r16,r16,104
   2444c:	103ff31e 	bne	r2,zero,2441c <_fwalk+0x38>
   24450:	94800017 	ldw	r18,0(r18)
   24454:	903fed1e 	bne	r18,zero,2440c <_fwalk+0x28>
   24458:	a005883a 	mov	r2,r20
   2445c:	dfc00517 	ldw	ra,20(sp)
   24460:	dd000417 	ldw	r20,16(sp)
   24464:	dcc00317 	ldw	r19,12(sp)
   24468:	dc800217 	ldw	r18,8(sp)
   2446c:	dc400117 	ldw	r17,4(sp)
   24470:	dc000017 	ldw	r16,0(sp)
   24474:	dec00604 	addi	sp,sp,24
   24478:	f800283a 	ret

0002447c <_fwalk_reent>:
   2447c:	defff904 	addi	sp,sp,-28
   24480:	dd400515 	stw	r21,20(sp)
   24484:	dd000415 	stw	r20,16(sp)
   24488:	dcc00315 	stw	r19,12(sp)
   2448c:	dc800215 	stw	r18,8(sp)
   24490:	dfc00615 	stw	ra,24(sp)
   24494:	dc400115 	stw	r17,4(sp)
   24498:	dc000015 	stw	r16,0(sp)
   2449c:	202b883a 	mov	r21,r4
   244a0:	2827883a 	mov	r19,r5
   244a4:	2480b804 	addi	r18,r4,736
   244a8:	0029883a 	mov	r20,zero
   244ac:	94400117 	ldw	r17,4(r18)
   244b0:	94000217 	ldw	r16,8(r18)
   244b4:	8c7fffc4 	addi	r17,r17,-1
   244b8:	88000e16 	blt	r17,zero,244f4 <_fwalk_reent+0x78>
   244bc:	8080030b 	ldhu	r2,12(r16)
   244c0:	8c7fffc4 	addi	r17,r17,-1
   244c4:	108000b0 	cmpltui	r2,r2,2
   244c8:	1000071e 	bne	r2,zero,244e8 <_fwalk_reent+0x6c>
   244cc:	8080038f 	ldh	r2,14(r16)
   244d0:	800b883a 	mov	r5,r16
   244d4:	a809883a 	mov	r4,r21
   244d8:	10bfffe0 	cmpeqi	r2,r2,-1
   244dc:	1000021e 	bne	r2,zero,244e8 <_fwalk_reent+0x6c>
   244e0:	983ee83a 	callr	r19
   244e4:	a0a8b03a 	or	r20,r20,r2
   244e8:	88bfffd8 	cmpnei	r2,r17,-1
   244ec:	84001a04 	addi	r16,r16,104
   244f0:	103ff21e 	bne	r2,zero,244bc <_fwalk_reent+0x40>
   244f4:	94800017 	ldw	r18,0(r18)
   244f8:	903fec1e 	bne	r18,zero,244ac <_fwalk_reent+0x30>
   244fc:	a005883a 	mov	r2,r20
   24500:	dfc00617 	ldw	ra,24(sp)
   24504:	dd400517 	ldw	r21,20(sp)
   24508:	dd000417 	ldw	r20,16(sp)
   2450c:	dcc00317 	ldw	r19,12(sp)
   24510:	dc800217 	ldw	r18,8(sp)
   24514:	dc400117 	ldw	r17,4(sp)
   24518:	dc000017 	ldw	r16,0(sp)
   2451c:	dec00704 	addi	sp,sp,28
   24520:	f800283a 	ret

00024524 <rshift>:
   24524:	2817d17a 	srai	r11,r5,5
   24528:	21c00417 	ldw	r7,16(r4)
   2452c:	59c0220e 	bge	r11,r7,245b8 <rshift+0x94>
   24530:	381090ba 	slli	r8,r7,2
   24534:	580490ba 	slli	r2,r11,2
   24538:	22400504 	addi	r9,r4,20
   2453c:	298007cc 	andi	r6,r5,31
   24540:	4a11883a 	add	r8,r9,r8
   24544:	4885883a 	add	r2,r9,r2
   24548:	30001e26 	beq	r6,zero,245c4 <rshift+0xa0>
   2454c:	10c00017 	ldw	r3,0(r2)
   24550:	03000804 	movi	r12,32
   24554:	10800104 	addi	r2,r2,4
   24558:	198ad83a 	srl	r5,r3,r6
   2455c:	6199c83a 	sub	r12,r12,r6
   24560:	1200122e 	bgeu	r2,r8,245ac <rshift+0x88>
   24564:	4815883a 	mov	r10,r9
   24568:	10c00017 	ldw	r3,0(r2)
   2456c:	52800104 	addi	r10,r10,4
   24570:	10800104 	addi	r2,r2,4
   24574:	1b06983a 	sll	r3,r3,r12
   24578:	1946b03a 	or	r3,r3,r5
   2457c:	50ffff15 	stw	r3,-4(r10)
   24580:	10ffff17 	ldw	r3,-4(r2)
   24584:	198ad83a 	srl	r5,r3,r6
   24588:	123ff736 	bltu	r2,r8,24568 <rshift+0x44>
   2458c:	3acfc83a 	sub	r7,r7,r11
   24590:	380e90ba 	slli	r7,r7,2
   24594:	39ffff04 	addi	r7,r7,-4
   24598:	49cf883a 	add	r7,r9,r7
   2459c:	39400015 	stw	r5,0(r7)
   245a0:	28001226 	beq	r5,zero,245ec <rshift+0xc8>
   245a4:	39c00104 	addi	r7,r7,4
   245a8:	00001006 	br	245ec <rshift+0xc8>
   245ac:	21400515 	stw	r5,20(r4)
   245b0:	480f883a 	mov	r7,r9
   245b4:	283ffb1e 	bne	r5,zero,245a4 <rshift+0x80>
   245b8:	20000415 	stw	zero,16(r4)
   245bc:	20000515 	stw	zero,20(r4)
   245c0:	f800283a 	ret
   245c4:	4807883a 	mov	r3,r9
   245c8:	123ffb2e 	bgeu	r2,r8,245b8 <rshift+0x94>
   245cc:	11400017 	ldw	r5,0(r2)
   245d0:	10800104 	addi	r2,r2,4
   245d4:	18c00104 	addi	r3,r3,4
   245d8:	197fff15 	stw	r5,-4(r3)
   245dc:	123ffb36 	bltu	r2,r8,245cc <rshift+0xa8>
   245e0:	3acfc83a 	sub	r7,r7,r11
   245e4:	380e90ba 	slli	r7,r7,2
   245e8:	49cf883a 	add	r7,r9,r7
   245ec:	3a45c83a 	sub	r2,r7,r9
   245f0:	1005d0ba 	srai	r2,r2,2
   245f4:	20800415 	stw	r2,16(r4)
   245f8:	3a7ff026 	beq	r7,r9,245bc <rshift+0x98>
   245fc:	f800283a 	ret

00024600 <__gethex>:
   24600:	deffec04 	addi	sp,sp,-80
   24604:	008000f4 	movhi	r2,3
   24608:	dc800c15 	stw	r18,48(sp)
   2460c:	14803017 	ldw	r18,192(r2)
   24610:	dd000e15 	stw	r20,56(sp)
   24614:	2029883a 	mov	r20,r4
   24618:	9009883a 	mov	r4,r18
   2461c:	dd801015 	stw	r22,64(sp)
   24620:	dd400f15 	stw	r21,60(sp)
   24624:	dc400b15 	stw	r17,44(sp)
   24628:	282d883a 	mov	r22,r5
   2462c:	d9c00915 	stw	r7,36(sp)
   24630:	dfc01315 	stw	ra,76(sp)
   24634:	df001215 	stw	fp,72(sp)
   24638:	ddc01115 	stw	r23,68(sp)
   2463c:	dcc00d15 	stw	r19,52(sp)
   24640:	dc000a15 	stw	r16,40(sp)
   24644:	dd000015 	stw	r20,0(sp)
   24648:	3023883a 	mov	r17,r6
   2464c:	00266ec0 	call	266ec <strlen>
   24650:	b1c00017 	ldw	r7,0(r22)
   24654:	9089883a 	add	r4,r18,r2
   24658:	213fffc3 	ldbu	r4,-1(r4)
   2465c:	102b883a 	mov	r21,r2
   24660:	38800083 	ldbu	r2,2(r7)
   24664:	d9000205 	stb	r4,8(sp)
   24668:	10c00c18 	cmpnei	r3,r2,48
   2466c:	1801661e 	bne	r3,zero,24c08 <__gethex+0x608>
   24670:	017fff84 	movi	r5,-2
   24674:	38c000c4 	addi	r3,r7,3
   24678:	29cbc83a 	sub	r5,r5,r7
   2467c:	18800003 	ldbu	r2,0(r3)
   24680:	28ef883a 	add	r23,r5,r3
   24684:	1829883a 	mov	r20,r3
   24688:	11000c20 	cmpeqi	r4,r2,48
   2468c:	18c00044 	addi	r3,r3,1
   24690:	203ffa1e 	bne	r4,zero,2467c <__gethex+0x7c>
   24694:	00c000f4 	movhi	r3,3
   24698:	10c7883a 	add	r3,r2,r3
   2469c:	18bfef03 	ldbu	r2,-68(r3)
   246a0:	1000191e 	bne	r2,zero,24708 <__gethex+0x108>
   246a4:	a80d883a 	mov	r6,r21
   246a8:	900b883a 	mov	r5,r18
   246ac:	a009883a 	mov	r4,r20
   246b0:	00267840 	call	26784 <strncmp>
   246b4:	1000e51e 	bne	r2,zero,24a4c <__gethex+0x44c>
   246b8:	a561883a 	add	r16,r20,r21
   246bc:	80c00003 	ldbu	r3,0(r16)
   246c0:	008000f4 	movhi	r2,3
   246c4:	19003fcc 	andi	r4,r3,255
   246c8:	2085883a 	add	r2,r4,r2
   246cc:	10bfef03 	ldbu	r2,-68(r2)
   246d0:	1000e026 	beq	r2,zero,24a54 <__gethex+0x454>
   246d4:	21000c18 	cmpnei	r4,r4,48
   246d8:	8029883a 	mov	r20,r16
   246dc:	2000071e 	bne	r4,zero,246fc <__gethex+0xfc>
   246e0:	a0800043 	ldbu	r2,1(r20)
   246e4:	a5000044 	addi	r20,r20,1
   246e8:	10c00c20 	cmpeqi	r3,r2,48
   246ec:	183ffc1e 	bne	r3,zero,246e0 <__gethex+0xe0>
   246f0:	00c000f4 	movhi	r3,3
   246f4:	10c7883a 	add	r3,r2,r3
   246f8:	18bfef03 	ldbu	r2,-68(r3)
   246fc:	1013003a 	cmpeq	r9,r2,zero
   24700:	05c00044 	movi	r23,1
   24704:	00000606 	br	24720 <__gethex+0x120>
   24708:	a0c00003 	ldbu	r3,0(r20)
   2470c:	008000f4 	movhi	r2,3
   24710:	0013883a 	mov	r9,zero
   24714:	1885883a 	add	r2,r3,r2
   24718:	10bfef03 	ldbu	r2,-68(r2)
   2471c:	0021883a 	mov	r16,zero
   24720:	a039883a 	mov	fp,r20
   24724:	10000626 	beq	r2,zero,24740 <__gethex+0x140>
   24728:	e0800043 	ldbu	r2,1(fp)
   2472c:	00c000f4 	movhi	r3,3
   24730:	e7000044 	addi	fp,fp,1
   24734:	10c7883a 	add	r3,r2,r3
   24738:	18bfef03 	ldbu	r2,-68(r3)
   2473c:	103ffa1e 	bne	r2,zero,24728 <__gethex+0x128>
   24740:	a80d883a 	mov	r6,r21
   24744:	900b883a 	mov	r5,r18
   24748:	e009883a 	mov	r4,fp
   2474c:	da400115 	stw	r9,4(sp)
   24750:	00267840 	call	26784 <strncmp>
   24754:	da400117 	ldw	r9,4(sp)
   24758:	1000031e 	bne	r2,zero,24768 <__gethex+0x168>
   2475c:	80012d26 	beq	r16,zero,24c14 <__gethex+0x614>
   24760:	e0800003 	ldbu	r2,0(fp)
   24764:	00000206 	br	24770 <__gethex+0x170>
   24768:	e0800003 	ldbu	r2,0(fp)
   2476c:	8000de26 	beq	r16,zero,24ae8 <__gethex+0x4e8>
   24770:	8721c83a 	sub	r16,r16,fp
   24774:	802690ba 	slli	r19,r16,2
   24778:	108037cc 	andi	r2,r2,223
   2477c:	10801418 	cmpnei	r2,r2,80
   24780:	e021883a 	mov	r16,fp
   24784:	10006a26 	beq	r2,zero,24930 <__gethex+0x330>
   24788:	b7000015 	stw	fp,0(r22)
   2478c:	4800831e 	bne	r9,zero,2499c <__gethex+0x39c>
   24790:	8505c83a 	sub	r2,r16,r20
   24794:	10bfffc4 	addi	r2,r2,-1
   24798:	10c00210 	cmplti	r3,r2,8
   2479c:	000b883a 	mov	r5,zero
   247a0:	1800041e 	bne	r3,zero,247b4 <__gethex+0x1b4>
   247a4:	1005d07a 	srai	r2,r2,1
   247a8:	29400044 	addi	r5,r5,1
   247ac:	10c00208 	cmpgei	r3,r2,8
   247b0:	183ffc1e 	bne	r3,zero,247a4 <__gethex+0x1a4>
   247b4:	d9000017 	ldw	r4,0(sp)
   247b8:	00254980 	call	25498 <_Balloc>
   247bc:	102d883a 	mov	r22,r2
   247c0:	10019226 	beq	r2,zero,24e0c <__gethex+0x80c>
   247c4:	12400504 	addi	r9,r2,20
   247c8:	da400115 	stw	r9,4(sp)
   247cc:	a4013d2e 	bgeu	r20,r16,24cc4 <__gethex+0x6c4>
   247d0:	dac00203 	ldbu	r11,8(sp)
   247d4:	03000044 	movi	r12,1
   247d8:	0039883a 	mov	fp,zero
   247dc:	0011883a 	mov	r8,zero
   247e0:	6559c83a 	sub	r12,r12,r21
   247e4:	83bfffc3 	ldbu	r14,-1(r16)
   247e8:	837fffc4 	addi	r13,r16,-1
   247ec:	4dc00104 	addi	r23,r9,4
   247f0:	72c02d26 	beq	r14,r11,248a8 <__gethex+0x2a8>
   247f4:	e0800820 	cmpeqi	r2,fp,32
   247f8:	1000421e 	bne	r2,zero,24904 <__gethex+0x304>
   247fc:	e009883a 	mov	r4,fp
   24800:	e7000104 	addi	fp,fp,4
   24804:	008000f4 	movhi	r2,3
   24808:	7085883a 	add	r2,r14,r2
   2480c:	10ffef03 	ldbu	r3,-68(r2)
   24810:	6821883a 	mov	r16,r13
   24814:	18c003cc 	andi	r3,r3,15
   24818:	1906983a 	sll	r3,r3,r4
   2481c:	40d0b03a 	or	r8,r8,r3
   24820:	a43ff036 	bltu	r20,r16,247e4 <__gethex+0x1e4>
   24824:	d8800117 	ldw	r2,4(sp)
   24828:	4a000015 	stw	r8,0(r9)
   2482c:	4009883a 	mov	r4,r8
   24830:	b8afc83a 	sub	r23,r23,r2
   24834:	b82fd0ba 	srai	r23,r23,2
   24838:	b820917a 	slli	r16,r23,5
   2483c:	b5c00415 	stw	r23,16(r22)
   24840:	00257f40 	call	257f4 <__hi0bits>
   24844:	8c800017 	ldw	r18,0(r17)
   24848:	8085c83a 	sub	r2,r16,r2
   2484c:	90808d16 	blt	r18,r2,24a84 <__gethex+0x484>
   24850:	1480e216 	blt	r2,r18,24bdc <__gethex+0x5dc>
   24854:	002f883a 	mov	r23,zero
   24858:	88800217 	ldw	r2,8(r17)
   2485c:	14c11016 	blt	r2,r19,24ca0 <__gethex+0x6a0>
   24860:	88800117 	ldw	r2,4(r17)
   24864:	98805e0e 	bge	r19,r2,249e0 <__gethex+0x3e0>
   24868:	14e7c83a 	sub	r19,r2,r19
   2486c:	9c80a216 	blt	r19,r18,24af8 <__gethex+0x4f8>
   24870:	88c00317 	ldw	r3,12(r17)
   24874:	190000a0 	cmpeqi	r4,r3,2
   24878:	2001381e 	bne	r4,zero,24d5c <__gethex+0x75c>
   2487c:	190000e0 	cmpeqi	r4,r3,3
   24880:	2001331e 	bne	r4,zero,24d50 <__gethex+0x750>
   24884:	18c00058 	cmpnei	r3,r3,1
   24888:	18011f26 	beq	r3,zero,24d08 <__gethex+0x708>
   2488c:	d9000017 	ldw	r4,0(sp)
   24890:	b00b883a 	mov	r5,r22
   24894:	04001404 	movi	r16,80
   24898:	002553c0 	call	2553c <_Bfree>
   2489c:	d8801417 	ldw	r2,80(sp)
   248a0:	10000015 	stw	zero,0(r2)
   248a4:	00005c06 	br	24a18 <__gethex+0x418>
   248a8:	6b09883a 	add	r4,r13,r12
   248ac:	253fd136 	bltu	r4,r20,247f4 <__gethex+0x1f4>
   248b0:	a80d883a 	mov	r6,r21
   248b4:	900b883a 	mov	r5,r18
   248b8:	db000815 	stw	r12,32(sp)
   248bc:	db800715 	stw	r14,28(sp)
   248c0:	dac00615 	stw	r11,24(sp)
   248c4:	db400515 	stw	r13,20(sp)
   248c8:	da000415 	stw	r8,16(sp)
   248cc:	da400315 	stw	r9,12(sp)
   248d0:	d9000215 	stw	r4,8(sp)
   248d4:	00267840 	call	26784 <strncmp>
   248d8:	d9000217 	ldw	r4,8(sp)
   248dc:	da400317 	ldw	r9,12(sp)
   248e0:	da000417 	ldw	r8,16(sp)
   248e4:	db400517 	ldw	r13,20(sp)
   248e8:	dac00617 	ldw	r11,24(sp)
   248ec:	db800717 	ldw	r14,28(sp)
   248f0:	db000817 	ldw	r12,32(sp)
   248f4:	103fbf1e 	bne	r2,zero,247f4 <__gethex+0x1f4>
   248f8:	2021883a 	mov	r16,r4
   248fc:	a43fb936 	bltu	r20,r16,247e4 <__gethex+0x1e4>
   24900:	003fc806 	br	24824 <__gethex+0x224>
   24904:	4a000015 	stw	r8,0(r9)
   24908:	48800204 	addi	r2,r9,8
   2490c:	83bfffc3 	ldbu	r14,-1(r16)
   24910:	b813883a 	mov	r9,r23
   24914:	0009883a 	mov	r4,zero
   24918:	07000104 	movi	fp,4
   2491c:	102f883a 	mov	r23,r2
   24920:	0011883a 	mov	r8,zero
   24924:	003fb706 	br	24804 <__gethex+0x204>
   24928:	0027883a 	mov	r19,zero
   2492c:	02400044 	movi	r9,1
   24930:	80800043 	ldbu	r2,1(r16)
   24934:	10c00ae0 	cmpeqi	r3,r2,43
   24938:	1800a61e 	bne	r3,zero,24bd4 <__gethex+0x5d4>
   2493c:	10c00b60 	cmpeqi	r3,r2,45
   24940:	18004c1e 	bne	r3,zero,24a74 <__gethex+0x474>
   24944:	87000044 	addi	fp,r16,1
   24948:	0015883a 	mov	r10,zero
   2494c:	00c000f4 	movhi	r3,3
   24950:	10c7883a 	add	r3,r2,r3
   24954:	18bfef03 	ldbu	r2,-68(r3)
   24958:	10ffffc4 	addi	r3,r2,-1
   2495c:	18c03fcc 	andi	r3,r3,255
   24960:	18c00668 	cmpgeui	r3,r3,25
   24964:	1800411e 	bne	r3,zero,24a6c <__gethex+0x46c>
   24968:	e1000043 	ldbu	r4,1(fp)
   2496c:	00c000f4 	movhi	r3,3
   24970:	10803fcc 	andi	r2,r2,255
   24974:	20c7883a 	add	r3,r4,r3
   24978:	193fef03 	ldbu	r4,-68(r3)
   2497c:	e7000044 	addi	fp,fp,1
   24980:	10fffc04 	addi	r3,r2,-16
   24984:	2000131e 	bne	r4,zero,249d4 <__gethex+0x3d4>
   24988:	50000126 	beq	r10,zero,24990 <__gethex+0x390>
   2498c:	00c7c83a 	sub	r3,zero,r3
   24990:	b7000015 	stw	fp,0(r22)
   24994:	98e7883a 	add	r19,r19,r3
   24998:	483f7d26 	beq	r9,zero,24790 <__gethex+0x190>
   2499c:	b8005426 	beq	r23,zero,24af0 <__gethex+0x4f0>
   249a0:	0021883a 	mov	r16,zero
   249a4:	00001c06 	br	24a18 <__gethex+0x418>
   249a8:	180490ba 	slli	r2,r3,2
   249ac:	e2c00043 	ldbu	r11,1(fp)
   249b0:	014000f4 	movhi	r5,3
   249b4:	10c5883a 	add	r2,r2,r3
   249b8:	1085883a 	add	r2,r2,r2
   249bc:	594b883a 	add	r5,r11,r5
   249c0:	1105883a 	add	r2,r2,r4
   249c4:	293fef03 	ldbu	r4,-68(r5)
   249c8:	e7000044 	addi	fp,fp,1
   249cc:	10fffc04 	addi	r3,r2,-16
   249d0:	203fed26 	beq	r4,zero,24988 <__gethex+0x388>
   249d4:	20800690 	cmplti	r2,r4,26
   249d8:	103ff31e 	bne	r2,zero,249a8 <__gethex+0x3a8>
   249dc:	003fea06 	br	24988 <__gethex+0x388>
   249e0:	04000044 	movi	r16,1
   249e4:	b8000826 	beq	r23,zero,24a08 <__gethex+0x408>
   249e8:	88800317 	ldw	r2,12(r17)
   249ec:	10c000a0 	cmpeqi	r3,r2,2
   249f0:	1800561e 	bne	r3,zero,24b4c <__gethex+0x54c>
   249f4:	10c000e0 	cmpeqi	r3,r2,3
   249f8:	1800581e 	bne	r3,zero,24b5c <__gethex+0x55c>
   249fc:	10800058 	cmpnei	r2,r2,1
   24a00:	10006c26 	beq	r2,zero,24bb4 <__gethex+0x5b4>
   24a04:	84000414 	ori	r16,r16,16
   24a08:	d8801417 	ldw	r2,80(sp)
   24a0c:	15800015 	stw	r22,0(r2)
   24a10:	d8800917 	ldw	r2,36(sp)
   24a14:	14c00015 	stw	r19,0(r2)
   24a18:	8005883a 	mov	r2,r16
   24a1c:	dfc01317 	ldw	ra,76(sp)
   24a20:	df001217 	ldw	fp,72(sp)
   24a24:	ddc01117 	ldw	r23,68(sp)
   24a28:	dd801017 	ldw	r22,64(sp)
   24a2c:	dd400f17 	ldw	r21,60(sp)
   24a30:	dd000e17 	ldw	r20,56(sp)
   24a34:	dcc00d17 	ldw	r19,52(sp)
   24a38:	dc800c17 	ldw	r18,48(sp)
   24a3c:	dc400b17 	ldw	r17,44(sp)
   24a40:	dc000a17 	ldw	r16,40(sp)
   24a44:	dec01404 	addi	sp,sp,80
   24a48:	f800283a 	ret
   24a4c:	a0c00003 	ldbu	r3,0(r20)
   24a50:	a021883a 	mov	r16,r20
   24a54:	18c037cc 	andi	r3,r3,223
   24a58:	18c01420 	cmpeqi	r3,r3,80
   24a5c:	183fb21e 	bne	r3,zero,24928 <__gethex+0x328>
   24a60:	b4000015 	stw	r16,0(r22)
   24a64:	b83fce1e 	bne	r23,zero,249a0 <__gethex+0x3a0>
   24a68:	00002106 	br	24af0 <__gethex+0x4f0>
   24a6c:	8039883a 	mov	fp,r16
   24a70:	003f4506 	br	24788 <__gethex+0x188>
   24a74:	02800044 	movi	r10,1
   24a78:	80800083 	ldbu	r2,2(r16)
   24a7c:	87000084 	addi	fp,r16,2
   24a80:	003fb206 	br	2494c <__gethex+0x34c>
   24a84:	14a1c83a 	sub	r16,r2,r18
   24a88:	800b883a 	mov	r5,r16
   24a8c:	b009883a 	mov	r4,r22
   24a90:	00265700 	call	26570 <__any_on>
   24a94:	102f883a 	mov	r23,r2
   24a98:	10000e26 	beq	r2,zero,24ad4 <__gethex+0x4d4>
   24a9c:	813fffc4 	addi	r4,r16,-1
   24aa0:	2007d17a 	srai	r3,r4,5
   24aa4:	214007cc 	andi	r5,r4,31
   24aa8:	00800044 	movi	r2,1
   24aac:	1144983a 	sll	r2,r2,r5
   24ab0:	180690ba 	slli	r3,r3,2
   24ab4:	d9400117 	ldw	r5,4(sp)
   24ab8:	28c7883a 	add	r3,r5,r3
   24abc:	18c00017 	ldw	r3,0(r3)
   24ac0:	10c4703a 	and	r2,r2,r3
   24ac4:	10008326 	beq	r2,zero,24cd4 <__gethex+0x6d4>
   24ac8:	21000090 	cmplti	r4,r4,2
   24acc:	20008826 	beq	r4,zero,24cf0 <__gethex+0x6f0>
   24ad0:	05c00084 	movi	r23,2
   24ad4:	800b883a 	mov	r5,r16
   24ad8:	b009883a 	mov	r4,r22
   24adc:	00245240 	call	24524 <rshift>
   24ae0:	9c27883a 	add	r19,r19,r16
   24ae4:	003f5c06 	br	24858 <__gethex+0x258>
   24ae8:	0027883a 	mov	r19,zero
   24aec:	003f2206 	br	24778 <__gethex+0x178>
   24af0:	04000184 	movi	r16,6
   24af4:	003fc806 	br	24a18 <__gethex+0x418>
   24af8:	9c3fffc4 	addi	r16,r19,-1
   24afc:	b8006f1e 	bne	r23,zero,24cbc <__gethex+0x6bc>
   24b00:	8000761e 	bne	r16,zero,24cdc <__gethex+0x6dc>
   24b04:	8007d17a 	srai	r3,r16,5
   24b08:	d9000117 	ldw	r4,4(sp)
   24b0c:	840007cc 	andi	r16,r16,31
   24b10:	180690ba 	slli	r3,r3,2
   24b14:	00800044 	movi	r2,1
   24b18:	1404983a 	sll	r2,r2,r16
   24b1c:	20c7883a 	add	r3,r4,r3
   24b20:	18c00017 	ldw	r3,0(r3)
   24b24:	10c4703a 	and	r2,r2,r3
   24b28:	10000126 	beq	r2,zero,24b30 <__gethex+0x530>
   24b2c:	bdc00094 	ori	r23,r23,2
   24b30:	980b883a 	mov	r5,r19
   24b34:	b009883a 	mov	r4,r22
   24b38:	00245240 	call	24524 <rshift>
   24b3c:	94e5c83a 	sub	r18,r18,r19
   24b40:	04000084 	movi	r16,2
   24b44:	8cc00117 	ldw	r19,4(r17)
   24b48:	003fa606 	br	249e4 <__gethex+0x3e4>
   24b4c:	d8c01517 	ldw	r3,84(sp)
   24b50:	00800044 	movi	r2,1
   24b54:	10c5c83a 	sub	r2,r2,r3
   24b58:	d8801515 	stw	r2,84(sp)
   24b5c:	d8801517 	ldw	r2,84(sp)
   24b60:	103fa826 	beq	r2,zero,24a04 <__gethex+0x404>
   24b64:	b5c00417 	ldw	r23,16(r22)
   24b68:	d9800117 	ldw	r6,4(sp)
   24b6c:	b83890ba 	slli	fp,r23,2
   24b70:	3005883a 	mov	r2,r6
   24b74:	370b883a 	add	r5,r6,fp
   24b78:	00000306 	br	24b88 <__gethex+0x588>
   24b7c:	10800104 	addi	r2,r2,4
   24b80:	103fff15 	stw	zero,-4(r2)
   24b84:	1140332e 	bgeu	r2,r5,24c54 <__gethex+0x654>
   24b88:	10c00017 	ldw	r3,0(r2)
   24b8c:	193fffe0 	cmpeqi	r4,r3,-1
   24b90:	203ffa1e 	bne	r4,zero,24b7c <__gethex+0x57c>
   24b94:	18c00044 	addi	r3,r3,1
   24b98:	10c00015 	stw	r3,0(r2)
   24b9c:	840000a0 	cmpeqi	r16,r16,2
   24ba0:	8000711e 	bne	r16,zero,24d68 <__gethex+0x768>
   24ba4:	948007cc 	andi	r18,r18,31
   24ba8:	9000871e 	bne	r18,zero,24dc8 <__gethex+0x7c8>
   24bac:	04000844 	movi	r16,33
   24bb0:	003f9506 	br	24a08 <__gethex+0x408>
   24bb4:	b880008c 	andi	r2,r23,2
   24bb8:	103f9226 	beq	r2,zero,24a04 <__gethex+0x404>
   24bbc:	d8800117 	ldw	r2,4(sp)
   24bc0:	10800017 	ldw	r2,0(r2)
   24bc4:	b884b03a 	or	r2,r23,r2
   24bc8:	1080004c 	andi	r2,r2,1
   24bcc:	103fe51e 	bne	r2,zero,24b64 <__gethex+0x564>
   24bd0:	003f8c06 	br	24a04 <__gethex+0x404>
   24bd4:	0015883a 	mov	r10,zero
   24bd8:	003fa706 	br	24a78 <__gethex+0x478>
   24bdc:	d9000017 	ldw	r4,0(sp)
   24be0:	90a1c83a 	sub	r16,r18,r2
   24be4:	b00b883a 	mov	r5,r22
   24be8:	800d883a 	mov	r6,r16
   24bec:	0025d200 	call	25d20 <__lshift>
   24bf0:	102d883a 	mov	r22,r2
   24bf4:	10800504 	addi	r2,r2,20
   24bf8:	9c27c83a 	sub	r19,r19,r16
   24bfc:	d8800115 	stw	r2,4(sp)
   24c00:	002f883a 	mov	r23,zero
   24c04:	003f1406 	br	24858 <__gethex+0x258>
   24c08:	3d000084 	addi	r20,r7,2
   24c0c:	002f883a 	mov	r23,zero
   24c10:	003ea006 	br	24694 <__gethex+0x94>
   24c14:	e561883a 	add	r16,fp,r21
   24c18:	80800003 	ldbu	r2,0(r16)
   24c1c:	00c000f4 	movhi	r3,3
   24c20:	8039883a 	mov	fp,r16
   24c24:	11003fcc 	andi	r4,r2,255
   24c28:	20c7883a 	add	r3,r4,r3
   24c2c:	18ffef03 	ldbu	r3,-68(r3)
   24c30:	183ece26 	beq	r3,zero,2476c <__gethex+0x16c>
   24c34:	e0800043 	ldbu	r2,1(fp)
   24c38:	00c000f4 	movhi	r3,3
   24c3c:	e7000044 	addi	fp,fp,1
   24c40:	11003fcc 	andi	r4,r2,255
   24c44:	20c7883a 	add	r3,r4,r3
   24c48:	18ffef03 	ldbu	r3,-68(r3)
   24c4c:	183ff91e 	bne	r3,zero,24c34 <__gethex+0x634>
   24c50:	003ec606 	br	2476c <__gethex+0x16c>
   24c54:	b0800217 	ldw	r2,8(r22)
   24c58:	b880480e 	bge	r23,r2,24d7c <__gethex+0x77c>
   24c5c:	b807883a 	mov	r3,r23
   24c60:	18800144 	addi	r2,r3,5
   24c64:	100490ba 	slli	r2,r2,2
   24c68:	18c00044 	addi	r3,r3,1
   24c6c:	b0c00415 	stw	r3,16(r22)
   24c70:	b085883a 	add	r2,r22,r2
   24c74:	01000044 	movi	r4,1
   24c78:	11000015 	stw	r4,0(r2)
   24c7c:	84000098 	cmpnei	r16,r16,2
   24c80:	80003926 	beq	r16,zero,24d68 <__gethex+0x768>
   24c84:	b8ffc70e 	bge	r23,r3,24ba4 <__gethex+0x5a4>
   24c88:	01400044 	movi	r5,1
   24c8c:	b009883a 	mov	r4,r22
   24c90:	00245240 	call	24524 <rshift>
   24c94:	88800217 	ldw	r2,8(r17)
   24c98:	9cc00044 	addi	r19,r19,1
   24c9c:	14ffc30e 	bge	r2,r19,24bac <__gethex+0x5ac>
   24ca0:	d9000017 	ldw	r4,0(sp)
   24ca4:	b00b883a 	mov	r5,r22
   24ca8:	040028c4 	movi	r16,163
   24cac:	002553c0 	call	2553c <_Bfree>
   24cb0:	d8801417 	ldw	r2,80(sp)
   24cb4:	10000015 	stw	zero,0(r2)
   24cb8:	003f5706 	br	24a18 <__gethex+0x418>
   24cbc:	05c00044 	movi	r23,1
   24cc0:	003f9006 	br	24b04 <__gethex+0x504>
   24cc4:	da400117 	ldw	r9,4(sp)
   24cc8:	15c00604 	addi	r23,r2,24
   24ccc:	0011883a 	mov	r8,zero
   24cd0:	003ed406 	br	24824 <__gethex+0x224>
   24cd4:	05c00044 	movi	r23,1
   24cd8:	003f7e06 	br	24ad4 <__gethex+0x4d4>
   24cdc:	800b883a 	mov	r5,r16
   24ce0:	b009883a 	mov	r4,r22
   24ce4:	00265700 	call	26570 <__any_on>
   24ce8:	102f883a 	mov	r23,r2
   24cec:	003f8506 	br	24b04 <__gethex+0x504>
   24cf0:	817fff84 	addi	r5,r16,-2
   24cf4:	b009883a 	mov	r4,r22
   24cf8:	00265700 	call	26570 <__any_on>
   24cfc:	103f7426 	beq	r2,zero,24ad0 <__gethex+0x4d0>
   24d00:	05c000c4 	movi	r23,3
   24d04:	003f7306 	br	24ad4 <__gethex+0x4d4>
   24d08:	94fee01e 	bne	r18,r19,2488c <__gethex+0x28c>
   24d0c:	90c00060 	cmpeqi	r3,r18,1
   24d10:	1800051e 	bne	r3,zero,24d28 <__gethex+0x728>
   24d14:	917fffc4 	addi	r5,r18,-1
   24d18:	b009883a 	mov	r4,r22
   24d1c:	00265700 	call	26570 <__any_on>
   24d20:	103eda26 	beq	r2,zero,2488c <__gethex+0x28c>
   24d24:	88800117 	ldw	r2,4(r17)
   24d28:	d8c00917 	ldw	r3,36(sp)
   24d2c:	04001884 	movi	r16,98
   24d30:	18800015 	stw	r2,0(r3)
   24d34:	d8c00117 	ldw	r3,4(sp)
   24d38:	00800044 	movi	r2,1
   24d3c:	b0800415 	stw	r2,16(r22)
   24d40:	18800015 	stw	r2,0(r3)
   24d44:	d8801417 	ldw	r2,80(sp)
   24d48:	15800015 	stw	r22,0(r2)
   24d4c:	003f3206 	br	24a18 <__gethex+0x418>
   24d50:	d8c01517 	ldw	r3,84(sp)
   24d54:	183ecd26 	beq	r3,zero,2488c <__gethex+0x28c>
   24d58:	003ff306 	br	24d28 <__gethex+0x728>
   24d5c:	d8c01517 	ldw	r3,84(sp)
   24d60:	183eca1e 	bne	r3,zero,2488c <__gethex+0x28c>
   24d64:	003ff006 	br	24d28 <__gethex+0x728>
   24d68:	88800017 	ldw	r2,0(r17)
   24d6c:	10bfffc4 	addi	r2,r2,-1
   24d70:	14801c26 	beq	r2,r18,24de4 <__gethex+0x7e4>
   24d74:	04000884 	movi	r16,34
   24d78:	003f2306 	br	24a08 <__gethex+0x408>
   24d7c:	b1400117 	ldw	r5,4(r22)
   24d80:	d9000017 	ldw	r4,0(sp)
   24d84:	29400044 	addi	r5,r5,1
   24d88:	00254980 	call	25498 <_Balloc>
   24d8c:	1029883a 	mov	r20,r2
   24d90:	10002526 	beq	r2,zero,24e28 <__gethex+0x828>
   24d94:	b1800417 	ldw	r6,16(r22)
   24d98:	b1400304 	addi	r5,r22,12
   24d9c:	11000304 	addi	r4,r2,12
   24da0:	31800084 	addi	r6,r6,2
   24da4:	300c90ba 	slli	r6,r6,2
   24da8:	00252a80 	call	252a8 <memcpy>
   24dac:	d9000017 	ldw	r4,0(sp)
   24db0:	b00b883a 	mov	r5,r22
   24db4:	a02d883a 	mov	r22,r20
   24db8:	002553c0 	call	2553c <_Bfree>
   24dbc:	a0c00417 	ldw	r3,16(r20)
   24dc0:	a1800504 	addi	r6,r20,20
   24dc4:	003fa606 	br	24c60 <__gethex+0x660>
   24dc8:	3705883a 	add	r2,r6,fp
   24dcc:	113fff17 	ldw	r4,-4(r2)
   24dd0:	00257f40 	call	257f4 <__hi0bits>
   24dd4:	00c00804 	movi	r3,32
   24dd8:	1ca5c83a 	sub	r18,r3,r18
   24ddc:	14bf730e 	bge	r2,r18,24bac <__gethex+0x5ac>
   24de0:	003fa906 	br	24c88 <__gethex+0x688>
   24de4:	9007d17a 	srai	r3,r18,5
   24de8:	00800044 	movi	r2,1
   24dec:	948007cc 	andi	r18,r18,31
   24df0:	180690ba 	slli	r3,r3,2
   24df4:	1484983a 	sll	r2,r2,r18
   24df8:	30c7883a 	add	r3,r6,r3
   24dfc:	18c00017 	ldw	r3,0(r3)
   24e00:	10c4703a 	and	r2,r2,r3
   24e04:	103fdb26 	beq	r2,zero,24d74 <__gethex+0x774>
   24e08:	003f6806 	br	24bac <__gethex+0x5ac>
   24e0c:	01c000f4 	movhi	r7,3
   24e10:	010000f4 	movhi	r4,3
   24e14:	39ffd804 	addi	r7,r7,-160
   24e18:	000d883a 	mov	r6,zero
   24e1c:	01403784 	movi	r5,222
   24e20:	213fdd04 	addi	r4,r4,-140
   24e24:	00268840 	call	26884 <__assert_func>
   24e28:	01c000f4 	movhi	r7,3
   24e2c:	010000f4 	movhi	r4,3
   24e30:	39ffd804 	addi	r7,r7,-160
   24e34:	000d883a 	mov	r6,zero
   24e38:	01402104 	movi	r5,132
   24e3c:	213fdd04 	addi	r4,r4,-140
   24e40:	00268840 	call	26884 <__assert_func>

00024e44 <__match>:
   24e44:	21800017 	ldw	r6,0(r4)
   24e48:	29c00007 	ldb	r7,0(r5)
   24e4c:	31800044 	addi	r6,r6,1
   24e50:	29400044 	addi	r5,r5,1
   24e54:	38000c26 	beq	r7,zero,24e88 <__match+0x44>
   24e58:	30c00003 	ldbu	r3,0(r6)
   24e5c:	18bfefc4 	addi	r2,r3,-65
   24e60:	10803fcc 	andi	r2,r2,255
   24e64:	18c03fcc 	andi	r3,r3,255
   24e68:	18c0201c 	xori	r3,r3,128
   24e6c:	108006a8 	cmpgeui	r2,r2,26
   24e70:	18ffe004 	addi	r3,r3,-128
   24e74:	1000011e 	bne	r2,zero,24e7c <__match+0x38>
   24e78:	18c00804 	addi	r3,r3,32
   24e7c:	19fff226 	beq	r3,r7,24e48 <__match+0x4>
   24e80:	0005883a 	mov	r2,zero
   24e84:	f800283a 	ret
   24e88:	21800015 	stw	r6,0(r4)
   24e8c:	00800044 	movi	r2,1
   24e90:	f800283a 	ret

00024e94 <__hexnan>:
   24e94:	2bc00017 	ldw	r15,0(r5)
   24e98:	7805d17a 	srai	r2,r15,5
   24e9c:	7bc007cc 	andi	r15,r15,31
   24ea0:	100490ba 	slli	r2,r2,2
   24ea4:	3085883a 	add	r2,r6,r2
   24ea8:	7800661e 	bne	r15,zero,25044 <__hexnan+0x1b0>
   24eac:	127fff04 	addi	r9,r2,-4
   24eb0:	1019883a 	mov	r12,r2
   24eb4:	21c00017 	ldw	r7,0(r4)
   24eb8:	603fff15 	stw	zero,-4(r12)
   24ebc:	39400043 	ldbu	r5,1(r7)
   24ec0:	28008c26 	beq	r5,zero,250f4 <__hexnan+0x260>
   24ec4:	defffc04 	addi	sp,sp,-16
   24ec8:	dfc00315 	stw	ra,12(sp)
   24ecc:	dc000015 	stw	r16,0(sp)
   24ed0:	dc800215 	stw	r18,8(sp)
   24ed4:	dc400115 	stw	r17,4(sp)
   24ed8:	481b883a 	mov	r13,r9
   24edc:	4807883a 	mov	r3,r9
   24ee0:	0011883a 	mov	r8,zero
   24ee4:	001d883a 	mov	r14,zero
   24ee8:	0017883a 	mov	r11,zero
   24eec:	04000204 	movi	r16,8
   24ef0:	07c00804 	movi	ra,32
   24ef4:	008000f4 	movhi	r2,3
   24ef8:	2885883a 	add	r2,r5,r2
   24efc:	10bfef03 	ldbu	r2,-68(r2)
   24f00:	12803fcc 	andi	r10,r2,255
   24f04:	5000391e 	bne	r10,zero,24fec <__hexnan+0x158>
   24f08:	28800868 	cmpgeui	r2,r5,33
   24f0c:	1000671e 	bne	r2,zero,250ac <__hexnan+0x218>
   24f10:	72c0050e 	bge	r14,r11,24f28 <__hexnan+0x94>
   24f14:	1b40022e 	bgeu	r3,r13,24f20 <__hexnan+0x8c>
   24f18:	40800208 	cmpgei	r2,r8,8
   24f1c:	10004c26 	beq	r2,zero,25050 <__hexnan+0x1bc>
   24f20:	30c04236 	bltu	r6,r3,2502c <__hexnan+0x198>
   24f24:	02000204 	movi	r8,8
   24f28:	39400083 	ldbu	r5,2(r7)
   24f2c:	39c00044 	addi	r7,r7,1
   24f30:	283ff01e 	bne	r5,zero,24ef4 <__hexnan+0x60>
   24f34:	58005f26 	beq	r11,zero,250b4 <__hexnan+0x220>
   24f38:	1b40112e 	bgeu	r3,r13,24f80 <__hexnan+0xec>
   24f3c:	40800208 	cmpgei	r2,r8,8
   24f40:	10000f1e 	bne	r2,zero,24f80 <__hexnan+0xec>
   24f44:	00800204 	movi	r2,8
   24f48:	1211c83a 	sub	r8,r2,r8
   24f4c:	401090ba 	slli	r8,r8,2
   24f50:	19400017 	ldw	r5,0(r3)
   24f54:	02800804 	movi	r10,32
   24f58:	5215c83a 	sub	r10,r10,r8
   24f5c:	1805883a 	mov	r2,r3
   24f60:	11c00117 	ldw	r7,4(r2)
   24f64:	10800104 	addi	r2,r2,4
   24f68:	3a88983a 	sll	r4,r7,r10
   24f6c:	2148b03a 	or	r4,r4,r5
   24f70:	3a0ad83a 	srl	r5,r7,r8
   24f74:	113fff15 	stw	r4,-4(r2)
   24f78:	11400015 	stw	r5,0(r2)
   24f7c:	137ff836 	bltu	r2,r13,24f60 <__hexnan+0xcc>
   24f80:	30c0412e 	bgeu	r6,r3,25088 <__hexnan+0x1f4>
   24f84:	3009883a 	mov	r4,r6
   24f88:	1805883a 	mov	r2,r3
   24f8c:	11400017 	ldw	r5,0(r2)
   24f90:	10800104 	addi	r2,r2,4
   24f94:	21000104 	addi	r4,r4,4
   24f98:	217fff15 	stw	r5,-4(r4)
   24f9c:	48bffb2e 	bgeu	r9,r2,24f8c <__hexnan+0xf8>
   24fa0:	48800044 	addi	r2,r9,1
   24fa4:	19000044 	addi	r4,r3,1
   24fa8:	11005036 	bltu	r2,r4,250ec <__hexnan+0x258>
   24fac:	48c5c83a 	sub	r2,r9,r3
   24fb0:	1004d0ba 	srli	r2,r2,2
   24fb4:	10800044 	addi	r2,r2,1
   24fb8:	100490ba 	slli	r2,r2,2
   24fbc:	3085883a 	add	r2,r6,r2
   24fc0:	10800104 	addi	r2,r2,4
   24fc4:	103fff15 	stw	zero,-4(r2)
   24fc8:	48bffd2e 	bgeu	r9,r2,24fc0 <__hexnan+0x12c>
   24fcc:	60bfff17 	ldw	r2,-4(r12)
   24fd0:	1000041e 	bne	r2,zero,24fe4 <__hexnan+0x150>
   24fd4:	32403e26 	beq	r6,r9,250d0 <__hexnan+0x23c>
   24fd8:	48bfff17 	ldw	r2,-4(r9)
   24fdc:	4a7fff04 	addi	r9,r9,-4
   24fe0:	103ffc26 	beq	r2,zero,24fd4 <__hexnan+0x140>
   24fe4:	00800144 	movi	r2,5
   24fe8:	00003306 	br	250b8 <__hexnan+0x224>
   24fec:	42000044 	addi	r8,r8,1
   24ff0:	41400248 	cmpgei	r5,r8,9
   24ff4:	5ac00044 	addi	r11,r11,1
   24ff8:	2800061e 	bne	r5,zero,25014 <__hexnan+0x180>
   24ffc:	19400017 	ldw	r5,0(r3)
   25000:	280a913a 	slli	r5,r5,4
   25004:	108003cc 	andi	r2,r2,15
   25008:	1144b03a 	or	r2,r2,r5
   2500c:	18800015 	stw	r2,0(r3)
   25010:	003fc506 	br	24f28 <__hexnan+0x94>
   25014:	30ffc42e 	bgeu	r6,r3,24f28 <__hexnan+0x94>
   25018:	183fff15 	stw	zero,-4(r3)
   2501c:	000b883a 	mov	r5,zero
   25020:	18ffff04 	addi	r3,r3,-4
   25024:	02000044 	movi	r8,1
   25028:	003ff606 	br	25004 <__hexnan+0x170>
   2502c:	1b7fff04 	addi	r13,r3,-4
   25030:	183fff15 	stw	zero,-4(r3)
   25034:	581d883a 	mov	r14,r11
   25038:	6807883a 	mov	r3,r13
   2503c:	0011883a 	mov	r8,zero
   25040:	003fb906 	br	24f28 <__hexnan+0x94>
   25044:	13000104 	addi	r12,r2,4
   25048:	1013883a 	mov	r9,r2
   2504c:	003f9906 	br	24eb4 <__hexnan+0x20>
   25050:	8211c83a 	sub	r8,r16,r8
   25054:	402290ba 	slli	r17,r8,2
   25058:	1a800017 	ldw	r10,0(r3)
   2505c:	1805883a 	mov	r2,r3
   25060:	fc65c83a 	sub	r18,ra,r17
   25064:	12000117 	ldw	r8,4(r2)
   25068:	10800104 	addi	r2,r2,4
   2506c:	448a983a 	sll	r5,r8,r18
   25070:	2a8ab03a 	or	r5,r5,r10
   25074:	4454d83a 	srl	r10,r8,r17
   25078:	117fff15 	stw	r5,-4(r2)
   2507c:	12800015 	stw	r10,0(r2)
   25080:	137ff836 	bltu	r2,r13,25064 <__hexnan+0x1d0>
   25084:	003fa606 	br	24f20 <__hexnan+0x8c>
   25088:	60bfff17 	ldw	r2,-4(r12)
   2508c:	783fd026 	beq	r15,zero,24fd0 <__hexnan+0x13c>
   25090:	00c00804 	movi	r3,32
   25094:	1bdfc83a 	sub	r15,r3,r15
   25098:	00ffffc4 	movi	r3,-1
   2509c:	1bc6d83a 	srl	r3,r3,r15
   250a0:	10c4703a 	and	r2,r2,r3
   250a4:	60bfff15 	stw	r2,-4(r12)
   250a8:	003fc906 	br	24fd0 <__hexnan+0x13c>
   250ac:	29400a58 	cmpnei	r5,r5,41
   250b0:	28000b26 	beq	r5,zero,250e0 <__hexnan+0x24c>
   250b4:	00800104 	movi	r2,4
   250b8:	dfc00317 	ldw	ra,12(sp)
   250bc:	dc800217 	ldw	r18,8(sp)
   250c0:	dc400117 	ldw	r17,4(sp)
   250c4:	dc000017 	ldw	r16,0(sp)
   250c8:	dec00404 	addi	sp,sp,16
   250cc:	f800283a 	ret
   250d0:	00800044 	movi	r2,1
   250d4:	48800015 	stw	r2,0(r9)
   250d8:	00800144 	movi	r2,5
   250dc:	003ff606 	br	250b8 <__hexnan+0x224>
   250e0:	39c00084 	addi	r7,r7,2
   250e4:	21c00015 	stw	r7,0(r4)
   250e8:	003f9206 	br	24f34 <__hexnan+0xa0>
   250ec:	00800104 	movi	r2,4
   250f0:	003fb206 	br	24fbc <__hexnan+0x128>
   250f4:	00800104 	movi	r2,4
   250f8:	f800283a 	ret

000250fc <_isatty_r>:
   250fc:	defffe04 	addi	sp,sp,-8
   25100:	dc000015 	stw	r16,0(sp)
   25104:	008000f4 	movhi	r2,3
   25108:	2021883a 	mov	r16,r4
   2510c:	2809883a 	mov	r4,r5
   25110:	dfc00115 	stw	ra,4(sp)
   25114:	100fc615 	stw	zero,16152(r2)
   25118:	002d3f40 	call	2d3f4 <isatty>
   2511c:	10ffffd8 	cmpnei	r3,r2,-1
   25120:	18000426 	beq	r3,zero,25134 <_isatty_r+0x38>
   25124:	dfc00117 	ldw	ra,4(sp)
   25128:	dc000017 	ldw	r16,0(sp)
   2512c:	dec00204 	addi	sp,sp,8
   25130:	f800283a 	ret
   25134:	00c000f4 	movhi	r3,3
   25138:	18cfc617 	ldw	r3,16152(r3)
   2513c:	183ff926 	beq	r3,zero,25124 <_isatty_r+0x28>
   25140:	80c00015 	stw	r3,0(r16)
   25144:	dfc00117 	ldw	ra,4(sp)
   25148:	dc000017 	ldw	r16,0(sp)
   2514c:	dec00204 	addi	sp,sp,8
   25150:	f800283a 	ret

00025154 <__numeric_load_locale>:
   25154:	0005883a 	mov	r2,zero
   25158:	f800283a 	ret

0002515c <_setlocale_r>:
   2515c:	30001626 	beq	r6,zero,251b8 <_setlocale_r+0x5c>
   25160:	014000f4 	movhi	r5,3
   25164:	defffe04 	addi	sp,sp,-8
   25168:	29403404 	addi	r5,r5,208
   2516c:	3009883a 	mov	r4,r6
   25170:	dc000015 	stw	r16,0(sp)
   25174:	dfc00115 	stw	ra,4(sp)
   25178:	3021883a 	mov	r16,r6
   2517c:	00266340 	call	26634 <strcmp>
   25180:	1000061e 	bne	r2,zero,2519c <_setlocale_r+0x40>
   25184:	008000f4 	movhi	r2,3
   25188:	10803304 	addi	r2,r2,204
   2518c:	dfc00117 	ldw	ra,4(sp)
   25190:	dc000017 	ldw	r16,0(sp)
   25194:	dec00204 	addi	sp,sp,8
   25198:	f800283a 	ret
   2519c:	80800003 	ldbu	r2,0(r16)
   251a0:	10bfef44 	addi	r2,r2,-67
   251a4:	10000726 	beq	r2,zero,251c4 <_setlocale_r+0x68>
   251a8:	80800003 	ldbu	r2,0(r16)
   251ac:	103ff526 	beq	r2,zero,25184 <_setlocale_r+0x28>
   251b0:	0005883a 	mov	r2,zero
   251b4:	003ff506 	br	2518c <_setlocale_r+0x30>
   251b8:	008000f4 	movhi	r2,3
   251bc:	10803304 	addi	r2,r2,204
   251c0:	f800283a 	ret
   251c4:	80800043 	ldbu	r2,1(r16)
   251c8:	103fee26 	beq	r2,zero,25184 <_setlocale_r+0x28>
   251cc:	003ff606 	br	251a8 <_setlocale_r+0x4c>

000251d0 <__locale_mb_cur_max>:
   251d0:	008000f4 	movhi	r2,3
   251d4:	10840307 	ldb	r2,4108(r2)
   251d8:	f800283a 	ret

000251dc <setlocale>:
   251dc:	00c000f4 	movhi	r3,3
   251e0:	2005883a 	mov	r2,r4
   251e4:	1908a617 	ldw	r4,8856(r3)
   251e8:	280d883a 	mov	r6,r5
   251ec:	100b883a 	mov	r5,r2
   251f0:	002515c1 	jmpi	2515c <_setlocale_r>

000251f4 <_lseek_r>:
   251f4:	2807883a 	mov	r3,r5
   251f8:	defffe04 	addi	sp,sp,-8
   251fc:	dc000015 	stw	r16,0(sp)
   25200:	300b883a 	mov	r5,r6
   25204:	008000f4 	movhi	r2,3
   25208:	380d883a 	mov	r6,r7
   2520c:	2021883a 	mov	r16,r4
   25210:	1809883a 	mov	r4,r3
   25214:	dfc00115 	stw	ra,4(sp)
   25218:	100fc615 	stw	zero,16152(r2)
   2521c:	002d7340 	call	2d734 <lseek>
   25220:	10ffffd8 	cmpnei	r3,r2,-1
   25224:	18000426 	beq	r3,zero,25238 <_lseek_r+0x44>
   25228:	dfc00117 	ldw	ra,4(sp)
   2522c:	dc000017 	ldw	r16,0(sp)
   25230:	dec00204 	addi	sp,sp,8
   25234:	f800283a 	ret
   25238:	00c000f4 	movhi	r3,3
   2523c:	18cfc617 	ldw	r3,16152(r3)
   25240:	183ff926 	beq	r3,zero,25228 <_lseek_r+0x34>
   25244:	80c00015 	stw	r3,0(r16)
   25248:	dfc00117 	ldw	ra,4(sp)
   2524c:	dc000017 	ldw	r16,0(sp)
   25250:	dec00204 	addi	sp,sp,8
   25254:	f800283a 	ret

00025258 <_mbtowc_r>:
   25258:	008000f4 	movhi	r2,3
   2525c:	1083f217 	ldw	r2,4040(r2)
   25260:	1000683a 	jmp	r2

00025264 <__ascii_mbtowc>:
   25264:	deffff04 	addi	sp,sp,-4
   25268:	28000826 	beq	r5,zero,2528c <__ascii_mbtowc+0x28>
   2526c:	30000926 	beq	r6,zero,25294 <__ascii_mbtowc+0x30>
   25270:	38000b26 	beq	r7,zero,252a0 <__ascii_mbtowc+0x3c>
   25274:	30800003 	ldbu	r2,0(r6)
   25278:	28800015 	stw	r2,0(r5)
   2527c:	30800003 	ldbu	r2,0(r6)
   25280:	1004c03a 	cmpne	r2,r2,zero
   25284:	dec00104 	addi	sp,sp,4
   25288:	f800283a 	ret
   2528c:	d80b883a 	mov	r5,sp
   25290:	303ff71e 	bne	r6,zero,25270 <__ascii_mbtowc+0xc>
   25294:	0005883a 	mov	r2,zero
   25298:	dec00104 	addi	sp,sp,4
   2529c:	f800283a 	ret
   252a0:	00bfff84 	movi	r2,-2
   252a4:	003ff706 	br	25284 <__ascii_mbtowc+0x20>

000252a8 <memcpy>:
   252a8:	30c00430 	cmpltui	r3,r6,16
   252ac:	2005883a 	mov	r2,r4
   252b0:	18002d1e 	bne	r3,zero,25368 <memcpy+0xc0>
   252b4:	2906b03a 	or	r3,r5,r4
   252b8:	18c000cc 	andi	r3,r3,3
   252bc:	1800351e 	bne	r3,zero,25394 <memcpy+0xec>
   252c0:	32fffc04 	addi	r11,r6,-16
   252c4:	5816d13a 	srli	r11,r11,4
   252c8:	280f883a 	mov	r7,r5
   252cc:	2007883a 	mov	r3,r4
   252d0:	5ac00044 	addi	r11,r11,1
   252d4:	5816913a 	slli	r11,r11,4
   252d8:	22d5883a 	add	r10,r4,r11
   252dc:	39000117 	ldw	r4,4(r7)
   252e0:	3a400017 	ldw	r9,0(r7)
   252e4:	3a000217 	ldw	r8,8(r7)
   252e8:	19000115 	stw	r4,4(r3)
   252ec:	39000317 	ldw	r4,12(r7)
   252f0:	1a400015 	stw	r9,0(r3)
   252f4:	1a000215 	stw	r8,8(r3)
   252f8:	19000315 	stw	r4,12(r3)
   252fc:	18c00404 	addi	r3,r3,16
   25300:	39c00404 	addi	r7,r7,16
   25304:	50fff51e 	bne	r10,r3,252dc <memcpy+0x34>
   25308:	3100030c 	andi	r4,r6,12
   2530c:	2acb883a 	add	r5,r5,r11
   25310:	320003cc 	andi	r8,r6,15
   25314:	20002226 	beq	r4,zero,253a0 <memcpy+0xf8>
   25318:	280f883a 	mov	r7,r5
   2531c:	1813883a 	mov	r9,r3
   25320:	39c00104 	addi	r7,r7,4
   25324:	3abfff17 	ldw	r10,-4(r7)
   25328:	41c9c83a 	sub	r4,r8,r7
   2532c:	2909883a 	add	r4,r5,r4
   25330:	4a800015 	stw	r10,0(r9)
   25334:	21000128 	cmpgeui	r4,r4,4
   25338:	4a400104 	addi	r9,r9,4
   2533c:	203ff81e 	bne	r4,zero,25320 <memcpy+0x78>
   25340:	413fff04 	addi	r4,r8,-4
   25344:	2008d0ba 	srli	r4,r4,2
   25348:	318000cc 	andi	r6,r6,3
   2534c:	31ffffc4 	addi	r7,r6,-1
   25350:	21000044 	addi	r4,r4,1
   25354:	200890ba 	slli	r4,r4,2
   25358:	1907883a 	add	r3,r3,r4
   2535c:	290b883a 	add	r5,r5,r4
   25360:	3000041e 	bne	r6,zero,25374 <memcpy+0xcc>
   25364:	f800283a 	ret
   25368:	2007883a 	mov	r3,r4
   2536c:	31ffffc4 	addi	r7,r6,-1
   25370:	303ffc26 	beq	r6,zero,25364 <memcpy+0xbc>
   25374:	39c00044 	addi	r7,r7,1
   25378:	19cf883a 	add	r7,r3,r7
   2537c:	29800003 	ldbu	r6,0(r5)
   25380:	18c00044 	addi	r3,r3,1
   25384:	29400044 	addi	r5,r5,1
   25388:	19bfffc5 	stb	r6,-1(r3)
   2538c:	38fffb1e 	bne	r7,r3,2537c <memcpy+0xd4>
   25390:	f800283a 	ret
   25394:	31ffffc4 	addi	r7,r6,-1
   25398:	2007883a 	mov	r3,r4
   2539c:	003ff506 	br	25374 <memcpy+0xcc>
   253a0:	400d883a 	mov	r6,r8
   253a4:	003ff106 	br	2536c <memcpy+0xc4>

000253a8 <memset>:
   253a8:	20c000cc 	andi	r3,r4,3
   253ac:	2005883a 	mov	r2,r4
   253b0:	18003626 	beq	r3,zero,2548c <memset+0xe4>
   253b4:	31ffffc4 	addi	r7,r6,-1
   253b8:	30003326 	beq	r6,zero,25488 <memset+0xe0>
   253bc:	2811883a 	mov	r8,r5
   253c0:	2007883a 	mov	r3,r4
   253c4:	00000306 	br	253d4 <memset+0x2c>
   253c8:	39ffffc4 	addi	r7,r7,-1
   253cc:	39bfffe0 	cmpeqi	r6,r7,-1
   253d0:	30002d1e 	bne	r6,zero,25488 <memset+0xe0>
   253d4:	18c00044 	addi	r3,r3,1
   253d8:	198000cc 	andi	r6,r3,3
   253dc:	1a3fffc5 	stb	r8,-1(r3)
   253e0:	303ff91e 	bne	r6,zero,253c8 <memset+0x20>
   253e4:	39000130 	cmpltui	r4,r7,4
   253e8:	2000221e 	bne	r4,zero,25474 <memset+0xcc>
   253ec:	29003fcc 	andi	r4,r5,255
   253f0:	200c923a 	slli	r6,r4,8
   253f4:	3a000430 	cmpltui	r8,r7,16
   253f8:	3108b03a 	or	r4,r6,r4
   253fc:	200c943a 	slli	r6,r4,16
   25400:	310cb03a 	or	r6,r6,r4
   25404:	40000e1e 	bne	r8,zero,25440 <memset+0x98>
   25408:	393ffc04 	addi	r4,r7,-16
   2540c:	2008d13a 	srli	r4,r4,4
   25410:	21000044 	addi	r4,r4,1
   25414:	2008913a 	slli	r4,r4,4
   25418:	1909883a 	add	r4,r3,r4
   2541c:	19800015 	stw	r6,0(r3)
   25420:	19800115 	stw	r6,4(r3)
   25424:	19800215 	stw	r6,8(r3)
   25428:	19800315 	stw	r6,12(r3)
   2542c:	18c00404 	addi	r3,r3,16
   25430:	20fffa1e 	bne	r4,r3,2541c <memset+0x74>
   25434:	3900030c 	andi	r4,r7,12
   25438:	39c003cc 	andi	r7,r7,15
   2543c:	20000d26 	beq	r4,zero,25474 <memset+0xcc>
   25440:	1811883a 	mov	r8,r3
   25444:	42000104 	addi	r8,r8,4
   25448:	3a09c83a 	sub	r4,r7,r8
   2544c:	1909883a 	add	r4,r3,r4
   25450:	21000128 	cmpgeui	r4,r4,4
   25454:	41bfff15 	stw	r6,-4(r8)
   25458:	203ffa1e 	bne	r4,zero,25444 <memset+0x9c>
   2545c:	393fff04 	addi	r4,r7,-4
   25460:	2008d0ba 	srli	r4,r4,2
   25464:	39c000cc 	andi	r7,r7,3
   25468:	21000044 	addi	r4,r4,1
   2546c:	200890ba 	slli	r4,r4,2
   25470:	1907883a 	add	r3,r3,r4
   25474:	38000426 	beq	r7,zero,25488 <memset+0xe0>
   25478:	19cf883a 	add	r7,r3,r7
   2547c:	18c00044 	addi	r3,r3,1
   25480:	197fffc5 	stb	r5,-1(r3)
   25484:	38fffd1e 	bne	r7,r3,2547c <memset+0xd4>
   25488:	f800283a 	ret
   2548c:	2007883a 	mov	r3,r4
   25490:	300f883a 	mov	r7,r6
   25494:	003fd306 	br	253e4 <memset+0x3c>

00025498 <_Balloc>:
   25498:	20801317 	ldw	r2,76(r4)
   2549c:	defffc04 	addi	sp,sp,-16
   254a0:	dc400115 	stw	r17,4(sp)
   254a4:	dc000015 	stw	r16,0(sp)
   254a8:	dfc00315 	stw	ra,12(sp)
   254ac:	dc800215 	stw	r18,8(sp)
   254b0:	2021883a 	mov	r16,r4
   254b4:	2823883a 	mov	r17,r5
   254b8:	10000e26 	beq	r2,zero,254f4 <_Balloc+0x5c>
   254bc:	880690ba 	slli	r3,r17,2
   254c0:	10c7883a 	add	r3,r2,r3
   254c4:	18800017 	ldw	r2,0(r3)
   254c8:	10001126 	beq	r2,zero,25510 <_Balloc+0x78>
   254cc:	11000017 	ldw	r4,0(r2)
   254d0:	19000015 	stw	r4,0(r3)
   254d4:	10000415 	stw	zero,16(r2)
   254d8:	10000315 	stw	zero,12(r2)
   254dc:	dfc00317 	ldw	ra,12(sp)
   254e0:	dc800217 	ldw	r18,8(sp)
   254e4:	dc400117 	ldw	r17,4(sp)
   254e8:	dc000017 	ldw	r16,0(sp)
   254ec:	dec00404 	addi	sp,sp,16
   254f0:	f800283a 	ret
   254f4:	01800844 	movi	r6,33
   254f8:	01400104 	movi	r5,4
   254fc:	00268fc0 	call	268fc <_calloc_r>
   25500:	80801315 	stw	r2,76(r16)
   25504:	103fed1e 	bne	r2,zero,254bc <_Balloc+0x24>
   25508:	0005883a 	mov	r2,zero
   2550c:	003ff306 	br	254dc <_Balloc+0x44>
   25510:	04800044 	movi	r18,1
   25514:	9464983a 	sll	r18,r18,r17
   25518:	01400044 	movi	r5,1
   2551c:	8009883a 	mov	r4,r16
   25520:	91800144 	addi	r6,r18,5
   25524:	300c90ba 	slli	r6,r6,2
   25528:	00268fc0 	call	268fc <_calloc_r>
   2552c:	103ff626 	beq	r2,zero,25508 <_Balloc+0x70>
   25530:	14400115 	stw	r17,4(r2)
   25534:	14800215 	stw	r18,8(r2)
   25538:	003fe606 	br	254d4 <_Balloc+0x3c>

0002553c <_Bfree>:
   2553c:	28000726 	beq	r5,zero,2555c <_Bfree+0x20>
   25540:	28c00117 	ldw	r3,4(r5)
   25544:	20801317 	ldw	r2,76(r4)
   25548:	180690ba 	slli	r3,r3,2
   2554c:	10c5883a 	add	r2,r2,r3
   25550:	10c00017 	ldw	r3,0(r2)
   25554:	28c00015 	stw	r3,0(r5)
   25558:	11400015 	stw	r5,0(r2)
   2555c:	f800283a 	ret

00025560 <__multadd>:
   25560:	defff704 	addi	sp,sp,-36
   25564:	dc800215 	stw	r18,8(sp)
   25568:	2c800417 	ldw	r18,16(r5)
   2556c:	ddc00715 	stw	r23,28(sp)
   25570:	dd800615 	stw	r22,24(sp)
   25574:	dd400515 	stw	r21,20(sp)
   25578:	dd000415 	stw	r20,16(sp)
   2557c:	dcc00315 	stw	r19,12(sp)
   25580:	dc400115 	stw	r17,4(sp)
   25584:	dfc00815 	stw	ra,32(sp)
   25588:	dc000015 	stw	r16,0(sp)
   2558c:	2827883a 	mov	r19,r5
   25590:	2029883a 	mov	r20,r4
   25594:	302b883a 	mov	r21,r6
   25598:	3823883a 	mov	r17,r7
   2559c:	2d800504 	addi	r22,r5,20
   255a0:	002f883a 	mov	r23,zero
   255a4:	b4000017 	ldw	r16,0(r22)
   255a8:	a80b883a 	mov	r5,r21
   255ac:	b5800104 	addi	r22,r22,4
   255b0:	813fffcc 	andi	r4,r16,65535
   255b4:	002a4ac0 	call	2a4ac <__mulsi3>
   255b8:	8008d43a 	srli	r4,r16,16
   255bc:	a80b883a 	mov	r5,r21
   255c0:	1461883a 	add	r16,r2,r17
   255c4:	002a4ac0 	call	2a4ac <__mulsi3>
   255c8:	800ed43a 	srli	r7,r16,16
   255cc:	843fffcc 	andi	r16,r16,65535
   255d0:	bdc00044 	addi	r23,r23,1
   255d4:	11c5883a 	add	r2,r2,r7
   255d8:	1006943a 	slli	r3,r2,16
   255dc:	1022d43a 	srli	r17,r2,16
   255e0:	1c21883a 	add	r16,r3,r16
   255e4:	b43fff15 	stw	r16,-4(r22)
   255e8:	bcbfee16 	blt	r23,r18,255a4 <__multadd+0x44>
   255ec:	88000826 	beq	r17,zero,25610 <__multadd+0xb0>
   255f0:	98800217 	ldw	r2,8(r19)
   255f4:	9080120e 	bge	r18,r2,25640 <__multadd+0xe0>
   255f8:	90800144 	addi	r2,r18,5
   255fc:	100490ba 	slli	r2,r2,2
   25600:	94800044 	addi	r18,r18,1
   25604:	9885883a 	add	r2,r19,r2
   25608:	14400015 	stw	r17,0(r2)
   2560c:	9c800415 	stw	r18,16(r19)
   25610:	9805883a 	mov	r2,r19
   25614:	dfc00817 	ldw	ra,32(sp)
   25618:	ddc00717 	ldw	r23,28(sp)
   2561c:	dd800617 	ldw	r22,24(sp)
   25620:	dd400517 	ldw	r21,20(sp)
   25624:	dd000417 	ldw	r20,16(sp)
   25628:	dcc00317 	ldw	r19,12(sp)
   2562c:	dc800217 	ldw	r18,8(sp)
   25630:	dc400117 	ldw	r17,4(sp)
   25634:	dc000017 	ldw	r16,0(sp)
   25638:	dec00904 	addi	sp,sp,36
   2563c:	f800283a 	ret
   25640:	99400117 	ldw	r5,4(r19)
   25644:	a009883a 	mov	r4,r20
   25648:	29400044 	addi	r5,r5,1
   2564c:	00254980 	call	25498 <_Balloc>
   25650:	1021883a 	mov	r16,r2
   25654:	10001226 	beq	r2,zero,256a0 <__multadd+0x140>
   25658:	99800417 	ldw	r6,16(r19)
   2565c:	99400304 	addi	r5,r19,12
   25660:	11000304 	addi	r4,r2,12
   25664:	31800084 	addi	r6,r6,2
   25668:	300c90ba 	slli	r6,r6,2
   2566c:	00252a80 	call	252a8 <memcpy>
   25670:	98000926 	beq	r19,zero,25698 <__multadd+0x138>
   25674:	98c00117 	ldw	r3,4(r19)
   25678:	a0801317 	ldw	r2,76(r20)
   2567c:	180690ba 	slli	r3,r3,2
   25680:	10c5883a 	add	r2,r2,r3
   25684:	10c00017 	ldw	r3,0(r2)
   25688:	98c00015 	stw	r3,0(r19)
   2568c:	14c00015 	stw	r19,0(r2)
   25690:	8027883a 	mov	r19,r16
   25694:	003fd806 	br	255f8 <__multadd+0x98>
   25698:	8027883a 	mov	r19,r16
   2569c:	003fd606 	br	255f8 <__multadd+0x98>
   256a0:	01c000f4 	movhi	r7,3
   256a4:	010000f4 	movhi	r4,3
   256a8:	39ffd804 	addi	r7,r7,-160
   256ac:	000d883a 	mov	r6,zero
   256b0:	01402d44 	movi	r5,181
   256b4:	21003604 	addi	r4,r4,216
   256b8:	00268840 	call	26884 <__assert_func>

000256bc <__s2b>:
   256bc:	defff904 	addi	sp,sp,-28
   256c0:	dc800215 	stw	r18,8(sp)
   256c4:	dc000015 	stw	r16,0(sp)
   256c8:	2025883a 	mov	r18,r4
   256cc:	2821883a 	mov	r16,r5
   256d0:	39000204 	addi	r4,r7,8
   256d4:	01400244 	movi	r5,9
   256d8:	dcc00315 	stw	r19,12(sp)
   256dc:	dc400115 	stw	r17,4(sp)
   256e0:	dfc00615 	stw	ra,24(sp)
   256e4:	3823883a 	mov	r17,r7
   256e8:	dd400515 	stw	r21,20(sp)
   256ec:	dd000415 	stw	r20,16(sp)
   256f0:	3027883a 	mov	r19,r6
   256f4:	002a2f80 	call	2a2f8 <__divsi3>
   256f8:	88c00290 	cmplti	r3,r17,10
   256fc:	1800341e 	bne	r3,zero,257d0 <__s2b+0x114>
   25700:	00c00044 	movi	r3,1
   25704:	000b883a 	mov	r5,zero
   25708:	18c7883a 	add	r3,r3,r3
   2570c:	29400044 	addi	r5,r5,1
   25710:	18bffd16 	blt	r3,r2,25708 <__s2b+0x4c>
   25714:	9009883a 	mov	r4,r18
   25718:	00254980 	call	25498 <_Balloc>
   2571c:	100b883a 	mov	r5,r2
   25720:	10002d26 	beq	r2,zero,257d8 <__s2b+0x11c>
   25724:	d8800717 	ldw	r2,28(sp)
   25728:	28800515 	stw	r2,20(r5)
   2572c:	00800044 	movi	r2,1
   25730:	28800415 	stw	r2,16(r5)
   25734:	98800290 	cmplti	r2,r19,10
   25738:	1000221e 	bne	r2,zero,257c4 <__s2b+0x108>
   2573c:	85400244 	addi	r21,r16,9
   25740:	a829883a 	mov	r20,r21
   25744:	84e1883a 	add	r16,r16,r19
   25748:	a1c00007 	ldb	r7,0(r20)
   2574c:	01800284 	movi	r6,10
   25750:	9009883a 	mov	r4,r18
   25754:	39fff404 	addi	r7,r7,-48
   25758:	00255600 	call	25560 <__multadd>
   2575c:	a5000044 	addi	r20,r20,1
   25760:	100b883a 	mov	r5,r2
   25764:	a43ff81e 	bne	r20,r16,25748 <__s2b+0x8c>
   25768:	9c3ffe04 	addi	r16,r19,-8
   2576c:	ac21883a 	add	r16,r21,r16
   25770:	9c400a0e 	bge	r19,r17,2579c <__s2b+0xe0>
   25774:	8ce3c83a 	sub	r17,r17,r19
   25778:	8463883a 	add	r17,r16,r17
   2577c:	81c00007 	ldb	r7,0(r16)
   25780:	01800284 	movi	r6,10
   25784:	9009883a 	mov	r4,r18
   25788:	39fff404 	addi	r7,r7,-48
   2578c:	00255600 	call	25560 <__multadd>
   25790:	84000044 	addi	r16,r16,1
   25794:	100b883a 	mov	r5,r2
   25798:	8c3ff81e 	bne	r17,r16,2577c <__s2b+0xc0>
   2579c:	2805883a 	mov	r2,r5
   257a0:	dfc00617 	ldw	ra,24(sp)
   257a4:	dd400517 	ldw	r21,20(sp)
   257a8:	dd000417 	ldw	r20,16(sp)
   257ac:	dcc00317 	ldw	r19,12(sp)
   257b0:	dc800217 	ldw	r18,8(sp)
   257b4:	dc400117 	ldw	r17,4(sp)
   257b8:	dc000017 	ldw	r16,0(sp)
   257bc:	dec00704 	addi	sp,sp,28
   257c0:	f800283a 	ret
   257c4:	84000284 	addi	r16,r16,10
   257c8:	04c00244 	movi	r19,9
   257cc:	003fe806 	br	25770 <__s2b+0xb4>
   257d0:	000b883a 	mov	r5,zero
   257d4:	003fcf06 	br	25714 <__s2b+0x58>
   257d8:	01c000f4 	movhi	r7,3
   257dc:	010000f4 	movhi	r4,3
   257e0:	39ffd804 	addi	r7,r7,-160
   257e4:	000d883a 	mov	r6,zero
   257e8:	01403384 	movi	r5,206
   257ec:	21003604 	addi	r4,r4,216
   257f0:	00268840 	call	26884 <__assert_func>

000257f4 <__hi0bits>:
   257f4:	20bfffec 	andhi	r2,r4,65535
   257f8:	1000131e 	bne	r2,zero,25848 <__hi0bits+0x54>
   257fc:	2008943a 	slli	r4,r4,16
   25800:	00800404 	movi	r2,16
   25804:	20ffc02c 	andhi	r3,r4,65280
   25808:	1800021e 	bne	r3,zero,25814 <__hi0bits+0x20>
   2580c:	2008923a 	slli	r4,r4,8
   25810:	10800204 	addi	r2,r2,8
   25814:	20fc002c 	andhi	r3,r4,61440
   25818:	1800021e 	bne	r3,zero,25824 <__hi0bits+0x30>
   2581c:	2008913a 	slli	r4,r4,4
   25820:	10800104 	addi	r2,r2,4
   25824:	20f0002c 	andhi	r3,r4,49152
   25828:	1800021e 	bne	r3,zero,25834 <__hi0bits+0x40>
   2582c:	200890ba 	slli	r4,r4,2
   25830:	10800084 	addi	r2,r2,2
   25834:	20000316 	blt	r4,zero,25844 <__hi0bits+0x50>
   25838:	2110002c 	andhi	r4,r4,16384
   2583c:	10800044 	addi	r2,r2,1
   25840:	20000326 	beq	r4,zero,25850 <__hi0bits+0x5c>
   25844:	f800283a 	ret
   25848:	0005883a 	mov	r2,zero
   2584c:	003fed06 	br	25804 <__hi0bits+0x10>
   25850:	00800804 	movi	r2,32
   25854:	f800283a 	ret

00025858 <__lo0bits>:
   25858:	20c00017 	ldw	r3,0(r4)
   2585c:	188001cc 	andi	r2,r3,7
   25860:	10000826 	beq	r2,zero,25884 <__lo0bits+0x2c>
   25864:	1880004c 	andi	r2,r3,1
   25868:	10001f1e 	bne	r2,zero,258e8 <__lo0bits+0x90>
   2586c:	1880008c 	andi	r2,r3,2
   25870:	10002126 	beq	r2,zero,258f8 <__lo0bits+0xa0>
   25874:	1806d07a 	srli	r3,r3,1
   25878:	00800044 	movi	r2,1
   2587c:	20c00015 	stw	r3,0(r4)
   25880:	f800283a 	ret
   25884:	18bfffcc 	andi	r2,r3,65535
   25888:	10001426 	beq	r2,zero,258dc <__lo0bits+0x84>
   2588c:	0005883a 	mov	r2,zero
   25890:	19403fcc 	andi	r5,r3,255
   25894:	2800021e 	bne	r5,zero,258a0 <__lo0bits+0x48>
   25898:	1806d23a 	srli	r3,r3,8
   2589c:	10800204 	addi	r2,r2,8
   258a0:	194003cc 	andi	r5,r3,15
   258a4:	2800021e 	bne	r5,zero,258b0 <__lo0bits+0x58>
   258a8:	1806d13a 	srli	r3,r3,4
   258ac:	10800104 	addi	r2,r2,4
   258b0:	194000cc 	andi	r5,r3,3
   258b4:	2800021e 	bne	r5,zero,258c0 <__lo0bits+0x68>
   258b8:	1806d0ba 	srli	r3,r3,2
   258bc:	10800084 	addi	r2,r2,2
   258c0:	1940004c 	andi	r5,r3,1
   258c4:	2800031e 	bne	r5,zero,258d4 <__lo0bits+0x7c>
   258c8:	1806d07a 	srli	r3,r3,1
   258cc:	10800044 	addi	r2,r2,1
   258d0:	18000726 	beq	r3,zero,258f0 <__lo0bits+0x98>
   258d4:	20c00015 	stw	r3,0(r4)
   258d8:	f800283a 	ret
   258dc:	1806d43a 	srli	r3,r3,16
   258e0:	00800404 	movi	r2,16
   258e4:	003fea06 	br	25890 <__lo0bits+0x38>
   258e8:	0005883a 	mov	r2,zero
   258ec:	f800283a 	ret
   258f0:	00800804 	movi	r2,32
   258f4:	f800283a 	ret
   258f8:	1806d0ba 	srli	r3,r3,2
   258fc:	00800084 	movi	r2,2
   25900:	20c00015 	stw	r3,0(r4)
   25904:	f800283a 	ret

00025908 <__i2b>:
   25908:	defffe04 	addi	sp,sp,-8
   2590c:	dc000015 	stw	r16,0(sp)
   25910:	2821883a 	mov	r16,r5
   25914:	01400044 	movi	r5,1
   25918:	dfc00115 	stw	ra,4(sp)
   2591c:	00254980 	call	25498 <_Balloc>
   25920:	10000726 	beq	r2,zero,25940 <__i2b+0x38>
   25924:	01000044 	movi	r4,1
   25928:	14000515 	stw	r16,20(r2)
   2592c:	11000415 	stw	r4,16(r2)
   25930:	dfc00117 	ldw	ra,4(sp)
   25934:	dc000017 	ldw	r16,0(sp)
   25938:	dec00204 	addi	sp,sp,8
   2593c:	f800283a 	ret
   25940:	01c000f4 	movhi	r7,3
   25944:	010000f4 	movhi	r4,3
   25948:	39ffd804 	addi	r7,r7,-160
   2594c:	000d883a 	mov	r6,zero
   25950:	01405004 	movi	r5,320
   25954:	21003604 	addi	r4,r4,216
   25958:	00268840 	call	26884 <__assert_func>

0002595c <__multiply>:
   2595c:	defff004 	addi	sp,sp,-64
   25960:	dd800c15 	stw	r22,48(sp)
   25964:	dc400715 	stw	r17,28(sp)
   25968:	2d800417 	ldw	r22,16(r5)
   2596c:	34400417 	ldw	r17,16(r6)
   25970:	dc800815 	stw	r18,32(sp)
   25974:	dc000615 	stw	r16,24(sp)
   25978:	dfc00f15 	stw	ra,60(sp)
   2597c:	df000e15 	stw	fp,56(sp)
   25980:	ddc00d15 	stw	r23,52(sp)
   25984:	dd400b15 	stw	r21,44(sp)
   25988:	dd000a15 	stw	r20,40(sp)
   2598c:	dcc00915 	stw	r19,36(sp)
   25990:	2825883a 	mov	r18,r5
   25994:	3021883a 	mov	r16,r6
   25998:	b4400516 	blt	r22,r17,259b0 <__multiply+0x54>
   2599c:	8807883a 	mov	r3,r17
   259a0:	2821883a 	mov	r16,r5
   259a4:	b023883a 	mov	r17,r22
   259a8:	3025883a 	mov	r18,r6
   259ac:	182d883a 	mov	r22,r3
   259b0:	80800217 	ldw	r2,8(r16)
   259b4:	8d87883a 	add	r3,r17,r22
   259b8:	d8c00115 	stw	r3,4(sp)
   259bc:	81400117 	ldw	r5,4(r16)
   259c0:	10c0010e 	bge	r2,r3,259c8 <__multiply+0x6c>
   259c4:	29400044 	addi	r5,r5,1
   259c8:	00254980 	call	25498 <_Balloc>
   259cc:	d8800515 	stw	r2,20(sp)
   259d0:	10008626 	beq	r2,zero,25bec <__multiply+0x290>
   259d4:	d8800117 	ldw	r2,4(sp)
   259d8:	102690ba 	slli	r19,r2,2
   259dc:	d8800517 	ldw	r2,20(sp)
   259e0:	10c00504 	addi	r3,r2,20
   259e4:	d8c00015 	stw	r3,0(sp)
   259e8:	1ce7883a 	add	r19,r3,r19
   259ec:	1805883a 	mov	r2,r3
   259f0:	1cc0032e 	bgeu	r3,r19,25a00 <__multiply+0xa4>
   259f4:	10000015 	stw	zero,0(r2)
   259f8:	10800104 	addi	r2,r2,4
   259fc:	14fffd36 	bltu	r2,r19,259f4 <__multiply+0x98>
   25a00:	b02c90ba 	slli	r22,r22,2
   25a04:	882290ba 	slli	r17,r17,2
   25a08:	94800504 	addi	r18,r18,20
   25a0c:	80800504 	addi	r2,r16,20
   25a10:	9587883a 	add	r3,r18,r22
   25a14:	d8800315 	stw	r2,12(sp)
   25a18:	d8c00215 	stw	r3,8(sp)
   25a1c:	1463883a 	add	r17,r2,r17
   25a20:	90c0342e 	bgeu	r18,r3,25af4 <__multiply+0x198>
   25a24:	80800544 	addi	r2,r16,21
   25a28:	88804b36 	bltu	r17,r2,25b58 <__multiply+0x1fc>
   25a2c:	8c05c83a 	sub	r2,r17,r16
   25a30:	10bffac4 	addi	r2,r2,-21
   25a34:	1004d0ba 	srli	r2,r2,2
   25a38:	10800044 	addi	r2,r2,1
   25a3c:	100490ba 	slli	r2,r2,2
   25a40:	d8800415 	stw	r2,16(sp)
   25a44:	00000606 	br	25a60 <__multiply+0x104>
   25a48:	d8800017 	ldw	r2,0(sp)
   25a4c:	94800104 	addi	r18,r18,4
   25a50:	10800104 	addi	r2,r2,4
   25a54:	d8800015 	stw	r2,0(sp)
   25a58:	d8800217 	ldw	r2,8(sp)
   25a5c:	9080252e 	bgeu	r18,r2,25af4 <__multiply+0x198>
   25a60:	90800017 	ldw	r2,0(r18)
   25a64:	15ffffcc 	andi	r23,r2,65535
   25a68:	b800401e 	bne	r23,zero,25b6c <__multiply+0x210>
   25a6c:	1028d43a 	srli	r20,r2,16
   25a70:	a03ff526 	beq	r20,zero,25a48 <__multiply+0xec>
   25a74:	dd400017 	ldw	r21,0(sp)
   25a78:	dd800317 	ldw	r22,12(sp)
   25a7c:	0039883a 	mov	fp,zero
   25a80:	adc00017 	ldw	r23,0(r21)
   25a84:	b821883a 	mov	r16,r23
   25a88:	b100000b 	ldhu	r4,0(r22)
   25a8c:	a00b883a 	mov	r5,r20
   25a90:	ad400104 	addi	r21,r21,4
   25a94:	002a4ac0 	call	2a4ac <__mulsi3>
   25a98:	800cd43a 	srli	r6,r16,16
   25a9c:	b8ffffcc 	andi	r3,r23,65535
   25aa0:	b5800104 	addi	r22,r22,4
   25aa4:	118d883a 	add	r6,r2,r6
   25aa8:	3739883a 	add	fp,r6,fp
   25aac:	e004943a 	slli	r2,fp,16
   25ab0:	ac000017 	ldw	r16,0(r21)
   25ab4:	a00b883a 	mov	r5,r20
   25ab8:	10c6b03a 	or	r3,r2,r3
   25abc:	a8ffff15 	stw	r3,-4(r21)
   25ac0:	b13fff8b 	ldhu	r4,-2(r22)
   25ac4:	002a4ac0 	call	2a4ac <__mulsi3>
   25ac8:	e00cd43a 	srli	r6,fp,16
   25acc:	80ffffcc 	andi	r3,r16,65535
   25ad0:	10c7883a 	add	r3,r2,r3
   25ad4:	19af883a 	add	r23,r3,r6
   25ad8:	b838d43a 	srli	fp,r23,16
   25adc:	b47fea36 	bltu	r22,r17,25a88 <__multiply+0x12c>
   25ae0:	d8800017 	ldw	r2,0(sp)
   25ae4:	d8c00417 	ldw	r3,16(sp)
   25ae8:	10c5883a 	add	r2,r2,r3
   25aec:	15c00015 	stw	r23,0(r2)
   25af0:	003fd506 	br	25a48 <__multiply+0xec>
   25af4:	d8800117 	ldw	r2,4(sp)
   25af8:	00800516 	blt	zero,r2,25b10 <__multiply+0x1b4>
   25afc:	00000706 	br	25b1c <__multiply+0x1c0>
   25b00:	d8800117 	ldw	r2,4(sp)
   25b04:	10bfffc4 	addi	r2,r2,-1
   25b08:	d8800115 	stw	r2,4(sp)
   25b0c:	10000326 	beq	r2,zero,25b1c <__multiply+0x1c0>
   25b10:	98bfff17 	ldw	r2,-4(r19)
   25b14:	9cffff04 	addi	r19,r19,-4
   25b18:	103ff926 	beq	r2,zero,25b00 <__multiply+0x1a4>
   25b1c:	d8800517 	ldw	r2,20(sp)
   25b20:	d8c00117 	ldw	r3,4(sp)
   25b24:	10c00415 	stw	r3,16(r2)
   25b28:	dfc00f17 	ldw	ra,60(sp)
   25b2c:	df000e17 	ldw	fp,56(sp)
   25b30:	ddc00d17 	ldw	r23,52(sp)
   25b34:	dd800c17 	ldw	r22,48(sp)
   25b38:	dd400b17 	ldw	r21,44(sp)
   25b3c:	dd000a17 	ldw	r20,40(sp)
   25b40:	dcc00917 	ldw	r19,36(sp)
   25b44:	dc800817 	ldw	r18,32(sp)
   25b48:	dc400717 	ldw	r17,28(sp)
   25b4c:	dc000617 	ldw	r16,24(sp)
   25b50:	dec01004 	addi	sp,sp,64
   25b54:	f800283a 	ret
   25b58:	00800104 	movi	r2,4
   25b5c:	d8800415 	stw	r2,16(sp)
   25b60:	90800017 	ldw	r2,0(r18)
   25b64:	15ffffcc 	andi	r23,r2,65535
   25b68:	b83fc026 	beq	r23,zero,25a6c <__multiply+0x110>
   25b6c:	dd800017 	ldw	r22,0(sp)
   25b70:	dd400317 	ldw	r21,12(sp)
   25b74:	0029883a 	mov	r20,zero
   25b78:	af000017 	ldw	fp,0(r21)
   25b7c:	b4000017 	ldw	r16,0(r22)
   25b80:	b80b883a 	mov	r5,r23
   25b84:	e13fffcc 	andi	r4,fp,65535
   25b88:	002a4ac0 	call	2a4ac <__mulsi3>
   25b8c:	e008d43a 	srli	r4,fp,16
   25b90:	823fffcc 	andi	r8,r16,65535
   25b94:	1205883a 	add	r2,r2,r8
   25b98:	b80b883a 	mov	r5,r23
   25b9c:	1529883a 	add	r20,r2,r20
   25ba0:	8020d43a 	srli	r16,r16,16
   25ba4:	002a4ac0 	call	2a4ac <__mulsi3>
   25ba8:	a008d43a 	srli	r4,r20,16
   25bac:	1405883a 	add	r2,r2,r16
   25bb0:	a0ffffcc 	andi	r3,r20,65535
   25bb4:	1105883a 	add	r2,r2,r4
   25bb8:	1008943a 	slli	r4,r2,16
   25bbc:	b5800104 	addi	r22,r22,4
   25bc0:	ad400104 	addi	r21,r21,4
   25bc4:	20c6b03a 	or	r3,r4,r3
   25bc8:	b0ffff15 	stw	r3,-4(r22)
   25bcc:	1028d43a 	srli	r20,r2,16
   25bd0:	ac7fe936 	bltu	r21,r17,25b78 <__multiply+0x21c>
   25bd4:	d8800017 	ldw	r2,0(sp)
   25bd8:	d8c00417 	ldw	r3,16(sp)
   25bdc:	10c5883a 	add	r2,r2,r3
   25be0:	15000015 	stw	r20,0(r2)
   25be4:	90800017 	ldw	r2,0(r18)
   25be8:	003fa006 	br	25a6c <__multiply+0x110>
   25bec:	01c000f4 	movhi	r7,3
   25bf0:	010000f4 	movhi	r4,3
   25bf4:	39ffd804 	addi	r7,r7,-160
   25bf8:	000d883a 	mov	r6,zero
   25bfc:	01405744 	movi	r5,349
   25c00:	21003604 	addi	r4,r4,216
   25c04:	00268840 	call	26884 <__assert_func>

00025c08 <__pow5mult>:
   25c08:	defffb04 	addi	sp,sp,-20
   25c0c:	dcc00315 	stw	r19,12(sp)
   25c10:	dc000015 	stw	r16,0(sp)
   25c14:	dfc00415 	stw	ra,16(sp)
   25c18:	dc800215 	stw	r18,8(sp)
   25c1c:	dc400115 	stw	r17,4(sp)
   25c20:	308000cc 	andi	r2,r6,3
   25c24:	3021883a 	mov	r16,r6
   25c28:	2027883a 	mov	r19,r4
   25c2c:	10002d1e 	bne	r2,zero,25ce4 <__pow5mult+0xdc>
   25c30:	2825883a 	mov	r18,r5
   25c34:	8021d0ba 	srai	r16,r16,2
   25c38:	80001926 	beq	r16,zero,25ca0 <__pow5mult+0x98>
   25c3c:	9c401217 	ldw	r17,72(r19)
   25c40:	8800061e 	bne	r17,zero,25c5c <__pow5mult+0x54>
   25c44:	00002f06 	br	25d04 <__pow5mult+0xfc>
   25c48:	8021d07a 	srai	r16,r16,1
   25c4c:	80001426 	beq	r16,zero,25ca0 <__pow5mult+0x98>
   25c50:	88800017 	ldw	r2,0(r17)
   25c54:	10001a26 	beq	r2,zero,25cc0 <__pow5mult+0xb8>
   25c58:	1023883a 	mov	r17,r2
   25c5c:	8080004c 	andi	r2,r16,1
   25c60:	103ff926 	beq	r2,zero,25c48 <__pow5mult+0x40>
   25c64:	880d883a 	mov	r6,r17
   25c68:	900b883a 	mov	r5,r18
   25c6c:	9809883a 	mov	r4,r19
   25c70:	002595c0 	call	2595c <__multiply>
   25c74:	90001926 	beq	r18,zero,25cdc <__pow5mult+0xd4>
   25c78:	91000117 	ldw	r4,4(r18)
   25c7c:	98c01317 	ldw	r3,76(r19)
   25c80:	8021d07a 	srai	r16,r16,1
   25c84:	200890ba 	slli	r4,r4,2
   25c88:	1907883a 	add	r3,r3,r4
   25c8c:	19000017 	ldw	r4,0(r3)
   25c90:	91000015 	stw	r4,0(r18)
   25c94:	1c800015 	stw	r18,0(r3)
   25c98:	1025883a 	mov	r18,r2
   25c9c:	803fec1e 	bne	r16,zero,25c50 <__pow5mult+0x48>
   25ca0:	9005883a 	mov	r2,r18
   25ca4:	dfc00417 	ldw	ra,16(sp)
   25ca8:	dcc00317 	ldw	r19,12(sp)
   25cac:	dc800217 	ldw	r18,8(sp)
   25cb0:	dc400117 	ldw	r17,4(sp)
   25cb4:	dc000017 	ldw	r16,0(sp)
   25cb8:	dec00504 	addi	sp,sp,20
   25cbc:	f800283a 	ret
   25cc0:	880d883a 	mov	r6,r17
   25cc4:	880b883a 	mov	r5,r17
   25cc8:	9809883a 	mov	r4,r19
   25ccc:	002595c0 	call	2595c <__multiply>
   25cd0:	88800015 	stw	r2,0(r17)
   25cd4:	10000015 	stw	zero,0(r2)
   25cd8:	003fdf06 	br	25c58 <__pow5mult+0x50>
   25cdc:	1025883a 	mov	r18,r2
   25ce0:	003fd906 	br	25c48 <__pow5mult+0x40>
   25ce4:	100490ba 	slli	r2,r2,2
   25ce8:	00c000f4 	movhi	r3,3
   25cec:	000f883a 	mov	r7,zero
   25cf0:	10c7883a 	add	r3,r2,r3
   25cf4:	19804517 	ldw	r6,276(r3)
   25cf8:	00255600 	call	25560 <__multadd>
   25cfc:	1025883a 	mov	r18,r2
   25d00:	003fcc06 	br	25c34 <__pow5mult+0x2c>
   25d04:	01409c44 	movi	r5,625
   25d08:	9809883a 	mov	r4,r19
   25d0c:	00259080 	call	25908 <__i2b>
   25d10:	98801215 	stw	r2,72(r19)
   25d14:	1023883a 	mov	r17,r2
   25d18:	10000015 	stw	zero,0(r2)
   25d1c:	003fcf06 	br	25c5c <__pow5mult+0x54>

00025d20 <__lshift>:
   25d20:	defff904 	addi	sp,sp,-28
   25d24:	dd400515 	stw	r21,20(sp)
   25d28:	dc800215 	stw	r18,8(sp)
   25d2c:	302bd17a 	srai	r21,r6,5
   25d30:	2c800417 	ldw	r18,16(r5)
   25d34:	28800217 	ldw	r2,8(r5)
   25d38:	dd000415 	stw	r20,16(sp)
   25d3c:	aca5883a 	add	r18,r21,r18
   25d40:	dcc00315 	stw	r19,12(sp)
   25d44:	dc400115 	stw	r17,4(sp)
   25d48:	dc000015 	stw	r16,0(sp)
   25d4c:	dfc00615 	stw	ra,24(sp)
   25d50:	94400044 	addi	r17,r18,1
   25d54:	2821883a 	mov	r16,r5
   25d58:	3029883a 	mov	r20,r6
   25d5c:	29400117 	ldw	r5,4(r5)
   25d60:	2027883a 	mov	r19,r4
   25d64:	1440030e 	bge	r2,r17,25d74 <__lshift+0x54>
   25d68:	1085883a 	add	r2,r2,r2
   25d6c:	29400044 	addi	r5,r5,1
   25d70:	147ffd16 	blt	r2,r17,25d68 <__lshift+0x48>
   25d74:	9809883a 	mov	r4,r19
   25d78:	00254980 	call	25498 <_Balloc>
   25d7c:	10004326 	beq	r2,zero,25e8c <__lshift+0x16c>
   25d80:	12000504 	addi	r8,r2,20
   25d84:	0540090e 	bge	zero,r21,25dac <__lshift+0x8c>
   25d88:	ad400144 	addi	r21,r21,5
   25d8c:	a82a90ba 	slli	r21,r21,2
   25d90:	4007883a 	mov	r3,r8
   25d94:	1549883a 	add	r4,r2,r21
   25d98:	18c00104 	addi	r3,r3,4
   25d9c:	183fff15 	stw	zero,-4(r3)
   25da0:	193ffd1e 	bne	r3,r4,25d98 <__lshift+0x78>
   25da4:	ad7ffb04 	addi	r21,r21,-20
   25da8:	4551883a 	add	r8,r8,r21
   25dac:	82400417 	ldw	r9,16(r16)
   25db0:	80c00504 	addi	r3,r16,20
   25db4:	a14007cc 	andi	r5,r20,31
   25db8:	481290ba 	slli	r9,r9,2
   25dbc:	1a53883a 	add	r9,r3,r9
   25dc0:	28002a26 	beq	r5,zero,25e6c <__lshift+0x14c>
   25dc4:	02800804 	movi	r10,32
   25dc8:	5155c83a 	sub	r10,r10,r5
   25dcc:	4009883a 	mov	r4,r8
   25dd0:	000f883a 	mov	r7,zero
   25dd4:	19800017 	ldw	r6,0(r3)
   25dd8:	21000104 	addi	r4,r4,4
   25ddc:	18c00104 	addi	r3,r3,4
   25de0:	314c983a 	sll	r6,r6,r5
   25de4:	31ccb03a 	or	r6,r6,r7
   25de8:	21bfff15 	stw	r6,-4(r4)
   25dec:	19bfff17 	ldw	r6,-4(r3)
   25df0:	328ed83a 	srl	r7,r6,r10
   25df4:	1a7ff736 	bltu	r3,r9,25dd4 <__lshift+0xb4>
   25df8:	80c00544 	addi	r3,r16,21
   25dfc:	48c02136 	bltu	r9,r3,25e84 <__lshift+0x164>
   25e00:	4c07c83a 	sub	r3,r9,r16
   25e04:	18fffac4 	addi	r3,r3,-21
   25e08:	1806d0ba 	srli	r3,r3,2
   25e0c:	18c00044 	addi	r3,r3,1
   25e10:	180690ba 	slli	r3,r3,2
   25e14:	40d1883a 	add	r8,r8,r3
   25e18:	41c00015 	stw	r7,0(r8)
   25e1c:	38000126 	beq	r7,zero,25e24 <__lshift+0x104>
   25e20:	8825883a 	mov	r18,r17
   25e24:	14800415 	stw	r18,16(r2)
   25e28:	80000726 	beq	r16,zero,25e48 <__lshift+0x128>
   25e2c:	81000117 	ldw	r4,4(r16)
   25e30:	98c01317 	ldw	r3,76(r19)
   25e34:	200890ba 	slli	r4,r4,2
   25e38:	1907883a 	add	r3,r3,r4
   25e3c:	19000017 	ldw	r4,0(r3)
   25e40:	81000015 	stw	r4,0(r16)
   25e44:	1c000015 	stw	r16,0(r3)
   25e48:	dfc00617 	ldw	ra,24(sp)
   25e4c:	dd400517 	ldw	r21,20(sp)
   25e50:	dd000417 	ldw	r20,16(sp)
   25e54:	dcc00317 	ldw	r19,12(sp)
   25e58:	dc800217 	ldw	r18,8(sp)
   25e5c:	dc400117 	ldw	r17,4(sp)
   25e60:	dc000017 	ldw	r16,0(sp)
   25e64:	dec00704 	addi	sp,sp,28
   25e68:	f800283a 	ret
   25e6c:	19000017 	ldw	r4,0(r3)
   25e70:	18c00104 	addi	r3,r3,4
   25e74:	42000104 	addi	r8,r8,4
   25e78:	413fff15 	stw	r4,-4(r8)
   25e7c:	1a7ffb36 	bltu	r3,r9,25e6c <__lshift+0x14c>
   25e80:	003fe806 	br	25e24 <__lshift+0x104>
   25e84:	00c00104 	movi	r3,4
   25e88:	003fe206 	br	25e14 <__lshift+0xf4>
   25e8c:	01c000f4 	movhi	r7,3
   25e90:	010000f4 	movhi	r4,3
   25e94:	39ffd804 	addi	r7,r7,-160
   25e98:	000d883a 	mov	r6,zero
   25e9c:	01407644 	movi	r5,473
   25ea0:	21003604 	addi	r4,r4,216
   25ea4:	00268840 	call	26884 <__assert_func>

00025ea8 <__mcmp>:
   25ea8:	21800417 	ldw	r6,16(r4)
   25eac:	28c00417 	ldw	r3,16(r5)
   25eb0:	30c5c83a 	sub	r2,r6,r3
   25eb4:	30c00e1e 	bne	r6,r3,25ef0 <__mcmp+0x48>
   25eb8:	180690ba 	slli	r3,r3,2
   25ebc:	21c00504 	addi	r7,r4,20
   25ec0:	29400504 	addi	r5,r5,20
   25ec4:	38c9883a 	add	r4,r7,r3
   25ec8:	28c7883a 	add	r3,r5,r3
   25ecc:	00000106 	br	25ed4 <__mcmp+0x2c>
   25ed0:	3900082e 	bgeu	r7,r4,25ef4 <__mcmp+0x4c>
   25ed4:	21bfff17 	ldw	r6,-4(r4)
   25ed8:	197fff17 	ldw	r5,-4(r3)
   25edc:	213fff04 	addi	r4,r4,-4
   25ee0:	18ffff04 	addi	r3,r3,-4
   25ee4:	317ffa26 	beq	r6,r5,25ed0 <__mcmp+0x28>
   25ee8:	3140032e 	bgeu	r6,r5,25ef8 <__mcmp+0x50>
   25eec:	00bfffc4 	movi	r2,-1
   25ef0:	f800283a 	ret
   25ef4:	f800283a 	ret
   25ef8:	00800044 	movi	r2,1
   25efc:	f800283a 	ret

00025f00 <__mdiff>:
   25f00:	28800417 	ldw	r2,16(r5)
   25f04:	30c00417 	ldw	r3,16(r6)
   25f08:	defffc04 	addi	sp,sp,-16
   25f0c:	dc800215 	stw	r18,8(sp)
   25f10:	dc400115 	stw	r17,4(sp)
   25f14:	dc000015 	stw	r16,0(sp)
   25f18:	dfc00315 	stw	ra,12(sp)
   25f1c:	2823883a 	mov	r17,r5
   25f20:	3021883a 	mov	r16,r6
   25f24:	10e5c83a 	sub	r18,r2,r3
   25f28:	10c0641e 	bne	r2,r3,260bc <__mdiff+0x1bc>
   25f2c:	180c90ba 	slli	r6,r3,2
   25f30:	29400504 	addi	r5,r5,20
   25f34:	80c00504 	addi	r3,r16,20
   25f38:	2985883a 	add	r2,r5,r6
   25f3c:	1987883a 	add	r3,r3,r6
   25f40:	00000106 	br	25f48 <__mdiff+0x48>
   25f44:	2880642e 	bgeu	r5,r2,260d8 <__mdiff+0x1d8>
   25f48:	11ffff17 	ldw	r7,-4(r2)
   25f4c:	19bfff17 	ldw	r6,-4(r3)
   25f50:	10bfff04 	addi	r2,r2,-4
   25f54:	18ffff04 	addi	r3,r3,-4
   25f58:	39bffa26 	beq	r7,r6,25f44 <__mdiff+0x44>
   25f5c:	39805236 	bltu	r7,r6,260a8 <__mdiff+0x1a8>
   25f60:	89400117 	ldw	r5,4(r17)
   25f64:	00254980 	call	25498 <_Balloc>
   25f68:	10006226 	beq	r2,zero,260f4 <__mdiff+0x1f4>
   25f6c:	8a400417 	ldw	r9,16(r17)
   25f70:	83000417 	ldw	r12,16(r16)
   25f74:	8ac00504 	addi	r11,r17,20
   25f78:	481090ba 	slli	r8,r9,2
   25f7c:	601890ba 	slli	r12,r12,2
   25f80:	81800504 	addi	r6,r16,20
   25f84:	13400504 	addi	r13,r2,20
   25f88:	14800315 	stw	r18,12(r2)
   25f8c:	5a11883a 	add	r8,r11,r8
   25f90:	3319883a 	add	r12,r6,r12
   25f94:	681d883a 	mov	r14,r13
   25f98:	5815883a 	mov	r10,r11
   25f9c:	0007883a 	mov	r3,zero
   25fa0:	51000017 	ldw	r4,0(r10)
   25fa4:	31c00017 	ldw	r7,0(r6)
   25fa8:	73800104 	addi	r14,r14,4
   25fac:	217fffcc 	andi	r5,r4,65535
   25fb0:	28cb883a 	add	r5,r5,r3
   25fb4:	38ffffcc 	andi	r3,r7,65535
   25fb8:	28cbc83a 	sub	r5,r5,r3
   25fbc:	380ed43a 	srli	r7,r7,16
   25fc0:	2006d43a 	srli	r3,r4,16
   25fc4:	2809d43a 	srai	r4,r5,16
   25fc8:	297fffcc 	andi	r5,r5,65535
   25fcc:	19c7c83a 	sub	r3,r3,r7
   25fd0:	1907883a 	add	r3,r3,r4
   25fd4:	1808943a 	slli	r4,r3,16
   25fd8:	31800104 	addi	r6,r6,4
   25fdc:	1807d43a 	srai	r3,r3,16
   25fe0:	214ab03a 	or	r5,r4,r5
   25fe4:	717fff15 	stw	r5,-4(r14)
   25fe8:	52800104 	addi	r10,r10,4
   25fec:	333fec36 	bltu	r6,r12,25fa0 <__mdiff+0xa0>
   25ff0:	640fc83a 	sub	r7,r12,r16
   25ff4:	39fffac4 	addi	r7,r7,-21
   25ff8:	84000544 	addi	r16,r16,21
   25ffc:	380ed0ba 	srli	r7,r7,2
   26000:	64003336 	bltu	r12,r16,260d0 <__mdiff+0x1d0>
   26004:	380890ba 	slli	r4,r7,2
   26008:	6909883a 	add	r4,r13,r4
   2600c:	64002e36 	bltu	r12,r16,260c8 <__mdiff+0x1c8>
   26010:	39800044 	addi	r6,r7,1
   26014:	300c90ba 	slli	r6,r6,2
   26018:	5997883a 	add	r11,r11,r6
   2601c:	699b883a 	add	r13,r13,r6
   26020:	5a00152e 	bgeu	r11,r8,26078 <__mdiff+0x178>
   26024:	680f883a 	mov	r7,r13
   26028:	580d883a 	mov	r6,r11
   2602c:	31000017 	ldw	r4,0(r6)
   26030:	39c00104 	addi	r7,r7,4
   26034:	31800104 	addi	r6,r6,4
   26038:	217fffcc 	andi	r5,r4,65535
   2603c:	28cb883a 	add	r5,r5,r3
   26040:	2815d43a 	srai	r10,r5,16
   26044:	2006d43a 	srli	r3,r4,16
   26048:	297fffcc 	andi	r5,r5,65535
   2604c:	1a87883a 	add	r3,r3,r10
   26050:	1814943a 	slli	r10,r3,16
   26054:	1807d43a 	srai	r3,r3,16
   26058:	514ab03a 	or	r5,r10,r5
   2605c:	397fff15 	stw	r5,-4(r7)
   26060:	323ff236 	bltu	r6,r8,2602c <__mdiff+0x12c>
   26064:	413fffc4 	addi	r4,r8,-1
   26068:	22c9c83a 	sub	r4,r4,r11
   2606c:	2008d0ba 	srli	r4,r4,2
   26070:	200890ba 	slli	r4,r4,2
   26074:	6909883a 	add	r4,r13,r4
   26078:	2800041e 	bne	r5,zero,2608c <__mdiff+0x18c>
   2607c:	20ffff17 	ldw	r3,-4(r4)
   26080:	4a7fffc4 	addi	r9,r9,-1
   26084:	213fff04 	addi	r4,r4,-4
   26088:	183ffc26 	beq	r3,zero,2607c <__mdiff+0x17c>
   2608c:	12400415 	stw	r9,16(r2)
   26090:	dfc00317 	ldw	ra,12(sp)
   26094:	dc800217 	ldw	r18,8(sp)
   26098:	dc400117 	ldw	r17,4(sp)
   2609c:	dc000017 	ldw	r16,0(sp)
   260a0:	dec00404 	addi	sp,sp,16
   260a4:	f800283a 	ret
   260a8:	8805883a 	mov	r2,r17
   260ac:	04800044 	movi	r18,1
   260b0:	8023883a 	mov	r17,r16
   260b4:	1021883a 	mov	r16,r2
   260b8:	003fa906 	br	25f60 <__mdiff+0x60>
   260bc:	903ffa16 	blt	r18,zero,260a8 <__mdiff+0x1a8>
   260c0:	0025883a 	mov	r18,zero
   260c4:	003fa606 	br	25f60 <__mdiff+0x60>
   260c8:	01800104 	movi	r6,4
   260cc:	003fd206 	br	26018 <__mdiff+0x118>
   260d0:	0009883a 	mov	r4,zero
   260d4:	003fcc06 	br	26008 <__mdiff+0x108>
   260d8:	000b883a 	mov	r5,zero
   260dc:	00254980 	call	25498 <_Balloc>
   260e0:	10000b26 	beq	r2,zero,26110 <__mdiff+0x210>
   260e4:	00c00044 	movi	r3,1
   260e8:	10c00415 	stw	r3,16(r2)
   260ec:	10000515 	stw	zero,20(r2)
   260f0:	003fe706 	br	26090 <__mdiff+0x190>
   260f4:	01c000f4 	movhi	r7,3
   260f8:	010000f4 	movhi	r4,3
   260fc:	39ffd804 	addi	r7,r7,-160
   26100:	000d883a 	mov	r6,zero
   26104:	01409004 	movi	r5,576
   26108:	21003604 	addi	r4,r4,216
   2610c:	00268840 	call	26884 <__assert_func>
   26110:	01c000f4 	movhi	r7,3
   26114:	010000f4 	movhi	r4,3
   26118:	39ffd804 	addi	r7,r7,-160
   2611c:	000d883a 	mov	r6,zero
   26120:	01408c84 	movi	r5,562
   26124:	21003604 	addi	r4,r4,216
   26128:	00268840 	call	26884 <__assert_func>

0002612c <__ulp>:
   2612c:	28dffc2c 	andhi	r3,r5,32752
   26130:	017f3034 	movhi	r5,64704
   26134:	1947883a 	add	r3,r3,r5
   26138:	00c0020e 	bge	zero,r3,26144 <__ulp+0x18>
   2613c:	0005883a 	mov	r2,zero
   26140:	f800283a 	ret
   26144:	00c7c83a 	sub	r3,zero,r3
   26148:	1807d53a 	srai	r3,r3,20
   2614c:	18800508 	cmpgei	r2,r3,20
   26150:	1000041e 	bne	r2,zero,26164 <__ulp+0x38>
   26154:	00800234 	movhi	r2,8
   26158:	10c7d83a 	sra	r3,r2,r3
   2615c:	0005883a 	mov	r2,zero
   26160:	f800283a 	ret
   26164:	193ffb04 	addi	r4,r3,-20
   26168:	208007c8 	cmpgei	r2,r4,31
   2616c:	0007883a 	mov	r3,zero
   26170:	1000031e 	bne	r2,zero,26180 <__ulp+0x54>
   26174:	00a00034 	movhi	r2,32768
   26178:	1104d83a 	srl	r2,r2,r4
   2617c:	f800283a 	ret
   26180:	00800044 	movi	r2,1
   26184:	f800283a 	ret

00026188 <__b2d>:
   26188:	defffa04 	addi	sp,sp,-24
   2618c:	dc400115 	stw	r17,4(sp)
   26190:	24400417 	ldw	r17,16(r4)
   26194:	dc000015 	stw	r16,0(sp)
   26198:	24000504 	addi	r16,r4,20
   2619c:	882290ba 	slli	r17,r17,2
   261a0:	dc800215 	stw	r18,8(sp)
   261a4:	dd000415 	stw	r20,16(sp)
   261a8:	8463883a 	add	r17,r16,r17
   261ac:	8cbfff17 	ldw	r18,-4(r17)
   261b0:	dcc00315 	stw	r19,12(sp)
   261b4:	dfc00515 	stw	ra,20(sp)
   261b8:	9009883a 	mov	r4,r18
   261bc:	2827883a 	mov	r19,r5
   261c0:	00257f40 	call	257f4 <__hi0bits>
   261c4:	01000804 	movi	r4,32
   261c8:	2087c83a 	sub	r3,r4,r2
   261cc:	98c00015 	stw	r3,0(r19)
   261d0:	10c002c8 	cmpgei	r3,r2,11
   261d4:	8d3fff04 	addi	r20,r17,-4
   261d8:	18001f26 	beq	r3,zero,26258 <__b2d+0xd0>
   261dc:	10fffd44 	addi	r3,r2,-11
   261e0:	85000e2e 	bgeu	r16,r20,2621c <__b2d+0x94>
   261e4:	88bffe17 	ldw	r2,-8(r17)
   261e8:	18001226 	beq	r3,zero,26234 <__b2d+0xac>
   261ec:	20c9c83a 	sub	r4,r4,r3
   261f0:	110cd83a 	srl	r6,r2,r4
   261f4:	90e4983a 	sll	r18,r18,r3
   261f8:	10c4983a 	sll	r2,r2,r3
   261fc:	897ffe04 	addi	r5,r17,-8
   26200:	9186b03a 	or	r3,r18,r6
   26204:	18cffc34 	orhi	r3,r3,16368
   26208:	81400b2e 	bgeu	r16,r5,26238 <__b2d+0xb0>
   2620c:	897ffd17 	ldw	r5,-12(r17)
   26210:	2908d83a 	srl	r4,r5,r4
   26214:	1104b03a 	or	r2,r2,r4
   26218:	00000706 	br	26238 <__b2d+0xb0>
   2621c:	18000426 	beq	r3,zero,26230 <__b2d+0xa8>
   26220:	90c6983a 	sll	r3,r18,r3
   26224:	0005883a 	mov	r2,zero
   26228:	18cffc34 	orhi	r3,r3,16368
   2622c:	00000206 	br	26238 <__b2d+0xb0>
   26230:	0005883a 	mov	r2,zero
   26234:	90cffc34 	orhi	r3,r18,16368
   26238:	dfc00517 	ldw	ra,20(sp)
   2623c:	dd000417 	ldw	r20,16(sp)
   26240:	dcc00317 	ldw	r19,12(sp)
   26244:	dc800217 	ldw	r18,8(sp)
   26248:	dc400117 	ldw	r17,4(sp)
   2624c:	dc000017 	ldw	r16,0(sp)
   26250:	dec00604 	addi	sp,sp,24
   26254:	f800283a 	ret
   26258:	014002c4 	movi	r5,11
   2625c:	2889c83a 	sub	r4,r5,r2
   26260:	9106d83a 	srl	r3,r18,r4
   26264:	18cffc34 	orhi	r3,r3,16368
   26268:	85000536 	bltu	r16,r20,26280 <__b2d+0xf8>
   2626c:	000b883a 	mov	r5,zero
   26270:	10800544 	addi	r2,r2,21
   26274:	9084983a 	sll	r2,r18,r2
   26278:	1144b03a 	or	r2,r2,r5
   2627c:	003fee06 	br	26238 <__b2d+0xb0>
   26280:	897ffe17 	ldw	r5,-8(r17)
   26284:	290ad83a 	srl	r5,r5,r4
   26288:	003ff906 	br	26270 <__b2d+0xe8>

0002628c <__d2b>:
   2628c:	defff804 	addi	sp,sp,-32
   26290:	dd000615 	stw	r20,24(sp)
   26294:	2829883a 	mov	r20,r5
   26298:	01400044 	movi	r5,1
   2629c:	dcc00515 	stw	r19,20(sp)
   262a0:	dc000215 	stw	r16,8(sp)
   262a4:	dfc00715 	stw	ra,28(sp)
   262a8:	dc800415 	stw	r18,16(sp)
   262ac:	dc400315 	stw	r17,12(sp)
   262b0:	3021883a 	mov	r16,r6
   262b4:	3827883a 	mov	r19,r7
   262b8:	00254980 	call	25498 <_Balloc>
   262bc:	10004526 	beq	r2,zero,263d4 <__d2b+0x148>
   262c0:	8024d53a 	srli	r18,r16,20
   262c4:	01800434 	movhi	r6,16
   262c8:	31bfffc4 	addi	r6,r6,-1
   262cc:	9481ffcc 	andi	r18,r18,2047
   262d0:	1023883a 	mov	r17,r2
   262d4:	81a0703a 	and	r16,r16,r6
   262d8:	90000126 	beq	r18,zero,262e0 <__d2b+0x54>
   262dc:	84000434 	orhi	r16,r16,16
   262e0:	dc000115 	stw	r16,4(sp)
   262e4:	a0002226 	beq	r20,zero,26370 <__d2b+0xe4>
   262e8:	d809883a 	mov	r4,sp
   262ec:	dd000015 	stw	r20,0(sp)
   262f0:	00258580 	call	25858 <__lo0bits>
   262f4:	d8c00117 	ldw	r3,4(sp)
   262f8:	10003326 	beq	r2,zero,263c8 <__d2b+0x13c>
   262fc:	01000804 	movi	r4,32
   26300:	2089c83a 	sub	r4,r4,r2
   26304:	1908983a 	sll	r4,r3,r4
   26308:	d9400017 	ldw	r5,0(sp)
   2630c:	1886d83a 	srl	r3,r3,r2
   26310:	2148b03a 	or	r4,r4,r5
   26314:	89000515 	stw	r4,20(r17)
   26318:	d8c00115 	stw	r3,4(sp)
   2631c:	88c00615 	stw	r3,24(r17)
   26320:	1800271e 	bne	r3,zero,263c0 <__d2b+0x134>
   26324:	04000044 	movi	r16,1
   26328:	8c000415 	stw	r16,16(r17)
   2632c:	90001926 	beq	r18,zero,26394 <__d2b+0x108>
   26330:	00c00d44 	movi	r3,53
   26334:	94bef344 	addi	r18,r18,-1075
   26338:	90a5883a 	add	r18,r18,r2
   2633c:	1885c83a 	sub	r2,r3,r2
   26340:	d8c00817 	ldw	r3,32(sp)
   26344:	9c800015 	stw	r18,0(r19)
   26348:	18800015 	stw	r2,0(r3)
   2634c:	8805883a 	mov	r2,r17
   26350:	dfc00717 	ldw	ra,28(sp)
   26354:	dd000617 	ldw	r20,24(sp)
   26358:	dcc00517 	ldw	r19,20(sp)
   2635c:	dc800417 	ldw	r18,16(sp)
   26360:	dc400317 	ldw	r17,12(sp)
   26364:	dc000217 	ldw	r16,8(sp)
   26368:	dec00804 	addi	sp,sp,32
   2636c:	f800283a 	ret
   26370:	d9000104 	addi	r4,sp,4
   26374:	00258580 	call	25858 <__lo0bits>
   26378:	00c00044 	movi	r3,1
   2637c:	88c00415 	stw	r3,16(r17)
   26380:	d8c00117 	ldw	r3,4(sp)
   26384:	10800804 	addi	r2,r2,32
   26388:	04000044 	movi	r16,1
   2638c:	88c00515 	stw	r3,20(r17)
   26390:	903fe71e 	bne	r18,zero,26330 <__d2b+0xa4>
   26394:	800690ba 	slli	r3,r16,2
   26398:	10bef384 	addi	r2,r2,-1074
   2639c:	98800015 	stw	r2,0(r19)
   263a0:	88c5883a 	add	r2,r17,r3
   263a4:	11000417 	ldw	r4,16(r2)
   263a8:	8020917a 	slli	r16,r16,5
   263ac:	00257f40 	call	257f4 <__hi0bits>
   263b0:	80a1c83a 	sub	r16,r16,r2
   263b4:	d8800817 	ldw	r2,32(sp)
   263b8:	14000015 	stw	r16,0(r2)
   263bc:	003fe306 	br	2634c <__d2b+0xc0>
   263c0:	04000084 	movi	r16,2
   263c4:	003fd806 	br	26328 <__d2b+0x9c>
   263c8:	d9000017 	ldw	r4,0(sp)
   263cc:	89000515 	stw	r4,20(r17)
   263d0:	003fd206 	br	2631c <__d2b+0x90>
   263d4:	01c000f4 	movhi	r7,3
   263d8:	010000f4 	movhi	r4,3
   263dc:	39ffd804 	addi	r7,r7,-160
   263e0:	000d883a 	mov	r6,zero
   263e4:	0140c284 	movi	r5,778
   263e8:	21003604 	addi	r4,r4,216
   263ec:	00268840 	call	26884 <__assert_func>

000263f0 <__ratio>:
   263f0:	defff904 	addi	sp,sp,-28
   263f4:	dc400315 	stw	r17,12(sp)
   263f8:	2823883a 	mov	r17,r5
   263fc:	d80b883a 	mov	r5,sp
   26400:	dfc00615 	stw	ra,24(sp)
   26404:	dcc00515 	stw	r19,20(sp)
   26408:	dc800415 	stw	r18,16(sp)
   2640c:	2027883a 	mov	r19,r4
   26410:	dc000215 	stw	r16,8(sp)
   26414:	00261880 	call	26188 <__b2d>
   26418:	d9400104 	addi	r5,sp,4
   2641c:	8809883a 	mov	r4,r17
   26420:	1025883a 	mov	r18,r2
   26424:	1821883a 	mov	r16,r3
   26428:	00261880 	call	26188 <__b2d>
   2642c:	89400417 	ldw	r5,16(r17)
   26430:	99000417 	ldw	r4,16(r19)
   26434:	d9800117 	ldw	r6,4(sp)
   26438:	180f883a 	mov	r7,r3
   2643c:	2149c83a 	sub	r4,r4,r5
   26440:	d9400017 	ldw	r5,0(sp)
   26444:	2008917a 	slli	r4,r4,5
   26448:	298bc83a 	sub	r5,r5,r6
   2644c:	2149883a 	add	r4,r4,r5
   26450:	100d883a 	mov	r6,r2
   26454:	01000c0e 	bge	zero,r4,26488 <__ratio+0x98>
   26458:	2008953a 	slli	r4,r4,20
   2645c:	2421883a 	add	r16,r4,r16
   26460:	9009883a 	mov	r4,r18
   26464:	800b883a 	mov	r5,r16
   26468:	002afd00 	call	2afd0 <__divdf3>
   2646c:	dfc00617 	ldw	ra,24(sp)
   26470:	dcc00517 	ldw	r19,20(sp)
   26474:	dc800417 	ldw	r18,16(sp)
   26478:	dc400317 	ldw	r17,12(sp)
   2647c:	dc000217 	ldw	r16,8(sp)
   26480:	dec00704 	addi	sp,sp,28
   26484:	f800283a 	ret
   26488:	2008953a 	slli	r4,r4,20
   2648c:	190fc83a 	sub	r7,r3,r4
   26490:	003ff306 	br	26460 <__ratio+0x70>

00026494 <_mprec_log10>:
   26494:	defffe04 	addi	sp,sp,-8
   26498:	dc000015 	stw	r16,0(sp)
   2649c:	dfc00115 	stw	ra,4(sp)
   264a0:	20800608 	cmpgei	r2,r4,24
   264a4:	2021883a 	mov	r16,r4
   264a8:	10000f26 	beq	r2,zero,264e8 <_mprec_log10+0x54>
   264ac:	0009883a 	mov	r4,zero
   264b0:	014ffc34 	movhi	r5,16368
   264b4:	000d883a 	mov	r6,zero
   264b8:	01d00934 	movhi	r7,16420
   264bc:	002bb640 	call	2bb64 <__muldf3>
   264c0:	843fffc4 	addi	r16,r16,-1
   264c4:	1009883a 	mov	r4,r2
   264c8:	180b883a 	mov	r5,r3
   264cc:	803ff91e 	bne	r16,zero,264b4 <_mprec_log10+0x20>
   264d0:	2005883a 	mov	r2,r4
   264d4:	2807883a 	mov	r3,r5
   264d8:	dfc00117 	ldw	ra,4(sp)
   264dc:	dc000017 	ldw	r16,0(sp)
   264e0:	dec00204 	addi	sp,sp,8
   264e4:	f800283a 	ret
   264e8:	202090fa 	slli	r16,r4,3
   264ec:	008000f4 	movhi	r2,3
   264f0:	10805d04 	addi	r2,r2,372
   264f4:	1421883a 	add	r16,r2,r16
   264f8:	81000017 	ldw	r4,0(r16)
   264fc:	81400117 	ldw	r5,4(r16)
   26500:	003ff306 	br	264d0 <_mprec_log10+0x3c>

00026504 <__copybits>:
   26504:	297fffc4 	addi	r5,r5,-1
   26508:	280fd17a 	srai	r7,r5,5
   2650c:	31400417 	ldw	r5,16(r6)
   26510:	30800504 	addi	r2,r6,20
   26514:	39c00044 	addi	r7,r7,1
   26518:	280a90ba 	slli	r5,r5,2
   2651c:	380e90ba 	slli	r7,r7,2
   26520:	114b883a 	add	r5,r2,r5
   26524:	21cf883a 	add	r7,r4,r7
   26528:	11400c2e 	bgeu	r2,r5,2655c <__copybits+0x58>
   2652c:	2007883a 	mov	r3,r4
   26530:	12000017 	ldw	r8,0(r2)
   26534:	10800104 	addi	r2,r2,4
   26538:	18c00104 	addi	r3,r3,4
   2653c:	1a3fff15 	stw	r8,-4(r3)
   26540:	117ffb36 	bltu	r2,r5,26530 <__copybits+0x2c>
   26544:	2985c83a 	sub	r2,r5,r6
   26548:	10bffac4 	addi	r2,r2,-21
   2654c:	1004d0ba 	srli	r2,r2,2
   26550:	10800044 	addi	r2,r2,1
   26554:	100490ba 	slli	r2,r2,2
   26558:	2089883a 	add	r4,r4,r2
   2655c:	21c0032e 	bgeu	r4,r7,2656c <__copybits+0x68>
   26560:	21000104 	addi	r4,r4,4
   26564:	203fff15 	stw	zero,-4(r4)
   26568:	21fffd36 	bltu	r4,r7,26560 <__copybits+0x5c>
   2656c:	f800283a 	ret

00026570 <__any_on>:
   26570:	20c00417 	ldw	r3,16(r4)
   26574:	280dd17a 	srai	r6,r5,5
   26578:	21000504 	addi	r4,r4,20
   2657c:	1980080e 	bge	r3,r6,265a0 <__any_on+0x30>
   26580:	180490ba 	slli	r2,r3,2
   26584:	2085883a 	add	r2,r4,r2
   26588:	20800f2e 	bgeu	r4,r2,265c8 <__any_on+0x58>
   2658c:	10ffff17 	ldw	r3,-4(r2)
   26590:	10bfff04 	addi	r2,r2,-4
   26594:	183ffc26 	beq	r3,zero,26588 <__any_on+0x18>
   26598:	00800044 	movi	r2,1
   2659c:	f800283a 	ret
   265a0:	300490ba 	slli	r2,r6,2
   265a4:	2085883a 	add	r2,r4,r2
   265a8:	30fff70e 	bge	r6,r3,26588 <__any_on+0x18>
   265ac:	294007cc 	andi	r5,r5,31
   265b0:	283ff526 	beq	r5,zero,26588 <__any_on+0x18>
   265b4:	11800017 	ldw	r6,0(r2)
   265b8:	3146d83a 	srl	r3,r6,r5
   265bc:	194a983a 	sll	r5,r3,r5
   265c0:	317ff51e 	bne	r6,r5,26598 <__any_on+0x28>
   265c4:	003ff006 	br	26588 <__any_on+0x18>
   265c8:	0005883a 	mov	r2,zero
   265cc:	f800283a 	ret

000265d0 <_read_r>:
   265d0:	2807883a 	mov	r3,r5
   265d4:	defffe04 	addi	sp,sp,-8
   265d8:	dc000015 	stw	r16,0(sp)
   265dc:	300b883a 	mov	r5,r6
   265e0:	008000f4 	movhi	r2,3
   265e4:	380d883a 	mov	r6,r7
   265e8:	2021883a 	mov	r16,r4
   265ec:	1809883a 	mov	r4,r3
   265f0:	dfc00115 	stw	ra,4(sp)
   265f4:	100fc615 	stw	zero,16152(r2)
   265f8:	002dde80 	call	2dde8 <read>
   265fc:	10ffffd8 	cmpnei	r3,r2,-1
   26600:	18000426 	beq	r3,zero,26614 <_read_r+0x44>
   26604:	dfc00117 	ldw	ra,4(sp)
   26608:	dc000017 	ldw	r16,0(sp)
   2660c:	dec00204 	addi	sp,sp,8
   26610:	f800283a 	ret
   26614:	00c000f4 	movhi	r3,3
   26618:	18cfc617 	ldw	r3,16152(r3)
   2661c:	183ff926 	beq	r3,zero,26604 <_read_r+0x34>
   26620:	80c00015 	stw	r3,0(r16)
   26624:	dfc00117 	ldw	ra,4(sp)
   26628:	dc000017 	ldw	r16,0(sp)
   2662c:	dec00204 	addi	sp,sp,8
   26630:	f800283a 	ret

00026634 <strcmp>:
   26634:	2144b03a 	or	r2,r4,r5
   26638:	108000cc 	andi	r2,r2,3
   2663c:	1000141e 	bne	r2,zero,26690 <strcmp+0x5c>
   26640:	20800017 	ldw	r2,0(r4)
   26644:	28c00017 	ldw	r3,0(r5)
   26648:	10c0111e 	bne	r2,r3,26690 <strcmp+0x5c>
   2664c:	01ffbff4 	movhi	r7,65279
   26650:	01a02074 	movhi	r6,32897
   26654:	39ffbfc4 	addi	r7,r7,-257
   26658:	31a02004 	addi	r6,r6,-32640
   2665c:	00000306 	br	2666c <strcmp+0x38>
   26660:	20800017 	ldw	r2,0(r4)
   26664:	28c00017 	ldw	r3,0(r5)
   26668:	10c0091e 	bne	r2,r3,26690 <strcmp+0x5c>
   2666c:	11c7883a 	add	r3,r2,r7
   26670:	0084303a 	nor	r2,zero,r2
   26674:	1884703a 	and	r2,r3,r2
   26678:	1184703a 	and	r2,r2,r6
   2667c:	21000104 	addi	r4,r4,4
   26680:	29400104 	addi	r5,r5,4
   26684:	103ff626 	beq	r2,zero,26660 <strcmp+0x2c>
   26688:	0005883a 	mov	r2,zero
   2668c:	f800283a 	ret
   26690:	20c00003 	ldbu	r3,0(r4)
   26694:	18803fcc 	andi	r2,r3,255
   26698:	1080201c 	xori	r2,r2,128
   2669c:	10bfe004 	addi	r2,r2,-128
   266a0:	1000071e 	bne	r2,zero,266c0 <strcmp+0x8c>
   266a4:	00000a06 	br	266d0 <strcmp+0x9c>
   266a8:	20c00003 	ldbu	r3,0(r4)
   266ac:	29400044 	addi	r5,r5,1
   266b0:	18803fcc 	andi	r2,r3,255
   266b4:	1080201c 	xori	r2,r2,128
   266b8:	10bfe004 	addi	r2,r2,-128
   266bc:	10000726 	beq	r2,zero,266dc <strcmp+0xa8>
   266c0:	29800007 	ldb	r6,0(r5)
   266c4:	21000044 	addi	r4,r4,1
   266c8:	30bff726 	beq	r6,r2,266a8 <strcmp+0x74>
   266cc:	18803fcc 	andi	r2,r3,255
   266d0:	28c00003 	ldbu	r3,0(r5)
   266d4:	10c5c83a 	sub	r2,r2,r3
   266d8:	f800283a 	ret
   266dc:	28c00003 	ldbu	r3,0(r5)
   266e0:	0005883a 	mov	r2,zero
   266e4:	10c5c83a 	sub	r2,r2,r3
   266e8:	f800283a 	ret

000266ec <strlen>:
   266ec:	208000cc 	andi	r2,r4,3
   266f0:	10000926 	beq	r2,zero,26718 <strlen+0x2c>
   266f4:	2005883a 	mov	r2,r4
   266f8:	00000306 	br	26708 <strlen+0x1c>
   266fc:	10800044 	addi	r2,r2,1
   26700:	10c000cc 	andi	r3,r2,3
   26704:	18000526 	beq	r3,zero,2671c <strlen+0x30>
   26708:	10c00007 	ldb	r3,0(r2)
   2670c:	183ffb1e 	bne	r3,zero,266fc <strlen+0x10>
   26710:	1105c83a 	sub	r2,r2,r4
   26714:	f800283a 	ret
   26718:	2005883a 	mov	r2,r4
   2671c:	11400017 	ldw	r5,0(r2)
   26720:	01ffbff4 	movhi	r7,65279
   26724:	39ffbfc4 	addi	r7,r7,-257
   26728:	29c7883a 	add	r3,r5,r7
   2672c:	01a02074 	movhi	r6,32897
   26730:	014a303a 	nor	r5,zero,r5
   26734:	1946703a 	and	r3,r3,r5
   26738:	31a02004 	addi	r6,r6,-32640
   2673c:	1986703a 	and	r3,r3,r6
   26740:	1800071e 	bne	r3,zero,26760 <strlen+0x74>
   26744:	11400117 	ldw	r5,4(r2)
   26748:	10800104 	addi	r2,r2,4
   2674c:	29c7883a 	add	r3,r5,r7
   26750:	014a303a 	nor	r5,zero,r5
   26754:	1946703a 	and	r3,r3,r5
   26758:	1986703a 	and	r3,r3,r6
   2675c:	183ff926 	beq	r3,zero,26744 <strlen+0x58>
   26760:	10c00007 	ldb	r3,0(r2)
   26764:	183fea26 	beq	r3,zero,26710 <strlen+0x24>
   26768:	10c00047 	ldb	r3,1(r2)
   2676c:	10800044 	addi	r2,r2,1
   26770:	183fe726 	beq	r3,zero,26710 <strlen+0x24>
   26774:	10c00047 	ldb	r3,1(r2)
   26778:	10800044 	addi	r2,r2,1
   2677c:	183ffa1e 	bne	r3,zero,26768 <strlen+0x7c>
   26780:	003fe306 	br	26710 <strlen+0x24>

00026784 <strncmp>:
   26784:	30002926 	beq	r6,zero,2682c <strncmp+0xa8>
   26788:	2144b03a 	or	r2,r4,r5
   2678c:	108000cc 	andi	r2,r2,3
   26790:	1000151e 	bne	r2,zero,267e8 <strncmp+0x64>
   26794:	30800128 	cmpgeui	r2,r6,4
   26798:	10001326 	beq	r2,zero,267e8 <strncmp+0x64>
   2679c:	02bfbff4 	movhi	r10,65279
   267a0:	02602074 	movhi	r9,32897
   267a4:	52bfbfc4 	addi	r10,r10,-257
   267a8:	4a602004 	addi	r9,r9,-32640
   267ac:	00000706 	br	267cc <strncmp+0x48>
   267b0:	31bfff04 	addi	r6,r6,-4
   267b4:	30c00130 	cmpltui	r3,r6,4
   267b8:	30001c26 	beq	r6,zero,2682c <strncmp+0xa8>
   267bc:	10001b1e 	bne	r2,zero,2682c <strncmp+0xa8>
   267c0:	21000104 	addi	r4,r4,4
   267c4:	29400104 	addi	r5,r5,4
   267c8:	1800071e 	bne	r3,zero,267e8 <strncmp+0x64>
   267cc:	20c00017 	ldw	r3,0(r4)
   267d0:	29c00017 	ldw	r7,0(r5)
   267d4:	1a85883a 	add	r2,r3,r10
   267d8:	00d0303a 	nor	r8,zero,r3
   267dc:	1204703a 	and	r2,r2,r8
   267e0:	1244703a 	and	r2,r2,r9
   267e4:	19fff226 	beq	r3,r7,267b0 <strncmp+0x2c>
   267e8:	21c00007 	ldb	r7,0(r4)
   267ec:	28800007 	ldb	r2,0(r5)
   267f0:	3880101e 	bne	r7,r2,26834 <strncmp+0xb0>
   267f4:	30800060 	cmpeqi	r2,r6,1
   267f8:	10000c1e 	bne	r2,zero,2682c <strncmp+0xa8>
   267fc:	2807883a 	mov	r3,r5
   26800:	00000406 	br	26814 <strncmp+0x90>
   26804:	21c00007 	ldb	r7,0(r4)
   26808:	1a000007 	ldb	r8,0(r3)
   2680c:	3a000a1e 	bne	r7,r8,26838 <strncmp+0xb4>
   26810:	10000626 	beq	r2,zero,2682c <strncmp+0xa8>
   26814:	18c00044 	addi	r3,r3,1
   26818:	00c4303a 	nor	r2,zero,r3
   2681c:	1185883a 	add	r2,r2,r6
   26820:	21000044 	addi	r4,r4,1
   26824:	2885883a 	add	r2,r5,r2
   26828:	383ff61e 	bne	r7,zero,26804 <strncmp+0x80>
   2682c:	0005883a 	mov	r2,zero
   26830:	f800283a 	ret
   26834:	2807883a 	mov	r3,r5
   26838:	20800003 	ldbu	r2,0(r4)
   2683c:	18c00003 	ldbu	r3,0(r3)
   26840:	10c5c83a 	sub	r2,r2,r3
   26844:	f800283a 	ret

00026848 <_wctomb_r>:
   26848:	008000f4 	movhi	r2,3
   2684c:	1083f117 	ldw	r2,4036(r2)
   26850:	1000683a 	jmp	r2

00026854 <__ascii_wctomb>:
   26854:	28000926 	beq	r5,zero,2687c <__ascii_wctomb+0x28>
   26858:	30804030 	cmpltui	r2,r6,256
   2685c:	10000326 	beq	r2,zero,2686c <__ascii_wctomb+0x18>
   26860:	29800005 	stb	r6,0(r5)
   26864:	00800044 	movi	r2,1
   26868:	f800283a 	ret
   2686c:	00802284 	movi	r2,138
   26870:	20800015 	stw	r2,0(r4)
   26874:	00bfffc4 	movi	r2,-1
   26878:	f800283a 	ret
   2687c:	0005883a 	mov	r2,zero
   26880:	f800283a 	ret

00026884 <__assert_func>:
   26884:	008000f4 	movhi	r2,3
   26888:	1208a617 	ldw	r8,8856(r2)
   2688c:	defffc04 	addi	sp,sp,-16
   26890:	3807883a 	mov	r3,r7
   26894:	3005883a 	mov	r2,r6
   26898:	dfc00315 	stw	ra,12(sp)
   2689c:	42400317 	ldw	r9,12(r8)
   268a0:	200f883a 	mov	r7,r4
   268a4:	2811883a 	mov	r8,r5
   268a8:	180d883a 	mov	r6,r3
   268ac:	10000a26 	beq	r2,zero,268d8 <__assert_func+0x54>
   268b0:	00c000f4 	movhi	r3,3
   268b4:	18c08f04 	addi	r3,r3,572
   268b8:	014000f4 	movhi	r5,3
   268bc:	29409304 	addi	r5,r5,588
   268c0:	4809883a 	mov	r4,r9
   268c4:	d8c00115 	stw	r3,4(sp)
   268c8:	da000015 	stw	r8,0(sp)
   268cc:	d8800215 	stw	r2,8(sp)
   268d0:	0026ae80 	call	26ae8 <fiprintf>
   268d4:	0026b240 	call	26b24 <abort>
   268d8:	00c000f4 	movhi	r3,3
   268dc:	18c09204 	addi	r3,r3,584
   268e0:	1805883a 	mov	r2,r3
   268e4:	003ff406 	br	268b8 <__assert_func+0x34>

000268e8 <__assert>:
   268e8:	deffff04 	addi	sp,sp,-4
   268ec:	300f883a 	mov	r7,r6
   268f0:	000d883a 	mov	r6,zero
   268f4:	dfc00015 	stw	ra,0(sp)
   268f8:	00268840 	call	26884 <__assert_func>

000268fc <_calloc_r>:
   268fc:	defffe04 	addi	sp,sp,-8
   26900:	dc000015 	stw	r16,0(sp)
   26904:	2021883a 	mov	r16,r4
   26908:	2809883a 	mov	r4,r5
   2690c:	300b883a 	mov	r5,r6
   26910:	dfc00115 	stw	ra,4(sp)
   26914:	002a4ac0 	call	2a4ac <__mulsi3>
   26918:	8009883a 	mov	r4,r16
   2691c:	100b883a 	mov	r5,r2
   26920:	00213580 	call	21358 <_malloc_r>
   26924:	1009883a 	mov	r4,r2
   26928:	10000c26 	beq	r2,zero,2695c <_calloc_r+0x60>
   2692c:	11bfff17 	ldw	r6,-4(r2)
   26930:	00bfff04 	movi	r2,-4
   26934:	308c703a 	and	r6,r6,r2
   26938:	31bfff04 	addi	r6,r6,-4
   2693c:	30800968 	cmpgeui	r2,r6,37
   26940:	1000151e 	bne	r2,zero,26998 <_calloc_r+0x9c>
   26944:	30800530 	cmpltui	r2,r6,20
   26948:	10000926 	beq	r2,zero,26970 <_calloc_r+0x74>
   2694c:	2005883a 	mov	r2,r4
   26950:	10000015 	stw	zero,0(r2)
   26954:	10000115 	stw	zero,4(r2)
   26958:	10000215 	stw	zero,8(r2)
   2695c:	2005883a 	mov	r2,r4
   26960:	dfc00117 	ldw	ra,4(sp)
   26964:	dc000017 	ldw	r16,0(sp)
   26968:	dec00204 	addi	sp,sp,8
   2696c:	f800283a 	ret
   26970:	20000015 	stw	zero,0(r4)
   26974:	20000115 	stw	zero,4(r4)
   26978:	30800728 	cmpgeui	r2,r6,28
   2697c:	10000a26 	beq	r2,zero,269a8 <_calloc_r+0xac>
   26980:	20000215 	stw	zero,8(r4)
   26984:	20000315 	stw	zero,12(r4)
   26988:	31800920 	cmpeqi	r6,r6,36
   2698c:	3000081e 	bne	r6,zero,269b0 <_calloc_r+0xb4>
   26990:	20800404 	addi	r2,r4,16
   26994:	003fee06 	br	26950 <_calloc_r+0x54>
   26998:	000b883a 	mov	r5,zero
   2699c:	00253a80 	call	253a8 <memset>
   269a0:	1009883a 	mov	r4,r2
   269a4:	003fed06 	br	2695c <_calloc_r+0x60>
   269a8:	20800204 	addi	r2,r4,8
   269ac:	003fe806 	br	26950 <_calloc_r+0x54>
   269b0:	20000415 	stw	zero,16(r4)
   269b4:	20800604 	addi	r2,r4,24
   269b8:	20000515 	stw	zero,20(r4)
   269bc:	003fe406 	br	26950 <_calloc_r+0x54>

000269c0 <_fclose_r>:
   269c0:	defffc04 	addi	sp,sp,-16
   269c4:	dfc00315 	stw	ra,12(sp)
   269c8:	dc800215 	stw	r18,8(sp)
   269cc:	dc400115 	stw	r17,4(sp)
   269d0:	dc000015 	stw	r16,0(sp)
   269d4:	28000726 	beq	r5,zero,269f4 <_fclose_r+0x34>
   269d8:	2821883a 	mov	r16,r5
   269dc:	2023883a 	mov	r17,r4
   269e0:	20000226 	beq	r4,zero,269ec <_fclose_r+0x2c>
   269e4:	20800e17 	ldw	r2,56(r4)
   269e8:	10002726 	beq	r2,zero,26a88 <_fclose_r+0xc8>
   269ec:	8080030f 	ldh	r2,12(r16)
   269f0:	1000081e 	bne	r2,zero,26a14 <_fclose_r+0x54>
   269f4:	0025883a 	mov	r18,zero
   269f8:	9005883a 	mov	r2,r18
   269fc:	dfc00317 	ldw	ra,12(sp)
   26a00:	dc800217 	ldw	r18,8(sp)
   26a04:	dc400117 	ldw	r17,4(sp)
   26a08:	dc000017 	ldw	r16,0(sp)
   26a0c:	dec00404 	addi	sp,sp,16
   26a10:	f800283a 	ret
   26a14:	800b883a 	mov	r5,r16
   26a18:	8809883a 	mov	r4,r17
   26a1c:	00239100 	call	23910 <__sflush_r>
   26a20:	80c00b17 	ldw	r3,44(r16)
   26a24:	1025883a 	mov	r18,r2
   26a28:	18000426 	beq	r3,zero,26a3c <_fclose_r+0x7c>
   26a2c:	81400717 	ldw	r5,28(r16)
   26a30:	8809883a 	mov	r4,r17
   26a34:	183ee83a 	callr	r3
   26a38:	10001716 	blt	r2,zero,26a98 <_fclose_r+0xd8>
   26a3c:	8080030b 	ldhu	r2,12(r16)
   26a40:	1080200c 	andi	r2,r2,128
   26a44:	1000181e 	bne	r2,zero,26aa8 <_fclose_r+0xe8>
   26a48:	81400c17 	ldw	r5,48(r16)
   26a4c:	28000526 	beq	r5,zero,26a64 <_fclose_r+0xa4>
   26a50:	80801004 	addi	r2,r16,64
   26a54:	28800226 	beq	r5,r2,26a60 <_fclose_r+0xa0>
   26a58:	8809883a 	mov	r4,r17
   26a5c:	00240e80 	call	240e8 <_free_r>
   26a60:	80000c15 	stw	zero,48(r16)
   26a64:	81401117 	ldw	r5,68(r16)
   26a68:	28000326 	beq	r5,zero,26a78 <_fclose_r+0xb8>
   26a6c:	8809883a 	mov	r4,r17
   26a70:	00240e80 	call	240e8 <_free_r>
   26a74:	80001115 	stw	zero,68(r16)
   26a78:	0023edc0 	call	23edc <__sfp_lock_acquire>
   26a7c:	8000030d 	sth	zero,12(r16)
   26a80:	0023ee00 	call	23ee0 <__sfp_lock_release>
   26a84:	003fdc06 	br	269f8 <_fclose_r+0x38>
   26a88:	0023ecc0 	call	23ecc <__sinit>
   26a8c:	8080030f 	ldh	r2,12(r16)
   26a90:	103fd826 	beq	r2,zero,269f4 <_fclose_r+0x34>
   26a94:	003fdf06 	br	26a14 <_fclose_r+0x54>
   26a98:	8080030b 	ldhu	r2,12(r16)
   26a9c:	04bfffc4 	movi	r18,-1
   26aa0:	1080200c 	andi	r2,r2,128
   26aa4:	103fe826 	beq	r2,zero,26a48 <_fclose_r+0x88>
   26aa8:	81400417 	ldw	r5,16(r16)
   26aac:	8809883a 	mov	r4,r17
   26ab0:	00240e80 	call	240e8 <_free_r>
   26ab4:	003fe406 	br	26a48 <_fclose_r+0x88>

00026ab8 <fclose>:
   26ab8:	008000f4 	movhi	r2,3
   26abc:	200b883a 	mov	r5,r4
   26ac0:	1108a617 	ldw	r4,8856(r2)
   26ac4:	00269c01 	jmpi	269c0 <_fclose_r>

00026ac8 <_fiprintf_r>:
   26ac8:	defffe04 	addi	sp,sp,-8
   26acc:	dfc00015 	stw	ra,0(sp)
   26ad0:	d9c00115 	stw	r7,4(sp)
   26ad4:	d9c00104 	addi	r7,sp,4
   26ad8:	0026b200 	call	26b20 <_vfiprintf_r>
   26adc:	dfc00017 	ldw	ra,0(sp)
   26ae0:	dec00204 	addi	sp,sp,8
   26ae4:	f800283a 	ret

00026ae8 <fiprintf>:
   26ae8:	defffd04 	addi	sp,sp,-12
   26aec:	2005883a 	mov	r2,r4
   26af0:	dfc00015 	stw	ra,0(sp)
   26af4:	d9800115 	stw	r6,4(sp)
   26af8:	d9c00215 	stw	r7,8(sp)
   26afc:	00c000f4 	movhi	r3,3
   26b00:	1908a617 	ldw	r4,8856(r3)
   26b04:	280d883a 	mov	r6,r5
   26b08:	d9c00104 	addi	r7,sp,4
   26b0c:	100b883a 	mov	r5,r2
   26b10:	0026b200 	call	26b20 <_vfiprintf_r>
   26b14:	dfc00017 	ldw	ra,0(sp)
   26b18:	dec00304 	addi	sp,sp,12
   26b1c:	f800283a 	ret

00026b20 <_vfiprintf_r>:
   26b20:	0026f601 	jmpi	26f60 <___vfiprintf_internal_r>

00026b24 <abort>:
   26b24:	deffff04 	addi	sp,sp,-4
   26b28:	01000184 	movi	r4,6
   26b2c:	dfc00015 	stw	ra,0(sp)
   26b30:	0026d9c0 	call	26d9c <raise>
   26b34:	01000044 	movi	r4,1
   26b38:	002d0e80 	call	2d0e8 <_exit>

00026b3c <_init_signal_r.part.0>:
   26b3c:	defffe04 	addi	sp,sp,-8
   26b40:	01402004 	movi	r5,128
   26b44:	dc000015 	stw	r16,0(sp)
   26b48:	dfc00115 	stw	ra,4(sp)
   26b4c:	2021883a 	mov	r16,r4
   26b50:	00213580 	call	21358 <_malloc_r>
   26b54:	8080b715 	stw	r2,732(r16)
   26b58:	10000926 	beq	r2,zero,26b80 <_init_signal_r.part.0+0x44>
   26b5c:	10c02004 	addi	r3,r2,128
   26b60:	10000015 	stw	zero,0(r2)
   26b64:	10800104 	addi	r2,r2,4
   26b68:	10fffd1e 	bne	r2,r3,26b60 <_init_signal_r.part.0+0x24>
   26b6c:	0005883a 	mov	r2,zero
   26b70:	dfc00117 	ldw	ra,4(sp)
   26b74:	dc000017 	ldw	r16,0(sp)
   26b78:	dec00204 	addi	sp,sp,8
   26b7c:	f800283a 	ret
   26b80:	00bfffc4 	movi	r2,-1
   26b84:	003ffa06 	br	26b70 <_init_signal_r.part.0+0x34>

00026b88 <_init_signal_r>:
   26b88:	2080b717 	ldw	r2,732(r4)
   26b8c:	10000226 	beq	r2,zero,26b98 <_init_signal_r+0x10>
   26b90:	0005883a 	mov	r2,zero
   26b94:	f800283a 	ret
   26b98:	0026b3c1 	jmpi	26b3c <_init_signal_r.part.0>

00026b9c <_signal_r>:
   26b9c:	defffc04 	addi	sp,sp,-16
   26ba0:	dc000215 	stw	r16,8(sp)
   26ba4:	dfc00315 	stw	ra,12(sp)
   26ba8:	28800830 	cmpltui	r2,r5,32
   26bac:	2021883a 	mov	r16,r4
   26bb0:	10000a26 	beq	r2,zero,26bdc <_signal_r+0x40>
   26bb4:	2080b717 	ldw	r2,732(r4)
   26bb8:	10000f26 	beq	r2,zero,26bf8 <_signal_r+0x5c>
   26bbc:	280a90ba 	slli	r5,r5,2
   26bc0:	114b883a 	add	r5,r2,r5
   26bc4:	28800017 	ldw	r2,0(r5)
   26bc8:	29800015 	stw	r6,0(r5)
   26bcc:	dfc00317 	ldw	ra,12(sp)
   26bd0:	dc000217 	ldw	r16,8(sp)
   26bd4:	dec00404 	addi	sp,sp,16
   26bd8:	f800283a 	ret
   26bdc:	00800584 	movi	r2,22
   26be0:	20800015 	stw	r2,0(r4)
   26be4:	00bfffc4 	movi	r2,-1
   26be8:	dfc00317 	ldw	ra,12(sp)
   26bec:	dc000217 	ldw	r16,8(sp)
   26bf0:	dec00404 	addi	sp,sp,16
   26bf4:	f800283a 	ret
   26bf8:	d9800115 	stw	r6,4(sp)
   26bfc:	d9400015 	stw	r5,0(sp)
   26c00:	0026b3c0 	call	26b3c <_init_signal_r.part.0>
   26c04:	1000041e 	bne	r2,zero,26c18 <_signal_r+0x7c>
   26c08:	8080b717 	ldw	r2,732(r16)
   26c0c:	d9800117 	ldw	r6,4(sp)
   26c10:	d9400017 	ldw	r5,0(sp)
   26c14:	003fe906 	br	26bbc <_signal_r+0x20>
   26c18:	00bfffc4 	movi	r2,-1
   26c1c:	003feb06 	br	26bcc <_signal_r+0x30>

00026c20 <_raise_r>:
   26c20:	28800830 	cmpltui	r2,r5,32
   26c24:	10002b26 	beq	r2,zero,26cd4 <_raise_r+0xb4>
   26c28:	2080b717 	ldw	r2,732(r4)
   26c2c:	defffd04 	addi	sp,sp,-12
   26c30:	dc000115 	stw	r16,4(sp)
   26c34:	dfc00215 	stw	ra,8(sp)
   26c38:	2821883a 	mov	r16,r5
   26c3c:	10001026 	beq	r2,zero,26c80 <_raise_r+0x60>
   26c40:	280690ba 	slli	r3,r5,2
   26c44:	10c5883a 	add	r2,r2,r3
   26c48:	10c00017 	ldw	r3,0(r2)
   26c4c:	18000c26 	beq	r3,zero,26c80 <_raise_r+0x60>
   26c50:	19400060 	cmpeqi	r5,r3,1
   26c54:	28001a1e 	bne	r5,zero,26cc0 <_raise_r+0xa0>
   26c58:	197fffd8 	cmpnei	r5,r3,-1
   26c5c:	28001126 	beq	r5,zero,26ca4 <_raise_r+0x84>
   26c60:	10000015 	stw	zero,0(r2)
   26c64:	8009883a 	mov	r4,r16
   26c68:	183ee83a 	callr	r3
   26c6c:	0005883a 	mov	r2,zero
   26c70:	dfc00217 	ldw	ra,8(sp)
   26c74:	dc000117 	ldw	r16,4(sp)
   26c78:	dec00304 	addi	sp,sp,12
   26c7c:	f800283a 	ret
   26c80:	d9000015 	stw	r4,0(sp)
   26c84:	0026e500 	call	26e50 <_getpid_r>
   26c88:	d9000017 	ldw	r4,0(sp)
   26c8c:	800d883a 	mov	r6,r16
   26c90:	100b883a 	mov	r5,r2
   26c94:	dfc00217 	ldw	ra,8(sp)
   26c98:	dc000117 	ldw	r16,4(sp)
   26c9c:	dec00304 	addi	sp,sp,12
   26ca0:	0026df01 	jmpi	26df0 <_kill_r>
   26ca4:	00800584 	movi	r2,22
   26ca8:	20800015 	stw	r2,0(r4)
   26cac:	00800044 	movi	r2,1
   26cb0:	dfc00217 	ldw	ra,8(sp)
   26cb4:	dc000117 	ldw	r16,4(sp)
   26cb8:	dec00304 	addi	sp,sp,12
   26cbc:	f800283a 	ret
   26cc0:	0005883a 	mov	r2,zero
   26cc4:	dfc00217 	ldw	ra,8(sp)
   26cc8:	dc000117 	ldw	r16,4(sp)
   26ccc:	dec00304 	addi	sp,sp,12
   26cd0:	f800283a 	ret
   26cd4:	00800584 	movi	r2,22
   26cd8:	20800015 	stw	r2,0(r4)
   26cdc:	00bfffc4 	movi	r2,-1
   26ce0:	f800283a 	ret

00026ce4 <__sigtramp_r>:
   26ce4:	28800830 	cmpltui	r2,r5,32
   26ce8:	10002a26 	beq	r2,zero,26d94 <__sigtramp_r+0xb0>
   26cec:	2080b717 	ldw	r2,732(r4)
   26cf0:	defffd04 	addi	sp,sp,-12
   26cf4:	dc400115 	stw	r17,4(sp)
   26cf8:	dfc00215 	stw	ra,8(sp)
   26cfc:	2023883a 	mov	r17,r4
   26d00:	10001526 	beq	r2,zero,26d58 <__sigtramp_r+0x74>
   26d04:	280690ba 	slli	r3,r5,2
   26d08:	10c5883a 	add	r2,r2,r3
   26d0c:	10c00017 	ldw	r3,0(r2)
   26d10:	18000c26 	beq	r3,zero,26d44 <__sigtramp_r+0x60>
   26d14:	193fffe0 	cmpeqi	r4,r3,-1
   26d18:	20001a1e 	bne	r4,zero,26d84 <__sigtramp_r+0xa0>
   26d1c:	19000060 	cmpeqi	r4,r3,1
   26d20:	2000131e 	bne	r4,zero,26d70 <__sigtramp_r+0x8c>
   26d24:	10000015 	stw	zero,0(r2)
   26d28:	2809883a 	mov	r4,r5
   26d2c:	183ee83a 	callr	r3
   26d30:	0005883a 	mov	r2,zero
   26d34:	dfc00217 	ldw	ra,8(sp)
   26d38:	dc400117 	ldw	r17,4(sp)
   26d3c:	dec00304 	addi	sp,sp,12
   26d40:	f800283a 	ret
   26d44:	00800044 	movi	r2,1
   26d48:	dfc00217 	ldw	ra,8(sp)
   26d4c:	dc400117 	ldw	r17,4(sp)
   26d50:	dec00304 	addi	sp,sp,12
   26d54:	f800283a 	ret
   26d58:	d9400015 	stw	r5,0(sp)
   26d5c:	0026b3c0 	call	26b3c <_init_signal_r.part.0>
   26d60:	10000a1e 	bne	r2,zero,26d8c <__sigtramp_r+0xa8>
   26d64:	8880b717 	ldw	r2,732(r17)
   26d68:	d9400017 	ldw	r5,0(sp)
   26d6c:	003fe506 	br	26d04 <__sigtramp_r+0x20>
   26d70:	008000c4 	movi	r2,3
   26d74:	dfc00217 	ldw	ra,8(sp)
   26d78:	dc400117 	ldw	r17,4(sp)
   26d7c:	dec00304 	addi	sp,sp,12
   26d80:	f800283a 	ret
   26d84:	00800084 	movi	r2,2
   26d88:	003fea06 	br	26d34 <__sigtramp_r+0x50>
   26d8c:	00bfffc4 	movi	r2,-1
   26d90:	003fe806 	br	26d34 <__sigtramp_r+0x50>
   26d94:	00bfffc4 	movi	r2,-1
   26d98:	f800283a 	ret

00026d9c <raise>:
   26d9c:	008000f4 	movhi	r2,3
   26da0:	200b883a 	mov	r5,r4
   26da4:	1108a617 	ldw	r4,8856(r2)
   26da8:	0026c201 	jmpi	26c20 <_raise_r>

00026dac <signal>:
   26dac:	00c000f4 	movhi	r3,3
   26db0:	2005883a 	mov	r2,r4
   26db4:	1908a617 	ldw	r4,8856(r3)
   26db8:	280d883a 	mov	r6,r5
   26dbc:	100b883a 	mov	r5,r2
   26dc0:	0026b9c1 	jmpi	26b9c <_signal_r>

00026dc4 <_init_signal>:
   26dc4:	008000f4 	movhi	r2,3
   26dc8:	1108a617 	ldw	r4,8856(r2)
   26dcc:	2080b717 	ldw	r2,732(r4)
   26dd0:	10000226 	beq	r2,zero,26ddc <_init_signal+0x18>
   26dd4:	0005883a 	mov	r2,zero
   26dd8:	f800283a 	ret
   26ddc:	0026b3c1 	jmpi	26b3c <_init_signal_r.part.0>

00026de0 <__sigtramp>:
   26de0:	008000f4 	movhi	r2,3
   26de4:	200b883a 	mov	r5,r4
   26de8:	1108a617 	ldw	r4,8856(r2)
   26dec:	0026ce41 	jmpi	26ce4 <__sigtramp_r>

00026df0 <_kill_r>:
   26df0:	2807883a 	mov	r3,r5
   26df4:	defffe04 	addi	sp,sp,-8
   26df8:	dc000015 	stw	r16,0(sp)
   26dfc:	008000f4 	movhi	r2,3
   26e00:	300b883a 	mov	r5,r6
   26e04:	2021883a 	mov	r16,r4
   26e08:	1809883a 	mov	r4,r3
   26e0c:	dfc00115 	stw	ra,4(sp)
   26e10:	100fc615 	stw	zero,16152(r2)
   26e14:	002d4e00 	call	2d4e0 <kill>
   26e18:	10ffffd8 	cmpnei	r3,r2,-1
   26e1c:	18000426 	beq	r3,zero,26e30 <_kill_r+0x40>
   26e20:	dfc00117 	ldw	ra,4(sp)
   26e24:	dc000017 	ldw	r16,0(sp)
   26e28:	dec00204 	addi	sp,sp,8
   26e2c:	f800283a 	ret
   26e30:	00c000f4 	movhi	r3,3
   26e34:	18cfc617 	ldw	r3,16152(r3)
   26e38:	183ff926 	beq	r3,zero,26e20 <_kill_r+0x30>
   26e3c:	80c00015 	stw	r3,0(r16)
   26e40:	dfc00117 	ldw	ra,4(sp)
   26e44:	dc000017 	ldw	r16,0(sp)
   26e48:	dec00204 	addi	sp,sp,8
   26e4c:	f800283a 	ret

00026e50 <_getpid_r>:
   26e50:	002d2181 	jmpi	2d218 <getpid>

00026e54 <__sprint_r.part.0>:
   26e54:	28801917 	ldw	r2,100(r5)
   26e58:	defff604 	addi	sp,sp,-40
   26e5c:	dcc00315 	stw	r19,12(sp)
   26e60:	dfc00915 	stw	ra,36(sp)
   26e64:	df000815 	stw	fp,32(sp)
   26e68:	ddc00715 	stw	r23,28(sp)
   26e6c:	dd800615 	stw	r22,24(sp)
   26e70:	dd400515 	stw	r21,20(sp)
   26e74:	dd000415 	stw	r20,16(sp)
   26e78:	dc800215 	stw	r18,8(sp)
   26e7c:	dc400115 	stw	r17,4(sp)
   26e80:	dc000015 	stw	r16,0(sp)
   26e84:	1088000c 	andi	r2,r2,8192
   26e88:	3027883a 	mov	r19,r6
   26e8c:	10002c26 	beq	r2,zero,26f40 <__sprint_r.part.0+0xec>
   26e90:	30800217 	ldw	r2,8(r6)
   26e94:	35000017 	ldw	r20,0(r6)
   26e98:	2821883a 	mov	r16,r5
   26e9c:	2023883a 	mov	r17,r4
   26ea0:	05bfff04 	movi	r22,-4
   26ea4:	10002426 	beq	r2,zero,26f38 <__sprint_r.part.0+0xe4>
   26ea8:	a5400117 	ldw	r21,4(r20)
   26eac:	a5c00017 	ldw	r23,0(r20)
   26eb0:	a824d0ba 	srli	r18,r21,2
   26eb4:	90001b26 	beq	r18,zero,26f24 <__sprint_r.part.0+0xd0>
   26eb8:	0039883a 	mov	fp,zero
   26ebc:	00000206 	br	26ec8 <__sprint_r.part.0+0x74>
   26ec0:	bdc00104 	addi	r23,r23,4
   26ec4:	97001626 	beq	r18,fp,26f20 <__sprint_r.part.0+0xcc>
   26ec8:	b9400017 	ldw	r5,0(r23)
   26ecc:	800d883a 	mov	r6,r16
   26ed0:	8809883a 	mov	r4,r17
   26ed4:	00286100 	call	28610 <_fputwc_r>
   26ed8:	10bfffe0 	cmpeqi	r2,r2,-1
   26edc:	e7000044 	addi	fp,fp,1
   26ee0:	103ff726 	beq	r2,zero,26ec0 <__sprint_r.part.0+0x6c>
   26ee4:	00bfffc4 	movi	r2,-1
   26ee8:	98000215 	stw	zero,8(r19)
   26eec:	98000115 	stw	zero,4(r19)
   26ef0:	dfc00917 	ldw	ra,36(sp)
   26ef4:	df000817 	ldw	fp,32(sp)
   26ef8:	ddc00717 	ldw	r23,28(sp)
   26efc:	dd800617 	ldw	r22,24(sp)
   26f00:	dd400517 	ldw	r21,20(sp)
   26f04:	dd000417 	ldw	r20,16(sp)
   26f08:	dcc00317 	ldw	r19,12(sp)
   26f0c:	dc800217 	ldw	r18,8(sp)
   26f10:	dc400117 	ldw	r17,4(sp)
   26f14:	dc000017 	ldw	r16,0(sp)
   26f18:	dec00a04 	addi	sp,sp,40
   26f1c:	f800283a 	ret
   26f20:	98800217 	ldw	r2,8(r19)
   26f24:	adaa703a 	and	r21,r21,r22
   26f28:	1545c83a 	sub	r2,r2,r21
   26f2c:	98800215 	stw	r2,8(r19)
   26f30:	a5000204 	addi	r20,r20,8
   26f34:	103fdc1e 	bne	r2,zero,26ea8 <__sprint_r.part.0+0x54>
   26f38:	0005883a 	mov	r2,zero
   26f3c:	003fea06 	br	26ee8 <__sprint_r.part.0+0x94>
   26f40:	00286ac0 	call	286ac <__sfvwrite_r>
   26f44:	003fe806 	br	26ee8 <__sprint_r.part.0+0x94>

00026f48 <__sprint_r>:
   26f48:	30c00217 	ldw	r3,8(r6)
   26f4c:	18000126 	beq	r3,zero,26f54 <__sprint_r+0xc>
   26f50:	0026e541 	jmpi	26e54 <__sprint_r.part.0>
   26f54:	30000115 	stw	zero,4(r6)
   26f58:	0005883a 	mov	r2,zero
   26f5c:	f800283a 	ret

00026f60 <___vfiprintf_internal_r>:
   26f60:	deffcf04 	addi	sp,sp,-196
   26f64:	dd802d15 	stw	r22,180(sp)
   26f68:	dd402c15 	stw	r21,176(sp)
   26f6c:	dd002b15 	stw	r20,172(sp)
   26f70:	dfc03015 	stw	ra,192(sp)
   26f74:	df002f15 	stw	fp,188(sp)
   26f78:	ddc02e15 	stw	r23,184(sp)
   26f7c:	dcc02a15 	stw	r19,168(sp)
   26f80:	dc802915 	stw	r18,164(sp)
   26f84:	dc402815 	stw	r17,160(sp)
   26f88:	dc002715 	stw	r16,156(sp)
   26f8c:	d9c00415 	stw	r7,16(sp)
   26f90:	202d883a 	mov	r22,r4
   26f94:	282b883a 	mov	r21,r5
   26f98:	3029883a 	mov	r20,r6
   26f9c:	20000226 	beq	r4,zero,26fa8 <___vfiprintf_internal_r+0x48>
   26fa0:	20800e17 	ldw	r2,56(r4)
   26fa4:	1001b426 	beq	r2,zero,27678 <___vfiprintf_internal_r+0x718>
   26fa8:	a880030b 	ldhu	r2,12(r21)
   26fac:	10c8000c 	andi	r3,r2,8192
   26fb0:	1800061e 	bne	r3,zero,26fcc <___vfiprintf_internal_r+0x6c>
   26fb4:	a8c01917 	ldw	r3,100(r21)
   26fb8:	0137ffc4 	movi	r4,-8193
   26fbc:	10880014 	ori	r2,r2,8192
   26fc0:	1906703a 	and	r3,r3,r4
   26fc4:	a880030d 	sth	r2,12(r21)
   26fc8:	a8c01915 	stw	r3,100(r21)
   26fcc:	10c0020c 	andi	r3,r2,8
   26fd0:	18010826 	beq	r3,zero,273f4 <___vfiprintf_internal_r+0x494>
   26fd4:	a8c00417 	ldw	r3,16(r21)
   26fd8:	18010626 	beq	r3,zero,273f4 <___vfiprintf_internal_r+0x494>
   26fdc:	1080068c 	andi	r2,r2,26
   26fe0:	10800298 	cmpnei	r2,r2,10
   26fe4:	10010b26 	beq	r2,zero,27414 <___vfiprintf_internal_r+0x4b4>
   26fe8:	dc801704 	addi	r18,sp,92
   26fec:	dc800a15 	stw	r18,40(sp)
   26ff0:	d8000c15 	stw	zero,48(sp)
   26ff4:	d8000b15 	stw	zero,44(sp)
   26ff8:	9021883a 	mov	r16,r18
   26ffc:	d8000515 	stw	zero,20(sp)
   27000:	d8000115 	stw	zero,4(sp)
   27004:	a0c00007 	ldb	r3,0(r20)
   27008:	1800e826 	beq	r3,zero,273ac <___vfiprintf_internal_r+0x44c>
   2700c:	a023883a 	mov	r17,r20
   27010:	00000306 	br	27020 <___vfiprintf_internal_r+0xc0>
   27014:	88c00047 	ldb	r3,1(r17)
   27018:	8c400044 	addi	r17,r17,1
   2701c:	18012a26 	beq	r3,zero,274c8 <___vfiprintf_internal_r+0x568>
   27020:	18c00958 	cmpnei	r3,r3,37
   27024:	183ffb1e 	bne	r3,zero,27014 <___vfiprintf_internal_r+0xb4>
   27028:	8d27c83a 	sub	r19,r17,r20
   2702c:	8d01281e 	bne	r17,r20,274d0 <___vfiprintf_internal_r+0x570>
   27030:	88800003 	ldbu	r2,0(r17)
   27034:	10803fcc 	andi	r2,r2,255
   27038:	1080201c 	xori	r2,r2,128
   2703c:	10bfe004 	addi	r2,r2,-128
   27040:	1000da26 	beq	r2,zero,273ac <___vfiprintf_internal_r+0x44c>
   27044:	88800047 	ldb	r2,1(r17)
   27048:	8d000044 	addi	r20,r17,1
   2704c:	d8000945 	stb	zero,37(sp)
   27050:	000b883a 	mov	r5,zero
   27054:	000d883a 	mov	r6,zero
   27058:	023fffc4 	movi	r8,-1
   2705c:	0023883a 	mov	r17,zero
   27060:	001b883a 	mov	r13,zero
   27064:	a5000044 	addi	r20,r20,1
   27068:	10fff804 	addi	r3,r2,-32
   2706c:	19001668 	cmpgeui	r4,r3,89
   27070:	20006c1e 	bne	r4,zero,27224 <___vfiprintf_internal_r+0x2c4>
   27074:	180690ba 	slli	r3,r3,2
   27078:	010000b4 	movhi	r4,2
   2707c:	1909883a 	add	r4,r3,r4
   27080:	20dc2217 	ldw	r3,28808(r4)
   27084:	1800683a 	jmp	r3
   27088:	00027988 	cmpgei	zero,zero,2534
   2708c:	00027224 	muli	zero,zero,2504
   27090:	00027224 	muli	zero,zero,2504
   27094:	0002797c 	xorhi	zero,zero,2533
   27098:	00027224 	muli	zero,zero,2504
   2709c:	00027224 	muli	zero,zero,2504
   270a0:	00027224 	muli	zero,zero,2504
   270a4:	00027224 	muli	zero,zero,2504
   270a8:	00027224 	muli	zero,zero,2504
   270ac:	00027224 	muli	zero,zero,2504
   270b0:	00027954 	movui	zero,2533
   270b4:	00027944 	movi	zero,2533
   270b8:	00027224 	muli	zero,zero,2504
   270bc:	0002792c 	andhi	zero,zero,2532
   270c0:	000278e0 	cmpeqi	zero,zero,2531
   270c4:	00027224 	muli	zero,zero,2504
   270c8:	000278d4 	movui	zero,2531
   270cc:	000271ec 	andhi	zero,zero,2503
   270d0:	000271ec 	andhi	zero,zero,2503
   270d4:	000271ec 	andhi	zero,zero,2503
   270d8:	000271ec 	andhi	zero,zero,2503
   270dc:	000271ec 	andhi	zero,zero,2503
   270e0:	000271ec 	andhi	zero,zero,2503
   270e4:	000271ec 	andhi	zero,zero,2503
   270e8:	000271ec 	andhi	zero,zero,2503
   270ec:	000271ec 	andhi	zero,zero,2503
   270f0:	00027224 	muli	zero,zero,2504
   270f4:	00027224 	muli	zero,zero,2504
   270f8:	00027224 	muli	zero,zero,2504
   270fc:	00027224 	muli	zero,zero,2504
   27100:	00027224 	muli	zero,zero,2504
   27104:	00027224 	muli	zero,zero,2504
   27108:	00027224 	muli	zero,zero,2504
   2710c:	00027224 	muli	zero,zero,2504
   27110:	00027224 	muli	zero,zero,2504
   27114:	00027224 	muli	zero,zero,2504
   27118:	000277f0 	cmpltui	zero,zero,2527
   2711c:	00027224 	muli	zero,zero,2504
   27120:	00027224 	muli	zero,zero,2504
   27124:	00027224 	muli	zero,zero,2504
   27128:	00027224 	muli	zero,zero,2504
   2712c:	00027224 	muli	zero,zero,2504
   27130:	00027224 	muli	zero,zero,2504
   27134:	00027224 	muli	zero,zero,2504
   27138:	00027224 	muli	zero,zero,2504
   2713c:	00027224 	muli	zero,zero,2504
   27140:	00027224 	muli	zero,zero,2504
   27144:	00027460 	cmpeqi	zero,zero,2513
   27148:	00027224 	muli	zero,zero,2504
   2714c:	00027224 	muli	zero,zero,2504
   27150:	00027224 	muli	zero,zero,2504
   27154:	00027224 	muli	zero,zero,2504
   27158:	00027224 	muli	zero,zero,2504
   2715c:	00027438 	rdprs	zero,zero,2512
   27160:	00027224 	muli	zero,zero,2504
   27164:	00027224 	muli	zero,zero,2504
   27168:	000277a8 	cmpgeui	zero,zero,2526
   2716c:	00027224 	muli	zero,zero,2504
   27170:	00027224 	muli	zero,zero,2504
   27174:	00027224 	muli	zero,zero,2504
   27178:	00027224 	muli	zero,zero,2504
   2717c:	00027224 	muli	zero,zero,2504
   27180:	00027224 	muli	zero,zero,2504
   27184:	00027224 	muli	zero,zero,2504
   27188:	00027224 	muli	zero,zero,2504
   2718c:	00027224 	muli	zero,zero,2504
   27190:	00027224 	muli	zero,zero,2504
   27194:	00027780 	call	2778 <__alt_mem_onchip_memory-0x1d888>
   27198:	00027680 	call	2768 <__alt_mem_onchip_memory-0x1d898>
   2719c:	00027224 	muli	zero,zero,2504
   271a0:	00027224 	muli	zero,zero,2504
   271a4:	00027224 	muli	zero,zero,2504
   271a8:	00027724 	muli	zero,zero,2524
   271ac:	00027680 	call	2768 <__alt_mem_onchip_memory-0x1d898>
   271b0:	00027224 	muli	zero,zero,2504
   271b4:	00027224 	muli	zero,zero,2504
   271b8:	0002776c 	andhi	zero,zero,2525
   271bc:	00027224 	muli	zero,zero,2504
   271c0:	00027730 	cmpltui	zero,zero,2524
   271c4:	00027464 	muli	zero,zero,2513
   271c8:	00027a60 	cmpeqi	zero,zero,2537
   271cc:	00027a54 	movui	zero,2537
   271d0:	00027224 	muli	zero,zero,2504
   271d4:	000279fc 	xorhi	zero,zero,2535
   271d8:	00027224 	muli	zero,zero,2504
   271dc:	0002743c 	xorhi	zero,zero,2512
   271e0:	00027224 	muli	zero,zero,2504
   271e4:	00027224 	muli	zero,zero,2504
   271e8:	000279b4 	movhi	zero,2534
   271ec:	0023883a 	mov	r17,zero
   271f0:	113ff404 	addi	r4,r2,-48
   271f4:	880690ba 	slli	r3,r17,2
   271f8:	a0800007 	ldb	r2,0(r20)
   271fc:	a5000044 	addi	r20,r20,1
   27200:	1c63883a 	add	r17,r3,r17
   27204:	8c63883a 	add	r17,r17,r17
   27208:	2463883a 	add	r17,r4,r17
   2720c:	113ff404 	addi	r4,r2,-48
   27210:	20c002b0 	cmpltui	r3,r4,10
   27214:	183ff71e 	bne	r3,zero,271f4 <___vfiprintf_internal_r+0x294>
   27218:	10fff804 	addi	r3,r2,-32
   2721c:	19001668 	cmpgeui	r4,r3,89
   27220:	203f9426 	beq	r4,zero,27074 <___vfiprintf_internal_r+0x114>
   27224:	29403fcc 	andi	r5,r5,255
   27228:	2803e31e 	bne	r5,zero,281b8 <___vfiprintf_internal_r+0x1258>
   2722c:	10005f26 	beq	r2,zero,273ac <___vfiprintf_internal_r+0x44c>
   27230:	d8800d05 	stb	r2,52(sp)
   27234:	d8000945 	stb	zero,37(sp)
   27238:	05c00044 	movi	r23,1
   2723c:	07000044 	movi	fp,1
   27240:	dcc00d04 	addi	r19,sp,52
   27244:	db400015 	stw	r13,0(sp)
   27248:	0011883a 	mov	r8,zero
   2724c:	d8800017 	ldw	r2,0(sp)
   27250:	1380008c 	andi	r14,r2,2
   27254:	70000126 	beq	r14,zero,2725c <___vfiprintf_internal_r+0x2fc>
   27258:	bdc00084 	addi	r23,r23,2
   2725c:	d8800017 	ldw	r2,0(sp)
   27260:	d9000b17 	ldw	r4,44(sp)
   27264:	1340210c 	andi	r13,r2,132
   27268:	21800044 	addi	r6,r4,1
   2726c:	d8800c17 	ldw	r2,48(sp)
   27270:	300b883a 	mov	r5,r6
   27274:	6800021e 	bne	r13,zero,27280 <___vfiprintf_internal_r+0x320>
   27278:	8dc7c83a 	sub	r3,r17,r23
   2727c:	00c2d716 	blt	zero,r3,27ddc <___vfiprintf_internal_r+0xe7c>
   27280:	d8c00947 	ldb	r3,37(sp)
   27284:	81800204 	addi	r6,r16,8
   27288:	18000d26 	beq	r3,zero,272c0 <___vfiprintf_internal_r+0x360>
   2728c:	d8c00944 	addi	r3,sp,37
   27290:	10800044 	addi	r2,r2,1
   27294:	80c00015 	stw	r3,0(r16)
   27298:	00c00044 	movi	r3,1
   2729c:	80c00115 	stw	r3,4(r16)
   272a0:	d8800c15 	stw	r2,48(sp)
   272a4:	d9400b15 	stw	r5,44(sp)
   272a8:	28c00208 	cmpgei	r3,r5,8
   272ac:	1802ac1e 	bne	r3,zero,27d60 <___vfiprintf_internal_r+0xe00>
   272b0:	2809883a 	mov	r4,r5
   272b4:	3021883a 	mov	r16,r6
   272b8:	29400044 	addi	r5,r5,1
   272bc:	31800204 	addi	r6,r6,8
   272c0:	70001826 	beq	r14,zero,27324 <___vfiprintf_internal_r+0x3c4>
   272c4:	d8c00984 	addi	r3,sp,38
   272c8:	10800084 	addi	r2,r2,2
   272cc:	80c00015 	stw	r3,0(r16)
   272d0:	00c00084 	movi	r3,2
   272d4:	80c00115 	stw	r3,4(r16)
   272d8:	d8800c15 	stw	r2,48(sp)
   272dc:	d9400b15 	stw	r5,44(sp)
   272e0:	28c00208 	cmpgei	r3,r5,8
   272e4:	1802b626 	beq	r3,zero,27dc0 <___vfiprintf_internal_r+0xe60>
   272e8:	10031226 	beq	r2,zero,27f34 <___vfiprintf_internal_r+0xfd4>
   272ec:	d9800a04 	addi	r6,sp,40
   272f0:	a80b883a 	mov	r5,r21
   272f4:	b009883a 	mov	r4,r22
   272f8:	da000315 	stw	r8,12(sp)
   272fc:	db400215 	stw	r13,8(sp)
   27300:	0026e540 	call	26e54 <__sprint_r.part.0>
   27304:	10002b1e 	bne	r2,zero,273b4 <___vfiprintf_internal_r+0x454>
   27308:	d9000b17 	ldw	r4,44(sp)
   2730c:	d8800c17 	ldw	r2,48(sp)
   27310:	da000317 	ldw	r8,12(sp)
   27314:	db400217 	ldw	r13,8(sp)
   27318:	d9801904 	addi	r6,sp,100
   2731c:	21400044 	addi	r5,r4,1
   27320:	9021883a 	mov	r16,r18
   27324:	6b402018 	cmpnei	r13,r13,128
   27328:	68020c26 	beq	r13,zero,27b5c <___vfiprintf_internal_r+0xbfc>
   2732c:	4711c83a 	sub	r8,r8,fp
   27330:	02024b16 	blt	zero,r8,27c60 <___vfiprintf_internal_r+0xd00>
   27334:	e085883a 	add	r2,fp,r2
   27338:	d9400b15 	stw	r5,44(sp)
   2733c:	84c00015 	stw	r19,0(r16)
   27340:	87000115 	stw	fp,4(r16)
   27344:	d8800c15 	stw	r2,48(sp)
   27348:	29400210 	cmplti	r5,r5,8
   2734c:	2800081e 	bne	r5,zero,27370 <___vfiprintf_internal_r+0x410>
   27350:	10008f26 	beq	r2,zero,27590 <___vfiprintf_internal_r+0x630>
   27354:	d9800a04 	addi	r6,sp,40
   27358:	a80b883a 	mov	r5,r21
   2735c:	b009883a 	mov	r4,r22
   27360:	0026e540 	call	26e54 <__sprint_r.part.0>
   27364:	1000131e 	bne	r2,zero,273b4 <___vfiprintf_internal_r+0x454>
   27368:	d8800c17 	ldw	r2,48(sp)
   2736c:	900d883a 	mov	r6,r18
   27370:	d8c00017 	ldw	r3,0(sp)
   27374:	1cc0010c 	andi	r19,r3,4
   27378:	98000226 	beq	r19,zero,27384 <___vfiprintf_internal_r+0x424>
   2737c:	8de1c83a 	sub	r16,r17,r23
   27380:	04008a16 	blt	zero,r16,275ac <___vfiprintf_internal_r+0x64c>
   27384:	8dc0010e 	bge	r17,r23,2738c <___vfiprintf_internal_r+0x42c>
   27388:	b823883a 	mov	r17,r23
   2738c:	d8c00117 	ldw	r3,4(sp)
   27390:	1c47883a 	add	r3,r3,r17
   27394:	d8c00115 	stw	r3,4(sp)
   27398:	1002671e 	bne	r2,zero,27d38 <___vfiprintf_internal_r+0xdd8>
   2739c:	a0c00007 	ldb	r3,0(r20)
   273a0:	d8000b15 	stw	zero,44(sp)
   273a4:	9021883a 	mov	r16,r18
   273a8:	183f181e 	bne	r3,zero,2700c <___vfiprintf_internal_r+0xac>
   273ac:	d8800c17 	ldw	r2,48(sp)
   273b0:	1003831e 	bne	r2,zero,281c0 <___vfiprintf_internal_r+0x1260>
   273b4:	a880030b 	ldhu	r2,12(r21)
   273b8:	1080100c 	andi	r2,r2,64
   273bc:	10039e1e 	bne	r2,zero,28238 <___vfiprintf_internal_r+0x12d8>
   273c0:	d8800117 	ldw	r2,4(sp)
   273c4:	dfc03017 	ldw	ra,192(sp)
   273c8:	df002f17 	ldw	fp,188(sp)
   273cc:	ddc02e17 	ldw	r23,184(sp)
   273d0:	dd802d17 	ldw	r22,180(sp)
   273d4:	dd402c17 	ldw	r21,176(sp)
   273d8:	dd002b17 	ldw	r20,172(sp)
   273dc:	dcc02a17 	ldw	r19,168(sp)
   273e0:	dc802917 	ldw	r18,164(sp)
   273e4:	dc402817 	ldw	r17,160(sp)
   273e8:	dc002717 	ldw	r16,156(sp)
   273ec:	dec03104 	addi	sp,sp,196
   273f0:	f800283a 	ret
   273f4:	a80b883a 	mov	r5,r21
   273f8:	b009883a 	mov	r4,r22
   273fc:	00283500 	call	28350 <__swsetup_r>
   27400:	10038d1e 	bne	r2,zero,28238 <___vfiprintf_internal_r+0x12d8>
   27404:	a880030b 	ldhu	r2,12(r21)
   27408:	1080068c 	andi	r2,r2,26
   2740c:	10800298 	cmpnei	r2,r2,10
   27410:	103ef51e 	bne	r2,zero,26fe8 <___vfiprintf_internal_r+0x88>
   27414:	a880038f 	ldh	r2,14(r21)
   27418:	103ef316 	blt	r2,zero,26fe8 <___vfiprintf_internal_r+0x88>
   2741c:	d9c00417 	ldw	r7,16(sp)
   27420:	a00d883a 	mov	r6,r20
   27424:	a80b883a 	mov	r5,r21
   27428:	b009883a 	mov	r4,r22
   2742c:	00282900 	call	28290 <__sbprintf>
   27430:	d8800115 	stw	r2,4(sp)
   27434:	003fe206 	br	273c0 <___vfiprintf_internal_r+0x460>
   27438:	6b400414 	ori	r13,r13,16
   2743c:	6880080c 	andi	r2,r13,32
   27440:	10004726 	beq	r2,zero,27560 <___vfiprintf_internal_r+0x600>
   27444:	d8c00417 	ldw	r3,16(sp)
   27448:	00800044 	movi	r2,1
   2744c:	1dc00017 	ldw	r23,0(r3)
   27450:	1f000117 	ldw	fp,4(r3)
   27454:	18c00204 	addi	r3,r3,8
   27458:	d8c00415 	stw	r3,16(sp)
   2745c:	00000906 	br	27484 <___vfiprintf_internal_r+0x524>
   27460:	6b400414 	ori	r13,r13,16
   27464:	6880080c 	andi	r2,r13,32
   27468:	10003126 	beq	r2,zero,27530 <___vfiprintf_internal_r+0x5d0>
   2746c:	d8c00417 	ldw	r3,16(sp)
   27470:	0005883a 	mov	r2,zero
   27474:	1dc00017 	ldw	r23,0(r3)
   27478:	1f000117 	ldw	fp,4(r3)
   2747c:	18c00204 	addi	r3,r3,8
   27480:	d8c00415 	stw	r3,16(sp)
   27484:	d8000945 	stb	zero,37(sp)
   27488:	40ffffe0 	cmpeqi	r3,r8,-1
   2748c:	001d883a 	mov	r14,zero
   27490:	1800f21e 	bne	r3,zero,2785c <___vfiprintf_internal_r+0x8fc>
   27494:	04ffdfc4 	movi	r19,-129
   27498:	6cc8703a 	and	r4,r13,r19
   2749c:	bf06b03a 	or	r3,r23,fp
   274a0:	d9000015 	stw	r4,0(sp)
   274a4:	18024b1e 	bne	r3,zero,27dd4 <___vfiprintf_internal_r+0xe74>
   274a8:	4003091e 	bne	r8,zero,280d0 <___vfiprintf_internal_r+0x1170>
   274ac:	1002a61e 	bne	r2,zero,27f48 <___vfiprintf_internal_r+0xfe8>
   274b0:	6f00004c 	andi	fp,r13,1
   274b4:	e002b826 	beq	fp,zero,27f98 <___vfiprintf_internal_r+0x1038>
   274b8:	00800c04 	movi	r2,48
   274bc:	d88016c5 	stb	r2,91(sp)
   274c0:	dcc016c4 	addi	r19,sp,91
   274c4:	00008e06 	br	27700 <___vfiprintf_internal_r+0x7a0>
   274c8:	8d27c83a 	sub	r19,r17,r20
   274cc:	8d3fb726 	beq	r17,r20,273ac <___vfiprintf_internal_r+0x44c>
   274d0:	d8c00c17 	ldw	r3,48(sp)
   274d4:	d8800b17 	ldw	r2,44(sp)
   274d8:	85000015 	stw	r20,0(r16)
   274dc:	98c7883a 	add	r3,r19,r3
   274e0:	10800044 	addi	r2,r2,1
   274e4:	d8800b15 	stw	r2,44(sp)
   274e8:	84c00115 	stw	r19,4(r16)
   274ec:	d8c00c15 	stw	r3,48(sp)
   274f0:	10800208 	cmpgei	r2,r2,8
   274f4:	1000061e 	bne	r2,zero,27510 <___vfiprintf_internal_r+0x5b0>
   274f8:	84000204 	addi	r16,r16,8
   274fc:	d8c00117 	ldw	r3,4(sp)
   27500:	88800003 	ldbu	r2,0(r17)
   27504:	1cc7883a 	add	r3,r3,r19
   27508:	d8c00115 	stw	r3,4(sp)
   2750c:	003ec906 	br	27034 <___vfiprintf_internal_r+0xd4>
   27510:	18027f26 	beq	r3,zero,27f10 <___vfiprintf_internal_r+0xfb0>
   27514:	d9800a04 	addi	r6,sp,40
   27518:	a80b883a 	mov	r5,r21
   2751c:	b009883a 	mov	r4,r22
   27520:	0026e540 	call	26e54 <__sprint_r.part.0>
   27524:	103fa31e 	bne	r2,zero,273b4 <___vfiprintf_internal_r+0x454>
   27528:	9021883a 	mov	r16,r18
   2752c:	003ff306 	br	274fc <___vfiprintf_internal_r+0x59c>
   27530:	d9000417 	ldw	r4,16(sp)
   27534:	6880040c 	andi	r2,r13,16
   27538:	20c00104 	addi	r3,r4,4
   2753c:	1002a31e 	bne	r2,zero,27fcc <___vfiprintf_internal_r+0x106c>
   27540:	6880100c 	andi	r2,r13,64
   27544:	1002f626 	beq	r2,zero,28120 <___vfiprintf_internal_r+0x11c0>
   27548:	d8800417 	ldw	r2,16(sp)
   2754c:	0039883a 	mov	fp,zero
   27550:	d8c00415 	stw	r3,16(sp)
   27554:	15c0000b 	ldhu	r23,0(r2)
   27558:	0005883a 	mov	r2,zero
   2755c:	003fc906 	br	27484 <___vfiprintf_internal_r+0x524>
   27560:	d9000417 	ldw	r4,16(sp)
   27564:	6880040c 	andi	r2,r13,16
   27568:	20c00104 	addi	r3,r4,4
   2756c:	1002ab1e 	bne	r2,zero,2801c <___vfiprintf_internal_r+0x10bc>
   27570:	6880100c 	andi	r2,r13,64
   27574:	1002f026 	beq	r2,zero,28138 <___vfiprintf_internal_r+0x11d8>
   27578:	d8800417 	ldw	r2,16(sp)
   2757c:	0039883a 	mov	fp,zero
   27580:	d8c00415 	stw	r3,16(sp)
   27584:	15c0000b 	ldhu	r23,0(r2)
   27588:	00800044 	movi	r2,1
   2758c:	003fbd06 	br	27484 <___vfiprintf_internal_r+0x524>
   27590:	d8c00017 	ldw	r3,0(sp)
   27594:	d8000b15 	stw	zero,44(sp)
   27598:	1cc0010c 	andi	r19,r3,4
   2759c:	98024a26 	beq	r19,zero,27ec8 <___vfiprintf_internal_r+0xf68>
   275a0:	8de1c83a 	sub	r16,r17,r23
   275a4:	0402480e 	bge	zero,r16,27ec8 <___vfiprintf_internal_r+0xf68>
   275a8:	900d883a 	mov	r6,r18
   275ac:	80c00450 	cmplti	r3,r16,17
   275b0:	d9000b17 	ldw	r4,44(sp)
   275b4:	01c000f4 	movhi	r7,3
   275b8:	1803171e 	bne	r3,zero,28218 <___vfiprintf_internal_r+0x12b8>
   275bc:	39c15004 	addi	r7,r7,1344
   275c0:	04c00404 	movi	r19,16
   275c4:	00000606 	br	275e0 <___vfiprintf_internal_r+0x680>
   275c8:	21400084 	addi	r5,r4,2
   275cc:	31800204 	addi	r6,r6,8
   275d0:	1809883a 	mov	r4,r3
   275d4:	843ffc04 	addi	r16,r16,-16
   275d8:	80c00448 	cmpgei	r3,r16,17
   275dc:	18001726 	beq	r3,zero,2763c <___vfiprintf_internal_r+0x6dc>
   275e0:	20c00044 	addi	r3,r4,1
   275e4:	10800404 	addi	r2,r2,16
   275e8:	31c00015 	stw	r7,0(r6)
   275ec:	34c00115 	stw	r19,4(r6)
   275f0:	d8800c15 	stw	r2,48(sp)
   275f4:	d8c00b15 	stw	r3,44(sp)
   275f8:	19400208 	cmpgei	r5,r3,8
   275fc:	283ff226 	beq	r5,zero,275c8 <___vfiprintf_internal_r+0x668>
   27600:	d9800a04 	addi	r6,sp,40
   27604:	a80b883a 	mov	r5,r21
   27608:	b009883a 	mov	r4,r22
   2760c:	10014f26 	beq	r2,zero,27b4c <___vfiprintf_internal_r+0xbec>
   27610:	d9c00015 	stw	r7,0(sp)
   27614:	0026e540 	call	26e54 <__sprint_r.part.0>
   27618:	103f661e 	bne	r2,zero,273b4 <___vfiprintf_internal_r+0x454>
   2761c:	d9000b17 	ldw	r4,44(sp)
   27620:	843ffc04 	addi	r16,r16,-16
   27624:	80c00448 	cmpgei	r3,r16,17
   27628:	d8800c17 	ldw	r2,48(sp)
   2762c:	d9c00017 	ldw	r7,0(sp)
   27630:	900d883a 	mov	r6,r18
   27634:	21400044 	addi	r5,r4,1
   27638:	183fe91e 	bne	r3,zero,275e0 <___vfiprintf_internal_r+0x680>
   2763c:	1405883a 	add	r2,r2,r16
   27640:	d9400b15 	stw	r5,44(sp)
   27644:	31c00015 	stw	r7,0(r6)
   27648:	34000115 	stw	r16,4(r6)
   2764c:	d8800c15 	stw	r2,48(sp)
   27650:	29400210 	cmplti	r5,r5,8
   27654:	283f4b1e 	bne	r5,zero,27384 <___vfiprintf_internal_r+0x424>
   27658:	10021b26 	beq	r2,zero,27ec8 <___vfiprintf_internal_r+0xf68>
   2765c:	d9800a04 	addi	r6,sp,40
   27660:	a80b883a 	mov	r5,r21
   27664:	b009883a 	mov	r4,r22
   27668:	0026e540 	call	26e54 <__sprint_r.part.0>
   2766c:	103f511e 	bne	r2,zero,273b4 <___vfiprintf_internal_r+0x454>
   27670:	d8800c17 	ldw	r2,48(sp)
   27674:	003f4306 	br	27384 <___vfiprintf_internal_r+0x424>
   27678:	0023ecc0 	call	23ecc <__sinit>
   2767c:	003e4a06 	br	26fa8 <___vfiprintf_internal_r+0x48>
   27680:	29403fcc 	andi	r5,r5,255
   27684:	2802e01e 	bne	r5,zero,28208 <___vfiprintf_internal_r+0x12a8>
   27688:	6880080c 	andi	r2,r13,32
   2768c:	10005d26 	beq	r2,zero,27804 <___vfiprintf_internal_r+0x8a4>
   27690:	d8c00417 	ldw	r3,16(sp)
   27694:	18800117 	ldw	r2,4(r3)
   27698:	1dc00017 	ldw	r23,0(r3)
   2769c:	18c00204 	addi	r3,r3,8
   276a0:	d8c00415 	stw	r3,16(sp)
   276a4:	1039883a 	mov	fp,r2
   276a8:	10006216 	blt	r2,zero,27834 <___vfiprintf_internal_r+0x8d4>
   276ac:	40bfffd8 	cmpnei	r2,r8,-1
   276b0:	10000a26 	beq	r2,zero,276dc <___vfiprintf_internal_r+0x77c>
   276b4:	00ffdfc4 	movi	r3,-129
   276b8:	bf04b03a 	or	r2,r23,fp
   276bc:	db800943 	ldbu	r14,37(sp)
   276c0:	68da703a 	and	r13,r13,r3
   276c4:	1000061e 	bne	r2,zero,276e0 <___vfiprintf_internal_r+0x780>
   276c8:	4000081e 	bne	r8,zero,276ec <___vfiprintf_internal_r+0x78c>
   276cc:	0039883a 	mov	fp,zero
   276d0:	db400015 	stw	r13,0(sp)
   276d4:	9027883a 	mov	r19,r18
   276d8:	00000906 	br	27700 <___vfiprintf_internal_r+0x7a0>
   276dc:	db800943 	ldbu	r14,37(sp)
   276e0:	e000ee1e 	bne	fp,zero,27a9c <___vfiprintf_internal_r+0xb3c>
   276e4:	b88002a8 	cmpgeui	r2,r23,10
   276e8:	1000ec1e 	bne	r2,zero,27a9c <___vfiprintf_internal_r+0xb3c>
   276ec:	bdc00c04 	addi	r23,r23,48
   276f0:	ddc016c5 	stb	r23,91(sp)
   276f4:	db400015 	stw	r13,0(sp)
   276f8:	07000044 	movi	fp,1
   276fc:	dcc016c4 	addi	r19,sp,91
   27700:	402f883a 	mov	r23,r8
   27704:	4700010e 	bge	r8,fp,2770c <___vfiprintf_internal_r+0x7ac>
   27708:	e02f883a 	mov	r23,fp
   2770c:	73803fcc 	andi	r14,r14,255
   27710:	7380201c 	xori	r14,r14,128
   27714:	73bfe004 	addi	r14,r14,-128
   27718:	703ecc26 	beq	r14,zero,2724c <___vfiprintf_internal_r+0x2ec>
   2771c:	bdc00044 	addi	r23,r23,1
   27720:	003eca06 	br	2724c <___vfiprintf_internal_r+0x2ec>
   27724:	a0800007 	ldb	r2,0(r20)
   27728:	6b401014 	ori	r13,r13,64
   2772c:	003e4d06 	br	27064 <___vfiprintf_internal_r+0x104>
   27730:	29403fcc 	andi	r5,r5,255
   27734:	2802b21e 	bne	r5,zero,28200 <___vfiprintf_internal_r+0x12a0>
   27738:	d9000417 	ldw	r4,16(sp)
   2773c:	6880080c 	andi	r2,r13,32
   27740:	20c00017 	ldw	r3,0(r4)
   27744:	21000104 	addi	r4,r4,4
   27748:	1002251e 	bne	r2,zero,27fe0 <___vfiprintf_internal_r+0x1080>
   2774c:	6880040c 	andi	r2,r13,16
   27750:	1002531e 	bne	r2,zero,280a0 <___vfiprintf_internal_r+0x1140>
   27754:	6b40100c 	andi	r13,r13,64
   27758:	68025126 	beq	r13,zero,280a0 <___vfiprintf_internal_r+0x1140>
   2775c:	d8800117 	ldw	r2,4(sp)
   27760:	d9000415 	stw	r4,16(sp)
   27764:	1880000d 	sth	r2,0(r3)
   27768:	003e2606 	br	27004 <___vfiprintf_internal_r+0xa4>
   2776c:	a0800007 	ldb	r2,0(r20)
   27770:	10c01b18 	cmpnei	r3,r2,108
   27774:	18025a26 	beq	r3,zero,280e0 <___vfiprintf_internal_r+0x1180>
   27778:	6b400414 	ori	r13,r13,16
   2777c:	003e3906 	br	27064 <___vfiprintf_internal_r+0x104>
   27780:	d8c00417 	ldw	r3,16(sp)
   27784:	d8000945 	stb	zero,37(sp)
   27788:	05c00044 	movi	r23,1
   2778c:	18800017 	ldw	r2,0(r3)
   27790:	18c00104 	addi	r3,r3,4
   27794:	d8c00415 	stw	r3,16(sp)
   27798:	d8800d05 	stb	r2,52(sp)
   2779c:	07000044 	movi	fp,1
   277a0:	dcc00d04 	addi	r19,sp,52
   277a4:	003ea706 	br	27244 <___vfiprintf_internal_r+0x2e4>
   277a8:	29403fcc 	andi	r5,r5,255
   277ac:	2802981e 	bne	r5,zero,28210 <___vfiprintf_internal_r+0x12b0>
   277b0:	00c000f4 	movhi	r3,3
   277b4:	18c14004 	addi	r3,r3,1280
   277b8:	d8c00515 	stw	r3,20(sp)
   277bc:	68c0080c 	andi	r3,r13,32
   277c0:	18008326 	beq	r3,zero,279d0 <___vfiprintf_internal_r+0xa70>
   277c4:	d8c00417 	ldw	r3,16(sp)
   277c8:	1dc00017 	ldw	r23,0(r3)
   277cc:	1f000117 	ldw	fp,4(r3)
   277d0:	18c00204 	addi	r3,r3,8
   277d4:	d8c00415 	stw	r3,16(sp)
   277d8:	68c0004c 	andi	r3,r13,1
   277dc:	18000226 	beq	r3,zero,277e8 <___vfiprintf_internal_r+0x888>
   277e0:	bf06b03a 	or	r3,r23,fp
   277e4:	1801f31e 	bne	r3,zero,27fb4 <___vfiprintf_internal_r+0x1054>
   277e8:	00800084 	movi	r2,2
   277ec:	003f2506 	br	27484 <___vfiprintf_internal_r+0x524>
   277f0:	29403fcc 	andi	r5,r5,255
   277f4:	2802801e 	bne	r5,zero,281f8 <___vfiprintf_internal_r+0x1298>
   277f8:	6b400414 	ori	r13,r13,16
   277fc:	6880080c 	andi	r2,r13,32
   27800:	103fa31e 	bne	r2,zero,27690 <___vfiprintf_internal_r+0x730>
   27804:	d9000417 	ldw	r4,16(sp)
   27808:	6880040c 	andi	r2,r13,16
   2780c:	20c00104 	addi	r3,r4,4
   27810:	1001f91e 	bne	r2,zero,27ff8 <___vfiprintf_internal_r+0x1098>
   27814:	6880100c 	andi	r2,r13,64
   27818:	10025226 	beq	r2,zero,28164 <___vfiprintf_internal_r+0x1204>
   2781c:	d8800417 	ldw	r2,16(sp)
   27820:	d8c00415 	stw	r3,16(sp)
   27824:	15c0000f 	ldh	r23,0(r2)
   27828:	b839d7fa 	srai	fp,r23,31
   2782c:	e005883a 	mov	r2,fp
   27830:	103f9e0e 	bge	r2,zero,276ac <___vfiprintf_internal_r+0x74c>
   27834:	b804c03a 	cmpne	r2,r23,zero
   27838:	0739c83a 	sub	fp,zero,fp
   2783c:	e0b9c83a 	sub	fp,fp,r2
   27840:	00800b44 	movi	r2,45
   27844:	d8800945 	stb	r2,37(sp)
   27848:	40ffffe0 	cmpeqi	r3,r8,-1
   2784c:	05efc83a 	sub	r23,zero,r23
   27850:	03800b44 	movi	r14,45
   27854:	00800044 	movi	r2,1
   27858:	183f0e26 	beq	r3,zero,27494 <___vfiprintf_internal_r+0x534>
   2785c:	10c00060 	cmpeqi	r3,r2,1
   27860:	183f9f1e 	bne	r3,zero,276e0 <___vfiprintf_internal_r+0x780>
   27864:	108000a0 	cmpeqi	r2,r2,2
   27868:	9027883a 	mov	r19,r18
   2786c:	1000a81e 	bne	r2,zero,27b10 <___vfiprintf_internal_r+0xbb0>
   27870:	e006977a 	slli	r3,fp,29
   27874:	b804d0fa 	srli	r2,r23,3
   27878:	e038d0fa 	srli	fp,fp,3
   2787c:	b90001cc 	andi	r4,r23,7
   27880:	21000c04 	addi	r4,r4,48
   27884:	18aeb03a 	or	r23,r3,r2
   27888:	993fffc5 	stb	r4,-1(r19)
   2788c:	bf04b03a 	or	r2,r23,fp
   27890:	980b883a 	mov	r5,r19
   27894:	9cffffc4 	addi	r19,r19,-1
   27898:	103ff51e 	bne	r2,zero,27870 <___vfiprintf_internal_r+0x910>
   2789c:	6880004c 	andi	r2,r13,1
   278a0:	1000a726 	beq	r2,zero,27b40 <___vfiprintf_internal_r+0xbe0>
   278a4:	21003fcc 	andi	r4,r4,255
   278a8:	2100201c 	xori	r4,r4,128
   278ac:	213fe004 	addi	r4,r4,-128
   278b0:	20800c18 	cmpnei	r2,r4,48
   278b4:	1000a226 	beq	r2,zero,27b40 <___vfiprintf_internal_r+0xbe0>
   278b8:	297fff84 	addi	r5,r5,-2
   278bc:	00800c04 	movi	r2,48
   278c0:	98bfffc5 	stb	r2,-1(r19)
   278c4:	9179c83a 	sub	fp,r18,r5
   278c8:	db400015 	stw	r13,0(sp)
   278cc:	2827883a 	mov	r19,r5
   278d0:	003f8b06 	br	27700 <___vfiprintf_internal_r+0x7a0>
   278d4:	a0800007 	ldb	r2,0(r20)
   278d8:	6b402014 	ori	r13,r13,128
   278dc:	003de106 	br	27064 <___vfiprintf_internal_r+0x104>
   278e0:	a0800007 	ldb	r2,0(r20)
   278e4:	a0c00044 	addi	r3,r20,1
   278e8:	11000aa0 	cmpeqi	r4,r2,42
   278ec:	2002551e 	bne	r4,zero,28244 <___vfiprintf_internal_r+0x12e4>
   278f0:	113ff404 	addi	r4,r2,-48
   278f4:	21c002b0 	cmpltui	r7,r4,10
   278f8:	1829883a 	mov	r20,r3
   278fc:	0011883a 	mov	r8,zero
   27900:	383dd926 	beq	r7,zero,27068 <___vfiprintf_internal_r+0x108>
   27904:	400690ba 	slli	r3,r8,2
   27908:	a0800007 	ldb	r2,0(r20)
   2790c:	a5000044 	addi	r20,r20,1
   27910:	1a11883a 	add	r8,r3,r8
   27914:	4211883a 	add	r8,r8,r8
   27918:	4111883a 	add	r8,r8,r4
   2791c:	113ff404 	addi	r4,r2,-48
   27920:	20c002b0 	cmpltui	r3,r4,10
   27924:	183ff71e 	bne	r3,zero,27904 <___vfiprintf_internal_r+0x9a4>
   27928:	003dcf06 	br	27068 <___vfiprintf_internal_r+0x108>
   2792c:	a0800003 	ldbu	r2,0(r20)
   27930:	10803fcc 	andi	r2,r2,255
   27934:	1080201c 	xori	r2,r2,128
   27938:	6b400114 	ori	r13,r13,4
   2793c:	10bfe004 	addi	r2,r2,-128
   27940:	003dc806 	br	27064 <___vfiprintf_internal_r+0x104>
   27944:	a0800007 	ldb	r2,0(r20)
   27948:	01400044 	movi	r5,1
   2794c:	01800ac4 	movi	r6,43
   27950:	003dc406 	br	27064 <___vfiprintf_internal_r+0x104>
   27954:	d8c00417 	ldw	r3,16(sp)
   27958:	a0800003 	ldbu	r2,0(r20)
   2795c:	1c400017 	ldw	r17,0(r3)
   27960:	18c00104 	addi	r3,r3,4
   27964:	8801b916 	blt	r17,zero,2804c <___vfiprintf_internal_r+0x10ec>
   27968:	d8c00415 	stw	r3,16(sp)
   2796c:	10803fcc 	andi	r2,r2,255
   27970:	1080201c 	xori	r2,r2,128
   27974:	10bfe004 	addi	r2,r2,-128
   27978:	003dba06 	br	27064 <___vfiprintf_internal_r+0x104>
   2797c:	a0800007 	ldb	r2,0(r20)
   27980:	6b400054 	ori	r13,r13,1
   27984:	003db706 	br	27064 <___vfiprintf_internal_r+0x104>
   27988:	30c03fcc 	andi	r3,r6,255
   2798c:	18c0201c 	xori	r3,r3,128
   27990:	18ffe004 	addi	r3,r3,-128
   27994:	a0800003 	ldbu	r2,0(r20)
   27998:	183ff41e 	bne	r3,zero,2796c <___vfiprintf_internal_r+0xa0c>
   2799c:	10803fcc 	andi	r2,r2,255
   279a0:	1080201c 	xori	r2,r2,128
   279a4:	01400044 	movi	r5,1
   279a8:	01800804 	movi	r6,32
   279ac:	10bfe004 	addi	r2,r2,-128
   279b0:	003dac06 	br	27064 <___vfiprintf_internal_r+0x104>
   279b4:	29403fcc 	andi	r5,r5,255
   279b8:	28020a1e 	bne	r5,zero,281e4 <___vfiprintf_internal_r+0x1284>
   279bc:	00c000f4 	movhi	r3,3
   279c0:	18c14504 	addi	r3,r3,1300
   279c4:	d8c00515 	stw	r3,20(sp)
   279c8:	68c0080c 	andi	r3,r13,32
   279cc:	183f7d1e 	bne	r3,zero,277c4 <___vfiprintf_internal_r+0x864>
   279d0:	d9400417 	ldw	r5,16(sp)
   279d4:	68c0040c 	andi	r3,r13,16
   279d8:	29000104 	addi	r4,r5,4
   279dc:	18018b1e 	bne	r3,zero,2800c <___vfiprintf_internal_r+0x10ac>
   279e0:	68c0100c 	andi	r3,r13,64
   279e4:	1801da26 	beq	r3,zero,28150 <___vfiprintf_internal_r+0x11f0>
   279e8:	d8c00417 	ldw	r3,16(sp)
   279ec:	0039883a 	mov	fp,zero
   279f0:	d9000415 	stw	r4,16(sp)
   279f4:	1dc0000b 	ldhu	r23,0(r3)
   279f8:	003f7706 	br	277d8 <___vfiprintf_internal_r+0x878>
   279fc:	d8800417 	ldw	r2,16(sp)
   27a00:	d8000945 	stb	zero,37(sp)
   27a04:	14c00017 	ldw	r19,0(r2)
   27a08:	10c00104 	addi	r3,r2,4
   27a0c:	9801bb26 	beq	r19,zero,280fc <___vfiprintf_internal_r+0x119c>
   27a10:	40bfffe0 	cmpeqi	r2,r8,-1
   27a14:	1001901e 	bne	r2,zero,28058 <___vfiprintf_internal_r+0x10f8>
   27a18:	400d883a 	mov	r6,r8
   27a1c:	000b883a 	mov	r5,zero
   27a20:	9809883a 	mov	r4,r19
   27a24:	d8c00315 	stw	r3,12(sp)
   27a28:	db400215 	stw	r13,8(sp)
   27a2c:	da000015 	stw	r8,0(sp)
   27a30:	0028b780 	call	28b78 <memchr>
   27a34:	da000017 	ldw	r8,0(sp)
   27a38:	db400217 	ldw	r13,8(sp)
   27a3c:	d8c00317 	ldw	r3,12(sp)
   27a40:	1001e426 	beq	r2,zero,281d4 <___vfiprintf_internal_r+0x1274>
   27a44:	14f9c83a 	sub	fp,r2,r19
   27a48:	e02f883a 	mov	r23,fp
   27a4c:	d8c00415 	stw	r3,16(sp)
   27a50:	003dfc06 	br	27244 <___vfiprintf_internal_r+0x2e4>
   27a54:	a0800007 	ldb	r2,0(r20)
   27a58:	6b400814 	ori	r13,r13,32
   27a5c:	003d8106 	br	27064 <___vfiprintf_internal_r+0x104>
   27a60:	d8c00417 	ldw	r3,16(sp)
   27a64:	00800c04 	movi	r2,48
   27a68:	d8800985 	stb	r2,38(sp)
   27a6c:	00801e04 	movi	r2,120
   27a70:	010000f4 	movhi	r4,3
   27a74:	d88009c5 	stb	r2,39(sp)
   27a78:	18800104 	addi	r2,r3,4
   27a7c:	d8800415 	stw	r2,16(sp)
   27a80:	20814504 	addi	r2,r4,1300
   27a84:	d8800515 	stw	r2,20(sp)
   27a88:	1dc00017 	ldw	r23,0(r3)
   27a8c:	0039883a 	mov	fp,zero
   27a90:	6b400094 	ori	r13,r13,2
   27a94:	00800084 	movi	r2,2
   27a98:	003e7a06 	br	27484 <___vfiprintf_internal_r+0x524>
   27a9c:	9027883a 	mov	r19,r18
   27aa0:	b809883a 	mov	r4,r23
   27aa4:	e00b883a 	mov	r5,fp
   27aa8:	01800284 	movi	r6,10
   27aac:	000f883a 	mov	r7,zero
   27ab0:	db800315 	stw	r14,12(sp)
   27ab4:	da000215 	stw	r8,8(sp)
   27ab8:	db400015 	stw	r13,0(sp)
   27abc:	0029d340 	call	29d34 <__umoddi3>
   27ac0:	10800c04 	addi	r2,r2,48
   27ac4:	b809883a 	mov	r4,r23
   27ac8:	e00b883a 	mov	r5,fp
   27acc:	98bfffc5 	stb	r2,-1(r19)
   27ad0:	01800284 	movi	r6,10
   27ad4:	000f883a 	mov	r7,zero
   27ad8:	00297180 	call	29718 <__udivdi3>
   27adc:	e009883a 	mov	r4,fp
   27ae0:	b80b883a 	mov	r5,r23
   27ae4:	db400017 	ldw	r13,0(sp)
   27ae8:	da000217 	ldw	r8,8(sp)
   27aec:	db800317 	ldw	r14,12(sp)
   27af0:	9cffffc4 	addi	r19,r19,-1
   27af4:	102f883a 	mov	r23,r2
   27af8:	1839883a 	mov	fp,r3
   27afc:	203fe81e 	bne	r4,zero,27aa0 <___vfiprintf_internal_r+0xb40>
   27b00:	294002a8 	cmpgeui	r5,r5,10
   27b04:	283fe61e 	bne	r5,zero,27aa0 <___vfiprintf_internal_r+0xb40>
   27b08:	94f9c83a 	sub	fp,r18,r19
   27b0c:	003efc06 	br	27700 <___vfiprintf_internal_r+0x7a0>
   27b10:	d9000517 	ldw	r4,20(sp)
   27b14:	b88003cc 	andi	r2,r23,15
   27b18:	e006973a 	slli	r3,fp,28
   27b1c:	b82ed13a 	srli	r23,r23,4
   27b20:	2085883a 	add	r2,r4,r2
   27b24:	10800003 	ldbu	r2,0(r2)
   27b28:	e038d13a 	srli	fp,fp,4
   27b2c:	1deeb03a 	or	r23,r3,r23
   27b30:	98bfffc5 	stb	r2,-1(r19)
   27b34:	bf04b03a 	or	r2,r23,fp
   27b38:	9cffffc4 	addi	r19,r19,-1
   27b3c:	103ff41e 	bne	r2,zero,27b10 <___vfiprintf_internal_r+0xbb0>
   27b40:	94f9c83a 	sub	fp,r18,r19
   27b44:	db400015 	stw	r13,0(sp)
   27b48:	003eed06 	br	27700 <___vfiprintf_internal_r+0x7a0>
   27b4c:	01400044 	movi	r5,1
   27b50:	0009883a 	mov	r4,zero
   27b54:	900d883a 	mov	r6,r18
   27b58:	003e9e06 	br	275d4 <___vfiprintf_internal_r+0x674>
   27b5c:	8dc7c83a 	sub	r3,r17,r23
   27b60:	00fdf20e 	bge	zero,r3,2732c <___vfiprintf_internal_r+0x3cc>
   27b64:	19c00450 	cmplti	r7,r3,17
   27b68:	3801ae1e 	bne	r7,zero,28224 <___vfiprintf_internal_r+0x12c4>
   27b6c:	01c000f4 	movhi	r7,3
   27b70:	39c14c04 	addi	r7,r7,1328
   27b74:	03400404 	movi	r13,16
   27b78:	00000606 	br	27b94 <___vfiprintf_internal_r+0xc34>
   27b7c:	23800084 	addi	r14,r4,2
   27b80:	84000204 	addi	r16,r16,8
   27b84:	2809883a 	mov	r4,r5
   27b88:	18fffc04 	addi	r3,r3,-16
   27b8c:	19400448 	cmpgei	r5,r3,17
   27b90:	28001c26 	beq	r5,zero,27c04 <___vfiprintf_internal_r+0xca4>
   27b94:	21400044 	addi	r5,r4,1
   27b98:	10800404 	addi	r2,r2,16
   27b9c:	81c00015 	stw	r7,0(r16)
   27ba0:	83400115 	stw	r13,4(r16)
   27ba4:	d8800c15 	stw	r2,48(sp)
   27ba8:	d9400b15 	stw	r5,44(sp)
   27bac:	29800208 	cmpgei	r6,r5,8
   27bb0:	303ff226 	beq	r6,zero,27b7c <___vfiprintf_internal_r+0xc1c>
   27bb4:	d9800a04 	addi	r6,sp,40
   27bb8:	a80b883a 	mov	r5,r21
   27bbc:	b009883a 	mov	r4,r22
   27bc0:	10006326 	beq	r2,zero,27d50 <___vfiprintf_internal_r+0xdf0>
   27bc4:	d9c00615 	stw	r7,24(sp)
   27bc8:	d8c00315 	stw	r3,12(sp)
   27bcc:	da000215 	stw	r8,8(sp)
   27bd0:	0026e540 	call	26e54 <__sprint_r.part.0>
   27bd4:	103df71e 	bne	r2,zero,273b4 <___vfiprintf_internal_r+0x454>
   27bd8:	d8c00317 	ldw	r3,12(sp)
   27bdc:	d9000b17 	ldw	r4,44(sp)
   27be0:	d8800c17 	ldw	r2,48(sp)
   27be4:	18fffc04 	addi	r3,r3,-16
   27be8:	19400448 	cmpgei	r5,r3,17
   27bec:	d9c00617 	ldw	r7,24(sp)
   27bf0:	da000217 	ldw	r8,8(sp)
   27bf4:	9021883a 	mov	r16,r18
   27bf8:	23800044 	addi	r14,r4,1
   27bfc:	03400404 	movi	r13,16
   27c00:	283fe41e 	bne	r5,zero,27b94 <___vfiprintf_internal_r+0xc34>
   27c04:	83400204 	addi	r13,r16,8
   27c08:	10c5883a 	add	r2,r2,r3
   27c0c:	80c00115 	stw	r3,4(r16)
   27c10:	81c00015 	stw	r7,0(r16)
   27c14:	d8800c15 	stw	r2,48(sp)
   27c18:	db800b15 	stw	r14,44(sp)
   27c1c:	70c00208 	cmpgei	r3,r14,8
   27c20:	1800df26 	beq	r3,zero,27fa0 <___vfiprintf_internal_r+0x1040>
   27c24:	10015826 	beq	r2,zero,28188 <___vfiprintf_internal_r+0x1228>
   27c28:	d9800a04 	addi	r6,sp,40
   27c2c:	a80b883a 	mov	r5,r21
   27c30:	b009883a 	mov	r4,r22
   27c34:	da000215 	stw	r8,8(sp)
   27c38:	0026e540 	call	26e54 <__sprint_r.part.0>
   27c3c:	103ddd1e 	bne	r2,zero,273b4 <___vfiprintf_internal_r+0x454>
   27c40:	da000217 	ldw	r8,8(sp)
   27c44:	d9000b17 	ldw	r4,44(sp)
   27c48:	d8800c17 	ldw	r2,48(sp)
   27c4c:	4711c83a 	sub	r8,r8,fp
   27c50:	d9801904 	addi	r6,sp,100
   27c54:	21400044 	addi	r5,r4,1
   27c58:	9021883a 	mov	r16,r18
   27c5c:	023db50e 	bge	zero,r8,27334 <___vfiprintf_internal_r+0x3d4>
   27c60:	40c00450 	cmplti	r3,r8,17
   27c64:	01c000f4 	movhi	r7,3
   27c68:	1801441e 	bne	r3,zero,2817c <___vfiprintf_internal_r+0x121c>
   27c6c:	39c14c04 	addi	r7,r7,1328
   27c70:	03400404 	movi	r13,16
   27c74:	00000606 	br	27c90 <___vfiprintf_internal_r+0xd30>
   27c78:	21400084 	addi	r5,r4,2
   27c7c:	84000204 	addi	r16,r16,8
   27c80:	1809883a 	mov	r4,r3
   27c84:	423ffc04 	addi	r8,r8,-16
   27c88:	40c00448 	cmpgei	r3,r8,17
   27c8c:	18001a26 	beq	r3,zero,27cf8 <___vfiprintf_internal_r+0xd98>
   27c90:	20c00044 	addi	r3,r4,1
   27c94:	10800404 	addi	r2,r2,16
   27c98:	81c00015 	stw	r7,0(r16)
   27c9c:	83400115 	stw	r13,4(r16)
   27ca0:	d8800c15 	stw	r2,48(sp)
   27ca4:	d8c00b15 	stw	r3,44(sp)
   27ca8:	19400208 	cmpgei	r5,r3,8
   27cac:	283ff226 	beq	r5,zero,27c78 <___vfiprintf_internal_r+0xd18>
   27cb0:	d9800a04 	addi	r6,sp,40
   27cb4:	a80b883a 	mov	r5,r21
   27cb8:	b009883a 	mov	r4,r22
   27cbc:	10001a26 	beq	r2,zero,27d28 <___vfiprintf_internal_r+0xdc8>
   27cc0:	d9c00315 	stw	r7,12(sp)
   27cc4:	da000215 	stw	r8,8(sp)
   27cc8:	0026e540 	call	26e54 <__sprint_r.part.0>
   27ccc:	103db91e 	bne	r2,zero,273b4 <___vfiprintf_internal_r+0x454>
   27cd0:	da000217 	ldw	r8,8(sp)
   27cd4:	d9000b17 	ldw	r4,44(sp)
   27cd8:	d8800c17 	ldw	r2,48(sp)
   27cdc:	423ffc04 	addi	r8,r8,-16
   27ce0:	40c00448 	cmpgei	r3,r8,17
   27ce4:	d9c00317 	ldw	r7,12(sp)
   27ce8:	9021883a 	mov	r16,r18
   27cec:	21400044 	addi	r5,r4,1
   27cf0:	03400404 	movi	r13,16
   27cf4:	183fe61e 	bne	r3,zero,27c90 <___vfiprintf_internal_r+0xd30>
   27cf8:	81000204 	addi	r4,r16,8
   27cfc:	1205883a 	add	r2,r2,r8
   27d00:	81c00015 	stw	r7,0(r16)
   27d04:	82000115 	stw	r8,4(r16)
   27d08:	d8800c15 	stw	r2,48(sp)
   27d0c:	d9400b15 	stw	r5,44(sp)
   27d10:	28c00208 	cmpgei	r3,r5,8
   27d14:	1800721e 	bne	r3,zero,27ee0 <___vfiprintf_internal_r+0xf80>
   27d18:	29400044 	addi	r5,r5,1
   27d1c:	21800204 	addi	r6,r4,8
   27d20:	2021883a 	mov	r16,r4
   27d24:	003d8306 	br	27334 <___vfiprintf_internal_r+0x3d4>
   27d28:	01400044 	movi	r5,1
   27d2c:	0009883a 	mov	r4,zero
   27d30:	9021883a 	mov	r16,r18
   27d34:	003fd306 	br	27c84 <___vfiprintf_internal_r+0xd24>
   27d38:	d9800a04 	addi	r6,sp,40
   27d3c:	a80b883a 	mov	r5,r21
   27d40:	b009883a 	mov	r4,r22
   27d44:	0026e540 	call	26e54 <__sprint_r.part.0>
   27d48:	103d9426 	beq	r2,zero,2739c <___vfiprintf_internal_r+0x43c>
   27d4c:	003d9906 	br	273b4 <___vfiprintf_internal_r+0x454>
   27d50:	03800044 	movi	r14,1
   27d54:	0009883a 	mov	r4,zero
   27d58:	9021883a 	mov	r16,r18
   27d5c:	003f8a06 	br	27b88 <___vfiprintf_internal_r+0xc28>
   27d60:	10006e26 	beq	r2,zero,27f1c <___vfiprintf_internal_r+0xfbc>
   27d64:	d9800a04 	addi	r6,sp,40
   27d68:	a80b883a 	mov	r5,r21
   27d6c:	b009883a 	mov	r4,r22
   27d70:	da000615 	stw	r8,24(sp)
   27d74:	db400315 	stw	r13,12(sp)
   27d78:	db800215 	stw	r14,8(sp)
   27d7c:	0026e540 	call	26e54 <__sprint_r.part.0>
   27d80:	103d8c1e 	bne	r2,zero,273b4 <___vfiprintf_internal_r+0x454>
   27d84:	d9000b17 	ldw	r4,44(sp)
   27d88:	d8800c17 	ldw	r2,48(sp)
   27d8c:	da000617 	ldw	r8,24(sp)
   27d90:	db400317 	ldw	r13,12(sp)
   27d94:	db800217 	ldw	r14,8(sp)
   27d98:	d9801904 	addi	r6,sp,100
   27d9c:	21400044 	addi	r5,r4,1
   27da0:	9021883a 	mov	r16,r18
   27da4:	003d4606 	br	272c0 <___vfiprintf_internal_r+0x360>
   27da8:	d8800984 	addi	r2,sp,38
   27dac:	d8801715 	stw	r2,92(sp)
   27db0:	00800084 	movi	r2,2
   27db4:	d8801815 	stw	r2,96(sp)
   27db8:	d9801904 	addi	r6,sp,100
   27dbc:	01400044 	movi	r5,1
   27dc0:	3021883a 	mov	r16,r6
   27dc4:	2809883a 	mov	r4,r5
   27dc8:	21400044 	addi	r5,r4,1
   27dcc:	81800204 	addi	r6,r16,8
   27dd0:	003d5406 	br	27324 <___vfiprintf_internal_r+0x3c4>
   27dd4:	db400017 	ldw	r13,0(sp)
   27dd8:	003ea006 	br	2785c <___vfiprintf_internal_r+0x8fc>
   27ddc:	19400450 	cmplti	r5,r3,17
   27de0:	01c000f4 	movhi	r7,3
   27de4:	2801011e 	bne	r5,zero,281ec <___vfiprintf_internal_r+0x128c>
   27de8:	39c15004 	addi	r7,r7,1344
   27dec:	03c00404 	movi	r15,16
   27df0:	00000706 	br	27e10 <___vfiprintf_internal_r+0xeb0>
   27df4:	27c00084 	addi	ra,r4,2
   27df8:	84000204 	addi	r16,r16,8
   27dfc:	3009883a 	mov	r4,r6
   27e00:	18fffc04 	addi	r3,r3,-16
   27e04:	19400448 	cmpgei	r5,r3,17
   27e08:	28002026 	beq	r5,zero,27e8c <___vfiprintf_internal_r+0xf2c>
   27e0c:	21800044 	addi	r6,r4,1
   27e10:	10800404 	addi	r2,r2,16
   27e14:	81c00015 	stw	r7,0(r16)
   27e18:	83c00115 	stw	r15,4(r16)
   27e1c:	d8800c15 	stw	r2,48(sp)
   27e20:	d9800b15 	stw	r6,44(sp)
   27e24:	31400208 	cmpgei	r5,r6,8
   27e28:	283ff226 	beq	r5,zero,27df4 <___vfiprintf_internal_r+0xe94>
   27e2c:	d9800a04 	addi	r6,sp,40
   27e30:	a80b883a 	mov	r5,r21
   27e34:	b009883a 	mov	r4,r22
   27e38:	10001f26 	beq	r2,zero,27eb8 <___vfiprintf_internal_r+0xf58>
   27e3c:	d9c00815 	stw	r7,32(sp)
   27e40:	d8c00715 	stw	r3,28(sp)
   27e44:	da000615 	stw	r8,24(sp)
   27e48:	db400315 	stw	r13,12(sp)
   27e4c:	db800215 	stw	r14,8(sp)
   27e50:	0026e540 	call	26e54 <__sprint_r.part.0>
   27e54:	103d571e 	bne	r2,zero,273b4 <___vfiprintf_internal_r+0x454>
   27e58:	d8c00717 	ldw	r3,28(sp)
   27e5c:	d9000b17 	ldw	r4,44(sp)
   27e60:	d8800c17 	ldw	r2,48(sp)
   27e64:	18fffc04 	addi	r3,r3,-16
   27e68:	19400448 	cmpgei	r5,r3,17
   27e6c:	d9c00817 	ldw	r7,32(sp)
   27e70:	da000617 	ldw	r8,24(sp)
   27e74:	db400317 	ldw	r13,12(sp)
   27e78:	db800217 	ldw	r14,8(sp)
   27e7c:	9021883a 	mov	r16,r18
   27e80:	27c00044 	addi	ra,r4,1
   27e84:	03c00404 	movi	r15,16
   27e88:	283fe01e 	bne	r5,zero,27e0c <___vfiprintf_internal_r+0xeac>
   27e8c:	10c5883a 	add	r2,r2,r3
   27e90:	80c00115 	stw	r3,4(r16)
   27e94:	81c00015 	stw	r7,0(r16)
   27e98:	d8800c15 	stw	r2,48(sp)
   27e9c:	dfc00b15 	stw	ra,44(sp)
   27ea0:	f8c00208 	cmpgei	r3,ra,8
   27ea4:	18002b1e 	bne	r3,zero,27f54 <___vfiprintf_internal_r+0xff4>
   27ea8:	84000204 	addi	r16,r16,8
   27eac:	f9400044 	addi	r5,ra,1
   27eb0:	f809883a 	mov	r4,ra
   27eb4:	003cf206 	br	27280 <___vfiprintf_internal_r+0x320>
   27eb8:	0009883a 	mov	r4,zero
   27ebc:	07c00044 	movi	ra,1
   27ec0:	9021883a 	mov	r16,r18
   27ec4:	003fce06 	br	27e00 <___vfiprintf_internal_r+0xea0>
   27ec8:	8dc0010e 	bge	r17,r23,27ed0 <___vfiprintf_internal_r+0xf70>
   27ecc:	b823883a 	mov	r17,r23
   27ed0:	d8800117 	ldw	r2,4(sp)
   27ed4:	1445883a 	add	r2,r2,r17
   27ed8:	d8800115 	stw	r2,4(sp)
   27edc:	003d2f06 	br	2739c <___vfiprintf_internal_r+0x43c>
   27ee0:	10007326 	beq	r2,zero,280b0 <___vfiprintf_internal_r+0x1150>
   27ee4:	d9800a04 	addi	r6,sp,40
   27ee8:	a80b883a 	mov	r5,r21
   27eec:	b009883a 	mov	r4,r22
   27ef0:	0026e540 	call	26e54 <__sprint_r.part.0>
   27ef4:	103d2f1e 	bne	r2,zero,273b4 <___vfiprintf_internal_r+0x454>
   27ef8:	d9400b17 	ldw	r5,44(sp)
   27efc:	d8800c17 	ldw	r2,48(sp)
   27f00:	d9801904 	addi	r6,sp,100
   27f04:	29400044 	addi	r5,r5,1
   27f08:	9021883a 	mov	r16,r18
   27f0c:	003d0906 	br	27334 <___vfiprintf_internal_r+0x3d4>
   27f10:	d8000b15 	stw	zero,44(sp)
   27f14:	9021883a 	mov	r16,r18
   27f18:	003d7806 	br	274fc <___vfiprintf_internal_r+0x59c>
   27f1c:	7000441e 	bne	r14,zero,28030 <___vfiprintf_internal_r+0x10d0>
   27f20:	0009883a 	mov	r4,zero
   27f24:	d9801904 	addi	r6,sp,100
   27f28:	01400044 	movi	r5,1
   27f2c:	9021883a 	mov	r16,r18
   27f30:	003cfc06 	br	27324 <___vfiprintf_internal_r+0x3c4>
   27f34:	d9801904 	addi	r6,sp,100
   27f38:	01400044 	movi	r5,1
   27f3c:	0009883a 	mov	r4,zero
   27f40:	9021883a 	mov	r16,r18
   27f44:	003cf706 	br	27324 <___vfiprintf_internal_r+0x3c4>
   27f48:	0039883a 	mov	fp,zero
   27f4c:	9027883a 	mov	r19,r18
   27f50:	003deb06 	br	27700 <___vfiprintf_internal_r+0x7a0>
   27f54:	10004a26 	beq	r2,zero,28080 <___vfiprintf_internal_r+0x1120>
   27f58:	d9800a04 	addi	r6,sp,40
   27f5c:	a80b883a 	mov	r5,r21
   27f60:	b009883a 	mov	r4,r22
   27f64:	da000615 	stw	r8,24(sp)
   27f68:	db400315 	stw	r13,12(sp)
   27f6c:	db800215 	stw	r14,8(sp)
   27f70:	0026e540 	call	26e54 <__sprint_r.part.0>
   27f74:	103d0f1e 	bne	r2,zero,273b4 <___vfiprintf_internal_r+0x454>
   27f78:	d9000b17 	ldw	r4,44(sp)
   27f7c:	d8800c17 	ldw	r2,48(sp)
   27f80:	da000617 	ldw	r8,24(sp)
   27f84:	db400317 	ldw	r13,12(sp)
   27f88:	db800217 	ldw	r14,8(sp)
   27f8c:	9021883a 	mov	r16,r18
   27f90:	21400044 	addi	r5,r4,1
   27f94:	003cba06 	br	27280 <___vfiprintf_internal_r+0x320>
   27f98:	9027883a 	mov	r19,r18
   27f9c:	003dd806 	br	27700 <___vfiprintf_internal_r+0x7a0>
   27fa0:	71400044 	addi	r5,r14,1
   27fa4:	69800204 	addi	r6,r13,8
   27fa8:	7009883a 	mov	r4,r14
   27fac:	6821883a 	mov	r16,r13
   27fb0:	003cde06 	br	2732c <___vfiprintf_internal_r+0x3cc>
   27fb4:	00c00c04 	movi	r3,48
   27fb8:	d88009c5 	stb	r2,39(sp)
   27fbc:	d8c00985 	stb	r3,38(sp)
   27fc0:	6b400094 	ori	r13,r13,2
   27fc4:	00800084 	movi	r2,2
   27fc8:	003d2e06 	br	27484 <___vfiprintf_internal_r+0x524>
   27fcc:	25c00017 	ldw	r23,0(r4)
   27fd0:	0039883a 	mov	fp,zero
   27fd4:	d8c00415 	stw	r3,16(sp)
   27fd8:	0005883a 	mov	r2,zero
   27fdc:	003d2906 	br	27484 <___vfiprintf_internal_r+0x524>
   27fe0:	d9400117 	ldw	r5,4(sp)
   27fe4:	d9000415 	stw	r4,16(sp)
   27fe8:	2805d7fa 	srai	r2,r5,31
   27fec:	19400015 	stw	r5,0(r3)
   27ff0:	18800115 	stw	r2,4(r3)
   27ff4:	003c0306 	br	27004 <___vfiprintf_internal_r+0xa4>
   27ff8:	25c00017 	ldw	r23,0(r4)
   27ffc:	d8c00415 	stw	r3,16(sp)
   28000:	b839d7fa 	srai	fp,r23,31
   28004:	e005883a 	mov	r2,fp
   28008:	003da706 	br	276a8 <___vfiprintf_internal_r+0x748>
   2800c:	2dc00017 	ldw	r23,0(r5)
   28010:	0039883a 	mov	fp,zero
   28014:	d9000415 	stw	r4,16(sp)
   28018:	003def06 	br	277d8 <___vfiprintf_internal_r+0x878>
   2801c:	25c00017 	ldw	r23,0(r4)
   28020:	0039883a 	mov	fp,zero
   28024:	d8c00415 	stw	r3,16(sp)
   28028:	00800044 	movi	r2,1
   2802c:	003d1506 	br	27484 <___vfiprintf_internal_r+0x524>
   28030:	d8800984 	addi	r2,sp,38
   28034:	d8801715 	stw	r2,92(sp)
   28038:	00800084 	movi	r2,2
   2803c:	d8801815 	stw	r2,96(sp)
   28040:	dc001904 	addi	r16,sp,100
   28044:	01000044 	movi	r4,1
   28048:	003f5f06 	br	27dc8 <___vfiprintf_internal_r+0xe68>
   2804c:	0463c83a 	sub	r17,zero,r17
   28050:	d8c00415 	stw	r3,16(sp)
   28054:	003e3606 	br	27930 <___vfiprintf_internal_r+0x9d0>
   28058:	9809883a 	mov	r4,r19
   2805c:	d8c00215 	stw	r3,8(sp)
   28060:	db400015 	stw	r13,0(sp)
   28064:	00266ec0 	call	266ec <strlen>
   28068:	d8c00217 	ldw	r3,8(sp)
   2806c:	db400017 	ldw	r13,0(sp)
   28070:	1039883a 	mov	fp,r2
   28074:	102f883a 	mov	r23,r2
   28078:	d8c00415 	stw	r3,16(sp)
   2807c:	003c7106 	br	27244 <___vfiprintf_internal_r+0x2e4>
   28080:	d8c00947 	ldb	r3,37(sp)
   28084:	1800451e 	bne	r3,zero,2819c <___vfiprintf_internal_r+0x123c>
   28088:	703f471e 	bne	r14,zero,27da8 <___vfiprintf_internal_r+0xe48>
   2808c:	0009883a 	mov	r4,zero
   28090:	d9801904 	addi	r6,sp,100
   28094:	01400044 	movi	r5,1
   28098:	9021883a 	mov	r16,r18
   2809c:	003ca306 	br	2732c <___vfiprintf_internal_r+0x3cc>
   280a0:	d8800117 	ldw	r2,4(sp)
   280a4:	18800015 	stw	r2,0(r3)
   280a8:	d9000415 	stw	r4,16(sp)
   280ac:	003bd506 	br	27004 <___vfiprintf_internal_r+0xa4>
   280b0:	00c00044 	movi	r3,1
   280b4:	e005883a 	mov	r2,fp
   280b8:	dcc01715 	stw	r19,92(sp)
   280bc:	df001815 	stw	fp,96(sp)
   280c0:	df000c15 	stw	fp,48(sp)
   280c4:	d8c00b15 	stw	r3,44(sp)
   280c8:	d9801904 	addi	r6,sp,100
   280cc:	003ca806 	br	27370 <___vfiprintf_internal_r+0x410>
   280d0:	10c00060 	cmpeqi	r3,r2,1
   280d4:	db400017 	ldw	r13,0(sp)
   280d8:	183de226 	beq	r3,zero,27864 <___vfiprintf_internal_r+0x904>
   280dc:	003d8306 	br	276ec <___vfiprintf_internal_r+0x78c>
   280e0:	a0800043 	ldbu	r2,1(r20)
   280e4:	6b400814 	ori	r13,r13,32
   280e8:	a5000044 	addi	r20,r20,1
   280ec:	10803fcc 	andi	r2,r2,255
   280f0:	1080201c 	xori	r2,r2,128
   280f4:	10bfe004 	addi	r2,r2,-128
   280f8:	003bda06 	br	27064 <___vfiprintf_internal_r+0x104>
   280fc:	408001f0 	cmpltui	r2,r8,7
   28100:	4039883a 	mov	fp,r8
   28104:	1000011e 	bne	r2,zero,2810c <___vfiprintf_internal_r+0x11ac>
   28108:	07000184 	movi	fp,6
   2810c:	04c000f4 	movhi	r19,3
   28110:	e02f883a 	mov	r23,fp
   28114:	d8c00415 	stw	r3,16(sp)
   28118:	9cc14a04 	addi	r19,r19,1320
   2811c:	003c4906 	br	27244 <___vfiprintf_internal_r+0x2e4>
   28120:	d8800417 	ldw	r2,16(sp)
   28124:	0039883a 	mov	fp,zero
   28128:	d8c00415 	stw	r3,16(sp)
   2812c:	15c00017 	ldw	r23,0(r2)
   28130:	0005883a 	mov	r2,zero
   28134:	003cd306 	br	27484 <___vfiprintf_internal_r+0x524>
   28138:	d8800417 	ldw	r2,16(sp)
   2813c:	0039883a 	mov	fp,zero
   28140:	d8c00415 	stw	r3,16(sp)
   28144:	15c00017 	ldw	r23,0(r2)
   28148:	00800044 	movi	r2,1
   2814c:	003ccd06 	br	27484 <___vfiprintf_internal_r+0x524>
   28150:	d8c00417 	ldw	r3,16(sp)
   28154:	0039883a 	mov	fp,zero
   28158:	d9000415 	stw	r4,16(sp)
   2815c:	1dc00017 	ldw	r23,0(r3)
   28160:	003d9d06 	br	277d8 <___vfiprintf_internal_r+0x878>
   28164:	d8800417 	ldw	r2,16(sp)
   28168:	d8c00415 	stw	r3,16(sp)
   2816c:	15c00017 	ldw	r23,0(r2)
   28170:	b839d7fa 	srai	fp,r23,31
   28174:	e005883a 	mov	r2,fp
   28178:	003d4b06 	br	276a8 <___vfiprintf_internal_r+0x748>
   2817c:	3009883a 	mov	r4,r6
   28180:	39c14c04 	addi	r7,r7,1328
   28184:	003edd06 	br	27cfc <___vfiprintf_internal_r+0xd9c>
   28188:	d9801904 	addi	r6,sp,100
   2818c:	01400044 	movi	r5,1
   28190:	0009883a 	mov	r4,zero
   28194:	9021883a 	mov	r16,r18
   28198:	003c6406 	br	2732c <___vfiprintf_internal_r+0x3cc>
   2819c:	d8800944 	addi	r2,sp,37
   281a0:	d8801715 	stw	r2,92(sp)
   281a4:	00800044 	movi	r2,1
   281a8:	d8801815 	stw	r2,96(sp)
   281ac:	d9801904 	addi	r6,sp,100
   281b0:	01400044 	movi	r5,1
   281b4:	003c3e06 	br	272b0 <___vfiprintf_internal_r+0x350>
   281b8:	d9800945 	stb	r6,37(sp)
   281bc:	003c1b06 	br	2722c <___vfiprintf_internal_r+0x2cc>
   281c0:	d9800a04 	addi	r6,sp,40
   281c4:	a80b883a 	mov	r5,r21
   281c8:	b009883a 	mov	r4,r22
   281cc:	0026e540 	call	26e54 <__sprint_r.part.0>
   281d0:	003c7806 	br	273b4 <___vfiprintf_internal_r+0x454>
   281d4:	402f883a 	mov	r23,r8
   281d8:	d8c00415 	stw	r3,16(sp)
   281dc:	4039883a 	mov	fp,r8
   281e0:	003c1806 	br	27244 <___vfiprintf_internal_r+0x2e4>
   281e4:	d9800945 	stb	r6,37(sp)
   281e8:	003df406 	br	279bc <___vfiprintf_internal_r+0xa5c>
   281ec:	303f883a 	mov	ra,r6
   281f0:	39c15004 	addi	r7,r7,1344
   281f4:	003f2506 	br	27e8c <___vfiprintf_internal_r+0xf2c>
   281f8:	d9800945 	stb	r6,37(sp)
   281fc:	003d7e06 	br	277f8 <___vfiprintf_internal_r+0x898>
   28200:	d9800945 	stb	r6,37(sp)
   28204:	003d4c06 	br	27738 <___vfiprintf_internal_r+0x7d8>
   28208:	d9800945 	stb	r6,37(sp)
   2820c:	003d1e06 	br	27688 <___vfiprintf_internal_r+0x728>
   28210:	d9800945 	stb	r6,37(sp)
   28214:	003d6606 	br	277b0 <___vfiprintf_internal_r+0x850>
   28218:	21400044 	addi	r5,r4,1
   2821c:	39c15004 	addi	r7,r7,1344
   28220:	003d0606 	br	2763c <___vfiprintf_internal_r+0x6dc>
   28224:	01c000f4 	movhi	r7,3
   28228:	301b883a 	mov	r13,r6
   2822c:	281d883a 	mov	r14,r5
   28230:	39c14c04 	addi	r7,r7,1328
   28234:	003e7406 	br	27c08 <___vfiprintf_internal_r+0xca8>
   28238:	00bfffc4 	movi	r2,-1
   2823c:	d8800115 	stw	r2,4(sp)
   28240:	003c5f06 	br	273c0 <___vfiprintf_internal_r+0x460>
   28244:	d8800417 	ldw	r2,16(sp)
   28248:	12000017 	ldw	r8,0(r2)
   2824c:	11000104 	addi	r4,r2,4
   28250:	4000010e 	bge	r8,zero,28258 <___vfiprintf_internal_r+0x12f8>
   28254:	023fffc4 	movi	r8,-1
   28258:	a0800043 	ldbu	r2,1(r20)
   2825c:	d9000415 	stw	r4,16(sp)
   28260:	1829883a 	mov	r20,r3
   28264:	10803fcc 	andi	r2,r2,255
   28268:	1080201c 	xori	r2,r2,128
   2826c:	10bfe004 	addi	r2,r2,-128
   28270:	003b7c06 	br	27064 <___vfiprintf_internal_r+0x104>

00028274 <__vfiprintf_internal>:
   28274:	00c000f4 	movhi	r3,3
   28278:	2005883a 	mov	r2,r4
   2827c:	1908a617 	ldw	r4,8856(r3)
   28280:	300f883a 	mov	r7,r6
   28284:	280d883a 	mov	r6,r5
   28288:	100b883a 	mov	r5,r2
   2828c:	0026f601 	jmpi	26f60 <___vfiprintf_internal_r>

00028290 <__sbprintf>:
   28290:	2880030b 	ldhu	r2,12(r5)
   28294:	2b001917 	ldw	r12,100(r5)
   28298:	2ac0038b 	ldhu	r11,14(r5)
   2829c:	2a800717 	ldw	r10,28(r5)
   282a0:	2a400917 	ldw	r9,36(r5)
   282a4:	defee204 	addi	sp,sp,-1144
   282a8:	da001a04 	addi	r8,sp,104
   282ac:	00c10004 	movi	r3,1024
   282b0:	dc011a15 	stw	r16,1128(sp)
   282b4:	10bfff4c 	andi	r2,r2,65533
   282b8:	2821883a 	mov	r16,r5
   282bc:	d80b883a 	mov	r5,sp
   282c0:	dc811c15 	stw	r18,1136(sp)
   282c4:	dc411b15 	stw	r17,1132(sp)
   282c8:	dfc11d15 	stw	ra,1140(sp)
   282cc:	2025883a 	mov	r18,r4
   282d0:	d880030d 	sth	r2,12(sp)
   282d4:	db001915 	stw	r12,100(sp)
   282d8:	dac0038d 	sth	r11,14(sp)
   282dc:	da800715 	stw	r10,28(sp)
   282e0:	da400915 	stw	r9,36(sp)
   282e4:	da000015 	stw	r8,0(sp)
   282e8:	da000415 	stw	r8,16(sp)
   282ec:	d8c00215 	stw	r3,8(sp)
   282f0:	d8c00515 	stw	r3,20(sp)
   282f4:	d8000615 	stw	zero,24(sp)
   282f8:	0026f600 	call	26f60 <___vfiprintf_internal_r>
   282fc:	1023883a 	mov	r17,r2
   28300:	10000d0e 	bge	r2,zero,28338 <__sbprintf+0xa8>
   28304:	d880030b 	ldhu	r2,12(sp)
   28308:	1080100c 	andi	r2,r2,64
   2830c:	10000326 	beq	r2,zero,2831c <__sbprintf+0x8c>
   28310:	8080030b 	ldhu	r2,12(r16)
   28314:	10801014 	ori	r2,r2,64
   28318:	8080030d 	sth	r2,12(r16)
   2831c:	8805883a 	mov	r2,r17
   28320:	dfc11d17 	ldw	ra,1140(sp)
   28324:	dc811c17 	ldw	r18,1136(sp)
   28328:	dc411b17 	ldw	r17,1132(sp)
   2832c:	dc011a17 	ldw	r16,1128(sp)
   28330:	dec11e04 	addi	sp,sp,1144
   28334:	f800283a 	ret
   28338:	d80b883a 	mov	r5,sp
   2833c:	9009883a 	mov	r4,r18
   28340:	0023b380 	call	23b38 <_fflush_r>
   28344:	103fef26 	beq	r2,zero,28304 <__sbprintf+0x74>
   28348:	047fffc4 	movi	r17,-1
   2834c:	003fed06 	br	28304 <__sbprintf+0x74>

00028350 <__swsetup_r>:
   28350:	008000f4 	movhi	r2,3
   28354:	1088a617 	ldw	r2,8856(r2)
   28358:	defffd04 	addi	sp,sp,-12
   2835c:	dc400115 	stw	r17,4(sp)
   28360:	dc000015 	stw	r16,0(sp)
   28364:	dfc00215 	stw	ra,8(sp)
   28368:	2023883a 	mov	r17,r4
   2836c:	2821883a 	mov	r16,r5
   28370:	10000226 	beq	r2,zero,2837c <__swsetup_r+0x2c>
   28374:	10c00e17 	ldw	r3,56(r2)
   28378:	18003326 	beq	r3,zero,28448 <__swsetup_r+0xf8>
   2837c:	8180030b 	ldhu	r6,12(r16)
   28380:	30c0020c 	andi	r3,r6,8
   28384:	3005883a 	mov	r2,r6
   28388:	18000f26 	beq	r3,zero,283c8 <__swsetup_r+0x78>
   2838c:	80c00417 	ldw	r3,16(r16)
   28390:	18001626 	beq	r3,zero,283ec <__swsetup_r+0x9c>
   28394:	1100004c 	andi	r4,r2,1
   28398:	20001f1e 	bne	r4,zero,28418 <__swsetup_r+0xc8>
   2839c:	1100008c 	andi	r4,r2,2
   283a0:	20002c1e 	bne	r4,zero,28454 <__swsetup_r+0x104>
   283a4:	81000517 	ldw	r4,20(r16)
   283a8:	81000215 	stw	r4,8(r16)
   283ac:	18001f26 	beq	r3,zero,2842c <__swsetup_r+0xdc>
   283b0:	0005883a 	mov	r2,zero
   283b4:	dfc00217 	ldw	ra,8(sp)
   283b8:	dc400117 	ldw	r17,4(sp)
   283bc:	dc000017 	ldw	r16,0(sp)
   283c0:	dec00304 	addi	sp,sp,12
   283c4:	f800283a 	ret
   283c8:	3080040c 	andi	r2,r6,16
   283cc:	10003126 	beq	r2,zero,28494 <__swsetup_r+0x144>
   283d0:	3080010c 	andi	r2,r6,4
   283d4:	1000211e 	bne	r2,zero,2845c <__swsetup_r+0x10c>
   283d8:	80c00417 	ldw	r3,16(r16)
   283dc:	30800214 	ori	r2,r6,8
   283e0:	8080030d 	sth	r2,12(r16)
   283e4:	100d883a 	mov	r6,r2
   283e8:	183fea1e 	bne	r3,zero,28394 <__swsetup_r+0x44>
   283ec:	1100a00c 	andi	r4,r2,640
   283f0:	21008020 	cmpeqi	r4,r4,512
   283f4:	203fe71e 	bne	r4,zero,28394 <__swsetup_r+0x44>
   283f8:	8809883a 	mov	r4,r17
   283fc:	800b883a 	mov	r5,r16
   28400:	00211f80 	call	211f8 <__smakebuf_r>
   28404:	8180030b 	ldhu	r6,12(r16)
   28408:	80c00417 	ldw	r3,16(r16)
   2840c:	3005883a 	mov	r2,r6
   28410:	1100004c 	andi	r4,r2,1
   28414:	203fe126 	beq	r4,zero,2839c <__swsetup_r+0x4c>
   28418:	81000517 	ldw	r4,20(r16)
   2841c:	80000215 	stw	zero,8(r16)
   28420:	0109c83a 	sub	r4,zero,r4
   28424:	81000615 	stw	r4,24(r16)
   28428:	183fe11e 	bne	r3,zero,283b0 <__swsetup_r+0x60>
   2842c:	10c0200c 	andi	r3,r2,128
   28430:	0005883a 	mov	r2,zero
   28434:	183fdf26 	beq	r3,zero,283b4 <__swsetup_r+0x64>
   28438:	31801014 	ori	r6,r6,64
   2843c:	8180030d 	sth	r6,12(r16)
   28440:	00bfffc4 	movi	r2,-1
   28444:	003fdb06 	br	283b4 <__swsetup_r+0x64>
   28448:	1009883a 	mov	r4,r2
   2844c:	0023ecc0 	call	23ecc <__sinit>
   28450:	003fca06 	br	2837c <__swsetup_r+0x2c>
   28454:	0009883a 	mov	r4,zero
   28458:	003fd306 	br	283a8 <__swsetup_r+0x58>
   2845c:	81400c17 	ldw	r5,48(r16)
   28460:	28000626 	beq	r5,zero,2847c <__swsetup_r+0x12c>
   28464:	80801004 	addi	r2,r16,64
   28468:	28800326 	beq	r5,r2,28478 <__swsetup_r+0x128>
   2846c:	8809883a 	mov	r4,r17
   28470:	00240e80 	call	240e8 <_free_r>
   28474:	8180030b 	ldhu	r6,12(r16)
   28478:	80000c15 	stw	zero,48(r16)
   2847c:	80c00417 	ldw	r3,16(r16)
   28480:	00bff6c4 	movi	r2,-37
   28484:	118c703a 	and	r6,r2,r6
   28488:	80000115 	stw	zero,4(r16)
   2848c:	80c00015 	stw	r3,0(r16)
   28490:	003fd206 	br	283dc <__swsetup_r+0x8c>
   28494:	00800244 	movi	r2,9
   28498:	88800015 	stw	r2,0(r17)
   2849c:	31801014 	ori	r6,r6,64
   284a0:	8180030d 	sth	r6,12(r16)
   284a4:	00bfffc4 	movi	r2,-1
   284a8:	003fc206 	br	283b4 <__swsetup_r+0x64>

000284ac <__fputwc>:
   284ac:	defff904 	addi	sp,sp,-28
   284b0:	dcc00415 	stw	r19,16(sp)
   284b4:	dc800315 	stw	r18,12(sp)
   284b8:	dc000115 	stw	r16,4(sp)
   284bc:	dfc00615 	stw	ra,24(sp)
   284c0:	dd000515 	stw	r20,20(sp)
   284c4:	dc400215 	stw	r17,8(sp)
   284c8:	2025883a 	mov	r18,r4
   284cc:	2827883a 	mov	r19,r5
   284d0:	3021883a 	mov	r16,r6
   284d4:	00251d00 	call	251d0 <__locale_mb_cur_max>
   284d8:	10800058 	cmpnei	r2,r2,1
   284dc:	1000071e 	bne	r2,zero,284fc <__fputwc+0x50>
   284e0:	98bfffc4 	addi	r2,r19,-1
   284e4:	10803fe8 	cmpgeui	r2,r2,255
   284e8:	1000041e 	bne	r2,zero,284fc <__fputwc+0x50>
   284ec:	980b883a 	mov	r5,r19
   284f0:	dcc000c5 	stb	r19,3(sp)
   284f4:	05000044 	movi	r20,1
   284f8:	00000a06 	br	28524 <__fputwc+0x78>
   284fc:	81c01704 	addi	r7,r16,92
   28500:	980d883a 	mov	r6,r19
   28504:	d94000c4 	addi	r5,sp,3
   28508:	9009883a 	mov	r4,r18
   2850c:	002943c0 	call	2943c <_wcrtomb_r>
   28510:	1029883a 	mov	r20,r2
   28514:	10bfffd8 	cmpnei	r2,r2,-1
   28518:	10003926 	beq	r2,zero,28600 <__fputwc+0x154>
   2851c:	a0001f26 	beq	r20,zero,2859c <__fputwc+0xf0>
   28520:	d94000c3 	ldbu	r5,3(sp)
   28524:	0023883a 	mov	r17,zero
   28528:	00000a06 	br	28554 <__fputwc+0xa8>
   2852c:	80800017 	ldw	r2,0(r16)
   28530:	11400005 	stb	r5,0(r2)
   28534:	80c00017 	ldw	r3,0(r16)
   28538:	18c00044 	addi	r3,r3,1
   2853c:	80c00015 	stw	r3,0(r16)
   28540:	8c400044 	addi	r17,r17,1
   28544:	d88000c4 	addi	r2,sp,3
   28548:	1447883a 	add	r3,r2,r17
   2854c:	8d00132e 	bgeu	r17,r20,2859c <__fputwc+0xf0>
   28550:	19400003 	ldbu	r5,0(r3)
   28554:	80c00217 	ldw	r3,8(r16)
   28558:	18ffffc4 	addi	r3,r3,-1
   2855c:	80c00215 	stw	r3,8(r16)
   28560:	183ff20e 	bge	r3,zero,2852c <__fputwc+0x80>
   28564:	80800617 	ldw	r2,24(r16)
   28568:	18801616 	blt	r3,r2,285c4 <__fputwc+0x118>
   2856c:	80800017 	ldw	r2,0(r16)
   28570:	11400005 	stb	r5,0(r2)
   28574:	80800017 	ldw	r2,0(r16)
   28578:	10c00003 	ldbu	r3,0(r2)
   2857c:	10800044 	addi	r2,r2,1
   28580:	18c002a0 	cmpeqi	r3,r3,10
   28584:	1800181e 	bne	r3,zero,285e8 <__fputwc+0x13c>
   28588:	80800015 	stw	r2,0(r16)
   2858c:	8c400044 	addi	r17,r17,1
   28590:	d88000c4 	addi	r2,sp,3
   28594:	1447883a 	add	r3,r2,r17
   28598:	8d3fed36 	bltu	r17,r20,28550 <__fputwc+0xa4>
   2859c:	9829883a 	mov	r20,r19
   285a0:	a005883a 	mov	r2,r20
   285a4:	dfc00617 	ldw	ra,24(sp)
   285a8:	dd000517 	ldw	r20,20(sp)
   285ac:	dcc00417 	ldw	r19,16(sp)
   285b0:	dc800317 	ldw	r18,12(sp)
   285b4:	dc400217 	ldw	r17,8(sp)
   285b8:	dc000117 	ldw	r16,4(sp)
   285bc:	dec00704 	addi	sp,sp,28
   285c0:	f800283a 	ret
   285c4:	29403fcc 	andi	r5,r5,255
   285c8:	800d883a 	mov	r6,r16
   285cc:	9009883a 	mov	r4,r18
   285d0:	00292dc0 	call	292dc <__swbuf_r>
   285d4:	10ffffe0 	cmpeqi	r3,r2,-1
   285d8:	18c03fcc 	andi	r3,r3,255
   285dc:	183fd826 	beq	r3,zero,28540 <__fputwc+0x94>
   285e0:	053fffc4 	movi	r20,-1
   285e4:	003fee06 	br	285a0 <__fputwc+0xf4>
   285e8:	800d883a 	mov	r6,r16
   285ec:	01400284 	movi	r5,10
   285f0:	9009883a 	mov	r4,r18
   285f4:	00292dc0 	call	292dc <__swbuf_r>
   285f8:	10ffffe0 	cmpeqi	r3,r2,-1
   285fc:	003ff606 	br	285d8 <__fputwc+0x12c>
   28600:	8080030b 	ldhu	r2,12(r16)
   28604:	10801014 	ori	r2,r2,64
   28608:	8080030d 	sth	r2,12(r16)
   2860c:	003fe406 	br	285a0 <__fputwc+0xf4>

00028610 <_fputwc_r>:
   28610:	3080030b 	ldhu	r2,12(r6)
   28614:	10c8000c 	andi	r3,r2,8192
   28618:	1800051e 	bne	r3,zero,28630 <_fputwc_r+0x20>
   2861c:	30c01917 	ldw	r3,100(r6)
   28620:	10880014 	ori	r2,r2,8192
   28624:	3080030d 	sth	r2,12(r6)
   28628:	18880014 	ori	r2,r3,8192
   2862c:	30801915 	stw	r2,100(r6)
   28630:	00284ac1 	jmpi	284ac <__fputwc>

00028634 <fputwc>:
   28634:	defffc04 	addi	sp,sp,-16
   28638:	008000f4 	movhi	r2,3
   2863c:	dc000215 	stw	r16,8(sp)
   28640:	1408a617 	ldw	r16,8856(r2)
   28644:	dfc00315 	stw	ra,12(sp)
   28648:	280d883a 	mov	r6,r5
   2864c:	200b883a 	mov	r5,r4
   28650:	80000226 	beq	r16,zero,2865c <fputwc+0x28>
   28654:	80800e17 	ldw	r2,56(r16)
   28658:	10000d26 	beq	r2,zero,28690 <fputwc+0x5c>
   2865c:	3080030b 	ldhu	r2,12(r6)
   28660:	10c8000c 	andi	r3,r2,8192
   28664:	1800051e 	bne	r3,zero,2867c <fputwc+0x48>
   28668:	30c01917 	ldw	r3,100(r6)
   2866c:	10880014 	ori	r2,r2,8192
   28670:	3080030d 	sth	r2,12(r6)
   28674:	18880014 	ori	r2,r3,8192
   28678:	30801915 	stw	r2,100(r6)
   2867c:	8009883a 	mov	r4,r16
   28680:	dfc00317 	ldw	ra,12(sp)
   28684:	dc000217 	ldw	r16,8(sp)
   28688:	dec00404 	addi	sp,sp,16
   2868c:	00284ac1 	jmpi	284ac <__fputwc>
   28690:	d9000015 	stw	r4,0(sp)
   28694:	8009883a 	mov	r4,r16
   28698:	d9800115 	stw	r6,4(sp)
   2869c:	0023ecc0 	call	23ecc <__sinit>
   286a0:	d9800117 	ldw	r6,4(sp)
   286a4:	d9400017 	ldw	r5,0(sp)
   286a8:	003fec06 	br	2865c <fputwc+0x28>

000286ac <__sfvwrite_r>:
   286ac:	30800217 	ldw	r2,8(r6)
   286b0:	1000c826 	beq	r2,zero,289d4 <__sfvwrite_r+0x328>
   286b4:	29c0030b 	ldhu	r7,12(r5)
   286b8:	defff404 	addi	sp,sp,-48
   286bc:	dd800815 	stw	r22,32(sp)
   286c0:	dd400715 	stw	r21,28(sp)
   286c4:	dc000215 	stw	r16,8(sp)
   286c8:	dfc00b15 	stw	ra,44(sp)
   286cc:	df000a15 	stw	fp,40(sp)
   286d0:	ddc00915 	stw	r23,36(sp)
   286d4:	dd000615 	stw	r20,24(sp)
   286d8:	dcc00515 	stw	r19,20(sp)
   286dc:	dc800415 	stw	r18,16(sp)
   286e0:	dc400315 	stw	r17,12(sp)
   286e4:	3880020c 	andi	r2,r7,8
   286e8:	302d883a 	mov	r22,r6
   286ec:	202b883a 	mov	r21,r4
   286f0:	2821883a 	mov	r16,r5
   286f4:	10002226 	beq	r2,zero,28780 <__sfvwrite_r+0xd4>
   286f8:	28800417 	ldw	r2,16(r5)
   286fc:	10002026 	beq	r2,zero,28780 <__sfvwrite_r+0xd4>
   28700:	3880008c 	andi	r2,r7,2
   28704:	b4400017 	ldw	r17,0(r22)
   28708:	10002526 	beq	r2,zero,287a0 <__sfvwrite_r+0xf4>
   2870c:	80800917 	ldw	r2,36(r16)
   28710:	81400717 	ldw	r5,28(r16)
   28714:	05200034 	movhi	r20,32768
   28718:	0027883a 	mov	r19,zero
   2871c:	0025883a 	mov	r18,zero
   28720:	a53f0004 	addi	r20,r20,-1024
   28724:	980d883a 	mov	r6,r19
   28728:	a809883a 	mov	r4,r21
   2872c:	90001026 	beq	r18,zero,28770 <__sfvwrite_r+0xc4>
   28730:	900f883a 	mov	r7,r18
   28734:	a480012e 	bgeu	r20,r18,2873c <__sfvwrite_r+0x90>
   28738:	a00f883a 	mov	r7,r20
   2873c:	103ee83a 	callr	r2
   28740:	00809f0e 	bge	zero,r2,289c0 <__sfvwrite_r+0x314>
   28744:	b1000217 	ldw	r4,8(r22)
   28748:	98a7883a 	add	r19,r19,r2
   2874c:	90a5c83a 	sub	r18,r18,r2
   28750:	2085c83a 	sub	r2,r4,r2
   28754:	b0800215 	stw	r2,8(r22)
   28758:	10006326 	beq	r2,zero,288e8 <__sfvwrite_r+0x23c>
   2875c:	80800917 	ldw	r2,36(r16)
   28760:	81400717 	ldw	r5,28(r16)
   28764:	980d883a 	mov	r6,r19
   28768:	a809883a 	mov	r4,r21
   2876c:	903ff01e 	bne	r18,zero,28730 <__sfvwrite_r+0x84>
   28770:	8cc00017 	ldw	r19,0(r17)
   28774:	8c800117 	ldw	r18,4(r17)
   28778:	8c400204 	addi	r17,r17,8
   2877c:	003fe906 	br	28724 <__sfvwrite_r+0x78>
   28780:	800b883a 	mov	r5,r16
   28784:	a809883a 	mov	r4,r21
   28788:	00283500 	call	28350 <__swsetup_r>
   2878c:	1000f81e 	bne	r2,zero,28b70 <__sfvwrite_r+0x4c4>
   28790:	81c0030b 	ldhu	r7,12(r16)
   28794:	b4400017 	ldw	r17,0(r22)
   28798:	3880008c 	andi	r2,r7,2
   2879c:	103fdb1e 	bne	r2,zero,2870c <__sfvwrite_r+0x60>
   287a0:	3880004c 	andi	r2,r7,1
   287a4:	84800217 	ldw	r18,8(r16)
   287a8:	82000017 	ldw	r8,0(r16)
   287ac:	10008b1e 	bne	r2,zero,289dc <__sfvwrite_r+0x330>
   287b0:	00a00034 	movhi	r2,32768
   287b4:	10bfff84 	addi	r2,r2,-2
   287b8:	00e00034 	movhi	r3,32768
   287bc:	d8800015 	stw	r2,0(sp)
   287c0:	18bfffc4 	addi	r2,r3,-1
   287c4:	0039883a 	mov	fp,zero
   287c8:	0027883a 	mov	r19,zero
   287cc:	d8800115 	stw	r2,4(sp)
   287d0:	98004126 	beq	r19,zero,288d8 <__sfvwrite_r+0x22c>
   287d4:	3880800c 	andi	r2,r7,512
   287d8:	10009326 	beq	r2,zero,28a28 <__sfvwrite_r+0x37c>
   287dc:	902f883a 	mov	r23,r18
   287e0:	9c80ba36 	bltu	r19,r18,28acc <__sfvwrite_r+0x420>
   287e4:	3881200c 	andi	r2,r7,1152
   287e8:	10002626 	beq	r2,zero,28884 <__sfvwrite_r+0x1d8>
   287ec:	81800517 	ldw	r6,20(r16)
   287f0:	81400417 	ldw	r5,16(r16)
   287f4:	98800044 	addi	r2,r19,1
   287f8:	3189883a 	add	r4,r6,r6
   287fc:	2189883a 	add	r4,r4,r6
   28800:	2028d7fa 	srli	r20,r4,31
   28804:	4165c83a 	sub	r18,r8,r5
   28808:	1485883a 	add	r2,r2,r18
   2880c:	a109883a 	add	r4,r20,r4
   28810:	2029d07a 	srai	r20,r4,1
   28814:	a00d883a 	mov	r6,r20
   28818:	a080022e 	bgeu	r20,r2,28824 <__sfvwrite_r+0x178>
   2881c:	1029883a 	mov	r20,r2
   28820:	100d883a 	mov	r6,r2
   28824:	39c1000c 	andi	r7,r7,1024
   28828:	3800c126 	beq	r7,zero,28b30 <__sfvwrite_r+0x484>
   2882c:	a809883a 	mov	r4,r21
   28830:	300b883a 	mov	r5,r6
   28834:	00213580 	call	21358 <_malloc_r>
   28838:	1009883a 	mov	r4,r2
   2883c:	1000c826 	beq	r2,zero,28b60 <__sfvwrite_r+0x4b4>
   28840:	81400417 	ldw	r5,16(r16)
   28844:	900d883a 	mov	r6,r18
   28848:	00252a80 	call	252a8 <memcpy>
   2884c:	1009883a 	mov	r4,r2
   28850:	8080030b 	ldhu	r2,12(r16)
   28854:	00fedfc4 	movi	r3,-1153
   28858:	10c4703a 	and	r2,r2,r3
   2885c:	10802014 	ori	r2,r2,128
   28860:	8080030d 	sth	r2,12(r16)
   28864:	2491883a 	add	r8,r4,r18
   28868:	a485c83a 	sub	r2,r20,r18
   2886c:	81000415 	stw	r4,16(r16)
   28870:	82000015 	stw	r8,0(r16)
   28874:	85000515 	stw	r20,20(r16)
   28878:	9825883a 	mov	r18,r19
   2887c:	80800215 	stw	r2,8(r16)
   28880:	982f883a 	mov	r23,r19
   28884:	4009883a 	mov	r4,r8
   28888:	b80d883a 	mov	r6,r23
   2888c:	e00b883a 	mov	r5,fp
   28890:	0028c4c0 	call	28c4c <memmove>
   28894:	81000217 	ldw	r4,8(r16)
   28898:	80800017 	ldw	r2,0(r16)
   2889c:	9829883a 	mov	r20,r19
   288a0:	24a5c83a 	sub	r18,r4,r18
   288a4:	15c5883a 	add	r2,r2,r23
   288a8:	84800215 	stw	r18,8(r16)
   288ac:	80800015 	stw	r2,0(r16)
   288b0:	0027883a 	mov	r19,zero
   288b4:	b0800217 	ldw	r2,8(r22)
   288b8:	e539883a 	add	fp,fp,r20
   288bc:	1529c83a 	sub	r20,r2,r20
   288c0:	b5000215 	stw	r20,8(r22)
   288c4:	a0000826 	beq	r20,zero,288e8 <__sfvwrite_r+0x23c>
   288c8:	81c0030b 	ldhu	r7,12(r16)
   288cc:	84800217 	ldw	r18,8(r16)
   288d0:	82000017 	ldw	r8,0(r16)
   288d4:	983fbf1e 	bne	r19,zero,287d4 <__sfvwrite_r+0x128>
   288d8:	8f000017 	ldw	fp,0(r17)
   288dc:	8cc00117 	ldw	r19,4(r17)
   288e0:	8c400204 	addi	r17,r17,8
   288e4:	003fba06 	br	287d0 <__sfvwrite_r+0x124>
   288e8:	0005883a 	mov	r2,zero
   288ec:	dfc00b17 	ldw	ra,44(sp)
   288f0:	df000a17 	ldw	fp,40(sp)
   288f4:	ddc00917 	ldw	r23,36(sp)
   288f8:	dd800817 	ldw	r22,32(sp)
   288fc:	dd400717 	ldw	r21,28(sp)
   28900:	dd000617 	ldw	r20,24(sp)
   28904:	dcc00517 	ldw	r19,20(sp)
   28908:	dc800417 	ldw	r18,16(sp)
   2890c:	dc400317 	ldw	r17,12(sp)
   28910:	dc000217 	ldw	r16,8(sp)
   28914:	dec00c04 	addi	sp,sp,48
   28918:	f800283a 	ret
   2891c:	e1c07316 	blt	fp,r7,28aec <__sfvwrite_r+0x440>
   28920:	80800917 	ldw	r2,36(r16)
   28924:	81400717 	ldw	r5,28(r16)
   28928:	b80d883a 	mov	r6,r23
   2892c:	a809883a 	mov	r4,r21
   28930:	103ee83a 	callr	r2
   28934:	1025883a 	mov	r18,r2
   28938:	0080210e 	bge	zero,r2,289c0 <__sfvwrite_r+0x314>
   2893c:	a4a9c83a 	sub	r20,r20,r18
   28940:	a0006526 	beq	r20,zero,28ad8 <__sfvwrite_r+0x42c>
   28944:	00800044 	movi	r2,1
   28948:	b1800217 	ldw	r6,8(r22)
   2894c:	bcaf883a 	add	r23,r23,r18
   28950:	9ca7c83a 	sub	r19,r19,r18
   28954:	34a5c83a 	sub	r18,r6,r18
   28958:	b4800215 	stw	r18,8(r22)
   2895c:	903fe226 	beq	r18,zero,288e8 <__sfvwrite_r+0x23c>
   28960:	84800217 	ldw	r18,8(r16)
   28964:	82000017 	ldw	r8,0(r16)
   28968:	98002126 	beq	r19,zero,289f0 <__sfvwrite_r+0x344>
   2896c:	10002426 	beq	r2,zero,28a00 <__sfvwrite_r+0x354>
   28970:	a005883a 	mov	r2,r20
   28974:	9839883a 	mov	fp,r19
   28978:	14c0012e 	bgeu	r2,r19,28980 <__sfvwrite_r+0x2d4>
   2897c:	1039883a 	mov	fp,r2
   28980:	80800417 	ldw	r2,16(r16)
   28984:	81c00517 	ldw	r7,20(r16)
   28988:	123fe42e 	bgeu	r2,r8,2891c <__sfvwrite_r+0x270>
   2898c:	3ca5883a 	add	r18,r7,r18
   28990:	973fe20e 	bge	r18,fp,2891c <__sfvwrite_r+0x270>
   28994:	b80b883a 	mov	r5,r23
   28998:	4009883a 	mov	r4,r8
   2899c:	900d883a 	mov	r6,r18
   289a0:	0028c4c0 	call	28c4c <memmove>
   289a4:	80800017 	ldw	r2,0(r16)
   289a8:	800b883a 	mov	r5,r16
   289ac:	a809883a 	mov	r4,r21
   289b0:	1485883a 	add	r2,r2,r18
   289b4:	80800015 	stw	r2,0(r16)
   289b8:	0023b380 	call	23b38 <_fflush_r>
   289bc:	103fdf26 	beq	r2,zero,2893c <__sfvwrite_r+0x290>
   289c0:	8080030b 	ldhu	r2,12(r16)
   289c4:	10801014 	ori	r2,r2,64
   289c8:	8080030d 	sth	r2,12(r16)
   289cc:	00bfffc4 	movi	r2,-1
   289d0:	003fc606 	br	288ec <__sfvwrite_r+0x240>
   289d4:	0005883a 	mov	r2,zero
   289d8:	f800283a 	ret
   289dc:	0027883a 	mov	r19,zero
   289e0:	0029883a 	mov	r20,zero
   289e4:	0005883a 	mov	r2,zero
   289e8:	002f883a 	mov	r23,zero
   289ec:	983fdf1e 	bne	r19,zero,2896c <__sfvwrite_r+0x2c0>
   289f0:	8cc00117 	ldw	r19,4(r17)
   289f4:	8dc00017 	ldw	r23,0(r17)
   289f8:	8c400204 	addi	r17,r17,8
   289fc:	983ffc26 	beq	r19,zero,289f0 <__sfvwrite_r+0x344>
   28a00:	980d883a 	mov	r6,r19
   28a04:	01400284 	movi	r5,10
   28a08:	b809883a 	mov	r4,r23
   28a0c:	da000015 	stw	r8,0(sp)
   28a10:	0028b780 	call	28b78 <memchr>
   28a14:	da000017 	ldw	r8,0(sp)
   28a18:	10004226 	beq	r2,zero,28b24 <__sfvwrite_r+0x478>
   28a1c:	10800044 	addi	r2,r2,1
   28a20:	15e9c83a 	sub	r20,r2,r23
   28a24:	003fd206 	br	28970 <__sfvwrite_r+0x2c4>
   28a28:	80800417 	ldw	r2,16(r16)
   28a2c:	12001436 	bltu	r2,r8,28a80 <__sfvwrite_r+0x3d4>
   28a30:	85000517 	ldw	r20,20(r16)
   28a34:	9d001236 	bltu	r19,r20,28a80 <__sfvwrite_r+0x3d4>
   28a38:	d8800017 	ldw	r2,0(sp)
   28a3c:	14c0372e 	bgeu	r2,r19,28b1c <__sfvwrite_r+0x470>
   28a40:	d9000117 	ldw	r4,4(sp)
   28a44:	a00b883a 	mov	r5,r20
   28a48:	002a2f80 	call	2a2f8 <__divsi3>
   28a4c:	a00b883a 	mov	r5,r20
   28a50:	1009883a 	mov	r4,r2
   28a54:	002a4ac0 	call	2a4ac <__mulsi3>
   28a58:	82000917 	ldw	r8,36(r16)
   28a5c:	81400717 	ldw	r5,28(r16)
   28a60:	100f883a 	mov	r7,r2
   28a64:	e00d883a 	mov	r6,fp
   28a68:	a809883a 	mov	r4,r21
   28a6c:	403ee83a 	callr	r8
   28a70:	1029883a 	mov	r20,r2
   28a74:	00bfd20e 	bge	zero,r2,289c0 <__sfvwrite_r+0x314>
   28a78:	9d27c83a 	sub	r19,r19,r20
   28a7c:	003f8d06 	br	288b4 <__sfvwrite_r+0x208>
   28a80:	9029883a 	mov	r20,r18
   28a84:	9c80012e 	bgeu	r19,r18,28a8c <__sfvwrite_r+0x3e0>
   28a88:	9829883a 	mov	r20,r19
   28a8c:	4009883a 	mov	r4,r8
   28a90:	a00d883a 	mov	r6,r20
   28a94:	e00b883a 	mov	r5,fp
   28a98:	0028c4c0 	call	28c4c <memmove>
   28a9c:	80800217 	ldw	r2,8(r16)
   28aa0:	81000017 	ldw	r4,0(r16)
   28aa4:	1505c83a 	sub	r2,r2,r20
   28aa8:	2509883a 	add	r4,r4,r20
   28aac:	80800215 	stw	r2,8(r16)
   28ab0:	81000015 	stw	r4,0(r16)
   28ab4:	103ff01e 	bne	r2,zero,28a78 <__sfvwrite_r+0x3cc>
   28ab8:	800b883a 	mov	r5,r16
   28abc:	a809883a 	mov	r4,r21
   28ac0:	0023b380 	call	23b38 <_fflush_r>
   28ac4:	103fec26 	beq	r2,zero,28a78 <__sfvwrite_r+0x3cc>
   28ac8:	003fbd06 	br	289c0 <__sfvwrite_r+0x314>
   28acc:	9825883a 	mov	r18,r19
   28ad0:	982f883a 	mov	r23,r19
   28ad4:	003f6b06 	br	28884 <__sfvwrite_r+0x1d8>
   28ad8:	800b883a 	mov	r5,r16
   28adc:	a809883a 	mov	r4,r21
   28ae0:	0023b380 	call	23b38 <_fflush_r>
   28ae4:	103f9826 	beq	r2,zero,28948 <__sfvwrite_r+0x29c>
   28ae8:	003fb506 	br	289c0 <__sfvwrite_r+0x314>
   28aec:	e00d883a 	mov	r6,fp
   28af0:	b80b883a 	mov	r5,r23
   28af4:	4009883a 	mov	r4,r8
   28af8:	0028c4c0 	call	28c4c <memmove>
   28afc:	80800217 	ldw	r2,8(r16)
   28b00:	81800017 	ldw	r6,0(r16)
   28b04:	e025883a 	mov	r18,fp
   28b08:	1705c83a 	sub	r2,r2,fp
   28b0c:	370d883a 	add	r6,r6,fp
   28b10:	80800215 	stw	r2,8(r16)
   28b14:	81800015 	stw	r6,0(r16)
   28b18:	003f8806 	br	2893c <__sfvwrite_r+0x290>
   28b1c:	9809883a 	mov	r4,r19
   28b20:	003fc806 	br	28a44 <__sfvwrite_r+0x398>
   28b24:	98800044 	addi	r2,r19,1
   28b28:	1029883a 	mov	r20,r2
   28b2c:	003f9106 	br	28974 <__sfvwrite_r+0x2c8>
   28b30:	a809883a 	mov	r4,r21
   28b34:	0028d780 	call	28d78 <_realloc_r>
   28b38:	1009883a 	mov	r4,r2
   28b3c:	103f491e 	bne	r2,zero,28864 <__sfvwrite_r+0x1b8>
   28b40:	81400417 	ldw	r5,16(r16)
   28b44:	a809883a 	mov	r4,r21
   28b48:	00240e80 	call	240e8 <_free_r>
   28b4c:	8080030b 	ldhu	r2,12(r16)
   28b50:	00c00304 	movi	r3,12
   28b54:	a8c00015 	stw	r3,0(r21)
   28b58:	10bfdfcc 	andi	r2,r2,65407
   28b5c:	003f9906 	br	289c4 <__sfvwrite_r+0x318>
   28b60:	00c00304 	movi	r3,12
   28b64:	8080030b 	ldhu	r2,12(r16)
   28b68:	a8c00015 	stw	r3,0(r21)
   28b6c:	003f9506 	br	289c4 <__sfvwrite_r+0x318>
   28b70:	00bfffc4 	movi	r2,-1
   28b74:	003f5d06 	br	288ec <__sfvwrite_r+0x240>

00028b78 <memchr>:
   28b78:	208000cc 	andi	r2,r4,3
   28b7c:	280f883a 	mov	r7,r5
   28b80:	10000e26 	beq	r2,zero,28bbc <memchr+0x44>
   28b84:	30bfffc4 	addi	r2,r6,-1
   28b88:	30001726 	beq	r6,zero,28be8 <memchr+0x70>
   28b8c:	29803fcc 	andi	r6,r5,255
   28b90:	00000606 	br	28bac <memchr+0x34>
   28b94:	21000044 	addi	r4,r4,1
   28b98:	20c000cc 	andi	r3,r4,3
   28b9c:	18000826 	beq	r3,zero,28bc0 <memchr+0x48>
   28ba0:	10bfffc4 	addi	r2,r2,-1
   28ba4:	10ffffe0 	cmpeqi	r3,r2,-1
   28ba8:	18000f1e 	bne	r3,zero,28be8 <memchr+0x70>
   28bac:	20c00003 	ldbu	r3,0(r4)
   28bb0:	19bff81e 	bne	r3,r6,28b94 <memchr+0x1c>
   28bb4:	2005883a 	mov	r2,r4
   28bb8:	f800283a 	ret
   28bbc:	3005883a 	mov	r2,r6
   28bc0:	10c00128 	cmpgeui	r3,r2,4
   28bc4:	18000a1e 	bne	r3,zero,28bf0 <memchr+0x78>
   28bc8:	10001f26 	beq	r2,zero,28c48 <memchr+0xd0>
   28bcc:	2087883a 	add	r3,r4,r2
   28bd0:	39803fcc 	andi	r6,r7,255
   28bd4:	2005883a 	mov	r2,r4
   28bd8:	11000003 	ldbu	r4,0(r2)
   28bdc:	21bff626 	beq	r4,r6,28bb8 <memchr+0x40>
   28be0:	10800044 	addi	r2,r2,1
   28be4:	18bffc1e 	bne	r3,r2,28bd8 <memchr+0x60>
   28be8:	0005883a 	mov	r2,zero
   28bec:	f800283a 	ret
   28bf0:	2810923a 	slli	r8,r5,8
   28bf4:	29403fcc 	andi	r5,r5,255
   28bf8:	027fbff4 	movhi	r9,65279
   28bfc:	423fffcc 	andi	r8,r8,65535
   28c00:	414ab03a 	or	r5,r8,r5
   28c04:	2810943a 	slli	r8,r5,16
   28c08:	01a02074 	movhi	r6,32897
   28c0c:	4a7fbfc4 	addi	r9,r9,-257
   28c10:	4150b03a 	or	r8,r8,r5
   28c14:	31a02004 	addi	r6,r6,-32640
   28c18:	20c00017 	ldw	r3,0(r4)
   28c1c:	40c6f03a 	xor	r3,r8,r3
   28c20:	1a4b883a 	add	r5,r3,r9
   28c24:	00c6303a 	nor	r3,zero,r3
   28c28:	28c6703a 	and	r3,r5,r3
   28c2c:	1986703a 	and	r3,r3,r6
   28c30:	183fe61e 	bne	r3,zero,28bcc <memchr+0x54>
   28c34:	10bfff04 	addi	r2,r2,-4
   28c38:	10c00128 	cmpgeui	r3,r2,4
   28c3c:	21000104 	addi	r4,r4,4
   28c40:	183ff51e 	bne	r3,zero,28c18 <memchr+0xa0>
   28c44:	003fe006 	br	28bc8 <memchr+0x50>
   28c48:	f800283a 	ret

00028c4c <memmove>:
   28c4c:	2005883a 	mov	r2,r4
   28c50:	29000a2e 	bgeu	r5,r4,28c7c <memmove+0x30>
   28c54:	2989883a 	add	r4,r5,r6
   28c58:	1100082e 	bgeu	r2,r4,28c7c <memmove+0x30>
   28c5c:	1187883a 	add	r3,r2,r6
   28c60:	30003e26 	beq	r6,zero,28d5c <memmove+0x110>
   28c64:	217fffc3 	ldbu	r5,-1(r4)
   28c68:	18ffffc4 	addi	r3,r3,-1
   28c6c:	213fffc4 	addi	r4,r4,-1
   28c70:	19400005 	stb	r5,0(r3)
   28c74:	10fffb1e 	bne	r2,r3,28c64 <memmove+0x18>
   28c78:	f800283a 	ret
   28c7c:	30c00430 	cmpltui	r3,r6,16
   28c80:	18000b26 	beq	r3,zero,28cb0 <memmove+0x64>
   28c84:	1007883a 	mov	r3,r2
   28c88:	31ffffc4 	addi	r7,r6,-1
   28c8c:	30003726 	beq	r6,zero,28d6c <memmove+0x120>
   28c90:	39c00044 	addi	r7,r7,1
   28c94:	29cf883a 	add	r7,r5,r7
   28c98:	29800003 	ldbu	r6,0(r5)
   28c9c:	29400044 	addi	r5,r5,1
   28ca0:	18c00044 	addi	r3,r3,1
   28ca4:	19bfffc5 	stb	r6,-1(r3)
   28ca8:	29fffb1e 	bne	r5,r7,28c98 <memmove+0x4c>
   28cac:	f800283a 	ret
   28cb0:	2886b03a 	or	r3,r5,r2
   28cb4:	18c000cc 	andi	r3,r3,3
   28cb8:	1800291e 	bne	r3,zero,28d60 <memmove+0x114>
   28cbc:	327ffc04 	addi	r9,r6,-16
   28cc0:	4812d13a 	srli	r9,r9,4
   28cc4:	280f883a 	mov	r7,r5
   28cc8:	1007883a 	mov	r3,r2
   28ccc:	4a400044 	addi	r9,r9,1
   28cd0:	4812913a 	slli	r9,r9,4
   28cd4:	1251883a 	add	r8,r2,r9
   28cd8:	39000017 	ldw	r4,0(r7)
   28cdc:	39c00404 	addi	r7,r7,16
   28ce0:	18c00404 	addi	r3,r3,16
   28ce4:	193ffc15 	stw	r4,-16(r3)
   28ce8:	393ffd17 	ldw	r4,-12(r7)
   28cec:	193ffd15 	stw	r4,-12(r3)
   28cf0:	393ffe17 	ldw	r4,-8(r7)
   28cf4:	193ffe15 	stw	r4,-8(r3)
   28cf8:	393fff17 	ldw	r4,-4(r7)
   28cfc:	193fff15 	stw	r4,-4(r3)
   28d00:	40fff51e 	bne	r8,r3,28cd8 <memmove+0x8c>
   28d04:	3100030c 	andi	r4,r6,12
   28d08:	2a4b883a 	add	r5,r5,r9
   28d0c:	320003cc 	andi	r8,r6,15
   28d10:	20001726 	beq	r4,zero,28d70 <memmove+0x124>
   28d14:	2813883a 	mov	r9,r5
   28d18:	180f883a 	mov	r7,r3
   28d1c:	4a800017 	ldw	r10,0(r9)
   28d20:	39c00104 	addi	r7,r7,4
   28d24:	41c9c83a 	sub	r4,r8,r7
   28d28:	1909883a 	add	r4,r3,r4
   28d2c:	21000128 	cmpgeui	r4,r4,4
   28d30:	3abfff15 	stw	r10,-4(r7)
   28d34:	4a400104 	addi	r9,r9,4
   28d38:	203ff81e 	bne	r4,zero,28d1c <memmove+0xd0>
   28d3c:	413fff04 	addi	r4,r8,-4
   28d40:	2008d0ba 	srli	r4,r4,2
   28d44:	318000cc 	andi	r6,r6,3
   28d48:	21000044 	addi	r4,r4,1
   28d4c:	200890ba 	slli	r4,r4,2
   28d50:	1907883a 	add	r3,r3,r4
   28d54:	290b883a 	add	r5,r5,r4
   28d58:	003fcb06 	br	28c88 <memmove+0x3c>
   28d5c:	f800283a 	ret
   28d60:	31ffffc4 	addi	r7,r6,-1
   28d64:	1007883a 	mov	r3,r2
   28d68:	003fc906 	br	28c90 <memmove+0x44>
   28d6c:	f800283a 	ret
   28d70:	400d883a 	mov	r6,r8
   28d74:	003fc406 	br	28c88 <memmove+0x3c>

00028d78 <_realloc_r>:
   28d78:	defff504 	addi	sp,sp,-44
   28d7c:	dc800315 	stw	r18,12(sp)
   28d80:	dfc00a15 	stw	ra,40(sp)
   28d84:	df000915 	stw	fp,36(sp)
   28d88:	ddc00815 	stw	r23,32(sp)
   28d8c:	dd800715 	stw	r22,28(sp)
   28d90:	dd400615 	stw	r21,24(sp)
   28d94:	dd000515 	stw	r20,20(sp)
   28d98:	dcc00415 	stw	r19,16(sp)
   28d9c:	dc400215 	stw	r17,8(sp)
   28da0:	dc000115 	stw	r16,4(sp)
   28da4:	3025883a 	mov	r18,r6
   28da8:	28008b26 	beq	r5,zero,28fd8 <_realloc_r+0x260>
   28dac:	2821883a 	mov	r16,r5
   28db0:	2027883a 	mov	r19,r4
   28db4:	944002c4 	addi	r17,r18,11
   28db8:	002d8900 	call	2d890 <__malloc_lock>
   28dbc:	888005f0 	cmpltui	r2,r17,23
   28dc0:	1000521e 	bne	r2,zero,28f0c <_realloc_r+0x194>
   28dc4:	017ffe04 	movi	r5,-8
   28dc8:	8962703a 	and	r17,r17,r5
   28dcc:	8807883a 	mov	r3,r17
   28dd0:	88005116 	blt	r17,zero,28f18 <_realloc_r+0x1a0>
   28dd4:	8c805036 	bltu	r17,r18,28f18 <_realloc_r+0x1a0>
   28dd8:	80bfff17 	ldw	r2,-4(r16)
   28ddc:	017fff04 	movi	r5,-4
   28de0:	857ffe04 	addi	r21,r16,-8
   28de4:	1168703a 	and	r20,r2,r5
   28de8:	ad2d883a 	add	r22,r21,r20
   28dec:	a0c0390e 	bge	r20,r3,28ed4 <_realloc_r+0x15c>
   28df0:	070000f4 	movhi	fp,3
   28df4:	e702b704 	addi	fp,fp,2780
   28df8:	e2000217 	ldw	r8,8(fp)
   28dfc:	b1000117 	ldw	r4,4(r22)
   28e00:	45808e26 	beq	r8,r22,2903c <_realloc_r+0x2c4>
   28e04:	01bfff84 	movi	r6,-2
   28e08:	218c703a 	and	r6,r4,r6
   28e0c:	b18d883a 	add	r6,r22,r6
   28e10:	31800117 	ldw	r6,4(r6)
   28e14:	3180004c 	andi	r6,r6,1
   28e18:	30004f1e 	bne	r6,zero,28f58 <_realloc_r+0x1e0>
   28e1c:	2148703a 	and	r4,r4,r5
   28e20:	a10b883a 	add	r5,r20,r4
   28e24:	28c0bf0e 	bge	r5,r3,29124 <_realloc_r+0x3ac>
   28e28:	1080004c 	andi	r2,r2,1
   28e2c:	10004c1e 	bne	r2,zero,28f60 <_realloc_r+0x1e8>
   28e30:	81fffe17 	ldw	r7,-8(r16)
   28e34:	00bfff04 	movi	r2,-4
   28e38:	a9cfc83a 	sub	r7,r21,r7
   28e3c:	39400117 	ldw	r5,4(r7)
   28e40:	288a703a 	and	r5,r5,r2
   28e44:	b0000426 	beq	r22,zero,28e58 <_realloc_r+0xe0>
   28e48:	a16f883a 	add	r23,r20,r5
   28e4c:	b92f883a 	add	r23,r23,r4
   28e50:	4580bf26 	beq	r8,r22,29150 <_realloc_r+0x3d8>
   28e54:	b8c0930e 	bge	r23,r3,290a4 <_realloc_r+0x32c>
   28e58:	38004126 	beq	r7,zero,28f60 <_realloc_r+0x1e8>
   28e5c:	a16f883a 	add	r23,r20,r5
   28e60:	b8c03f16 	blt	r23,r3,28f60 <_realloc_r+0x1e8>
   28e64:	38800317 	ldw	r2,12(r7)
   28e68:	38c00217 	ldw	r3,8(r7)
   28e6c:	a1bfff04 	addi	r6,r20,-4
   28e70:	31400968 	cmpgeui	r5,r6,37
   28e74:	18800315 	stw	r2,12(r3)
   28e78:	10c00215 	stw	r3,8(r2)
   28e7c:	39000204 	addi	r4,r7,8
   28e80:	3ded883a 	add	r22,r7,r23
   28e84:	2800941e 	bne	r5,zero,290d8 <_realloc_r+0x360>
   28e88:	30800530 	cmpltui	r2,r6,20
   28e8c:	80c00017 	ldw	r3,0(r16)
   28e90:	1000df1e 	bne	r2,zero,29210 <_realloc_r+0x498>
   28e94:	38c00215 	stw	r3,8(r7)
   28e98:	80c00117 	ldw	r3,4(r16)
   28e9c:	30800728 	cmpgeui	r2,r6,28
   28ea0:	38c00315 	stw	r3,12(r7)
   28ea4:	1000dc1e 	bne	r2,zero,29218 <_realloc_r+0x4a0>
   28ea8:	80c00217 	ldw	r3,8(r16)
   28eac:	38800404 	addi	r2,r7,16
   28eb0:	84000204 	addi	r16,r16,8
   28eb4:	10c00015 	stw	r3,0(r2)
   28eb8:	80c00117 	ldw	r3,4(r16)
   28ebc:	b829883a 	mov	r20,r23
   28ec0:	382b883a 	mov	r21,r7
   28ec4:	10c00115 	stw	r3,4(r2)
   28ec8:	80c00217 	ldw	r3,8(r16)
   28ecc:	2021883a 	mov	r16,r4
   28ed0:	10c00215 	stw	r3,8(r2)
   28ed4:	a9800117 	ldw	r6,4(r21)
   28ed8:	a445c83a 	sub	r2,r20,r17
   28edc:	10c00430 	cmpltui	r3,r2,16
   28ee0:	3180004c 	andi	r6,r6,1
   28ee4:	18004926 	beq	r3,zero,2900c <_realloc_r+0x294>
   28ee8:	a18cb03a 	or	r6,r20,r6
   28eec:	a9800115 	stw	r6,4(r21)
   28ef0:	b0800117 	ldw	r2,4(r22)
   28ef4:	10800054 	ori	r2,r2,1
   28ef8:	b0800115 	stw	r2,4(r22)
   28efc:	9809883a 	mov	r4,r19
   28f00:	002d8b40 	call	2d8b4 <__malloc_unlock>
   28f04:	8025883a 	mov	r18,r16
   28f08:	00000606 	br	28f24 <_realloc_r+0x1ac>
   28f0c:	04400404 	movi	r17,16
   28f10:	00c00404 	movi	r3,16
   28f14:	8cbfb02e 	bgeu	r17,r18,28dd8 <_realloc_r+0x60>
   28f18:	00800304 	movi	r2,12
   28f1c:	98800015 	stw	r2,0(r19)
   28f20:	0025883a 	mov	r18,zero
   28f24:	9005883a 	mov	r2,r18
   28f28:	dfc00a17 	ldw	ra,40(sp)
   28f2c:	df000917 	ldw	fp,36(sp)
   28f30:	ddc00817 	ldw	r23,32(sp)
   28f34:	dd800717 	ldw	r22,28(sp)
   28f38:	dd400617 	ldw	r21,24(sp)
   28f3c:	dd000517 	ldw	r20,20(sp)
   28f40:	dcc00417 	ldw	r19,16(sp)
   28f44:	dc800317 	ldw	r18,12(sp)
   28f48:	dc400217 	ldw	r17,8(sp)
   28f4c:	dc000117 	ldw	r16,4(sp)
   28f50:	dec00b04 	addi	sp,sp,44
   28f54:	f800283a 	ret
   28f58:	1080004c 	andi	r2,r2,1
   28f5c:	10006c26 	beq	r2,zero,29110 <_realloc_r+0x398>
   28f60:	900b883a 	mov	r5,r18
   28f64:	9809883a 	mov	r4,r19
   28f68:	00213580 	call	21358 <_malloc_r>
   28f6c:	1025883a 	mov	r18,r2
   28f70:	10001626 	beq	r2,zero,28fcc <_realloc_r+0x254>
   28f74:	80bfff17 	ldw	r2,-4(r16)
   28f78:	013fff84 	movi	r4,-2
   28f7c:	90fffe04 	addi	r3,r18,-8
   28f80:	1104703a 	and	r2,r2,r4
   28f84:	a885883a 	add	r2,r21,r2
   28f88:	10c05b26 	beq	r2,r3,290f8 <_realloc_r+0x380>
   28f8c:	a1bfff04 	addi	r6,r20,-4
   28f90:	30800968 	cmpgeui	r2,r6,37
   28f94:	10006a1e 	bne	r2,zero,29140 <_realloc_r+0x3c8>
   28f98:	30800530 	cmpltui	r2,r6,20
   28f9c:	81000017 	ldw	r4,0(r16)
   28fa0:	10003726 	beq	r2,zero,29080 <_realloc_r+0x308>
   28fa4:	9005883a 	mov	r2,r18
   28fa8:	8007883a 	mov	r3,r16
   28fac:	11000015 	stw	r4,0(r2)
   28fb0:	19000117 	ldw	r4,4(r3)
   28fb4:	11000115 	stw	r4,4(r2)
   28fb8:	18c00217 	ldw	r3,8(r3)
   28fbc:	10c00215 	stw	r3,8(r2)
   28fc0:	800b883a 	mov	r5,r16
   28fc4:	9809883a 	mov	r4,r19
   28fc8:	00240e80 	call	240e8 <_free_r>
   28fcc:	9809883a 	mov	r4,r19
   28fd0:	002d8b40 	call	2d8b4 <__malloc_unlock>
   28fd4:	003fd306 	br	28f24 <_realloc_r+0x1ac>
   28fd8:	300b883a 	mov	r5,r6
   28fdc:	dfc00a17 	ldw	ra,40(sp)
   28fe0:	df000917 	ldw	fp,36(sp)
   28fe4:	ddc00817 	ldw	r23,32(sp)
   28fe8:	dd800717 	ldw	r22,28(sp)
   28fec:	dd400617 	ldw	r21,24(sp)
   28ff0:	dd000517 	ldw	r20,20(sp)
   28ff4:	dcc00417 	ldw	r19,16(sp)
   28ff8:	dc800317 	ldw	r18,12(sp)
   28ffc:	dc400217 	ldw	r17,8(sp)
   29000:	dc000117 	ldw	r16,4(sp)
   29004:	dec00b04 	addi	sp,sp,44
   29008:	00213581 	jmpi	21358 <_malloc_r>
   2900c:	344cb03a 	or	r6,r6,r17
   29010:	a9800115 	stw	r6,4(r21)
   29014:	ac4b883a 	add	r5,r21,r17
   29018:	10800054 	ori	r2,r2,1
   2901c:	28800115 	stw	r2,4(r5)
   29020:	b0800117 	ldw	r2,4(r22)
   29024:	29400204 	addi	r5,r5,8
   29028:	9809883a 	mov	r4,r19
   2902c:	10800054 	ori	r2,r2,1
   29030:	b0800115 	stw	r2,4(r22)
   29034:	00240e80 	call	240e8 <_free_r>
   29038:	003fb006 	br	28efc <_realloc_r+0x184>
   2903c:	2148703a 	and	r4,r4,r5
   29040:	a10b883a 	add	r5,r20,r4
   29044:	89800404 	addi	r6,r17,16
   29048:	29bf7716 	blt	r5,r6,28e28 <_realloc_r+0xb0>
   2904c:	ac6b883a 	add	r21,r21,r17
   29050:	2c45c83a 	sub	r2,r5,r17
   29054:	e5400215 	stw	r21,8(fp)
   29058:	10800054 	ori	r2,r2,1
   2905c:	a8800115 	stw	r2,4(r21)
   29060:	80bfff17 	ldw	r2,-4(r16)
   29064:	9809883a 	mov	r4,r19
   29068:	8025883a 	mov	r18,r16
   2906c:	1080004c 	andi	r2,r2,1
   29070:	1462b03a 	or	r17,r2,r17
   29074:	847fff15 	stw	r17,-4(r16)
   29078:	002d8b40 	call	2d8b4 <__malloc_unlock>
   2907c:	003fa906 	br	28f24 <_realloc_r+0x1ac>
   29080:	91000015 	stw	r4,0(r18)
   29084:	80c00117 	ldw	r3,4(r16)
   29088:	30800728 	cmpgeui	r2,r6,28
   2908c:	90c00115 	stw	r3,4(r18)
   29090:	1000551e 	bne	r2,zero,291e8 <_realloc_r+0x470>
   29094:	81000217 	ldw	r4,8(r16)
   29098:	80c00204 	addi	r3,r16,8
   2909c:	90800204 	addi	r2,r18,8
   290a0:	003fc206 	br	28fac <_realloc_r+0x234>
   290a4:	b0800317 	ldw	r2,12(r22)
   290a8:	b0c00217 	ldw	r3,8(r22)
   290ac:	a1bfff04 	addi	r6,r20,-4
   290b0:	31400968 	cmpgeui	r5,r6,37
   290b4:	18800315 	stw	r2,12(r3)
   290b8:	10c00215 	stw	r3,8(r2)
   290bc:	38c00217 	ldw	r3,8(r7)
   290c0:	38800317 	ldw	r2,12(r7)
   290c4:	39000204 	addi	r4,r7,8
   290c8:	3ded883a 	add	r22,r7,r23
   290cc:	18800315 	stw	r2,12(r3)
   290d0:	10c00215 	stw	r3,8(r2)
   290d4:	283f6c26 	beq	r5,zero,28e88 <_realloc_r+0x110>
   290d8:	800b883a 	mov	r5,r16
   290dc:	d9c00015 	stw	r7,0(sp)
   290e0:	0028c4c0 	call	28c4c <memmove>
   290e4:	d9c00017 	ldw	r7,0(sp)
   290e8:	1021883a 	mov	r16,r2
   290ec:	b829883a 	mov	r20,r23
   290f0:	382b883a 	mov	r21,r7
   290f4:	003f7706 	br	28ed4 <_realloc_r+0x15c>
   290f8:	90bfff17 	ldw	r2,-4(r18)
   290fc:	00ffff04 	movi	r3,-4
   29100:	10c4703a 	and	r2,r2,r3
   29104:	a0a9883a 	add	r20,r20,r2
   29108:	ad2d883a 	add	r22,r21,r20
   2910c:	003f7106 	br	28ed4 <_realloc_r+0x15c>
   29110:	81fffe17 	ldw	r7,-8(r16)
   29114:	a9cfc83a 	sub	r7,r21,r7
   29118:	39000117 	ldw	r4,4(r7)
   2911c:	214a703a 	and	r5,r4,r5
   29120:	003f4d06 	br	28e58 <_realloc_r+0xe0>
   29124:	b0800317 	ldw	r2,12(r22)
   29128:	b0c00217 	ldw	r3,8(r22)
   2912c:	2829883a 	mov	r20,r5
   29130:	a96d883a 	add	r22,r21,r5
   29134:	18800315 	stw	r2,12(r3)
   29138:	10c00215 	stw	r3,8(r2)
   2913c:	003f6506 	br	28ed4 <_realloc_r+0x15c>
   29140:	800b883a 	mov	r5,r16
   29144:	9009883a 	mov	r4,r18
   29148:	0028c4c0 	call	28c4c <memmove>
   2914c:	003f9c06 	br	28fc0 <_realloc_r+0x248>
   29150:	88800404 	addi	r2,r17,16
   29154:	b8bf4016 	blt	r23,r2,28e58 <_realloc_r+0xe0>
   29158:	38800317 	ldw	r2,12(r7)
   2915c:	38c00217 	ldw	r3,8(r7)
   29160:	a1bfff04 	addi	r6,r20,-4
   29164:	31000968 	cmpgeui	r4,r6,37
   29168:	18800315 	stw	r2,12(r3)
   2916c:	10c00215 	stw	r3,8(r2)
   29170:	3c800204 	addi	r18,r7,8
   29174:	20003b1e 	bne	r4,zero,29264 <_realloc_r+0x4ec>
   29178:	30800530 	cmpltui	r2,r6,20
   2917c:	80c00017 	ldw	r3,0(r16)
   29180:	1000361e 	bne	r2,zero,2925c <_realloc_r+0x4e4>
   29184:	38c00215 	stw	r3,8(r7)
   29188:	80c00117 	ldw	r3,4(r16)
   2918c:	30800728 	cmpgeui	r2,r6,28
   29190:	38c00315 	stw	r3,12(r7)
   29194:	1000401e 	bne	r2,zero,29298 <_realloc_r+0x520>
   29198:	80c00217 	ldw	r3,8(r16)
   2919c:	38800404 	addi	r2,r7,16
   291a0:	84000204 	addi	r16,r16,8
   291a4:	10c00015 	stw	r3,0(r2)
   291a8:	80c00117 	ldw	r3,4(r16)
   291ac:	10c00115 	stw	r3,4(r2)
   291b0:	80c00217 	ldw	r3,8(r16)
   291b4:	10c00215 	stw	r3,8(r2)
   291b8:	3c47883a 	add	r3,r7,r17
   291bc:	bc45c83a 	sub	r2,r23,r17
   291c0:	e0c00215 	stw	r3,8(fp)
   291c4:	10800054 	ori	r2,r2,1
   291c8:	18800115 	stw	r2,4(r3)
   291cc:	38800117 	ldw	r2,4(r7)
   291d0:	9809883a 	mov	r4,r19
   291d4:	1080004c 	andi	r2,r2,1
   291d8:	1462b03a 	or	r17,r2,r17
   291dc:	3c400115 	stw	r17,4(r7)
   291e0:	002d8b40 	call	2d8b4 <__malloc_unlock>
   291e4:	003f4f06 	br	28f24 <_realloc_r+0x1ac>
   291e8:	80800217 	ldw	r2,8(r16)
   291ec:	31800920 	cmpeqi	r6,r6,36
   291f0:	90800215 	stw	r2,8(r18)
   291f4:	80800317 	ldw	r2,12(r16)
   291f8:	90800315 	stw	r2,12(r18)
   291fc:	81000417 	ldw	r4,16(r16)
   29200:	30000f1e 	bne	r6,zero,29240 <_realloc_r+0x4c8>
   29204:	80c00404 	addi	r3,r16,16
   29208:	90800404 	addi	r2,r18,16
   2920c:	003f6706 	br	28fac <_realloc_r+0x234>
   29210:	2005883a 	mov	r2,r4
   29214:	003f2706 	br	28eb4 <_realloc_r+0x13c>
   29218:	80800217 	ldw	r2,8(r16)
   2921c:	31800920 	cmpeqi	r6,r6,36
   29220:	38800415 	stw	r2,16(r7)
   29224:	80800317 	ldw	r2,12(r16)
   29228:	38800515 	stw	r2,20(r7)
   2922c:	80c00417 	ldw	r3,16(r16)
   29230:	3000121e 	bne	r6,zero,2927c <_realloc_r+0x504>
   29234:	38800604 	addi	r2,r7,24
   29238:	84000404 	addi	r16,r16,16
   2923c:	003f1d06 	br	28eb4 <_realloc_r+0x13c>
   29240:	91000415 	stw	r4,16(r18)
   29244:	81000517 	ldw	r4,20(r16)
   29248:	80c00604 	addi	r3,r16,24
   2924c:	90800604 	addi	r2,r18,24
   29250:	91000515 	stw	r4,20(r18)
   29254:	81000617 	ldw	r4,24(r16)
   29258:	003f5406 	br	28fac <_realloc_r+0x234>
   2925c:	9005883a 	mov	r2,r18
   29260:	003fd006 	br	291a4 <_realloc_r+0x42c>
   29264:	800b883a 	mov	r5,r16
   29268:	9009883a 	mov	r4,r18
   2926c:	d9c00015 	stw	r7,0(sp)
   29270:	0028c4c0 	call	28c4c <memmove>
   29274:	d9c00017 	ldw	r7,0(sp)
   29278:	003fcf06 	br	291b8 <_realloc_r+0x440>
   2927c:	84000604 	addi	r16,r16,24
   29280:	38c00615 	stw	r3,24(r7)
   29284:	80ffff17 	ldw	r3,-4(r16)
   29288:	38800804 	addi	r2,r7,32
   2928c:	38c00715 	stw	r3,28(r7)
   29290:	80c00017 	ldw	r3,0(r16)
   29294:	003f0706 	br	28eb4 <_realloc_r+0x13c>
   29298:	80800217 	ldw	r2,8(r16)
   2929c:	31800920 	cmpeqi	r6,r6,36
   292a0:	38800415 	stw	r2,16(r7)
   292a4:	80800317 	ldw	r2,12(r16)
   292a8:	38800515 	stw	r2,20(r7)
   292ac:	80c00417 	ldw	r3,16(r16)
   292b0:	3000031e 	bne	r6,zero,292c0 <_realloc_r+0x548>
   292b4:	38800604 	addi	r2,r7,24
   292b8:	84000404 	addi	r16,r16,16
   292bc:	003fb906 	br	291a4 <_realloc_r+0x42c>
   292c0:	84000604 	addi	r16,r16,24
   292c4:	38c00615 	stw	r3,24(r7)
   292c8:	80ffff17 	ldw	r3,-4(r16)
   292cc:	38800804 	addi	r2,r7,32
   292d0:	38c00715 	stw	r3,28(r7)
   292d4:	80c00017 	ldw	r3,0(r16)
   292d8:	003fb206 	br	291a4 <_realloc_r+0x42c>

000292dc <__swbuf_r>:
   292dc:	defffb04 	addi	sp,sp,-20
   292e0:	dcc00315 	stw	r19,12(sp)
   292e4:	dc400115 	stw	r17,4(sp)
   292e8:	dc000015 	stw	r16,0(sp)
   292ec:	dfc00415 	stw	ra,16(sp)
   292f0:	dc800215 	stw	r18,8(sp)
   292f4:	2027883a 	mov	r19,r4
   292f8:	2823883a 	mov	r17,r5
   292fc:	3021883a 	mov	r16,r6
   29300:	20000226 	beq	r4,zero,2930c <__swbuf_r+0x30>
   29304:	20800e17 	ldw	r2,56(r4)
   29308:	10003e26 	beq	r2,zero,29404 <__swbuf_r+0x128>
   2930c:	80800617 	ldw	r2,24(r16)
   29310:	80c0030b 	ldhu	r3,12(r16)
   29314:	80800215 	stw	r2,8(r16)
   29318:	1880020c 	andi	r2,r3,8
   2931c:	10001f26 	beq	r2,zero,2939c <__swbuf_r+0xc0>
   29320:	80800417 	ldw	r2,16(r16)
   29324:	10001d26 	beq	r2,zero,2939c <__swbuf_r+0xc0>
   29328:	1948000c 	andi	r5,r3,8192
   2932c:	8c803fcc 	andi	r18,r17,255
   29330:	28002326 	beq	r5,zero,293c0 <__swbuf_r+0xe4>
   29334:	80c00017 	ldw	r3,0(r16)
   29338:	81000517 	ldw	r4,20(r16)
   2933c:	1885c83a 	sub	r2,r3,r2
   29340:	1100290e 	bge	r2,r4,293e8 <__swbuf_r+0x10c>
   29344:	10800044 	addi	r2,r2,1
   29348:	81400217 	ldw	r5,8(r16)
   2934c:	19000044 	addi	r4,r3,1
   29350:	81000015 	stw	r4,0(r16)
   29354:	297fffc4 	addi	r5,r5,-1
   29358:	81400215 	stw	r5,8(r16)
   2935c:	1c400005 	stb	r17,0(r3)
   29360:	80c00517 	ldw	r3,20(r16)
   29364:	18802926 	beq	r3,r2,2940c <__swbuf_r+0x130>
   29368:	8080030b 	ldhu	r2,12(r16)
   2936c:	1080004c 	andi	r2,r2,1
   29370:	10000226 	beq	r2,zero,2937c <__swbuf_r+0xa0>
   29374:	90800298 	cmpnei	r2,r18,10
   29378:	10002426 	beq	r2,zero,2940c <__swbuf_r+0x130>
   2937c:	9005883a 	mov	r2,r18
   29380:	dfc00417 	ldw	ra,16(sp)
   29384:	dcc00317 	ldw	r19,12(sp)
   29388:	dc800217 	ldw	r18,8(sp)
   2938c:	dc400117 	ldw	r17,4(sp)
   29390:	dc000017 	ldw	r16,0(sp)
   29394:	dec00504 	addi	sp,sp,20
   29398:	f800283a 	ret
   2939c:	800b883a 	mov	r5,r16
   293a0:	9809883a 	mov	r4,r19
   293a4:	00283500 	call	28350 <__swsetup_r>
   293a8:	10001c1e 	bne	r2,zero,2941c <__swbuf_r+0x140>
   293ac:	80c0030b 	ldhu	r3,12(r16)
   293b0:	80800417 	ldw	r2,16(r16)
   293b4:	8c803fcc 	andi	r18,r17,255
   293b8:	1948000c 	andi	r5,r3,8192
   293bc:	283fdd1e 	bne	r5,zero,29334 <__swbuf_r+0x58>
   293c0:	81001917 	ldw	r4,100(r16)
   293c4:	18c80014 	ori	r3,r3,8192
   293c8:	0177ffc4 	movi	r5,-8193
   293cc:	2148703a 	and	r4,r4,r5
   293d0:	80c0030d 	sth	r3,12(r16)
   293d4:	80c00017 	ldw	r3,0(r16)
   293d8:	81001915 	stw	r4,100(r16)
   293dc:	81000517 	ldw	r4,20(r16)
   293e0:	1885c83a 	sub	r2,r3,r2
   293e4:	113fd716 	blt	r2,r4,29344 <__swbuf_r+0x68>
   293e8:	800b883a 	mov	r5,r16
   293ec:	9809883a 	mov	r4,r19
   293f0:	0023b380 	call	23b38 <_fflush_r>
   293f4:	1000091e 	bne	r2,zero,2941c <__swbuf_r+0x140>
   293f8:	80c00017 	ldw	r3,0(r16)
   293fc:	00800044 	movi	r2,1
   29400:	003fd106 	br	29348 <__swbuf_r+0x6c>
   29404:	0023ecc0 	call	23ecc <__sinit>
   29408:	003fc006 	br	2930c <__swbuf_r+0x30>
   2940c:	800b883a 	mov	r5,r16
   29410:	9809883a 	mov	r4,r19
   29414:	0023b380 	call	23b38 <_fflush_r>
   29418:	103fd826 	beq	r2,zero,2937c <__swbuf_r+0xa0>
   2941c:	04bfffc4 	movi	r18,-1
   29420:	003fd606 	br	2937c <__swbuf_r+0xa0>

00029424 <__swbuf>:
   29424:	00c000f4 	movhi	r3,3
   29428:	2005883a 	mov	r2,r4
   2942c:	1908a617 	ldw	r4,8856(r3)
   29430:	280d883a 	mov	r6,r5
   29434:	100b883a 	mov	r5,r2
   29438:	00292dc1 	jmpi	292dc <__swbuf_r>

0002943c <_wcrtomb_r>:
   2943c:	defffa04 	addi	sp,sp,-24
   29440:	dc400415 	stw	r17,16(sp)
   29444:	dc000315 	stw	r16,12(sp)
   29448:	008000f4 	movhi	r2,3
   2944c:	dfc00515 	stw	ra,20(sp)
   29450:	1083f117 	ldw	r2,4036(r2)
   29454:	2023883a 	mov	r17,r4
   29458:	3821883a 	mov	r16,r7
   2945c:	28000826 	beq	r5,zero,29480 <_wcrtomb_r+0x44>
   29460:	103ee83a 	callr	r2
   29464:	10ffffd8 	cmpnei	r3,r2,-1
   29468:	18000a26 	beq	r3,zero,29494 <_wcrtomb_r+0x58>
   2946c:	dfc00517 	ldw	ra,20(sp)
   29470:	dc400417 	ldw	r17,16(sp)
   29474:	dc000317 	ldw	r16,12(sp)
   29478:	dec00604 	addi	sp,sp,24
   2947c:	f800283a 	ret
   29480:	000d883a 	mov	r6,zero
   29484:	d9400084 	addi	r5,sp,2
   29488:	103ee83a 	callr	r2
   2948c:	10ffffd8 	cmpnei	r3,r2,-1
   29490:	183ff61e 	bne	r3,zero,2946c <_wcrtomb_r+0x30>
   29494:	00802284 	movi	r2,138
   29498:	80000015 	stw	zero,0(r16)
   2949c:	88800015 	stw	r2,0(r17)
   294a0:	00bfffc4 	movi	r2,-1
   294a4:	003ff106 	br	2946c <_wcrtomb_r+0x30>

000294a8 <wcrtomb>:
   294a8:	defffa04 	addi	sp,sp,-24
   294ac:	00c000f4 	movhi	r3,3
   294b0:	dc400415 	stw	r17,16(sp)
   294b4:	dc000315 	stw	r16,12(sp)
   294b8:	1c48a617 	ldw	r17,8856(r3)
   294bc:	dfc00515 	stw	ra,20(sp)
   294c0:	00c000f4 	movhi	r3,3
   294c4:	18c3f117 	ldw	r3,4036(r3)
   294c8:	3021883a 	mov	r16,r6
   294cc:	20000c26 	beq	r4,zero,29500 <wcrtomb+0x58>
   294d0:	280d883a 	mov	r6,r5
   294d4:	800f883a 	mov	r7,r16
   294d8:	200b883a 	mov	r5,r4
   294dc:	8809883a 	mov	r4,r17
   294e0:	183ee83a 	callr	r3
   294e4:	10ffffd8 	cmpnei	r3,r2,-1
   294e8:	18000c26 	beq	r3,zero,2951c <wcrtomb+0x74>
   294ec:	dfc00517 	ldw	ra,20(sp)
   294f0:	dc400417 	ldw	r17,16(sp)
   294f4:	dc000317 	ldw	r16,12(sp)
   294f8:	dec00604 	addi	sp,sp,24
   294fc:	f800283a 	ret
   29500:	300f883a 	mov	r7,r6
   29504:	d9400084 	addi	r5,sp,2
   29508:	000d883a 	mov	r6,zero
   2950c:	8809883a 	mov	r4,r17
   29510:	183ee83a 	callr	r3
   29514:	10ffffd8 	cmpnei	r3,r2,-1
   29518:	183ff41e 	bne	r3,zero,294ec <wcrtomb+0x44>
   2951c:	00802284 	movi	r2,138
   29520:	80000015 	stw	zero,0(r16)
   29524:	88800015 	stw	r2,0(r17)
   29528:	00bfffc4 	movi	r2,-1
   2952c:	003fef06 	br	294ec <wcrtomb+0x44>

00029530 <__fixunsdfsi>:
   29530:	defffd04 	addi	sp,sp,-12
   29534:	000d883a 	mov	r6,zero
   29538:	01d07834 	movhi	r7,16864
   2953c:	dc400115 	stw	r17,4(sp)
   29540:	dc000015 	stw	r16,0(sp)
   29544:	dfc00215 	stw	ra,8(sp)
   29548:	2023883a 	mov	r17,r4
   2954c:	2821883a 	mov	r16,r5
   29550:	002b9840 	call	2b984 <__gedf2>
   29554:	1000080e 	bge	r2,zero,29578 <__fixunsdfsi+0x48>
   29558:	8809883a 	mov	r4,r17
   2955c:	800b883a 	mov	r5,r16
   29560:	00209d40 	call	209d4 <__fixdfsi>
   29564:	dfc00217 	ldw	ra,8(sp)
   29568:	dc400117 	ldw	r17,4(sp)
   2956c:	dc000017 	ldw	r16,0(sp)
   29570:	dec00304 	addi	sp,sp,12
   29574:	f800283a 	ret
   29578:	000d883a 	mov	r6,zero
   2957c:	01d07834 	movhi	r7,16864
   29580:	8809883a 	mov	r4,r17
   29584:	800b883a 	mov	r5,r16
   29588:	002c30c0 	call	2c30c <__subdf3>
   2958c:	180b883a 	mov	r5,r3
   29590:	1009883a 	mov	r4,r2
   29594:	00209d40 	call	209d4 <__fixdfsi>
   29598:	00e00034 	movhi	r3,32768
   2959c:	10c5883a 	add	r2,r2,r3
   295a0:	003ff006 	br	29564 <__fixunsdfsi+0x34>

000295a4 <__fixdfdi>:
   295a4:	defffd04 	addi	sp,sp,-12
   295a8:	000d883a 	mov	r6,zero
   295ac:	000f883a 	mov	r7,zero
   295b0:	dc400115 	stw	r17,4(sp)
   295b4:	dc000015 	stw	r16,0(sp)
   295b8:	dfc00215 	stw	ra,8(sp)
   295bc:	2023883a 	mov	r17,r4
   295c0:	2821883a 	mov	r16,r5
   295c4:	002ba740 	call	2ba74 <__ledf2>
   295c8:	10000716 	blt	r2,zero,295e8 <__fixdfdi+0x44>
   295cc:	8809883a 	mov	r4,r17
   295d0:	800b883a 	mov	r5,r16
   295d4:	dfc00217 	ldw	ra,8(sp)
   295d8:	dc400117 	ldw	r17,4(sp)
   295dc:	dc000017 	ldw	r16,0(sp)
   295e0:	dec00304 	addi	sp,sp,12
   295e4:	00296181 	jmpi	29618 <__fixunsdfdi>
   295e8:	8809883a 	mov	r4,r17
   295ec:	8160003c 	xorhi	r5,r16,32768
   295f0:	00296180 	call	29618 <__fixunsdfdi>
   295f4:	1008c03a 	cmpne	r4,r2,zero
   295f8:	00c7c83a 	sub	r3,zero,r3
   295fc:	0085c83a 	sub	r2,zero,r2
   29600:	1907c83a 	sub	r3,r3,r4
   29604:	dfc00217 	ldw	ra,8(sp)
   29608:	dc400117 	ldw	r17,4(sp)
   2960c:	dc000017 	ldw	r16,0(sp)
   29610:	dec00304 	addi	sp,sp,12
   29614:	f800283a 	ret

00029618 <__fixunsdfdi>:
   29618:	defffc04 	addi	sp,sp,-16
   2961c:	000d883a 	mov	r6,zero
   29620:	01cf7c34 	movhi	r7,15856
   29624:	dfc00315 	stw	ra,12(sp)
   29628:	dc800215 	stw	r18,8(sp)
   2962c:	dc400115 	stw	r17,4(sp)
   29630:	dc000015 	stw	r16,0(sp)
   29634:	2025883a 	mov	r18,r4
   29638:	2823883a 	mov	r17,r5
   2963c:	002bb640 	call	2bb64 <__muldf3>
   29640:	180b883a 	mov	r5,r3
   29644:	1009883a 	mov	r4,r2
   29648:	00295300 	call	29530 <__fixunsdfsi>
   2964c:	1009883a 	mov	r4,r2
   29650:	1021883a 	mov	r16,r2
   29654:	002cd500 	call	2cd50 <__floatunsidf>
   29658:	000d883a 	mov	r6,zero
   2965c:	01d07c34 	movhi	r7,16880
   29660:	1009883a 	mov	r4,r2
   29664:	180b883a 	mov	r5,r3
   29668:	002bb640 	call	2bb64 <__muldf3>
   2966c:	100d883a 	mov	r6,r2
   29670:	180f883a 	mov	r7,r3
   29674:	9009883a 	mov	r4,r18
   29678:	880b883a 	mov	r5,r17
   2967c:	002c30c0 	call	2c30c <__subdf3>
   29680:	180b883a 	mov	r5,r3
   29684:	1009883a 	mov	r4,r2
   29688:	00295300 	call	29530 <__fixunsdfsi>
   2968c:	8007883a 	mov	r3,r16
   29690:	dfc00317 	ldw	ra,12(sp)
   29694:	dc800217 	ldw	r18,8(sp)
   29698:	dc400117 	ldw	r17,4(sp)
   2969c:	dc000017 	ldw	r16,0(sp)
   296a0:	dec00404 	addi	sp,sp,16
   296a4:	f800283a 	ret

000296a8 <__floatdidf>:
   296a8:	defffc04 	addi	sp,sp,-16
   296ac:	dc800215 	stw	r18,8(sp)
   296b0:	2025883a 	mov	r18,r4
   296b4:	2809883a 	mov	r4,r5
   296b8:	dfc00315 	stw	ra,12(sp)
   296bc:	dc400115 	stw	r17,4(sp)
   296c0:	dc000015 	stw	r16,0(sp)
   296c4:	002cc940 	call	2cc94 <__floatsidf>
   296c8:	000d883a 	mov	r6,zero
   296cc:	01d07c34 	movhi	r7,16880
   296d0:	180b883a 	mov	r5,r3
   296d4:	1009883a 	mov	r4,r2
   296d8:	002bb640 	call	2bb64 <__muldf3>
   296dc:	9009883a 	mov	r4,r18
   296e0:	1023883a 	mov	r17,r2
   296e4:	1821883a 	mov	r16,r3
   296e8:	002cd500 	call	2cd50 <__floatunsidf>
   296ec:	880d883a 	mov	r6,r17
   296f0:	800f883a 	mov	r7,r16
   296f4:	1009883a 	mov	r4,r2
   296f8:	180b883a 	mov	r5,r3
   296fc:	002a6580 	call	2a658 <__adddf3>
   29700:	dfc00317 	ldw	ra,12(sp)
   29704:	dc800217 	ldw	r18,8(sp)
   29708:	dc400117 	ldw	r17,4(sp)
   2970c:	dc000017 	ldw	r16,0(sp)
   29710:	dec00404 	addi	sp,sp,16
   29714:	f800283a 	ret

00029718 <__udivdi3>:
   29718:	defff504 	addi	sp,sp,-44
   2971c:	dd000515 	stw	r20,20(sp)
   29720:	dc800315 	stw	r18,12(sp)
   29724:	dfc00a15 	stw	ra,40(sp)
   29728:	df000915 	stw	fp,36(sp)
   2972c:	ddc00815 	stw	r23,32(sp)
   29730:	dd800715 	stw	r22,28(sp)
   29734:	dd400615 	stw	r21,24(sp)
   29738:	dcc00415 	stw	r19,16(sp)
   2973c:	dc400215 	stw	r17,8(sp)
   29740:	dc000115 	stw	r16,4(sp)
   29744:	2029883a 	mov	r20,r4
   29748:	2825883a 	mov	r18,r5
   2974c:	3800461e 	bne	r7,zero,29868 <__udivdi3+0x150>
   29750:	3823883a 	mov	r17,r7
   29754:	3021883a 	mov	r16,r6
   29758:	2027883a 	mov	r19,r4
   2975c:	2980622e 	bgeu	r5,r6,298e8 <__udivdi3+0x1d0>
   29760:	00bfffd4 	movui	r2,65535
   29764:	282b883a 	mov	r21,r5
   29768:	1180aa2e 	bgeu	r2,r6,29a14 <__udivdi3+0x2fc>
   2976c:	00804034 	movhi	r2,256
   29770:	30815936 	bltu	r6,r2,29cd8 <__udivdi3+0x5c0>
   29774:	3006d63a 	srli	r3,r6,24
   29778:	04400604 	movi	r17,24
   2977c:	008000f4 	movhi	r2,3
   29780:	1885883a 	add	r2,r3,r2
   29784:	11015403 	ldbu	r4,1360(r2)
   29788:	00800804 	movi	r2,32
   2978c:	2463883a 	add	r17,r4,r17
   29790:	1449c83a 	sub	r4,r2,r17
   29794:	14400526 	beq	r2,r17,297ac <__udivdi3+0x94>
   29798:	9106983a 	sll	r3,r18,r4
   2979c:	a462d83a 	srl	r17,r20,r17
   297a0:	3120983a 	sll	r16,r6,r4
   297a4:	a126983a 	sll	r19,r20,r4
   297a8:	88eab03a 	or	r21,r17,r3
   297ac:	802cd43a 	srli	r22,r16,16
   297b0:	a809883a 	mov	r4,r21
   297b4:	853fffcc 	andi	r20,r16,65535
   297b8:	b00b883a 	mov	r5,r22
   297bc:	002a4500 	call	2a450 <__umodsi3>
   297c0:	a809883a 	mov	r4,r21
   297c4:	b00b883a 	mov	r5,r22
   297c8:	1025883a 	mov	r18,r2
   297cc:	002a3ec0 	call	2a3ec <__udivsi3>
   297d0:	a009883a 	mov	r4,r20
   297d4:	100b883a 	mov	r5,r2
   297d8:	102b883a 	mov	r21,r2
   297dc:	002a4ac0 	call	2a4ac <__mulsi3>
   297e0:	9024943a 	slli	r18,r18,16
   297e4:	9808d43a 	srli	r4,r19,16
   297e8:	9108b03a 	or	r4,r18,r4
   297ec:	2080052e 	bgeu	r4,r2,29804 <__udivdi3+0xec>
   297f0:	2409883a 	add	r4,r4,r16
   297f4:	a8ffffc4 	addi	r3,r21,-1
   297f8:	24000136 	bltu	r4,r16,29800 <__udivdi3+0xe8>
   297fc:	20814736 	bltu	r4,r2,29d1c <__udivdi3+0x604>
   29800:	182b883a 	mov	r21,r3
   29804:	20a3c83a 	sub	r17,r4,r2
   29808:	8809883a 	mov	r4,r17
   2980c:	b00b883a 	mov	r5,r22
   29810:	002a4500 	call	2a450 <__umodsi3>
   29814:	8809883a 	mov	r4,r17
   29818:	1023883a 	mov	r17,r2
   2981c:	b00b883a 	mov	r5,r22
   29820:	8822943a 	slli	r17,r17,16
   29824:	002a3ec0 	call	2a3ec <__udivsi3>
   29828:	100b883a 	mov	r5,r2
   2982c:	a009883a 	mov	r4,r20
   29830:	9cffffcc 	andi	r19,r19,65535
   29834:	1025883a 	mov	r18,r2
   29838:	8ce6b03a 	or	r19,r17,r19
   2983c:	002a4ac0 	call	2a4ac <__mulsi3>
   29840:	9880052e 	bgeu	r19,r2,29858 <__udivdi3+0x140>
   29844:	84e7883a 	add	r19,r16,r19
   29848:	90ffffc4 	addi	r3,r18,-1
   2984c:	9c000136 	bltu	r19,r16,29854 <__udivdi3+0x13c>
   29850:	98813036 	bltu	r19,r2,29d14 <__udivdi3+0x5fc>
   29854:	1825883a 	mov	r18,r3
   29858:	a80c943a 	slli	r6,r21,16
   2985c:	0007883a 	mov	r3,zero
   29860:	3484b03a 	or	r2,r6,r18
   29864:	00000306 	br	29874 <__udivdi3+0x15c>
   29868:	29c00e2e 	bgeu	r5,r7,298a4 <__udivdi3+0x18c>
   2986c:	0007883a 	mov	r3,zero
   29870:	0005883a 	mov	r2,zero
   29874:	dfc00a17 	ldw	ra,40(sp)
   29878:	df000917 	ldw	fp,36(sp)
   2987c:	ddc00817 	ldw	r23,32(sp)
   29880:	dd800717 	ldw	r22,28(sp)
   29884:	dd400617 	ldw	r21,24(sp)
   29888:	dd000517 	ldw	r20,20(sp)
   2988c:	dcc00417 	ldw	r19,16(sp)
   29890:	dc800317 	ldw	r18,12(sp)
   29894:	dc400217 	ldw	r17,8(sp)
   29898:	dc000117 	ldw	r16,4(sp)
   2989c:	dec00b04 	addi	sp,sp,44
   298a0:	f800283a 	ret
   298a4:	00bfffd4 	movui	r2,65535
   298a8:	11c05f2e 	bgeu	r2,r7,29a28 <__udivdi3+0x310>
   298ac:	00804034 	movhi	r2,256
   298b0:	3880fb36 	bltu	r7,r2,29ca0 <__udivdi3+0x588>
   298b4:	3806d63a 	srli	r3,r7,24
   298b8:	01000604 	movi	r4,24
   298bc:	008000f4 	movhi	r2,3
   298c0:	1885883a 	add	r2,r3,r2
   298c4:	10c15403 	ldbu	r3,1360(r2)
   298c8:	00800804 	movi	r2,32
   298cc:	1907883a 	add	r3,r3,r4
   298d0:	10e3c83a 	sub	r17,r2,r3
   298d4:	10c0901e 	bne	r2,r3,29b18 <__udivdi3+0x400>
   298d8:	3c80f636 	bltu	r7,r18,29cb4 <__udivdi3+0x59c>
   298dc:	a185403a 	cmpgeu	r2,r20,r6
   298e0:	0007883a 	mov	r3,zero
   298e4:	003fe306 	br	29874 <__udivdi3+0x15c>
   298e8:	3000041e 	bne	r6,zero,298fc <__udivdi3+0x1e4>
   298ec:	000b883a 	mov	r5,zero
   298f0:	01000044 	movi	r4,1
   298f4:	002a3ec0 	call	2a3ec <__udivsi3>
   298f8:	1021883a 	mov	r16,r2
   298fc:	00bfffd4 	movui	r2,65535
   29900:	14003f2e 	bgeu	r2,r16,29a00 <__udivdi3+0x2e8>
   29904:	00804034 	movhi	r2,256
   29908:	8080f036 	bltu	r16,r2,29ccc <__udivdi3+0x5b4>
   2990c:	8006d63a 	srli	r3,r16,24
   29910:	04400604 	movi	r17,24
   29914:	008000f4 	movhi	r2,3
   29918:	1885883a 	add	r2,r3,r2
   2991c:	10815403 	ldbu	r2,1360(r2)
   29920:	00c00804 	movi	r3,32
   29924:	1463883a 	add	r17,r2,r17
   29928:	1c45c83a 	sub	r2,r3,r17
   2992c:	1c40431e 	bne	r3,r17,29a3c <__udivdi3+0x324>
   29930:	802cd43a 	srli	r22,r16,16
   29934:	9423c83a 	sub	r17,r18,r16
   29938:	853fffcc 	andi	r20,r16,65535
   2993c:	00c00044 	movi	r3,1
   29940:	b00b883a 	mov	r5,r22
   29944:	8809883a 	mov	r4,r17
   29948:	d8c00015 	stw	r3,0(sp)
   2994c:	002a4500 	call	2a450 <__umodsi3>
   29950:	b00b883a 	mov	r5,r22
   29954:	8809883a 	mov	r4,r17
   29958:	1025883a 	mov	r18,r2
   2995c:	002a3ec0 	call	2a3ec <__udivsi3>
   29960:	1009883a 	mov	r4,r2
   29964:	a00b883a 	mov	r5,r20
   29968:	102b883a 	mov	r21,r2
   2996c:	002a4ac0 	call	2a4ac <__mulsi3>
   29970:	9024943a 	slli	r18,r18,16
   29974:	9808d43a 	srli	r4,r19,16
   29978:	d8c00017 	ldw	r3,0(sp)
   2997c:	9108b03a 	or	r4,r18,r4
   29980:	2080052e 	bgeu	r4,r2,29998 <__udivdi3+0x280>
   29984:	2409883a 	add	r4,r4,r16
   29988:	a97fffc4 	addi	r5,r21,-1
   2998c:	24000136 	bltu	r4,r16,29994 <__udivdi3+0x27c>
   29990:	2080e536 	bltu	r4,r2,29d28 <__udivdi3+0x610>
   29994:	282b883a 	mov	r21,r5
   29998:	20a3c83a 	sub	r17,r4,r2
   2999c:	8809883a 	mov	r4,r17
   299a0:	b00b883a 	mov	r5,r22
   299a4:	d8c00015 	stw	r3,0(sp)
   299a8:	002a4500 	call	2a450 <__umodsi3>
   299ac:	8809883a 	mov	r4,r17
   299b0:	1023883a 	mov	r17,r2
   299b4:	b00b883a 	mov	r5,r22
   299b8:	8822943a 	slli	r17,r17,16
   299bc:	002a3ec0 	call	2a3ec <__udivsi3>
   299c0:	a00b883a 	mov	r5,r20
   299c4:	1009883a 	mov	r4,r2
   299c8:	9cffffcc 	andi	r19,r19,65535
   299cc:	1025883a 	mov	r18,r2
   299d0:	8ce6b03a 	or	r19,r17,r19
   299d4:	002a4ac0 	call	2a4ac <__mulsi3>
   299d8:	d8c00017 	ldw	r3,0(sp)
   299dc:	9880052e 	bgeu	r19,r2,299f4 <__udivdi3+0x2dc>
   299e0:	84e7883a 	add	r19,r16,r19
   299e4:	913fffc4 	addi	r4,r18,-1
   299e8:	9c000136 	bltu	r19,r16,299f0 <__udivdi3+0x2d8>
   299ec:	9880c736 	bltu	r19,r2,29d0c <__udivdi3+0x5f4>
   299f0:	2025883a 	mov	r18,r4
   299f4:	a80c943a 	slli	r6,r21,16
   299f8:	3484b03a 	or	r2,r6,r18
   299fc:	003f9d06 	br	29874 <__udivdi3+0x15c>
   29a00:	80804030 	cmpltui	r2,r16,256
   29a04:	1000b71e 	bne	r2,zero,29ce4 <__udivdi3+0x5cc>
   29a08:	8006d23a 	srli	r3,r16,8
   29a0c:	04400204 	movi	r17,8
   29a10:	003fc006 	br	29914 <__udivdi3+0x1fc>
   29a14:	30804030 	cmpltui	r2,r6,256
   29a18:	1000a41e 	bne	r2,zero,29cac <__udivdi3+0x594>
   29a1c:	3006d23a 	srli	r3,r6,8
   29a20:	04400204 	movi	r17,8
   29a24:	003f5506 	br	2977c <__udivdi3+0x64>
   29a28:	38804030 	cmpltui	r2,r7,256
   29a2c:	1000a41e 	bne	r2,zero,29cc0 <__udivdi3+0x5a8>
   29a30:	3806d23a 	srli	r3,r7,8
   29a34:	01000204 	movi	r4,8
   29a38:	003fa006 	br	298bc <__udivdi3+0x1a4>
   29a3c:	80a0983a 	sll	r16,r16,r2
   29a40:	946ed83a 	srl	r23,r18,r17
   29a44:	9086983a 	sll	r3,r18,r2
   29a48:	802cd43a 	srli	r22,r16,16
   29a4c:	a462d83a 	srl	r17,r20,r17
   29a50:	b809883a 	mov	r4,r23
   29a54:	b00b883a 	mov	r5,r22
   29a58:	88eab03a 	or	r21,r17,r3
   29a5c:	a0a6983a 	sll	r19,r20,r2
   29a60:	002a4500 	call	2a450 <__umodsi3>
   29a64:	b809883a 	mov	r4,r23
   29a68:	b00b883a 	mov	r5,r22
   29a6c:	1025883a 	mov	r18,r2
   29a70:	853fffcc 	andi	r20,r16,65535
   29a74:	002a3ec0 	call	2a3ec <__udivsi3>
   29a78:	a009883a 	mov	r4,r20
   29a7c:	100b883a 	mov	r5,r2
   29a80:	102f883a 	mov	r23,r2
   29a84:	002a4ac0 	call	2a4ac <__mulsi3>
   29a88:	9024943a 	slli	r18,r18,16
   29a8c:	a808d43a 	srli	r4,r21,16
   29a90:	9108b03a 	or	r4,r18,r4
   29a94:	2080062e 	bgeu	r4,r2,29ab0 <__udivdi3+0x398>
   29a98:	2409883a 	add	r4,r4,r16
   29a9c:	b8ffffc4 	addi	r3,r23,-1
   29aa0:	24009836 	bltu	r4,r16,29d04 <__udivdi3+0x5ec>
   29aa4:	2080972e 	bgeu	r4,r2,29d04 <__udivdi3+0x5ec>
   29aa8:	bdffff84 	addi	r23,r23,-2
   29aac:	2409883a 	add	r4,r4,r16
   29ab0:	20a3c83a 	sub	r17,r4,r2
   29ab4:	8809883a 	mov	r4,r17
   29ab8:	b00b883a 	mov	r5,r22
   29abc:	002a4500 	call	2a450 <__umodsi3>
   29ac0:	1025883a 	mov	r18,r2
   29ac4:	8809883a 	mov	r4,r17
   29ac8:	b00b883a 	mov	r5,r22
   29acc:	9024943a 	slli	r18,r18,16
   29ad0:	002a3ec0 	call	2a3ec <__udivsi3>
   29ad4:	100b883a 	mov	r5,r2
   29ad8:	a009883a 	mov	r4,r20
   29adc:	ac7fffcc 	andi	r17,r21,65535
   29ae0:	1039883a 	mov	fp,r2
   29ae4:	9462b03a 	or	r17,r18,r17
   29ae8:	002a4ac0 	call	2a4ac <__mulsi3>
   29aec:	8880062e 	bgeu	r17,r2,29b08 <__udivdi3+0x3f0>
   29af0:	8c23883a 	add	r17,r17,r16
   29af4:	e0ffffc4 	addi	r3,fp,-1
   29af8:	8c007e36 	bltu	r17,r16,29cf4 <__udivdi3+0x5dc>
   29afc:	88807d2e 	bgeu	r17,r2,29cf4 <__udivdi3+0x5dc>
   29b00:	e73fff84 	addi	fp,fp,-2
   29b04:	8c23883a 	add	r17,r17,r16
   29b08:	b806943a 	slli	r3,r23,16
   29b0c:	88a3c83a 	sub	r17,r17,r2
   29b10:	1f06b03a 	or	r3,r3,fp
   29b14:	003f8a06 	br	29940 <__udivdi3+0x228>
   29b18:	30e6d83a 	srl	r19,r6,r3
   29b1c:	3c4e983a 	sll	r7,r7,r17
   29b20:	90e0d83a 	srl	r16,r18,r3
   29b24:	a0c4d83a 	srl	r2,r20,r3
   29b28:	99e6b03a 	or	r19,r19,r7
   29b2c:	9446983a 	sll	r3,r18,r17
   29b30:	9838d43a 	srli	fp,r19,16
   29b34:	8009883a 	mov	r4,r16
   29b38:	10eab03a 	or	r21,r2,r3
   29b3c:	e00b883a 	mov	r5,fp
   29b40:	346c983a 	sll	r22,r6,r17
   29b44:	dd400015 	stw	r21,0(sp)
   29b48:	002a4500 	call	2a450 <__umodsi3>
   29b4c:	8009883a 	mov	r4,r16
   29b50:	e00b883a 	mov	r5,fp
   29b54:	102f883a 	mov	r23,r2
   29b58:	9cbfffcc 	andi	r18,r19,65535
   29b5c:	002a3ec0 	call	2a3ec <__udivsi3>
   29b60:	9009883a 	mov	r4,r18
   29b64:	100b883a 	mov	r5,r2
   29b68:	1021883a 	mov	r16,r2
   29b6c:	002a4ac0 	call	2a4ac <__mulsi3>
   29b70:	b82e943a 	slli	r23,r23,16
   29b74:	a808d43a 	srli	r4,r21,16
   29b78:	b908b03a 	or	r4,r23,r4
   29b7c:	2080062e 	bgeu	r4,r2,29b98 <__udivdi3+0x480>
   29b80:	24c9883a 	add	r4,r4,r19
   29b84:	817fffc4 	addi	r5,r16,-1
   29b88:	24c05c36 	bltu	r4,r19,29cfc <__udivdi3+0x5e4>
   29b8c:	20805b2e 	bgeu	r4,r2,29cfc <__udivdi3+0x5e4>
   29b90:	843fff84 	addi	r16,r16,-2
   29b94:	24c9883a 	add	r4,r4,r19
   29b98:	20abc83a 	sub	r21,r4,r2
   29b9c:	a809883a 	mov	r4,r21
   29ba0:	e00b883a 	mov	r5,fp
   29ba4:	002a4500 	call	2a450 <__umodsi3>
   29ba8:	a809883a 	mov	r4,r21
   29bac:	e00b883a 	mov	r5,fp
   29bb0:	102b883a 	mov	r21,r2
   29bb4:	002a3ec0 	call	2a3ec <__udivsi3>
   29bb8:	9009883a 	mov	r4,r18
   29bbc:	100b883a 	mov	r5,r2
   29bc0:	102f883a 	mov	r23,r2
   29bc4:	002a4ac0 	call	2a4ac <__mulsi3>
   29bc8:	d8c00017 	ldw	r3,0(sp)
   29bcc:	a82a943a 	slli	r21,r21,16
   29bd0:	1cbfffcc 	andi	r18,r3,65535
   29bd4:	aca4b03a 	or	r18,r21,r18
   29bd8:	9080062e 	bgeu	r18,r2,29bf4 <__udivdi3+0x4dc>
   29bdc:	94e5883a 	add	r18,r18,r19
   29be0:	b8ffffc4 	addi	r3,r23,-1
   29be4:	94c04136 	bltu	r18,r19,29cec <__udivdi3+0x5d4>
   29be8:	9080402e 	bgeu	r18,r2,29cec <__udivdi3+0x5d4>
   29bec:	bdffff84 	addi	r23,r23,-2
   29bf0:	94e5883a 	add	r18,r18,r19
   29bf4:	8020943a 	slli	r16,r16,16
   29bf8:	bd7fffcc 	andi	r21,r23,65535
   29bfc:	b73fffcc 	andi	fp,r22,65535
   29c00:	85e0b03a 	or	r16,r16,r23
   29c04:	8026d43a 	srli	r19,r16,16
   29c08:	a809883a 	mov	r4,r21
   29c0c:	e00b883a 	mov	r5,fp
   29c10:	b02cd43a 	srli	r22,r22,16
   29c14:	90a5c83a 	sub	r18,r18,r2
   29c18:	002a4ac0 	call	2a4ac <__mulsi3>
   29c1c:	9809883a 	mov	r4,r19
   29c20:	e00b883a 	mov	r5,fp
   29c24:	102f883a 	mov	r23,r2
   29c28:	002a4ac0 	call	2a4ac <__mulsi3>
   29c2c:	9809883a 	mov	r4,r19
   29c30:	b00b883a 	mov	r5,r22
   29c34:	1027883a 	mov	r19,r2
   29c38:	002a4ac0 	call	2a4ac <__mulsi3>
   29c3c:	a809883a 	mov	r4,r21
   29c40:	b00b883a 	mov	r5,r22
   29c44:	102b883a 	mov	r21,r2
   29c48:	002a4ac0 	call	2a4ac <__mulsi3>
   29c4c:	b806d43a 	srli	r3,r23,16
   29c50:	14c5883a 	add	r2,r2,r19
   29c54:	1887883a 	add	r3,r3,r2
   29c58:	1cc0022e 	bgeu	r3,r19,29c64 <__udivdi3+0x54c>
   29c5c:	00800074 	movhi	r2,1
   29c60:	a8ab883a 	add	r21,r21,r2
   29c64:	1804d43a 	srli	r2,r3,16
   29c68:	156b883a 	add	r21,r2,r21
   29c6c:	95400936 	bltu	r18,r21,29c94 <__udivdi3+0x57c>
   29c70:	95400326 	beq	r18,r21,29c80 <__udivdi3+0x568>
   29c74:	8005883a 	mov	r2,r16
   29c78:	0007883a 	mov	r3,zero
   29c7c:	003efd06 	br	29874 <__udivdi3+0x15c>
   29c80:	1806943a 	slli	r3,r3,16
   29c84:	a44c983a 	sll	r6,r20,r17
   29c88:	bdffffcc 	andi	r23,r23,65535
   29c8c:	1dc7883a 	add	r3,r3,r23
   29c90:	30fff82e 	bgeu	r6,r3,29c74 <__udivdi3+0x55c>
   29c94:	80bfffc4 	addi	r2,r16,-1
   29c98:	0007883a 	mov	r3,zero
   29c9c:	003ef506 	br	29874 <__udivdi3+0x15c>
   29ca0:	3806d43a 	srli	r3,r7,16
   29ca4:	01000404 	movi	r4,16
   29ca8:	003f0406 	br	298bc <__udivdi3+0x1a4>
   29cac:	3007883a 	mov	r3,r6
   29cb0:	003eb206 	br	2977c <__udivdi3+0x64>
   29cb4:	0007883a 	mov	r3,zero
   29cb8:	00800044 	movi	r2,1
   29cbc:	003eed06 	br	29874 <__udivdi3+0x15c>
   29cc0:	3807883a 	mov	r3,r7
   29cc4:	0009883a 	mov	r4,zero
   29cc8:	003efc06 	br	298bc <__udivdi3+0x1a4>
   29ccc:	8006d43a 	srli	r3,r16,16
   29cd0:	04400404 	movi	r17,16
   29cd4:	003f0f06 	br	29914 <__udivdi3+0x1fc>
   29cd8:	3006d43a 	srli	r3,r6,16
   29cdc:	04400404 	movi	r17,16
   29ce0:	003ea606 	br	2977c <__udivdi3+0x64>
   29ce4:	8007883a 	mov	r3,r16
   29ce8:	003f0a06 	br	29914 <__udivdi3+0x1fc>
   29cec:	182f883a 	mov	r23,r3
   29cf0:	003fc006 	br	29bf4 <__udivdi3+0x4dc>
   29cf4:	1839883a 	mov	fp,r3
   29cf8:	003f8306 	br	29b08 <__udivdi3+0x3f0>
   29cfc:	2821883a 	mov	r16,r5
   29d00:	003fa506 	br	29b98 <__udivdi3+0x480>
   29d04:	182f883a 	mov	r23,r3
   29d08:	003f6906 	br	29ab0 <__udivdi3+0x398>
   29d0c:	94bfff84 	addi	r18,r18,-2
   29d10:	003f3806 	br	299f4 <__udivdi3+0x2dc>
   29d14:	94bfff84 	addi	r18,r18,-2
   29d18:	003ecf06 	br	29858 <__udivdi3+0x140>
   29d1c:	ad7fff84 	addi	r21,r21,-2
   29d20:	2409883a 	add	r4,r4,r16
   29d24:	003eb706 	br	29804 <__udivdi3+0xec>
   29d28:	ad7fff84 	addi	r21,r21,-2
   29d2c:	2409883a 	add	r4,r4,r16
   29d30:	003f1906 	br	29998 <__udivdi3+0x280>

00029d34 <__umoddi3>:
   29d34:	defff304 	addi	sp,sp,-52
   29d38:	dc400415 	stw	r17,16(sp)
   29d3c:	dc000315 	stw	r16,12(sp)
   29d40:	dfc00c15 	stw	ra,48(sp)
   29d44:	df000b15 	stw	fp,44(sp)
   29d48:	ddc00a15 	stw	r23,40(sp)
   29d4c:	dd800915 	stw	r22,36(sp)
   29d50:	dd400815 	stw	r21,32(sp)
   29d54:	dd000715 	stw	r20,28(sp)
   29d58:	dcc00615 	stw	r19,24(sp)
   29d5c:	dc800515 	stw	r18,20(sp)
   29d60:	2823883a 	mov	r17,r5
   29d64:	2021883a 	mov	r16,r4
   29d68:	38003b1e 	bne	r7,zero,29e58 <__umoddi3+0x124>
   29d6c:	3825883a 	mov	r18,r7
   29d70:	3029883a 	mov	r20,r6
   29d74:	2027883a 	mov	r19,r4
   29d78:	29805b2e 	bgeu	r5,r6,29ee8 <__umoddi3+0x1b4>
   29d7c:	00bfffd4 	movui	r2,65535
   29d80:	282d883a 	mov	r22,r5
   29d84:	11809a2e 	bgeu	r2,r6,29ff0 <__umoddi3+0x2bc>
   29d88:	00804034 	movhi	r2,256
   29d8c:	30814436 	bltu	r6,r2,2a2a0 <__umoddi3+0x56c>
   29d90:	3006d63a 	srli	r3,r6,24
   29d94:	04800604 	movi	r18,24
   29d98:	008000f4 	movhi	r2,3
   29d9c:	1885883a 	add	r2,r3,r2
   29da0:	11015403 	ldbu	r4,1360(r2)
   29da4:	00800804 	movi	r2,32
   29da8:	2489883a 	add	r4,r4,r18
   29dac:	1125c83a 	sub	r18,r2,r4
   29db0:	11000526 	beq	r2,r4,29dc8 <__umoddi3+0x94>
   29db4:	8ca2983a 	sll	r17,r17,r18
   29db8:	8108d83a 	srl	r4,r16,r4
   29dbc:	34a8983a 	sll	r20,r6,r18
   29dc0:	84a6983a 	sll	r19,r16,r18
   29dc4:	246cb03a 	or	r22,r4,r17
   29dc8:	a02ed43a 	srli	r23,r20,16
   29dcc:	b009883a 	mov	r4,r22
   29dd0:	a57fffcc 	andi	r21,r20,65535
   29dd4:	b80b883a 	mov	r5,r23
   29dd8:	002a4500 	call	2a450 <__umodsi3>
   29ddc:	b80b883a 	mov	r5,r23
   29de0:	b009883a 	mov	r4,r22
   29de4:	1023883a 	mov	r17,r2
   29de8:	002a3ec0 	call	2a3ec <__udivsi3>
   29dec:	a809883a 	mov	r4,r21
   29df0:	100b883a 	mov	r5,r2
   29df4:	002a4ac0 	call	2a4ac <__mulsi3>
   29df8:	8822943a 	slli	r17,r17,16
   29dfc:	9808d43a 	srli	r4,r19,16
   29e00:	8908b03a 	or	r4,r17,r4
   29e04:	2080042e 	bgeu	r4,r2,29e18 <__umoddi3+0xe4>
   29e08:	2509883a 	add	r4,r4,r20
   29e0c:	25000236 	bltu	r4,r20,29e18 <__umoddi3+0xe4>
   29e10:	2080012e 	bgeu	r4,r2,29e18 <__umoddi3+0xe4>
   29e14:	2509883a 	add	r4,r4,r20
   29e18:	20a1c83a 	sub	r16,r4,r2
   29e1c:	b80b883a 	mov	r5,r23
   29e20:	8009883a 	mov	r4,r16
   29e24:	002a4500 	call	2a450 <__umodsi3>
   29e28:	b80b883a 	mov	r5,r23
   29e2c:	8009883a 	mov	r4,r16
   29e30:	1023883a 	mov	r17,r2
   29e34:	002a3ec0 	call	2a3ec <__udivsi3>
   29e38:	8822943a 	slli	r17,r17,16
   29e3c:	100b883a 	mov	r5,r2
   29e40:	a809883a 	mov	r4,r21
   29e44:	002a4ac0 	call	2a4ac <__mulsi3>
   29e48:	98ffffcc 	andi	r3,r19,65535
   29e4c:	88c6b03a 	or	r3,r17,r3
   29e50:	18805e2e 	bgeu	r3,r2,29fcc <__umoddi3+0x298>
   29e54:	00005906 	br	29fbc <__umoddi3+0x288>
   29e58:	2005883a 	mov	r2,r4
   29e5c:	29c00d2e 	bgeu	r5,r7,29e94 <__umoddi3+0x160>
   29e60:	2807883a 	mov	r3,r5
   29e64:	dfc00c17 	ldw	ra,48(sp)
   29e68:	df000b17 	ldw	fp,44(sp)
   29e6c:	ddc00a17 	ldw	r23,40(sp)
   29e70:	dd800917 	ldw	r22,36(sp)
   29e74:	dd400817 	ldw	r21,32(sp)
   29e78:	dd000717 	ldw	r20,28(sp)
   29e7c:	dcc00617 	ldw	r19,24(sp)
   29e80:	dc800517 	ldw	r18,20(sp)
   29e84:	dc400417 	ldw	r17,16(sp)
   29e88:	dc000317 	ldw	r16,12(sp)
   29e8c:	dec00d04 	addi	sp,sp,52
   29e90:	f800283a 	ret
   29e94:	013fffd4 	movui	r4,65535
   29e98:	2807883a 	mov	r3,r5
   29e9c:	21c0592e 	bgeu	r4,r7,2a004 <__umoddi3+0x2d0>
   29ea0:	01004034 	movhi	r4,256
   29ea4:	39010336 	bltu	r7,r4,2a2b4 <__umoddi3+0x580>
   29ea8:	3808d63a 	srli	r4,r7,24
   29eac:	02000604 	movi	r8,24
   29eb0:	014000f4 	movhi	r5,3
   29eb4:	214b883a 	add	r5,r4,r5
   29eb8:	2d015403 	ldbu	r20,1360(r5)
   29ebc:	01000804 	movi	r4,32
   29ec0:	a229883a 	add	r20,r20,r8
   29ec4:	252bc83a 	sub	r21,r4,r20
   29ec8:	2500531e 	bne	r4,r20,2a018 <__umoddi3+0x2e4>
   29ecc:	3c400136 	bltu	r7,r17,29ed4 <__umoddi3+0x1a0>
   29ed0:	81bfe436 	bltu	r16,r6,29e64 <__umoddi3+0x130>
   29ed4:	8185c83a 	sub	r2,r16,r6
   29ed8:	89cfc83a 	sub	r7,r17,r7
   29edc:	8087803a 	cmpltu	r3,r16,r2
   29ee0:	38c7c83a 	sub	r3,r7,r3
   29ee4:	003fdf06 	br	29e64 <__umoddi3+0x130>
   29ee8:	3000041e 	bne	r6,zero,29efc <__umoddi3+0x1c8>
   29eec:	000b883a 	mov	r5,zero
   29ef0:	01000044 	movi	r4,1
   29ef4:	002a3ec0 	call	2a3ec <__udivsi3>
   29ef8:	1029883a 	mov	r20,r2
   29efc:	00bfffd4 	movui	r2,65535
   29f00:	1500362e 	bgeu	r2,r20,29fdc <__umoddi3+0x2a8>
   29f04:	00804034 	movhi	r2,256
   29f08:	a080ed36 	bltu	r20,r2,2a2c0 <__umoddi3+0x58c>
   29f0c:	a006d63a 	srli	r3,r20,24
   29f10:	04800604 	movi	r18,24
   29f14:	008000f4 	movhi	r2,3
   29f18:	1885883a 	add	r2,r3,r2
   29f1c:	15815403 	ldbu	r22,1360(r2)
   29f20:	00800804 	movi	r2,32
   29f24:	b4ad883a 	add	r22,r22,r18
   29f28:	15a5c83a 	sub	r18,r2,r22
   29f2c:	1580a51e 	bne	r2,r22,2a1c4 <__umoddi3+0x490>
   29f30:	a02ed43a 	srli	r23,r20,16
   29f34:	8d23c83a 	sub	r17,r17,r20
   29f38:	a57fffcc 	andi	r21,r20,65535
   29f3c:	8809883a 	mov	r4,r17
   29f40:	b80b883a 	mov	r5,r23
   29f44:	002a4500 	call	2a450 <__umodsi3>
   29f48:	8809883a 	mov	r4,r17
   29f4c:	b80b883a 	mov	r5,r23
   29f50:	1023883a 	mov	r17,r2
   29f54:	002a3ec0 	call	2a3ec <__udivsi3>
   29f58:	1009883a 	mov	r4,r2
   29f5c:	a80b883a 	mov	r5,r21
   29f60:	002a4ac0 	call	2a4ac <__mulsi3>
   29f64:	8822943a 	slli	r17,r17,16
   29f68:	9808d43a 	srli	r4,r19,16
   29f6c:	8908b03a 	or	r4,r17,r4
   29f70:	2080032e 	bgeu	r4,r2,29f80 <__umoddi3+0x24c>
   29f74:	2509883a 	add	r4,r4,r20
   29f78:	25000136 	bltu	r4,r20,29f80 <__umoddi3+0x24c>
   29f7c:	2080dc36 	bltu	r4,r2,2a2f0 <__umoddi3+0x5bc>
   29f80:	20a1c83a 	sub	r16,r4,r2
   29f84:	b80b883a 	mov	r5,r23
   29f88:	8009883a 	mov	r4,r16
   29f8c:	002a4500 	call	2a450 <__umodsi3>
   29f90:	b80b883a 	mov	r5,r23
   29f94:	8009883a 	mov	r4,r16
   29f98:	1023883a 	mov	r17,r2
   29f9c:	8822943a 	slli	r17,r17,16
   29fa0:	002a3ec0 	call	2a3ec <__udivsi3>
   29fa4:	a80b883a 	mov	r5,r21
   29fa8:	1009883a 	mov	r4,r2
   29fac:	002a4ac0 	call	2a4ac <__mulsi3>
   29fb0:	9cffffcc 	andi	r19,r19,65535
   29fb4:	8cc6b03a 	or	r3,r17,r19
   29fb8:	1880042e 	bgeu	r3,r2,29fcc <__umoddi3+0x298>
   29fbc:	1d07883a 	add	r3,r3,r20
   29fc0:	1d000236 	bltu	r3,r20,29fcc <__umoddi3+0x298>
   29fc4:	1880012e 	bgeu	r3,r2,29fcc <__umoddi3+0x298>
   29fc8:	1d07883a 	add	r3,r3,r20
   29fcc:	1885c83a 	sub	r2,r3,r2
   29fd0:	1484d83a 	srl	r2,r2,r18
   29fd4:	0007883a 	mov	r3,zero
   29fd8:	003fa206 	br	29e64 <__umoddi3+0x130>
   29fdc:	a0804030 	cmpltui	r2,r20,256
   29fe0:	1000ba1e 	bne	r2,zero,2a2cc <__umoddi3+0x598>
   29fe4:	a006d23a 	srli	r3,r20,8
   29fe8:	04800204 	movi	r18,8
   29fec:	003fc906 	br	29f14 <__umoddi3+0x1e0>
   29ff0:	30804030 	cmpltui	r2,r6,256
   29ff4:	1000ad1e 	bne	r2,zero,2a2ac <__umoddi3+0x578>
   29ff8:	3006d23a 	srli	r3,r6,8
   29ffc:	04800204 	movi	r18,8
   2a000:	003f6506 	br	29d98 <__umoddi3+0x64>
   2a004:	39004030 	cmpltui	r4,r7,256
   2a008:	2000b21e 	bne	r4,zero,2a2d4 <__umoddi3+0x5a0>
   2a00c:	3808d23a 	srli	r4,r7,8
   2a010:	02000204 	movi	r8,8
   2a014:	003fa606 	br	29eb0 <__umoddi3+0x17c>
   2a018:	3d4e983a 	sll	r7,r7,r21
   2a01c:	3508d83a 	srl	r4,r6,r20
   2a020:	8d2cd83a 	srl	r22,r17,r20
   2a024:	8504d83a 	srl	r2,r16,r20
   2a028:	21e4b03a 	or	r18,r4,r7
   2a02c:	8d62983a 	sll	r17,r17,r21
   2a030:	9026d43a 	srli	r19,r18,16
   2a034:	354c983a 	sll	r6,r6,r21
   2a038:	1444b03a 	or	r2,r2,r17
   2a03c:	b009883a 	mov	r4,r22
   2a040:	980b883a 	mov	r5,r19
   2a044:	d9800115 	stw	r6,4(sp)
   2a048:	d8800015 	stw	r2,0(sp)
   2a04c:	002a4500 	call	2a450 <__umodsi3>
   2a050:	980b883a 	mov	r5,r19
   2a054:	b009883a 	mov	r4,r22
   2a058:	102f883a 	mov	r23,r2
   2a05c:	947fffcc 	andi	r17,r18,65535
   2a060:	002a3ec0 	call	2a3ec <__udivsi3>
   2a064:	8809883a 	mov	r4,r17
   2a068:	100b883a 	mov	r5,r2
   2a06c:	1039883a 	mov	fp,r2
   2a070:	002a4ac0 	call	2a4ac <__mulsi3>
   2a074:	d8c00017 	ldw	r3,0(sp)
   2a078:	b82e943a 	slli	r23,r23,16
   2a07c:	8560983a 	sll	r16,r16,r21
   2a080:	1808d43a 	srli	r4,r3,16
   2a084:	b908b03a 	or	r4,r23,r4
   2a088:	2080062e 	bgeu	r4,r2,2a0a4 <__umoddi3+0x370>
   2a08c:	2489883a 	add	r4,r4,r18
   2a090:	e17fffc4 	addi	r5,fp,-1
   2a094:	24809436 	bltu	r4,r18,2a2e8 <__umoddi3+0x5b4>
   2a098:	2080932e 	bgeu	r4,r2,2a2e8 <__umoddi3+0x5b4>
   2a09c:	e73fff84 	addi	fp,fp,-2
   2a0a0:	2489883a 	add	r4,r4,r18
   2a0a4:	20adc83a 	sub	r22,r4,r2
   2a0a8:	980b883a 	mov	r5,r19
   2a0ac:	b009883a 	mov	r4,r22
   2a0b0:	002a4500 	call	2a450 <__umodsi3>
   2a0b4:	980b883a 	mov	r5,r19
   2a0b8:	b009883a 	mov	r4,r22
   2a0bc:	102f883a 	mov	r23,r2
   2a0c0:	002a3ec0 	call	2a3ec <__udivsi3>
   2a0c4:	100b883a 	mov	r5,r2
   2a0c8:	8809883a 	mov	r4,r17
   2a0cc:	d8800215 	stw	r2,8(sp)
   2a0d0:	002a4ac0 	call	2a4ac <__mulsi3>
   2a0d4:	d8c00017 	ldw	r3,0(sp)
   2a0d8:	b82e943a 	slli	r23,r23,16
   2a0dc:	d9400217 	ldw	r5,8(sp)
   2a0e0:	1c7fffcc 	andi	r17,r3,65535
   2a0e4:	bc62b03a 	or	r17,r23,r17
   2a0e8:	8880062e 	bgeu	r17,r2,2a104 <__umoddi3+0x3d0>
   2a0ec:	8ca3883a 	add	r17,r17,r18
   2a0f0:	28ffffc4 	addi	r3,r5,-1
   2a0f4:	8c807a36 	bltu	r17,r18,2a2e0 <__umoddi3+0x5ac>
   2a0f8:	8880792e 	bgeu	r17,r2,2a2e0 <__umoddi3+0x5ac>
   2a0fc:	297fff84 	addi	r5,r5,-2
   2a100:	8ca3883a 	add	r17,r17,r18
   2a104:	e02c943a 	slli	r22,fp,16
   2a108:	d9c00117 	ldw	r7,4(sp)
   2a10c:	29bfffcc 	andi	r6,r5,65535
   2a110:	b16cb03a 	or	r22,r22,r5
   2a114:	38ffffcc 	andi	r3,r7,65535
   2a118:	b02cd43a 	srli	r22,r22,16
   2a11c:	180b883a 	mov	r5,r3
   2a120:	3009883a 	mov	r4,r6
   2a124:	3838d43a 	srli	fp,r7,16
   2a128:	182f883a 	mov	r23,r3
   2a12c:	d9800015 	stw	r6,0(sp)
   2a130:	88a3c83a 	sub	r17,r17,r2
   2a134:	002a4ac0 	call	2a4ac <__mulsi3>
   2a138:	b80b883a 	mov	r5,r23
   2a13c:	b009883a 	mov	r4,r22
   2a140:	102f883a 	mov	r23,r2
   2a144:	002a4ac0 	call	2a4ac <__mulsi3>
   2a148:	e00b883a 	mov	r5,fp
   2a14c:	b009883a 	mov	r4,r22
   2a150:	102d883a 	mov	r22,r2
   2a154:	002a4ac0 	call	2a4ac <__mulsi3>
   2a158:	d9800017 	ldw	r6,0(sp)
   2a15c:	e00b883a 	mov	r5,fp
   2a160:	1039883a 	mov	fp,r2
   2a164:	3009883a 	mov	r4,r6
   2a168:	002a4ac0 	call	2a4ac <__mulsi3>
   2a16c:	b808d43a 	srli	r4,r23,16
   2a170:	1585883a 	add	r2,r2,r22
   2a174:	2089883a 	add	r4,r4,r2
   2a178:	2580022e 	bgeu	r4,r22,2a184 <__umoddi3+0x450>
   2a17c:	00800074 	movhi	r2,1
   2a180:	e0b9883a 	add	fp,fp,r2
   2a184:	2006d43a 	srli	r3,r4,16
   2a188:	2008943a 	slli	r4,r4,16
   2a18c:	bdffffcc 	andi	r23,r23,65535
   2a190:	1f07883a 	add	r3,r3,fp
   2a194:	25c9883a 	add	r4,r4,r23
   2a198:	88c03a36 	bltu	r17,r3,2a284 <__umoddi3+0x550>
   2a19c:	88c03826 	beq	r17,r3,2a280 <__umoddi3+0x54c>
   2a1a0:	8109c83a 	sub	r4,r16,r4
   2a1a4:	8121803a 	cmpltu	r16,r16,r4
   2a1a8:	88c7c83a 	sub	r3,r17,r3
   2a1ac:	1c07c83a 	sub	r3,r3,r16
   2a1b0:	1d04983a 	sll	r2,r3,r20
   2a1b4:	2548d83a 	srl	r4,r4,r21
   2a1b8:	1d46d83a 	srl	r3,r3,r21
   2a1bc:	1104b03a 	or	r2,r2,r4
   2a1c0:	003f2806 	br	29e64 <__umoddi3+0x130>
   2a1c4:	a4a8983a 	sll	r20,r20,r18
   2a1c8:	8da6d83a 	srl	r19,r17,r22
   2a1cc:	8ca2983a 	sll	r17,r17,r18
   2a1d0:	a02ed43a 	srli	r23,r20,16
   2a1d4:	9809883a 	mov	r4,r19
   2a1d8:	85acd83a 	srl	r22,r16,r22
   2a1dc:	b80b883a 	mov	r5,r23
   2a1e0:	002a4500 	call	2a450 <__umodsi3>
   2a1e4:	9809883a 	mov	r4,r19
   2a1e8:	b80b883a 	mov	r5,r23
   2a1ec:	b46cb03a 	or	r22,r22,r17
   2a1f0:	a57fffcc 	andi	r21,r20,65535
   2a1f4:	1023883a 	mov	r17,r2
   2a1f8:	002a3ec0 	call	2a3ec <__udivsi3>
   2a1fc:	a809883a 	mov	r4,r21
   2a200:	100b883a 	mov	r5,r2
   2a204:	002a4ac0 	call	2a4ac <__mulsi3>
   2a208:	8822943a 	slli	r17,r17,16
   2a20c:	b008d43a 	srli	r4,r22,16
   2a210:	84a6983a 	sll	r19,r16,r18
   2a214:	8908b03a 	or	r4,r17,r4
   2a218:	2080042e 	bgeu	r4,r2,2a22c <__umoddi3+0x4f8>
   2a21c:	2509883a 	add	r4,r4,r20
   2a220:	25000236 	bltu	r4,r20,2a22c <__umoddi3+0x4f8>
   2a224:	2080012e 	bgeu	r4,r2,2a22c <__umoddi3+0x4f8>
   2a228:	2509883a 	add	r4,r4,r20
   2a22c:	20a1c83a 	sub	r16,r4,r2
   2a230:	8009883a 	mov	r4,r16
   2a234:	b80b883a 	mov	r5,r23
   2a238:	002a4500 	call	2a450 <__umodsi3>
   2a23c:	8009883a 	mov	r4,r16
   2a240:	1021883a 	mov	r16,r2
   2a244:	b80b883a 	mov	r5,r23
   2a248:	8020943a 	slli	r16,r16,16
   2a24c:	002a3ec0 	call	2a3ec <__udivsi3>
   2a250:	100b883a 	mov	r5,r2
   2a254:	a809883a 	mov	r4,r21
   2a258:	b47fffcc 	andi	r17,r22,65535
   2a25c:	002a4ac0 	call	2a4ac <__mulsi3>
   2a260:	8462b03a 	or	r17,r16,r17
   2a264:	8880042e 	bgeu	r17,r2,2a278 <__umoddi3+0x544>
   2a268:	8d23883a 	add	r17,r17,r20
   2a26c:	8d000236 	bltu	r17,r20,2a278 <__umoddi3+0x544>
   2a270:	8880012e 	bgeu	r17,r2,2a278 <__umoddi3+0x544>
   2a274:	8d23883a 	add	r17,r17,r20
   2a278:	88a3c83a 	sub	r17,r17,r2
   2a27c:	003f2f06 	br	29f3c <__umoddi3+0x208>
   2a280:	813fc72e 	bgeu	r16,r4,2a1a0 <__umoddi3+0x46c>
   2a284:	d8800117 	ldw	r2,4(sp)
   2a288:	20a7c83a 	sub	r19,r4,r2
   2a28c:	24c9803a 	cmpltu	r4,r4,r19
   2a290:	2489883a 	add	r4,r4,r18
   2a294:	1907c83a 	sub	r3,r3,r4
   2a298:	9809883a 	mov	r4,r19
   2a29c:	003fc006 	br	2a1a0 <__umoddi3+0x46c>
   2a2a0:	3006d43a 	srli	r3,r6,16
   2a2a4:	04800404 	movi	r18,16
   2a2a8:	003ebb06 	br	29d98 <__umoddi3+0x64>
   2a2ac:	3007883a 	mov	r3,r6
   2a2b0:	003eb906 	br	29d98 <__umoddi3+0x64>
   2a2b4:	3808d43a 	srli	r4,r7,16
   2a2b8:	02000404 	movi	r8,16
   2a2bc:	003efc06 	br	29eb0 <__umoddi3+0x17c>
   2a2c0:	a006d43a 	srli	r3,r20,16
   2a2c4:	04800404 	movi	r18,16
   2a2c8:	003f1206 	br	29f14 <__umoddi3+0x1e0>
   2a2cc:	a007883a 	mov	r3,r20
   2a2d0:	003f1006 	br	29f14 <__umoddi3+0x1e0>
   2a2d4:	3809883a 	mov	r4,r7
   2a2d8:	0011883a 	mov	r8,zero
   2a2dc:	003ef406 	br	29eb0 <__umoddi3+0x17c>
   2a2e0:	180b883a 	mov	r5,r3
   2a2e4:	003f8706 	br	2a104 <__umoddi3+0x3d0>
   2a2e8:	2839883a 	mov	fp,r5
   2a2ec:	003f6d06 	br	2a0a4 <__umoddi3+0x370>
   2a2f0:	2509883a 	add	r4,r4,r20
   2a2f4:	003f2206 	br	29f80 <__umoddi3+0x24c>

0002a2f8 <__divsi3>:
   2a2f8:	20001a16 	blt	r4,zero,2a364 <__divsi3+0x6c>
   2a2fc:	000f883a 	mov	r7,zero
   2a300:	2800020e 	bge	r5,zero,2a30c <__divsi3+0x14>
   2a304:	014bc83a 	sub	r5,zero,r5
   2a308:	39c0005c 	xori	r7,r7,1
   2a30c:	200d883a 	mov	r6,r4
   2a310:	00c00044 	movi	r3,1
   2a314:	2900092e 	bgeu	r5,r4,2a33c <__divsi3+0x44>
   2a318:	00800804 	movi	r2,32
   2a31c:	00c00044 	movi	r3,1
   2a320:	00000106 	br	2a328 <__divsi3+0x30>
   2a324:	10001226 	beq	r2,zero,2a370 <__divsi3+0x78>
   2a328:	294b883a 	add	r5,r5,r5
   2a32c:	10bfffc4 	addi	r2,r2,-1
   2a330:	18c7883a 	add	r3,r3,r3
   2a334:	293ffb36 	bltu	r5,r4,2a324 <__divsi3+0x2c>
   2a338:	18000d26 	beq	r3,zero,2a370 <__divsi3+0x78>
   2a33c:	0005883a 	mov	r2,zero
   2a340:	31400236 	bltu	r6,r5,2a34c <__divsi3+0x54>
   2a344:	314dc83a 	sub	r6,r6,r5
   2a348:	10c4b03a 	or	r2,r2,r3
   2a34c:	1806d07a 	srli	r3,r3,1
   2a350:	280ad07a 	srli	r5,r5,1
   2a354:	183ffa1e 	bne	r3,zero,2a340 <__divsi3+0x48>
   2a358:	38000126 	beq	r7,zero,2a360 <__divsi3+0x68>
   2a35c:	0085c83a 	sub	r2,zero,r2
   2a360:	f800283a 	ret
   2a364:	0109c83a 	sub	r4,zero,r4
   2a368:	01c00044 	movi	r7,1
   2a36c:	003fe406 	br	2a300 <__divsi3+0x8>
   2a370:	0005883a 	mov	r2,zero
   2a374:	003ff806 	br	2a358 <__divsi3+0x60>

0002a378 <__modsi3>:
   2a378:	20001916 	blt	r4,zero,2a3e0 <__modsi3+0x68>
   2a37c:	000f883a 	mov	r7,zero
   2a380:	2005883a 	mov	r2,r4
   2a384:	2800010e 	bge	r5,zero,2a38c <__modsi3+0x14>
   2a388:	014bc83a 	sub	r5,zero,r5
   2a38c:	00c00044 	movi	r3,1
   2a390:	2900092e 	bgeu	r5,r4,2a3b8 <__modsi3+0x40>
   2a394:	01800804 	movi	r6,32
   2a398:	00c00044 	movi	r3,1
   2a39c:	00000106 	br	2a3a4 <__modsi3+0x2c>
   2a3a0:	30000d26 	beq	r6,zero,2a3d8 <__modsi3+0x60>
   2a3a4:	294b883a 	add	r5,r5,r5
   2a3a8:	31bfffc4 	addi	r6,r6,-1
   2a3ac:	18c7883a 	add	r3,r3,r3
   2a3b0:	293ffb36 	bltu	r5,r4,2a3a0 <__modsi3+0x28>
   2a3b4:	18000826 	beq	r3,zero,2a3d8 <__modsi3+0x60>
   2a3b8:	1806d07a 	srli	r3,r3,1
   2a3bc:	11400136 	bltu	r2,r5,2a3c4 <__modsi3+0x4c>
   2a3c0:	1145c83a 	sub	r2,r2,r5
   2a3c4:	280ad07a 	srli	r5,r5,1
   2a3c8:	183ffb1e 	bne	r3,zero,2a3b8 <__modsi3+0x40>
   2a3cc:	38000126 	beq	r7,zero,2a3d4 <__modsi3+0x5c>
   2a3d0:	0085c83a 	sub	r2,zero,r2
   2a3d4:	f800283a 	ret
   2a3d8:	2005883a 	mov	r2,r4
   2a3dc:	003ffb06 	br	2a3cc <__modsi3+0x54>
   2a3e0:	0109c83a 	sub	r4,zero,r4
   2a3e4:	01c00044 	movi	r7,1
   2a3e8:	003fe506 	br	2a380 <__modsi3+0x8>

0002a3ec <__udivsi3>:
   2a3ec:	200d883a 	mov	r6,r4
   2a3f0:	2900152e 	bgeu	r5,r4,2a448 <__udivsi3+0x5c>
   2a3f4:	28001416 	blt	r5,zero,2a448 <__udivsi3+0x5c>
   2a3f8:	00800804 	movi	r2,32
   2a3fc:	00c00044 	movi	r3,1
   2a400:	00000206 	br	2a40c <__udivsi3+0x20>
   2a404:	10000e26 	beq	r2,zero,2a440 <__udivsi3+0x54>
   2a408:	28000516 	blt	r5,zero,2a420 <__udivsi3+0x34>
   2a40c:	294b883a 	add	r5,r5,r5
   2a410:	10bfffc4 	addi	r2,r2,-1
   2a414:	18c7883a 	add	r3,r3,r3
   2a418:	293ffa36 	bltu	r5,r4,2a404 <__udivsi3+0x18>
   2a41c:	18000826 	beq	r3,zero,2a440 <__udivsi3+0x54>
   2a420:	0005883a 	mov	r2,zero
   2a424:	31400236 	bltu	r6,r5,2a430 <__udivsi3+0x44>
   2a428:	314dc83a 	sub	r6,r6,r5
   2a42c:	10c4b03a 	or	r2,r2,r3
   2a430:	1806d07a 	srli	r3,r3,1
   2a434:	280ad07a 	srli	r5,r5,1
   2a438:	183ffa1e 	bne	r3,zero,2a424 <__udivsi3+0x38>
   2a43c:	f800283a 	ret
   2a440:	0005883a 	mov	r2,zero
   2a444:	f800283a 	ret
   2a448:	00c00044 	movi	r3,1
   2a44c:	003ff406 	br	2a420 <__udivsi3+0x34>

0002a450 <__umodsi3>:
   2a450:	2005883a 	mov	r2,r4
   2a454:	2900132e 	bgeu	r5,r4,2a4a4 <__umodsi3+0x54>
   2a458:	28001216 	blt	r5,zero,2a4a4 <__umodsi3+0x54>
   2a45c:	01800804 	movi	r6,32
   2a460:	00c00044 	movi	r3,1
   2a464:	00000206 	br	2a470 <__umodsi3+0x20>
   2a468:	30000c26 	beq	r6,zero,2a49c <__umodsi3+0x4c>
   2a46c:	28000516 	blt	r5,zero,2a484 <__umodsi3+0x34>
   2a470:	294b883a 	add	r5,r5,r5
   2a474:	31bfffc4 	addi	r6,r6,-1
   2a478:	18c7883a 	add	r3,r3,r3
   2a47c:	293ffa36 	bltu	r5,r4,2a468 <__umodsi3+0x18>
   2a480:	18000626 	beq	r3,zero,2a49c <__umodsi3+0x4c>
   2a484:	1806d07a 	srli	r3,r3,1
   2a488:	11400136 	bltu	r2,r5,2a490 <__umodsi3+0x40>
   2a48c:	1145c83a 	sub	r2,r2,r5
   2a490:	280ad07a 	srli	r5,r5,1
   2a494:	183ffb1e 	bne	r3,zero,2a484 <__umodsi3+0x34>
   2a498:	f800283a 	ret
   2a49c:	2005883a 	mov	r2,r4
   2a4a0:	f800283a 	ret
   2a4a4:	00c00044 	movi	r3,1
   2a4a8:	003ff606 	br	2a484 <__umodsi3+0x34>

0002a4ac <__mulsi3>:
   2a4ac:	0005883a 	mov	r2,zero
   2a4b0:	20000726 	beq	r4,zero,2a4d0 <__mulsi3+0x24>
   2a4b4:	20c0004c 	andi	r3,r4,1
   2a4b8:	2008d07a 	srli	r4,r4,1
   2a4bc:	18000126 	beq	r3,zero,2a4c4 <__mulsi3+0x18>
   2a4c0:	1145883a 	add	r2,r2,r5
   2a4c4:	294b883a 	add	r5,r5,r5
   2a4c8:	203ffa1e 	bne	r4,zero,2a4b4 <__mulsi3+0x8>
   2a4cc:	f800283a 	ret
   2a4d0:	f800283a 	ret

0002a4d4 <__eqsf2>:
   2a4d4:	2006d5fa 	srli	r3,r4,23
   2a4d8:	00802034 	movhi	r2,128
   2a4dc:	10bfffc4 	addi	r2,r2,-1
   2a4e0:	18c03fcc 	andi	r3,r3,255
   2a4e4:	19c03fd8 	cmpnei	r7,r3,255
   2a4e8:	2012d7fa 	srli	r9,r4,31
   2a4ec:	280cd5fa 	srli	r6,r5,23
   2a4f0:	1108703a 	and	r4,r2,r4
   2a4f4:	2810d7fa 	srli	r8,r5,31
   2a4f8:	1144703a 	and	r2,r2,r5
   2a4fc:	38000e26 	beq	r7,zero,2a538 <__eqsf2+0x64>
   2a500:	31403fcc 	andi	r5,r6,255
   2a504:	29803fd8 	cmpnei	r6,r5,255
   2a508:	30000326 	beq	r6,zero,2a518 <__eqsf2+0x44>
   2a50c:	19400526 	beq	r3,r5,2a524 <__eqsf2+0x50>
   2a510:	00800044 	movi	r2,1
   2a514:	f800283a 	ret
   2a518:	103ffc26 	beq	r2,zero,2a50c <__eqsf2+0x38>
   2a51c:	00800044 	movi	r2,1
   2a520:	f800283a 	ret
   2a524:	20bffa1e 	bne	r4,r2,2a510 <__eqsf2+0x3c>
   2a528:	4a000626 	beq	r9,r8,2a544 <__eqsf2+0x70>
   2a52c:	183ff81e 	bne	r3,zero,2a510 <__eqsf2+0x3c>
   2a530:	2004c03a 	cmpne	r2,r4,zero
   2a534:	f800283a 	ret
   2a538:	203ff126 	beq	r4,zero,2a500 <__eqsf2+0x2c>
   2a53c:	00800044 	movi	r2,1
   2a540:	f800283a 	ret
   2a544:	0005883a 	mov	r2,zero
   2a548:	f800283a 	ret

0002a54c <__lesf2>:
   2a54c:	200cd5fa 	srli	r6,r4,23
   2a550:	00c02034 	movhi	r3,128
   2a554:	18ffffc4 	addi	r3,r3,-1
   2a558:	31803fcc 	andi	r6,r6,255
   2a55c:	32003fd8 	cmpnei	r8,r6,255
   2a560:	2012d7fa 	srli	r9,r4,31
   2a564:	280ed5fa 	srli	r7,r5,23
   2a568:	1908703a 	and	r4,r3,r4
   2a56c:	2804d7fa 	srli	r2,r5,31
   2a570:	1946703a 	and	r3,r3,r5
   2a574:	40000a26 	beq	r8,zero,2a5a0 <__lesf2+0x54>
   2a578:	39403fcc 	andi	r5,r7,255
   2a57c:	29c03fd8 	cmpnei	r7,r5,255
   2a580:	38000b26 	beq	r7,zero,2a5b0 <__lesf2+0x64>
   2a584:	30001b1e 	bne	r6,zero,2a5f4 <__lesf2+0xa8>
   2a588:	200f003a 	cmpeq	r7,r4,zero
   2a58c:	28000b1e 	bne	r5,zero,2a5bc <__lesf2+0x70>
   2a590:	18000a1e 	bne	r3,zero,2a5bc <__lesf2+0x70>
   2a594:	20000b1e 	bne	r4,zero,2a5c4 <__lesf2+0x78>
   2a598:	0005883a 	mov	r2,zero
   2a59c:	f800283a 	ret
   2a5a0:	20000c1e 	bne	r4,zero,2a5d4 <__lesf2+0x88>
   2a5a4:	39403fcc 	andi	r5,r7,255
   2a5a8:	29c03fe0 	cmpeqi	r7,r5,255
   2a5ac:	38001126 	beq	r7,zero,2a5f4 <__lesf2+0xa8>
   2a5b0:	1800081e 	bne	r3,zero,2a5d4 <__lesf2+0x88>
   2a5b4:	3000021e 	bne	r6,zero,2a5c0 <__lesf2+0x74>
   2a5b8:	200f003a 	cmpeq	r7,r4,zero
   2a5bc:	38000b1e 	bne	r7,zero,2a5ec <__lesf2+0xa0>
   2a5c0:	48800626 	beq	r9,r2,2a5dc <__lesf2+0x90>
   2a5c4:	00800044 	movi	r2,1
   2a5c8:	48000926 	beq	r9,zero,2a5f0 <__lesf2+0xa4>
   2a5cc:	00bfffc4 	movi	r2,-1
   2a5d0:	f800283a 	ret
   2a5d4:	00800084 	movi	r2,2
   2a5d8:	f800283a 	ret
   2a5dc:	29800816 	blt	r5,r6,2a600 <__lesf2+0xb4>
   2a5e0:	31400216 	blt	r6,r5,2a5ec <__lesf2+0xa0>
   2a5e4:	19000636 	bltu	r3,r4,2a600 <__lesf2+0xb4>
   2a5e8:	20ffeb2e 	bgeu	r4,r3,2a598 <__lesf2+0x4c>
   2a5ec:	103ff726 	beq	r2,zero,2a5cc <__lesf2+0x80>
   2a5f0:	f800283a 	ret
   2a5f4:	283ff21e 	bne	r5,zero,2a5c0 <__lesf2+0x74>
   2a5f8:	183ff11e 	bne	r3,zero,2a5c0 <__lesf2+0x74>
   2a5fc:	003ff106 	br	2a5c4 <__lesf2+0x78>
   2a600:	103ff21e 	bne	r2,zero,2a5cc <__lesf2+0x80>
   2a604:	00800044 	movi	r2,1
   2a608:	f800283a 	ret

0002a60c <__unordsf2>:
   2a60c:	2006d5fa 	srli	r3,r4,23
   2a610:	00802034 	movhi	r2,128
   2a614:	10bfffc4 	addi	r2,r2,-1
   2a618:	18c03fcc 	andi	r3,r3,255
   2a61c:	18c03fd8 	cmpnei	r3,r3,255
   2a620:	1108703a 	and	r4,r2,r4
   2a624:	280cd5fa 	srli	r6,r5,23
   2a628:	1144703a 	and	r2,r2,r5
   2a62c:	18000526 	beq	r3,zero,2a644 <__unordsf2+0x38>
   2a630:	31803fcc 	andi	r6,r6,255
   2a634:	31803fd8 	cmpnei	r6,r6,255
   2a638:	30000526 	beq	r6,zero,2a650 <__unordsf2+0x44>
   2a63c:	0005883a 	mov	r2,zero
   2a640:	f800283a 	ret
   2a644:	203ffa26 	beq	r4,zero,2a630 <__unordsf2+0x24>
   2a648:	00800044 	movi	r2,1
   2a64c:	f800283a 	ret
   2a650:	1004c03a 	cmpne	r2,r2,zero
   2a654:	f800283a 	ret

0002a658 <__adddf3>:
   2a658:	02000434 	movhi	r8,16
   2a65c:	423fffc4 	addi	r8,r8,-1
   2a660:	3a12703a 	and	r9,r7,r8
   2a664:	2a06703a 	and	r3,r5,r8
   2a668:	2818d53a 	srli	r12,r5,20
   2a66c:	3804d53a 	srli	r2,r7,20
   2a670:	481490fa 	slli	r10,r9,3
   2a674:	280ad7fa 	srli	r5,r5,31
   2a678:	180690fa 	slli	r3,r3,3
   2a67c:	2016d77a 	srli	r11,r4,29
   2a680:	3012d77a 	srli	r9,r6,29
   2a684:	380ed7fa 	srli	r7,r7,31
   2a688:	defffb04 	addi	sp,sp,-20
   2a68c:	dc400115 	stw	r17,4(sp)
   2a690:	dc000015 	stw	r16,0(sp)
   2a694:	dfc00415 	stw	ra,16(sp)
   2a698:	dcc00315 	stw	r19,12(sp)
   2a69c:	dc800215 	stw	r18,8(sp)
   2a6a0:	201c90fa 	slli	r14,r4,3
   2a6a4:	301a90fa 	slli	r13,r6,3
   2a6a8:	6441ffcc 	andi	r17,r12,2047
   2a6ac:	2821883a 	mov	r16,r5
   2a6b0:	58c6b03a 	or	r3,r11,r3
   2a6b4:	1081ffcc 	andi	r2,r2,2047
   2a6b8:	4a92b03a 	or	r9,r9,r10
   2a6bc:	29c06326 	beq	r5,r7,2a84c <__adddf3+0x1f4>
   2a6c0:	888bc83a 	sub	r5,r17,r2
   2a6c4:	0140560e 	bge	zero,r5,2a820 <__adddf3+0x1c8>
   2a6c8:	10007526 	beq	r2,zero,2a8a0 <__adddf3+0x248>
   2a6cc:	8881ffd8 	cmpnei	r2,r17,2047
   2a6d0:	10012d26 	beq	r2,zero,2ab88 <__adddf3+0x530>
   2a6d4:	4a402034 	orhi	r9,r9,128
   2a6d8:	28800e48 	cmpgei	r2,r5,57
   2a6dc:	1000f41e 	bne	r2,zero,2aab0 <__adddf3+0x458>
   2a6e0:	28800808 	cmpgei	r2,r5,32
   2a6e4:	1001471e 	bne	r2,zero,2ac04 <__adddf3+0x5ac>
   2a6e8:	00800804 	movi	r2,32
   2a6ec:	1145c83a 	sub	r2,r2,r5
   2a6f0:	6948d83a 	srl	r4,r13,r5
   2a6f4:	48a4983a 	sll	r18,r9,r2
   2a6f8:	6884983a 	sll	r2,r13,r2
   2a6fc:	494ad83a 	srl	r5,r9,r5
   2a700:	9124b03a 	or	r18,r18,r4
   2a704:	101ac03a 	cmpne	r13,r2,zero
   2a708:	9364b03a 	or	r18,r18,r13
   2a70c:	1947c83a 	sub	r3,r3,r5
   2a710:	74a5c83a 	sub	r18,r14,r18
   2a714:	7489803a 	cmpltu	r4,r14,r18
   2a718:	1909c83a 	sub	r4,r3,r4
   2a71c:	2080202c 	andhi	r2,r4,128
   2a720:	10008626 	beq	r2,zero,2a93c <__adddf3+0x2e4>
   2a724:	00802034 	movhi	r2,128
   2a728:	10bfffc4 	addi	r2,r2,-1
   2a72c:	20a6703a 	and	r19,r4,r2
   2a730:	9800d626 	beq	r19,zero,2aa8c <__adddf3+0x434>
   2a734:	9809883a 	mov	r4,r19
   2a738:	002cf500 	call	2cf50 <__clzsi2>
   2a73c:	133ffe04 	addi	r12,r2,-8
   2a740:	01000804 	movi	r4,32
   2a744:	2309c83a 	sub	r4,r4,r12
   2a748:	9108d83a 	srl	r4,r18,r4
   2a74c:	9b04983a 	sll	r2,r19,r12
   2a750:	9324983a 	sll	r18,r18,r12
   2a754:	2088b03a 	or	r4,r4,r2
   2a758:	6440c716 	blt	r12,r17,2aa78 <__adddf3+0x420>
   2a75c:	6459c83a 	sub	r12,r12,r17
   2a760:	62000044 	addi	r8,r12,1
   2a764:	40800808 	cmpgei	r2,r8,32
   2a768:	1001191e 	bne	r2,zero,2abd0 <__adddf3+0x578>
   2a76c:	00800804 	movi	r2,32
   2a770:	1205c83a 	sub	r2,r2,r8
   2a774:	9206d83a 	srl	r3,r18,r8
   2a778:	90a4983a 	sll	r18,r18,r2
   2a77c:	2084983a 	sll	r2,r4,r2
   2a780:	2208d83a 	srl	r4,r4,r8
   2a784:	9024c03a 	cmpne	r18,r18,zero
   2a788:	10c4b03a 	or	r2,r2,r3
   2a78c:	14a4b03a 	or	r18,r2,r18
   2a790:	0023883a 	mov	r17,zero
   2a794:	908001cc 	andi	r2,r18,7
   2a798:	10000726 	beq	r2,zero,2a7b8 <__adddf3+0x160>
   2a79c:	908003cc 	andi	r2,r18,15
   2a7a0:	10800120 	cmpeqi	r2,r2,4
   2a7a4:	1000041e 	bne	r2,zero,2a7b8 <__adddf3+0x160>
   2a7a8:	90c00104 	addi	r3,r18,4
   2a7ac:	1ca5803a 	cmpltu	r18,r3,r18
   2a7b0:	2489883a 	add	r4,r4,r18
   2a7b4:	1825883a 	mov	r18,r3
   2a7b8:	2080202c 	andhi	r2,r4,128
   2a7bc:	10006126 	beq	r2,zero,2a944 <__adddf3+0x2ec>
   2a7c0:	89400044 	addi	r5,r17,1
   2a7c4:	2881ffe0 	cmpeqi	r2,r5,2047
   2a7c8:	2941ffcc 	andi	r5,r5,2047
   2a7cc:	1000731e 	bne	r2,zero,2a99c <__adddf3+0x344>
   2a7d0:	023fe034 	movhi	r8,65408
   2a7d4:	423fffc4 	addi	r8,r8,-1
   2a7d8:	2210703a 	and	r8,r4,r8
   2a7dc:	4006927a 	slli	r3,r8,9
   2a7e0:	9024d0fa 	srli	r18,r18,3
   2a7e4:	4004977a 	slli	r2,r8,29
   2a7e8:	1806d33a 	srli	r3,r3,12
   2a7ec:	1484b03a 	or	r2,r2,r18
   2a7f0:	280a953a 	slli	r5,r5,20
   2a7f4:	84003fcc 	andi	r16,r16,255
   2a7f8:	802097fa 	slli	r16,r16,31
   2a7fc:	28c6b03a 	or	r3,r5,r3
   2a800:	1c06b03a 	or	r3,r3,r16
   2a804:	dfc00417 	ldw	ra,16(sp)
   2a808:	dcc00317 	ldw	r19,12(sp)
   2a80c:	dc800217 	ldw	r18,8(sp)
   2a810:	dc400117 	ldw	r17,4(sp)
   2a814:	dc000017 	ldw	r16,0(sp)
   2a818:	dec00504 	addi	sp,sp,20
   2a81c:	f800283a 	ret
   2a820:	28002726 	beq	r5,zero,2a8c0 <__adddf3+0x268>
   2a824:	144bc83a 	sub	r5,r2,r17
   2a828:	8800be1e 	bne	r17,zero,2ab24 <__adddf3+0x4cc>
   2a82c:	1b88b03a 	or	r4,r3,r14
   2a830:	20013126 	beq	r4,zero,2acf8 <__adddf3+0x6a0>
   2a834:	293fffc4 	addi	r4,r5,-1
   2a838:	20017226 	beq	r4,zero,2ae04 <__adddf3+0x7ac>
   2a83c:	2941ffd8 	cmpnei	r5,r5,2047
   2a840:	2801c226 	beq	r5,zero,2af4c <__adddf3+0x8f4>
   2a844:	200b883a 	mov	r5,r4
   2a848:	0000b906 	br	2ab30 <__adddf3+0x4d8>
   2a84c:	888bc83a 	sub	r5,r17,r2
   2a850:	0140700e 	bge	zero,r5,2aa14 <__adddf3+0x3bc>
   2a854:	10002a26 	beq	r2,zero,2a900 <__adddf3+0x2a8>
   2a858:	8881ffd8 	cmpnei	r2,r17,2047
   2a85c:	1000ca26 	beq	r2,zero,2ab88 <__adddf3+0x530>
   2a860:	4a402034 	orhi	r9,r9,128
   2a864:	28800e48 	cmpgei	r2,r5,57
   2a868:	1000421e 	bne	r2,zero,2a974 <__adddf3+0x31c>
   2a86c:	28800808 	cmpgei	r2,r5,32
   2a870:	1000ff26 	beq	r2,zero,2ac70 <__adddf3+0x618>
   2a874:	2cbff804 	addi	r18,r5,-32
   2a878:	29000820 	cmpeqi	r4,r5,32
   2a87c:	4c84d83a 	srl	r2,r9,r18
   2a880:	2000041e 	bne	r4,zero,2a894 <__adddf3+0x23c>
   2a884:	01001004 	movi	r4,64
   2a888:	214bc83a 	sub	r5,r4,r5
   2a88c:	4952983a 	sll	r9,r9,r5
   2a890:	6a5ab03a 	or	r13,r13,r9
   2a894:	6824c03a 	cmpne	r18,r13,zero
   2a898:	90a4b03a 	or	r18,r18,r2
   2a89c:	00003706 	br	2a97c <__adddf3+0x324>
   2a8a0:	4b44b03a 	or	r2,r9,r13
   2a8a4:	1000b126 	beq	r2,zero,2ab6c <__adddf3+0x514>
   2a8a8:	28bfffc4 	addi	r2,r5,-1
   2a8ac:	10011a26 	beq	r2,zero,2ad18 <__adddf3+0x6c0>
   2a8b0:	2941ffd8 	cmpnei	r5,r5,2047
   2a8b4:	28012526 	beq	r5,zero,2ad4c <__adddf3+0x6f4>
   2a8b8:	100b883a 	mov	r5,r2
   2a8bc:	003f8606 	br	2a6d8 <__adddf3+0x80>
   2a8c0:	8a800044 	addi	r10,r17,1
   2a8c4:	5281ff8c 	andi	r10,r10,2046
   2a8c8:	50008b1e 	bne	r10,zero,2aaf8 <__adddf3+0x4a0>
   2a8cc:	1b96b03a 	or	r11,r3,r14
   2a8d0:	4b44b03a 	or	r2,r9,r13
   2a8d4:	8801031e 	bne	r17,zero,2ace4 <__adddf3+0x68c>
   2a8d8:	58014126 	beq	r11,zero,2ade0 <__adddf3+0x788>
   2a8dc:	1001571e 	bne	r2,zero,2ae3c <__adddf3+0x7e4>
   2a8e0:	1804977a 	slli	r2,r3,29
   2a8e4:	01480034 	movhi	r5,8192
   2a8e8:	297fffc4 	addi	r5,r5,-1
   2a8ec:	2148703a 	and	r4,r4,r5
   2a8f0:	1810d0fa 	srli	r8,r3,3
   2a8f4:	1104b03a 	or	r2,r2,r4
   2a8f8:	500b883a 	mov	r5,r10
   2a8fc:	00001806 	br	2a960 <__adddf3+0x308>
   2a900:	4b44b03a 	or	r2,r9,r13
   2a904:	10010a26 	beq	r2,zero,2ad30 <__adddf3+0x6d8>
   2a908:	28bfffc4 	addi	r2,r5,-1
   2a90c:	10000426 	beq	r2,zero,2a920 <__adddf3+0x2c8>
   2a910:	2941ffd8 	cmpnei	r5,r5,2047
   2a914:	28014226 	beq	r5,zero,2ae20 <__adddf3+0x7c8>
   2a918:	100b883a 	mov	r5,r2
   2a91c:	003fd106 	br	2a864 <__adddf3+0x20c>
   2a920:	7365883a 	add	r18,r14,r13
   2a924:	1a47883a 	add	r3,r3,r9
   2a928:	9389803a 	cmpltu	r4,r18,r14
   2a92c:	1909883a 	add	r4,r3,r4
   2a930:	2080202c 	andhi	r2,r4,128
   2a934:	10009b1e 	bne	r2,zero,2aba4 <__adddf3+0x54c>
   2a938:	04400044 	movi	r17,1
   2a93c:	908001cc 	andi	r2,r18,7
   2a940:	103f961e 	bne	r2,zero,2a79c <__adddf3+0x144>
   2a944:	9024d0fa 	srli	r18,r18,3
   2a948:	2004977a 	slli	r2,r4,29
   2a94c:	2010d0fa 	srli	r8,r4,3
   2a950:	880b883a 	mov	r5,r17
   2a954:	9084b03a 	or	r2,r18,r2
   2a958:	28c1ffe0 	cmpeqi	r3,r5,2047
   2a95c:	1800251e 	bne	r3,zero,2a9f4 <__adddf3+0x39c>
   2a960:	00c00434 	movhi	r3,16
   2a964:	18ffffc4 	addi	r3,r3,-1
   2a968:	40c6703a 	and	r3,r8,r3
   2a96c:	2941ffcc 	andi	r5,r5,2047
   2a970:	003f9f06 	br	2a7f0 <__adddf3+0x198>
   2a974:	4b64b03a 	or	r18,r9,r13
   2a978:	9024c03a 	cmpne	r18,r18,zero
   2a97c:	93a5883a 	add	r18,r18,r14
   2a980:	9389803a 	cmpltu	r4,r18,r14
   2a984:	20c9883a 	add	r4,r4,r3
   2a988:	2080202c 	andhi	r2,r4,128
   2a98c:	103feb26 	beq	r2,zero,2a93c <__adddf3+0x2e4>
   2a990:	8c400044 	addi	r17,r17,1
   2a994:	8881ffe0 	cmpeqi	r2,r17,2047
   2a998:	10008326 	beq	r2,zero,2aba8 <__adddf3+0x550>
   2a99c:	0141ffc4 	movi	r5,2047
   2a9a0:	0007883a 	mov	r3,zero
   2a9a4:	0005883a 	mov	r2,zero
   2a9a8:	003f9106 	br	2a7f0 <__adddf3+0x198>
   2a9ac:	4b44b03a 	or	r2,r9,r13
   2a9b0:	180a977a 	slli	r5,r3,29
   2a9b4:	1810d0fa 	srli	r8,r3,3
   2a9b8:	10016c26 	beq	r2,zero,2af6c <__adddf3+0x914>
   2a9bc:	00c80034 	movhi	r3,8192
   2a9c0:	18ffffc4 	addi	r3,r3,-1
   2a9c4:	20c4703a 	and	r2,r4,r3
   2a9c8:	4100022c 	andhi	r4,r8,8
   2a9cc:	1144b03a 	or	r2,r2,r5
   2a9d0:	20000826 	beq	r4,zero,2a9f4 <__adddf3+0x39c>
   2a9d4:	4808d0fa 	srli	r4,r9,3
   2a9d8:	2140022c 	andhi	r5,r4,8
   2a9dc:	2800051e 	bne	r5,zero,2a9f4 <__adddf3+0x39c>
   2a9e0:	4804977a 	slli	r2,r9,29
   2a9e4:	30cc703a 	and	r6,r6,r3
   2a9e8:	3821883a 	mov	r16,r7
   2a9ec:	3084b03a 	or	r2,r6,r2
   2a9f0:	2011883a 	mov	r8,r4
   2a9f4:	4086b03a 	or	r3,r8,r2
   2a9f8:	18017126 	beq	r3,zero,2afc0 <__adddf3+0x968>
   2a9fc:	01000434 	movhi	r4,16
   2aa00:	40c00234 	orhi	r3,r8,8
   2aa04:	213fffc4 	addi	r4,r4,-1
   2aa08:	1906703a 	and	r3,r3,r4
   2aa0c:	0141ffc4 	movi	r5,2047
   2aa10:	003f7706 	br	2a7f0 <__adddf3+0x198>
   2aa14:	28002926 	beq	r5,zero,2aabc <__adddf3+0x464>
   2aa18:	144bc83a 	sub	r5,r2,r17
   2aa1c:	88008c26 	beq	r17,zero,2ac50 <__adddf3+0x5f8>
   2aa20:	1101ffd8 	cmpnei	r4,r2,2047
   2aa24:	20011126 	beq	r4,zero,2ae6c <__adddf3+0x814>
   2aa28:	18c02034 	orhi	r3,r3,128
   2aa2c:	29000e48 	cmpgei	r4,r5,57
   2aa30:	2000d51e 	bne	r4,zero,2ad88 <__adddf3+0x730>
   2aa34:	29000808 	cmpgei	r4,r5,32
   2aa38:	2001511e 	bne	r4,zero,2af80 <__adddf3+0x928>
   2aa3c:	01000804 	movi	r4,32
   2aa40:	2149c83a 	sub	r4,r4,r5
   2aa44:	1924983a 	sll	r18,r3,r4
   2aa48:	714cd83a 	srl	r6,r14,r5
   2aa4c:	7108983a 	sll	r4,r14,r4
   2aa50:	194ad83a 	srl	r5,r3,r5
   2aa54:	91a4b03a 	or	r18,r18,r6
   2aa58:	2006c03a 	cmpne	r3,r4,zero
   2aa5c:	90e4b03a 	or	r18,r18,r3
   2aa60:	4953883a 	add	r9,r9,r5
   2aa64:	9365883a 	add	r18,r18,r13
   2aa68:	9349803a 	cmpltu	r4,r18,r13
   2aa6c:	2249883a 	add	r4,r4,r9
   2aa70:	1023883a 	mov	r17,r2
   2aa74:	003fc406 	br	2a988 <__adddf3+0x330>
   2aa78:	023fe034 	movhi	r8,65408
   2aa7c:	423fffc4 	addi	r8,r8,-1
   2aa80:	8b23c83a 	sub	r17,r17,r12
   2aa84:	2208703a 	and	r4,r4,r8
   2aa88:	003f4206 	br	2a794 <__adddf3+0x13c>
   2aa8c:	9009883a 	mov	r4,r18
   2aa90:	002cf500 	call	2cf50 <__clzsi2>
   2aa94:	13000604 	addi	r12,r2,24
   2aa98:	60c00808 	cmpgei	r3,r12,32
   2aa9c:	183f2826 	beq	r3,zero,2a740 <__adddf3+0xe8>
   2aaa0:	113ffe04 	addi	r4,r2,-8
   2aaa4:	9108983a 	sll	r4,r18,r4
   2aaa8:	0025883a 	mov	r18,zero
   2aaac:	003f2a06 	br	2a758 <__adddf3+0x100>
   2aab0:	4b64b03a 	or	r18,r9,r13
   2aab4:	9024c03a 	cmpne	r18,r18,zero
   2aab8:	003f1506 	br	2a710 <__adddf3+0xb8>
   2aabc:	8a000044 	addi	r8,r17,1
   2aac0:	4081ff8c 	andi	r2,r8,2046
   2aac4:	1000751e 	bne	r2,zero,2ac9c <__adddf3+0x644>
   2aac8:	1b84b03a 	or	r2,r3,r14
   2aacc:	8800bc1e 	bne	r17,zero,2adc0 <__adddf3+0x768>
   2aad0:	10010c26 	beq	r2,zero,2af04 <__adddf3+0x8ac>
   2aad4:	4b44b03a 	or	r2,r9,r13
   2aad8:	1001111e 	bne	r2,zero,2af20 <__adddf3+0x8c8>
   2aadc:	180c977a 	slli	r6,r3,29
   2aae0:	00880034 	movhi	r2,8192
   2aae4:	10bfffc4 	addi	r2,r2,-1
   2aae8:	2084703a 	and	r2,r4,r2
   2aaec:	1810d0fa 	srli	r8,r3,3
   2aaf0:	1184b03a 	or	r2,r2,r6
   2aaf4:	003f9a06 	br	2a960 <__adddf3+0x308>
   2aaf8:	7365c83a 	sub	r18,r14,r13
   2aafc:	1a67c83a 	sub	r19,r3,r9
   2ab00:	7489803a 	cmpltu	r4,r14,r18
   2ab04:	9927c83a 	sub	r19,r19,r4
   2ab08:	9880202c 	andhi	r2,r19,128
   2ab0c:	10006f1e 	bne	r2,zero,2accc <__adddf3+0x674>
   2ab10:	94c4b03a 	or	r2,r18,r19
   2ab14:	103f061e 	bne	r2,zero,2a730 <__adddf3+0xd8>
   2ab18:	0011883a 	mov	r8,zero
   2ab1c:	0021883a 	mov	r16,zero
   2ab20:	003f8f06 	br	2a960 <__adddf3+0x308>
   2ab24:	1101ffd8 	cmpnei	r4,r2,2047
   2ab28:	20008f26 	beq	r4,zero,2ad68 <__adddf3+0x710>
   2ab2c:	18c02034 	orhi	r3,r3,128
   2ab30:	29000e48 	cmpgei	r4,r5,57
   2ab34:	20003e1e 	bne	r4,zero,2ac30 <__adddf3+0x5d8>
   2ab38:	29000808 	cmpgei	r4,r5,32
   2ab3c:	2000951e 	bne	r4,zero,2ad94 <__adddf3+0x73c>
   2ab40:	01000804 	movi	r4,32
   2ab44:	2149c83a 	sub	r4,r4,r5
   2ab48:	1924983a 	sll	r18,r3,r4
   2ab4c:	714cd83a 	srl	r6,r14,r5
   2ab50:	711c983a 	sll	r14,r14,r4
   2ab54:	1946d83a 	srl	r3,r3,r5
   2ab58:	91a4b03a 	or	r18,r18,r6
   2ab5c:	701cc03a 	cmpne	r14,r14,zero
   2ab60:	93a4b03a 	or	r18,r18,r14
   2ab64:	48d3c83a 	sub	r9,r9,r3
   2ab68:	00003306 	br	2ac38 <__adddf3+0x5e0>
   2ab6c:	1824977a 	slli	r18,r3,29
   2ab70:	01880034 	movhi	r6,8192
   2ab74:	31bfffc4 	addi	r6,r6,-1
   2ab78:	2184703a 	and	r2,r4,r6
   2ab7c:	1810d0fa 	srli	r8,r3,3
   2ab80:	1484b03a 	or	r2,r2,r18
   2ab84:	003f7406 	br	2a958 <__adddf3+0x300>
   2ab88:	1804977a 	slli	r2,r3,29
   2ab8c:	01480034 	movhi	r5,8192
   2ab90:	297fffc4 	addi	r5,r5,-1
   2ab94:	2148703a 	and	r4,r4,r5
   2ab98:	1810d0fa 	srli	r8,r3,3
   2ab9c:	1104b03a 	or	r2,r2,r4
   2aba0:	003f9406 	br	2a9f4 <__adddf3+0x39c>
   2aba4:	04400084 	movi	r17,2
   2aba8:	00bfe034 	movhi	r2,65408
   2abac:	10bfffc4 	addi	r2,r2,-1
   2abb0:	9006d07a 	srli	r3,r18,1
   2abb4:	2088703a 	and	r4,r4,r2
   2abb8:	200497fa 	slli	r2,r4,31
   2abbc:	9480004c 	andi	r18,r18,1
   2abc0:	1ca4b03a 	or	r18,r3,r18
   2abc4:	2008d07a 	srli	r4,r4,1
   2abc8:	14a4b03a 	or	r18,r2,r18
   2abcc:	003ef106 	br	2a794 <__adddf3+0x13c>
   2abd0:	633ff844 	addi	r12,r12,-31
   2abd4:	40800820 	cmpeqi	r2,r8,32
   2abd8:	2318d83a 	srl	r12,r4,r12
   2abdc:	1000041e 	bne	r2,zero,2abf0 <__adddf3+0x598>
   2abe0:	00801004 	movi	r2,64
   2abe4:	1211c83a 	sub	r8,r2,r8
   2abe8:	2208983a 	sll	r4,r4,r8
   2abec:	9124b03a 	or	r18,r18,r4
   2abf0:	9024c03a 	cmpne	r18,r18,zero
   2abf4:	9324b03a 	or	r18,r18,r12
   2abf8:	0009883a 	mov	r4,zero
   2abfc:	0023883a 	mov	r17,zero
   2ac00:	003f4e06 	br	2a93c <__adddf3+0x2e4>
   2ac04:	2cbff804 	addi	r18,r5,-32
   2ac08:	29000820 	cmpeqi	r4,r5,32
   2ac0c:	4c84d83a 	srl	r2,r9,r18
   2ac10:	2000041e 	bne	r4,zero,2ac24 <__adddf3+0x5cc>
   2ac14:	01001004 	movi	r4,64
   2ac18:	214bc83a 	sub	r5,r4,r5
   2ac1c:	4952983a 	sll	r9,r9,r5
   2ac20:	6a5ab03a 	or	r13,r13,r9
   2ac24:	6824c03a 	cmpne	r18,r13,zero
   2ac28:	90a4b03a 	or	r18,r18,r2
   2ac2c:	003eb806 	br	2a710 <__adddf3+0xb8>
   2ac30:	1b88b03a 	or	r4,r3,r14
   2ac34:	2024c03a 	cmpne	r18,r4,zero
   2ac38:	6ca5c83a 	sub	r18,r13,r18
   2ac3c:	6c89803a 	cmpltu	r4,r13,r18
   2ac40:	4909c83a 	sub	r4,r9,r4
   2ac44:	3821883a 	mov	r16,r7
   2ac48:	1023883a 	mov	r17,r2
   2ac4c:	003eb306 	br	2a71c <__adddf3+0xc4>
   2ac50:	1b88b03a 	or	r4,r3,r14
   2ac54:	20008c26 	beq	r4,zero,2ae88 <__adddf3+0x830>
   2ac58:	293fffc4 	addi	r4,r5,-1
   2ac5c:	2000d326 	beq	r4,zero,2afac <__adddf3+0x954>
   2ac60:	2941ffd8 	cmpnei	r5,r5,2047
   2ac64:	28008126 	beq	r5,zero,2ae6c <__adddf3+0x814>
   2ac68:	200b883a 	mov	r5,r4
   2ac6c:	003f6f06 	br	2aa2c <__adddf3+0x3d4>
   2ac70:	00800804 	movi	r2,32
   2ac74:	1145c83a 	sub	r2,r2,r5
   2ac78:	6948d83a 	srl	r4,r13,r5
   2ac7c:	48a4983a 	sll	r18,r9,r2
   2ac80:	6884983a 	sll	r2,r13,r2
   2ac84:	494ad83a 	srl	r5,r9,r5
   2ac88:	9124b03a 	or	r18,r18,r4
   2ac8c:	101ac03a 	cmpne	r13,r2,zero
   2ac90:	9364b03a 	or	r18,r18,r13
   2ac94:	1947883a 	add	r3,r3,r5
   2ac98:	003f3806 	br	2a97c <__adddf3+0x324>
   2ac9c:	4081ffe0 	cmpeqi	r2,r8,2047
   2aca0:	103f3e1e 	bne	r2,zero,2a99c <__adddf3+0x344>
   2aca4:	7345883a 	add	r2,r14,r13
   2aca8:	139d803a 	cmpltu	r14,r2,r14
   2acac:	1a49883a 	add	r4,r3,r9
   2acb0:	2389883a 	add	r4,r4,r14
   2acb4:	202497fa 	slli	r18,r4,31
   2acb8:	1004d07a 	srli	r2,r2,1
   2acbc:	2008d07a 	srli	r4,r4,1
   2acc0:	4023883a 	mov	r17,r8
   2acc4:	90a4b03a 	or	r18,r18,r2
   2acc8:	003f1c06 	br	2a93c <__adddf3+0x2e4>
   2accc:	6ba5c83a 	sub	r18,r13,r14
   2acd0:	48c9c83a 	sub	r4,r9,r3
   2acd4:	6c85803a 	cmpltu	r2,r13,r18
   2acd8:	20a7c83a 	sub	r19,r4,r2
   2acdc:	3821883a 	mov	r16,r7
   2ace0:	003e9306 	br	2a730 <__adddf3+0xd8>
   2ace4:	58006f1e 	bne	r11,zero,2aea4 <__adddf3+0x84c>
   2ace8:	10001f1e 	bne	r2,zero,2ad68 <__adddf3+0x710>
   2acec:	00bfffc4 	movi	r2,-1
   2acf0:	0021883a 	mov	r16,zero
   2acf4:	003f4106 	br	2a9fc <__adddf3+0x3a4>
   2acf8:	4808977a 	slli	r4,r9,29
   2acfc:	00c80034 	movhi	r3,8192
   2ad00:	18ffffc4 	addi	r3,r3,-1
   2ad04:	30c4703a 	and	r2,r6,r3
   2ad08:	4810d0fa 	srli	r8,r9,3
   2ad0c:	1104b03a 	or	r2,r2,r4
   2ad10:	3821883a 	mov	r16,r7
   2ad14:	003f1006 	br	2a958 <__adddf3+0x300>
   2ad18:	7365c83a 	sub	r18,r14,r13
   2ad1c:	1a47c83a 	sub	r3,r3,r9
   2ad20:	7489803a 	cmpltu	r4,r14,r18
   2ad24:	1909c83a 	sub	r4,r3,r4
   2ad28:	04400044 	movi	r17,1
   2ad2c:	003e7b06 	br	2a71c <__adddf3+0xc4>
   2ad30:	1824977a 	slli	r18,r3,29
   2ad34:	01c80034 	movhi	r7,8192
   2ad38:	39ffffc4 	addi	r7,r7,-1
   2ad3c:	21c4703a 	and	r2,r4,r7
   2ad40:	1810d0fa 	srli	r8,r3,3
   2ad44:	1484b03a 	or	r2,r2,r18
   2ad48:	003f0306 	br	2a958 <__adddf3+0x300>
   2ad4c:	1824977a 	slli	r18,r3,29
   2ad50:	01480034 	movhi	r5,8192
   2ad54:	297fffc4 	addi	r5,r5,-1
   2ad58:	2144703a 	and	r2,r4,r5
   2ad5c:	1810d0fa 	srli	r8,r3,3
   2ad60:	1484b03a 	or	r2,r2,r18
   2ad64:	003f2306 	br	2a9f4 <__adddf3+0x39c>
   2ad68:	4806977a 	slli	r3,r9,29
   2ad6c:	00880034 	movhi	r2,8192
   2ad70:	10bfffc4 	addi	r2,r2,-1
   2ad74:	3084703a 	and	r2,r6,r2
   2ad78:	4810d0fa 	srli	r8,r9,3
   2ad7c:	10c4b03a 	or	r2,r2,r3
   2ad80:	3821883a 	mov	r16,r7
   2ad84:	003f1b06 	br	2a9f4 <__adddf3+0x39c>
   2ad88:	1b88b03a 	or	r4,r3,r14
   2ad8c:	2024c03a 	cmpne	r18,r4,zero
   2ad90:	003f3406 	br	2aa64 <__adddf3+0x40c>
   2ad94:	2cbff804 	addi	r18,r5,-32
   2ad98:	29800820 	cmpeqi	r6,r5,32
   2ad9c:	1c88d83a 	srl	r4,r3,r18
   2ada0:	3000041e 	bne	r6,zero,2adb4 <__adddf3+0x75c>
   2ada4:	01801004 	movi	r6,64
   2ada8:	314bc83a 	sub	r5,r6,r5
   2adac:	1946983a 	sll	r3,r3,r5
   2adb0:	70dcb03a 	or	r14,r14,r3
   2adb4:	7024c03a 	cmpne	r18,r14,zero
   2adb8:	9124b03a 	or	r18,r18,r4
   2adbc:	003f9e06 	br	2ac38 <__adddf3+0x5e0>
   2adc0:	103efa1e 	bne	r2,zero,2a9ac <__adddf3+0x354>
   2adc4:	4804977a 	slli	r2,r9,29
   2adc8:	00c80034 	movhi	r3,8192
   2adcc:	18ffffc4 	addi	r3,r3,-1
   2add0:	30cc703a 	and	r6,r6,r3
   2add4:	4810d0fa 	srli	r8,r9,3
   2add8:	1184b03a 	or	r2,r2,r6
   2addc:	003f0506 	br	2a9f4 <__adddf3+0x39c>
   2ade0:	10004426 	beq	r2,zero,2aef4 <__adddf3+0x89c>
   2ade4:	4806977a 	slli	r3,r9,29
   2ade8:	00880034 	movhi	r2,8192
   2adec:	10bfffc4 	addi	r2,r2,-1
   2adf0:	3084703a 	and	r2,r6,r2
   2adf4:	4810d0fa 	srli	r8,r9,3
   2adf8:	10c4b03a 	or	r2,r2,r3
   2adfc:	3821883a 	mov	r16,r7
   2ae00:	003ed706 	br	2a960 <__adddf3+0x308>
   2ae04:	6ba5c83a 	sub	r18,r13,r14
   2ae08:	48c7c83a 	sub	r3,r9,r3
   2ae0c:	6c85803a 	cmpltu	r2,r13,r18
   2ae10:	1889c83a 	sub	r4,r3,r2
   2ae14:	3821883a 	mov	r16,r7
   2ae18:	04400044 	movi	r17,1
   2ae1c:	003e3f06 	br	2a71c <__adddf3+0xc4>
   2ae20:	180a977a 	slli	r5,r3,29
   2ae24:	00880034 	movhi	r2,8192
   2ae28:	10bfffc4 	addi	r2,r2,-1
   2ae2c:	2084703a 	and	r2,r4,r2
   2ae30:	1810d0fa 	srli	r8,r3,3
   2ae34:	1144b03a 	or	r2,r2,r5
   2ae38:	003eee06 	br	2a9f4 <__adddf3+0x39c>
   2ae3c:	7365c83a 	sub	r18,r14,r13
   2ae40:	7485803a 	cmpltu	r2,r14,r18
   2ae44:	1a49c83a 	sub	r4,r3,r9
   2ae48:	2089c83a 	sub	r4,r4,r2
   2ae4c:	2080202c 	andhi	r2,r4,128
   2ae50:	10002626 	beq	r2,zero,2aeec <__adddf3+0x894>
   2ae54:	6ba5c83a 	sub	r18,r13,r14
   2ae58:	48c7c83a 	sub	r3,r9,r3
   2ae5c:	6c85803a 	cmpltu	r2,r13,r18
   2ae60:	1889c83a 	sub	r4,r3,r2
   2ae64:	3821883a 	mov	r16,r7
   2ae68:	003e4a06 	br	2a794 <__adddf3+0x13c>
   2ae6c:	4806977a 	slli	r3,r9,29
   2ae70:	00880034 	movhi	r2,8192
   2ae74:	10bfffc4 	addi	r2,r2,-1
   2ae78:	3084703a 	and	r2,r6,r2
   2ae7c:	4810d0fa 	srli	r8,r9,3
   2ae80:	10c4b03a 	or	r2,r2,r3
   2ae84:	003edb06 	br	2a9f4 <__adddf3+0x39c>
   2ae88:	4806977a 	slli	r3,r9,29
   2ae8c:	00880034 	movhi	r2,8192
   2ae90:	10bfffc4 	addi	r2,r2,-1
   2ae94:	3084703a 	and	r2,r6,r2
   2ae98:	4810d0fa 	srli	r8,r9,3
   2ae9c:	10c4b03a 	or	r2,r2,r3
   2aea0:	003ead06 	br	2a958 <__adddf3+0x300>
   2aea4:	180a977a 	slli	r5,r3,29
   2aea8:	1810d0fa 	srli	r8,r3,3
   2aeac:	10002f26 	beq	r2,zero,2af6c <__adddf3+0x914>
   2aeb0:	00c80034 	movhi	r3,8192
   2aeb4:	18ffffc4 	addi	r3,r3,-1
   2aeb8:	20c4703a 	and	r2,r4,r3
   2aebc:	4100022c 	andhi	r4,r8,8
   2aec0:	1144b03a 	or	r2,r2,r5
   2aec4:	203ecb26 	beq	r4,zero,2a9f4 <__adddf3+0x39c>
   2aec8:	4808d0fa 	srli	r4,r9,3
   2aecc:	2140022c 	andhi	r5,r4,8
   2aed0:	283ec81e 	bne	r5,zero,2a9f4 <__adddf3+0x39c>
   2aed4:	4812977a 	slli	r9,r9,29
   2aed8:	30c4703a 	and	r2,r6,r3
   2aedc:	3821883a 	mov	r16,r7
   2aee0:	1244b03a 	or	r2,r2,r9
   2aee4:	2011883a 	mov	r8,r4
   2aee8:	003ec206 	br	2a9f4 <__adddf3+0x39c>
   2aeec:	9104b03a 	or	r2,r18,r4
   2aef0:	103e921e 	bne	r2,zero,2a93c <__adddf3+0x2e4>
   2aef4:	0011883a 	mov	r8,zero
   2aef8:	100b883a 	mov	r5,r2
   2aefc:	0021883a 	mov	r16,zero
   2af00:	003e9706 	br	2a960 <__adddf3+0x308>
   2af04:	4804977a 	slli	r2,r9,29
   2af08:	00c80034 	movhi	r3,8192
   2af0c:	18ffffc4 	addi	r3,r3,-1
   2af10:	30cc703a 	and	r6,r6,r3
   2af14:	4810d0fa 	srli	r8,r9,3
   2af18:	1184b03a 	or	r2,r2,r6
   2af1c:	003e9006 	br	2a960 <__adddf3+0x308>
   2af20:	7365883a 	add	r18,r14,r13
   2af24:	1a47883a 	add	r3,r3,r9
   2af28:	9389803a 	cmpltu	r4,r18,r14
   2af2c:	1909883a 	add	r4,r3,r4
   2af30:	2080202c 	andhi	r2,r4,128
   2af34:	103e8126 	beq	r2,zero,2a93c <__adddf3+0x2e4>
   2af38:	00bfe034 	movhi	r2,65408
   2af3c:	10bfffc4 	addi	r2,r2,-1
   2af40:	2088703a 	and	r4,r4,r2
   2af44:	04400044 	movi	r17,1
   2af48:	003e7c06 	br	2a93c <__adddf3+0x2e4>
   2af4c:	4804977a 	slli	r2,r9,29
   2af50:	00c80034 	movhi	r3,8192
   2af54:	18ffffc4 	addi	r3,r3,-1
   2af58:	30cc703a 	and	r6,r6,r3
   2af5c:	4810d0fa 	srli	r8,r9,3
   2af60:	1184b03a 	or	r2,r2,r6
   2af64:	3821883a 	mov	r16,r7
   2af68:	003ea206 	br	2a9f4 <__adddf3+0x39c>
   2af6c:	00880034 	movhi	r2,8192
   2af70:	10bfffc4 	addi	r2,r2,-1
   2af74:	2084703a 	and	r2,r4,r2
   2af78:	1144b03a 	or	r2,r2,r5
   2af7c:	003e9d06 	br	2a9f4 <__adddf3+0x39c>
   2af80:	293ff804 	addi	r4,r5,-32
   2af84:	29800820 	cmpeqi	r6,r5,32
   2af88:	1908d83a 	srl	r4,r3,r4
   2af8c:	3000041e 	bne	r6,zero,2afa0 <__adddf3+0x948>
   2af90:	01801004 	movi	r6,64
   2af94:	314bc83a 	sub	r5,r6,r5
   2af98:	1946983a 	sll	r3,r3,r5
   2af9c:	70dcb03a 	or	r14,r14,r3
   2afa0:	7024c03a 	cmpne	r18,r14,zero
   2afa4:	9124b03a 	or	r18,r18,r4
   2afa8:	003eae06 	br	2aa64 <__adddf3+0x40c>
   2afac:	7365883a 	add	r18,r14,r13
   2afb0:	1a47883a 	add	r3,r3,r9
   2afb4:	9345803a 	cmpltu	r2,r18,r13
   2afb8:	1889883a 	add	r4,r3,r2
   2afbc:	003e5c06 	br	2a930 <__adddf3+0x2d8>
   2afc0:	0005883a 	mov	r2,zero
   2afc4:	0141ffc4 	movi	r5,2047
   2afc8:	0007883a 	mov	r3,zero
   2afcc:	003e0806 	br	2a7f0 <__adddf3+0x198>

0002afd0 <__divdf3>:
   2afd0:	2810d53a 	srli	r8,r5,20
   2afd4:	defff004 	addi	sp,sp,-64
   2afd8:	dc000615 	stw	r16,24(sp)
   2afdc:	04000434 	movhi	r16,16
   2afe0:	df000e15 	stw	fp,56(sp)
   2afe4:	ddc00d15 	stw	r23,52(sp)
   2afe8:	dd800c15 	stw	r22,48(sp)
   2afec:	dd000a15 	stw	r20,40(sp)
   2aff0:	843fffc4 	addi	r16,r16,-1
   2aff4:	dfc00f15 	stw	ra,60(sp)
   2aff8:	dd400b15 	stw	r21,44(sp)
   2affc:	dcc00915 	stw	r19,36(sp)
   2b000:	dc800815 	stw	r18,32(sp)
   2b004:	dc400715 	stw	r17,28(sp)
   2b008:	4201ffcc 	andi	r8,r8,2047
   2b00c:	282ed7fa 	srli	r23,r5,31
   2b010:	3039883a 	mov	fp,r6
   2b014:	382d883a 	mov	r22,r7
   2b018:	2029883a 	mov	r20,r4
   2b01c:	2c20703a 	and	r16,r5,r16
   2b020:	40005326 	beq	r8,zero,2b170 <__divdf3+0x1a0>
   2b024:	4081ffe0 	cmpeqi	r2,r8,2047
   2b028:	1000641e 	bne	r2,zero,2b1bc <__divdf3+0x1ec>
   2b02c:	2026d77a 	srli	r19,r4,29
   2b030:	800a90fa 	slli	r5,r16,3
   2b034:	202890fa 	slli	r20,r4,3
   2b038:	44bf0044 	addi	r18,r8,-1023
   2b03c:	994ab03a 	or	r5,r19,r5
   2b040:	2cc02034 	orhi	r19,r5,128
   2b044:	0021883a 	mov	r16,zero
   2b048:	0023883a 	mov	r17,zero
   2b04c:	b010d53a 	srli	r8,r22,20
   2b050:	00c00434 	movhi	r3,16
   2b054:	18ffffc4 	addi	r3,r3,-1
   2b058:	4201ffcc 	andi	r8,r8,2047
   2b05c:	b02ad7fa 	srli	r21,r22,31
   2b060:	b0ec703a 	and	r22,r22,r3
   2b064:	40005c26 	beq	r8,zero,2b1d8 <__divdf3+0x208>
   2b068:	4081ffe0 	cmpeqi	r2,r8,2047
   2b06c:	1000201e 	bne	r2,zero,2b0f0 <__divdf3+0x120>
   2b070:	b00690fa 	slli	r3,r22,3
   2b074:	e004d77a 	srli	r2,fp,29
   2b078:	e01490fa 	slli	r10,fp,3
   2b07c:	423f0044 	addi	r8,r8,-1023
   2b080:	10c6b03a 	or	r3,r2,r3
   2b084:	1d802034 	orhi	r22,r3,128
   2b088:	9225c83a 	sub	r18,r18,r8
   2b08c:	0007883a 	mov	r3,zero
   2b090:	80800428 	cmpgeui	r2,r16,16
   2b094:	bd52f03a 	xor	r9,r23,r21
   2b098:	1000a81e 	bne	r2,zero,2b33c <__divdf3+0x36c>
   2b09c:	800c90ba 	slli	r6,r16,2
   2b0a0:	008000f4 	movhi	r2,3
   2b0a4:	3085883a 	add	r2,r6,r2
   2b0a8:	10ac2c17 	ldw	r2,-20304(r2)
   2b0ac:	1000683a 	jmp	r2
   2b0b0:	0002b33c 	xorhi	zero,zero,2764
   2b0b4:	0002b160 	cmpeqi	zero,zero,2757
   2b0b8:	0002b10c 	andi	zero,zero,2756
   2b0bc:	0002b284 	movi	zero,2762
   2b0c0:	0002b10c 	andi	zero,zero,2756
   2b0c4:	0002b2e0 	cmpeqi	zero,zero,2763
   2b0c8:	0002b10c 	andi	zero,zero,2756
   2b0cc:	0002b284 	movi	zero,2762
   2b0d0:	0002b160 	cmpeqi	zero,zero,2757
   2b0d4:	0002b160 	cmpeqi	zero,zero,2757
   2b0d8:	0002b2e0 	cmpeqi	zero,zero,2763
   2b0dc:	0002b284 	movi	zero,2762
   2b0e0:	0002b21c 	xori	zero,zero,2760
   2b0e4:	0002b21c 	xori	zero,zero,2760
   2b0e8:	0002b21c 	xori	zero,zero,2760
   2b0ec:	0002b2f8 	rdprs	zero,zero,2763
   2b0f0:	b714b03a 	or	r10,r22,fp
   2b0f4:	94be0044 	addi	r18,r18,-2047
   2b0f8:	5000671e 	bne	r10,zero,2b298 <__divdf3+0x2c8>
   2b0fc:	84000094 	ori	r16,r16,2
   2b100:	002d883a 	mov	r22,zero
   2b104:	00c00084 	movi	r3,2
   2b108:	003fe106 	br	2b090 <__divdf3+0xc0>
   2b10c:	0007883a 	mov	r3,zero
   2b110:	000b883a 	mov	r5,zero
   2b114:	0029883a 	mov	r20,zero
   2b118:	1806953a 	slli	r3,r3,20
   2b11c:	4a403fcc 	andi	r9,r9,255
   2b120:	481297fa 	slli	r9,r9,31
   2b124:	1946b03a 	or	r3,r3,r5
   2b128:	a005883a 	mov	r2,r20
   2b12c:	1a46b03a 	or	r3,r3,r9
   2b130:	dfc00f17 	ldw	ra,60(sp)
   2b134:	df000e17 	ldw	fp,56(sp)
   2b138:	ddc00d17 	ldw	r23,52(sp)
   2b13c:	dd800c17 	ldw	r22,48(sp)
   2b140:	dd400b17 	ldw	r21,44(sp)
   2b144:	dd000a17 	ldw	r20,40(sp)
   2b148:	dcc00917 	ldw	r19,36(sp)
   2b14c:	dc800817 	ldw	r18,32(sp)
   2b150:	dc400717 	ldw	r17,28(sp)
   2b154:	dc000617 	ldw	r16,24(sp)
   2b158:	dec01004 	addi	sp,sp,64
   2b15c:	f800283a 	ret
   2b160:	00c1ffc4 	movi	r3,2047
   2b164:	000b883a 	mov	r5,zero
   2b168:	0029883a 	mov	r20,zero
   2b16c:	003fea06 	br	2b118 <__divdf3+0x148>
   2b170:	2426b03a 	or	r19,r4,r16
   2b174:	2023883a 	mov	r17,r4
   2b178:	98004f26 	beq	r19,zero,2b2b8 <__divdf3+0x2e8>
   2b17c:	80017b26 	beq	r16,zero,2b76c <__divdf3+0x79c>
   2b180:	8009883a 	mov	r4,r16
   2b184:	002cf500 	call	2cf50 <__clzsi2>
   2b188:	113ffd44 	addi	r4,r2,-11
   2b18c:	00c00744 	movi	r3,29
   2b190:	14fffe04 	addi	r19,r2,-8
   2b194:	1907c83a 	sub	r3,r3,r4
   2b198:	84ca983a 	sll	r5,r16,r19
   2b19c:	88c6d83a 	srl	r3,r17,r3
   2b1a0:	8ce8983a 	sll	r20,r17,r19
   2b1a4:	1966b03a 	or	r19,r3,r5
   2b1a8:	023f0344 	movi	r8,-1011
   2b1ac:	40a5c83a 	sub	r18,r8,r2
   2b1b0:	0021883a 	mov	r16,zero
   2b1b4:	0023883a 	mov	r17,zero
   2b1b8:	003fa406 	br	2b04c <__divdf3+0x7c>
   2b1bc:	2426b03a 	or	r19,r4,r16
   2b1c0:	9800421e 	bne	r19,zero,2b2cc <__divdf3+0x2fc>
   2b1c4:	0029883a 	mov	r20,zero
   2b1c8:	04000204 	movi	r16,8
   2b1cc:	0481ffc4 	movi	r18,2047
   2b1d0:	04400084 	movi	r17,2
   2b1d4:	003f9d06 	br	2b04c <__divdf3+0x7c>
   2b1d8:	b714b03a 	or	r10,r22,fp
   2b1dc:	50003226 	beq	r10,zero,2b2a8 <__divdf3+0x2d8>
   2b1e0:	b0016c26 	beq	r22,zero,2b794 <__divdf3+0x7c4>
   2b1e4:	b009883a 	mov	r4,r22
   2b1e8:	002cf500 	call	2cf50 <__clzsi2>
   2b1ec:	117ffd44 	addi	r5,r2,-11
   2b1f0:	01000744 	movi	r4,29
   2b1f4:	12bffe04 	addi	r10,r2,-8
   2b1f8:	2149c83a 	sub	r4,r4,r5
   2b1fc:	b286983a 	sll	r3,r22,r10
   2b200:	e108d83a 	srl	r4,fp,r4
   2b204:	e294983a 	sll	r10,fp,r10
   2b208:	20ecb03a 	or	r22,r4,r3
   2b20c:	1491883a 	add	r8,r2,r18
   2b210:	4480fcc4 	addi	r18,r8,1011
   2b214:	0007883a 	mov	r3,zero
   2b218:	003f9d06 	br	2b090 <__divdf3+0xc0>
   2b21c:	b813883a 	mov	r9,r23
   2b220:	888000a0 	cmpeqi	r2,r17,2
   2b224:	103fce1e 	bne	r2,zero,2b160 <__divdf3+0x190>
   2b228:	888000e0 	cmpeqi	r2,r17,3
   2b22c:	1001ac1e 	bne	r2,zero,2b8e0 <__divdf3+0x910>
   2b230:	88800060 	cmpeqi	r2,r17,1
   2b234:	103fb51e 	bne	r2,zero,2b10c <__divdf3+0x13c>
   2b238:	9440ffc4 	addi	r17,r18,1023
   2b23c:	04411c0e 	bge	zero,r17,2b6b0 <__divdf3+0x6e0>
   2b240:	a08001cc 	andi	r2,r20,7
   2b244:	1001831e 	bne	r2,zero,2b854 <__divdf3+0x884>
   2b248:	a008d0fa 	srli	r4,r20,3
   2b24c:	9880402c 	andhi	r2,r19,256
   2b250:	10000426 	beq	r2,zero,2b264 <__divdf3+0x294>
   2b254:	00bfc034 	movhi	r2,65280
   2b258:	10bfffc4 	addi	r2,r2,-1
   2b25c:	98a6703a 	and	r19,r19,r2
   2b260:	94410004 	addi	r17,r18,1024
   2b264:	8881ffc8 	cmpgei	r2,r17,2047
   2b268:	103fbd1e 	bne	r2,zero,2b160 <__divdf3+0x190>
   2b26c:	9828977a 	slli	r20,r19,29
   2b270:	980a927a 	slli	r5,r19,9
   2b274:	88c1ffcc 	andi	r3,r17,2047
   2b278:	a128b03a 	or	r20,r20,r4
   2b27c:	280ad33a 	srli	r5,r5,12
   2b280:	003fa506 	br	2b118 <__divdf3+0x148>
   2b284:	a813883a 	mov	r9,r21
   2b288:	b027883a 	mov	r19,r22
   2b28c:	5029883a 	mov	r20,r10
   2b290:	1823883a 	mov	r17,r3
   2b294:	003fe206 	br	2b220 <__divdf3+0x250>
   2b298:	840000d4 	ori	r16,r16,3
   2b29c:	e015883a 	mov	r10,fp
   2b2a0:	00c000c4 	movi	r3,3
   2b2a4:	003f7a06 	br	2b090 <__divdf3+0xc0>
   2b2a8:	84000054 	ori	r16,r16,1
   2b2ac:	002d883a 	mov	r22,zero
   2b2b0:	00c00044 	movi	r3,1
   2b2b4:	003f7606 	br	2b090 <__divdf3+0xc0>
   2b2b8:	0029883a 	mov	r20,zero
   2b2bc:	04000104 	movi	r16,4
   2b2c0:	0025883a 	mov	r18,zero
   2b2c4:	04400044 	movi	r17,1
   2b2c8:	003f6006 	br	2b04c <__divdf3+0x7c>
   2b2cc:	8027883a 	mov	r19,r16
   2b2d0:	0481ffc4 	movi	r18,2047
   2b2d4:	04000304 	movi	r16,12
   2b2d8:	044000c4 	movi	r17,3
   2b2dc:	003f5b06 	br	2b04c <__divdf3+0x7c>
   2b2e0:	01400434 	movhi	r5,16
   2b2e4:	0013883a 	mov	r9,zero
   2b2e8:	297fffc4 	addi	r5,r5,-1
   2b2ec:	053fffc4 	movi	r20,-1
   2b2f0:	00c1ffc4 	movi	r3,2047
   2b2f4:	003f8806 	br	2b118 <__divdf3+0x148>
   2b2f8:	9880022c 	andhi	r2,r19,8
   2b2fc:	10000926 	beq	r2,zero,2b324 <__divdf3+0x354>
   2b300:	b080022c 	andhi	r2,r22,8
   2b304:	1000071e 	bne	r2,zero,2b324 <__divdf3+0x354>
   2b308:	00800434 	movhi	r2,16
   2b30c:	b1400234 	orhi	r5,r22,8
   2b310:	10bfffc4 	addi	r2,r2,-1
   2b314:	288a703a 	and	r5,r5,r2
   2b318:	a813883a 	mov	r9,r21
   2b31c:	5029883a 	mov	r20,r10
   2b320:	003ff306 	br	2b2f0 <__divdf3+0x320>
   2b324:	00800434 	movhi	r2,16
   2b328:	99400234 	orhi	r5,r19,8
   2b32c:	10bfffc4 	addi	r2,r2,-1
   2b330:	288a703a 	and	r5,r5,r2
   2b334:	b813883a 	mov	r9,r23
   2b338:	003fed06 	br	2b2f0 <__divdf3+0x320>
   2b33c:	b4c10536 	bltu	r22,r19,2b754 <__divdf3+0x784>
   2b340:	b4c10326 	beq	r22,r19,2b750 <__divdf3+0x780>
   2b344:	94bfffc4 	addi	r18,r18,-1
   2b348:	a039883a 	mov	fp,r20
   2b34c:	9821883a 	mov	r16,r19
   2b350:	0023883a 	mov	r17,zero
   2b354:	b006923a 	slli	r3,r22,8
   2b358:	502cd63a 	srli	r22,r10,24
   2b35c:	8009883a 	mov	r4,r16
   2b360:	182ed43a 	srli	r23,r3,16
   2b364:	b0ecb03a 	or	r22,r22,r3
   2b368:	da400015 	stw	r9,0(sp)
   2b36c:	b80b883a 	mov	r5,r23
   2b370:	502a923a 	slli	r21,r10,8
   2b374:	b53fffcc 	andi	r20,r22,65535
   2b378:	002a3ec0 	call	2a3ec <__udivsi3>
   2b37c:	100b883a 	mov	r5,r2
   2b380:	a009883a 	mov	r4,r20
   2b384:	1027883a 	mov	r19,r2
   2b388:	002a4ac0 	call	2a4ac <__mulsi3>
   2b38c:	8009883a 	mov	r4,r16
   2b390:	b80b883a 	mov	r5,r23
   2b394:	1021883a 	mov	r16,r2
   2b398:	002a4500 	call	2a450 <__umodsi3>
   2b39c:	1004943a 	slli	r2,r2,16
   2b3a0:	e008d43a 	srli	r4,fp,16
   2b3a4:	da400017 	ldw	r9,0(sp)
   2b3a8:	2088b03a 	or	r4,r4,r2
   2b3ac:	2400042e 	bgeu	r4,r16,2b3c0 <__divdf3+0x3f0>
   2b3b0:	2589883a 	add	r4,r4,r22
   2b3b4:	98bfffc4 	addi	r2,r19,-1
   2b3b8:	2581082e 	bgeu	r4,r22,2b7dc <__divdf3+0x80c>
   2b3bc:	1027883a 	mov	r19,r2
   2b3c0:	2421c83a 	sub	r16,r4,r16
   2b3c4:	b80b883a 	mov	r5,r23
   2b3c8:	8009883a 	mov	r4,r16
   2b3cc:	da400215 	stw	r9,8(sp)
   2b3d0:	002a3ec0 	call	2a3ec <__udivsi3>
   2b3d4:	100b883a 	mov	r5,r2
   2b3d8:	a009883a 	mov	r4,r20
   2b3dc:	d8800115 	stw	r2,4(sp)
   2b3e0:	002a4ac0 	call	2a4ac <__mulsi3>
   2b3e4:	b80b883a 	mov	r5,r23
   2b3e8:	8009883a 	mov	r4,r16
   2b3ec:	d8800015 	stw	r2,0(sp)
   2b3f0:	002a4500 	call	2a450 <__umodsi3>
   2b3f4:	100c943a 	slli	r6,r2,16
   2b3f8:	d8c00017 	ldw	r3,0(sp)
   2b3fc:	e73fffcc 	andi	fp,fp,65535
   2b400:	e18cb03a 	or	r6,fp,r6
   2b404:	d9c00117 	ldw	r7,4(sp)
   2b408:	da400217 	ldw	r9,8(sp)
   2b40c:	30c0042e 	bgeu	r6,r3,2b420 <__divdf3+0x450>
   2b410:	358d883a 	add	r6,r6,r22
   2b414:	38bfffc4 	addi	r2,r7,-1
   2b418:	3580ec2e 	bgeu	r6,r22,2b7cc <__divdf3+0x7fc>
   2b41c:	100f883a 	mov	r7,r2
   2b420:	9826943a 	slli	r19,r19,16
   2b424:	af3fffcc 	andi	fp,r21,65535
   2b428:	30c7c83a 	sub	r3,r6,r3
   2b42c:	99e6b03a 	or	r19,r19,r7
   2b430:	980ed43a 	srli	r7,r19,16
   2b434:	9abfffcc 	andi	r10,r19,65535
   2b438:	5009883a 	mov	r4,r10
   2b43c:	e00b883a 	mov	r5,fp
   2b440:	da400515 	stw	r9,20(sp)
   2b444:	d8c00315 	stw	r3,12(sp)
   2b448:	da800415 	stw	r10,16(sp)
   2b44c:	d9c00015 	stw	r7,0(sp)
   2b450:	002a4ac0 	call	2a4ac <__mulsi3>
   2b454:	d9c00017 	ldw	r7,0(sp)
   2b458:	e00b883a 	mov	r5,fp
   2b45c:	d8800215 	stw	r2,8(sp)
   2b460:	3809883a 	mov	r4,r7
   2b464:	002a4ac0 	call	2a4ac <__mulsi3>
   2b468:	d9c00017 	ldw	r7,0(sp)
   2b46c:	a820d43a 	srli	r16,r21,16
   2b470:	d8800115 	stw	r2,4(sp)
   2b474:	3809883a 	mov	r4,r7
   2b478:	800b883a 	mov	r5,r16
   2b47c:	002a4ac0 	call	2a4ac <__mulsi3>
   2b480:	da800417 	ldw	r10,16(sp)
   2b484:	8009883a 	mov	r4,r16
   2b488:	d8800015 	stw	r2,0(sp)
   2b48c:	500b883a 	mov	r5,r10
   2b490:	002a4ac0 	call	2a4ac <__mulsi3>
   2b494:	d9800217 	ldw	r6,8(sp)
   2b498:	d9c00117 	ldw	r7,4(sp)
   2b49c:	da000017 	ldw	r8,0(sp)
   2b4a0:	3008d43a 	srli	r4,r6,16
   2b4a4:	11c5883a 	add	r2,r2,r7
   2b4a8:	d8c00317 	ldw	r3,12(sp)
   2b4ac:	2089883a 	add	r4,r4,r2
   2b4b0:	da400517 	ldw	r9,20(sp)
   2b4b4:	21c0022e 	bgeu	r4,r7,2b4c0 <__divdf3+0x4f0>
   2b4b8:	00800074 	movhi	r2,1
   2b4bc:	4091883a 	add	r8,r8,r2
   2b4c0:	200ad43a 	srli	r5,r4,16
   2b4c4:	2008943a 	slli	r4,r4,16
   2b4c8:	31bfffcc 	andi	r6,r6,65535
   2b4cc:	2a0b883a 	add	r5,r5,r8
   2b4d0:	218d883a 	add	r6,r4,r6
   2b4d4:	19409436 	bltu	r3,r5,2b728 <__divdf3+0x758>
   2b4d8:	19409226 	beq	r3,r5,2b724 <__divdf3+0x754>
   2b4dc:	898dc83a 	sub	r6,r17,r6
   2b4e0:	89a3803a 	cmpltu	r17,r17,r6
   2b4e4:	1947c83a 	sub	r3,r3,r5
   2b4e8:	1c47c83a 	sub	r3,r3,r17
   2b4ec:	9440ffc4 	addi	r17,r18,1023
   2b4f0:	b0c0d326 	beq	r22,r3,2b840 <__divdf3+0x870>
   2b4f4:	1809883a 	mov	r4,r3
   2b4f8:	b80b883a 	mov	r5,r23
   2b4fc:	d9800315 	stw	r6,12(sp)
   2b500:	da400215 	stw	r9,8(sp)
   2b504:	d8c00015 	stw	r3,0(sp)
   2b508:	002a3ec0 	call	2a3ec <__udivsi3>
   2b50c:	100b883a 	mov	r5,r2
   2b510:	a009883a 	mov	r4,r20
   2b514:	d8800115 	stw	r2,4(sp)
   2b518:	002a4ac0 	call	2a4ac <__mulsi3>
   2b51c:	d8c00017 	ldw	r3,0(sp)
   2b520:	b80b883a 	mov	r5,r23
   2b524:	d8800015 	stw	r2,0(sp)
   2b528:	1809883a 	mov	r4,r3
   2b52c:	002a4500 	call	2a450 <__umodsi3>
   2b530:	d9800317 	ldw	r6,12(sp)
   2b534:	1006943a 	slli	r3,r2,16
   2b538:	da000017 	ldw	r8,0(sp)
   2b53c:	3008d43a 	srli	r4,r6,16
   2b540:	d9c00117 	ldw	r7,4(sp)
   2b544:	da400217 	ldw	r9,8(sp)
   2b548:	20c6b03a 	or	r3,r4,r3
   2b54c:	1a00062e 	bgeu	r3,r8,2b568 <__divdf3+0x598>
   2b550:	1d87883a 	add	r3,r3,r22
   2b554:	38bfffc4 	addi	r2,r7,-1
   2b558:	1d80c836 	bltu	r3,r22,2b87c <__divdf3+0x8ac>
   2b55c:	1a00c72e 	bgeu	r3,r8,2b87c <__divdf3+0x8ac>
   2b560:	39ffff84 	addi	r7,r7,-2
   2b564:	1d87883a 	add	r3,r3,r22
   2b568:	1a07c83a 	sub	r3,r3,r8
   2b56c:	1809883a 	mov	r4,r3
   2b570:	b80b883a 	mov	r5,r23
   2b574:	d9800415 	stw	r6,16(sp)
   2b578:	da400315 	stw	r9,12(sp)
   2b57c:	d9c00215 	stw	r7,8(sp)
   2b580:	d8c00115 	stw	r3,4(sp)
   2b584:	002a3ec0 	call	2a3ec <__udivsi3>
   2b588:	100b883a 	mov	r5,r2
   2b58c:	a009883a 	mov	r4,r20
   2b590:	d8800015 	stw	r2,0(sp)
   2b594:	002a4ac0 	call	2a4ac <__mulsi3>
   2b598:	d8c00117 	ldw	r3,4(sp)
   2b59c:	b80b883a 	mov	r5,r23
   2b5a0:	102f883a 	mov	r23,r2
   2b5a4:	1809883a 	mov	r4,r3
   2b5a8:	002a4500 	call	2a450 <__umodsi3>
   2b5ac:	d9800417 	ldw	r6,16(sp)
   2b5b0:	1004943a 	slli	r2,r2,16
   2b5b4:	da000017 	ldw	r8,0(sp)
   2b5b8:	31bfffcc 	andi	r6,r6,65535
   2b5bc:	308cb03a 	or	r6,r6,r2
   2b5c0:	d9c00217 	ldw	r7,8(sp)
   2b5c4:	da400317 	ldw	r9,12(sp)
   2b5c8:	35c0062e 	bgeu	r6,r23,2b5e4 <__divdf3+0x614>
   2b5cc:	358d883a 	add	r6,r6,r22
   2b5d0:	40bfffc4 	addi	r2,r8,-1
   2b5d4:	3580a736 	bltu	r6,r22,2b874 <__divdf3+0x8a4>
   2b5d8:	35c0a62e 	bgeu	r6,r23,2b874 <__divdf3+0x8a4>
   2b5dc:	423fff84 	addi	r8,r8,-2
   2b5e0:	358d883a 	add	r6,r6,r22
   2b5e4:	3828943a 	slli	r20,r7,16
   2b5e8:	35d5c83a 	sub	r10,r6,r23
   2b5ec:	e009883a 	mov	r4,fp
   2b5f0:	a228b03a 	or	r20,r20,r8
   2b5f4:	a1ffffcc 	andi	r7,r20,65535
   2b5f8:	a02ed43a 	srli	r23,r20,16
   2b5fc:	380b883a 	mov	r5,r7
   2b600:	da400315 	stw	r9,12(sp)
   2b604:	da800215 	stw	r10,8(sp)
   2b608:	d9c00115 	stw	r7,4(sp)
   2b60c:	002a4ac0 	call	2a4ac <__mulsi3>
   2b610:	e00b883a 	mov	r5,fp
   2b614:	b809883a 	mov	r4,r23
   2b618:	1039883a 	mov	fp,r2
   2b61c:	002a4ac0 	call	2a4ac <__mulsi3>
   2b620:	8009883a 	mov	r4,r16
   2b624:	b80b883a 	mov	r5,r23
   2b628:	d8800015 	stw	r2,0(sp)
   2b62c:	002a4ac0 	call	2a4ac <__mulsi3>
   2b630:	d9c00117 	ldw	r7,4(sp)
   2b634:	8009883a 	mov	r4,r16
   2b638:	1021883a 	mov	r16,r2
   2b63c:	380b883a 	mov	r5,r7
   2b640:	002a4ac0 	call	2a4ac <__mulsi3>
   2b644:	d9800017 	ldw	r6,0(sp)
   2b648:	e006d43a 	srli	r3,fp,16
   2b64c:	da800217 	ldw	r10,8(sp)
   2b650:	1185883a 	add	r2,r2,r6
   2b654:	1887883a 	add	r3,r3,r2
   2b658:	da400317 	ldw	r9,12(sp)
   2b65c:	1980022e 	bgeu	r3,r6,2b668 <__divdf3+0x698>
   2b660:	00800074 	movhi	r2,1
   2b664:	80a1883a 	add	r16,r16,r2
   2b668:	1808d43a 	srli	r4,r3,16
   2b66c:	1806943a 	slli	r3,r3,16
   2b670:	e73fffcc 	andi	fp,fp,65535
   2b674:	2409883a 	add	r4,r4,r16
   2b678:	1f07883a 	add	r3,r3,fp
   2b67c:	51000436 	bltu	r10,r4,2b690 <__divdf3+0x6c0>
   2b680:	51000226 	beq	r10,r4,2b68c <__divdf3+0x6bc>
   2b684:	a5000054 	ori	r20,r20,1
   2b688:	003eec06 	br	2b23c <__divdf3+0x26c>
   2b68c:	183eeb26 	beq	r3,zero,2b23c <__divdf3+0x26c>
   2b690:	b28d883a 	add	r6,r22,r10
   2b694:	a0bfffc4 	addi	r2,r20,-1
   2b698:	35806536 	bltu	r6,r22,2b830 <__divdf3+0x860>
   2b69c:	31008036 	bltu	r6,r4,2b8a0 <__divdf3+0x8d0>
   2b6a0:	31009426 	beq	r6,r4,2b8f4 <__divdf3+0x924>
   2b6a4:	1029883a 	mov	r20,r2
   2b6a8:	003ff606 	br	2b684 <__divdf3+0x6b4>
   2b6ac:	053fffc4 	movi	r20,-1
   2b6b0:	01400044 	movi	r5,1
   2b6b4:	2c4bc83a 	sub	r5,r5,r17
   2b6b8:	28800e48 	cmpgei	r2,r5,57
   2b6bc:	103e931e 	bne	r2,zero,2b10c <__divdf3+0x13c>
   2b6c0:	28800808 	cmpgei	r2,r5,32
   2b6c4:	1000491e 	bne	r2,zero,2b7ec <__divdf3+0x81c>
   2b6c8:	92010784 	addi	r8,r18,1054
   2b6cc:	9a04983a 	sll	r2,r19,r8
   2b6d0:	a146d83a 	srl	r3,r20,r5
   2b6d4:	a210983a 	sll	r8,r20,r8
   2b6d8:	994ad83a 	srl	r5,r19,r5
   2b6dc:	10e8b03a 	or	r20,r2,r3
   2b6e0:	4010c03a 	cmpne	r8,r8,zero
   2b6e4:	a228b03a 	or	r20,r20,r8
   2b6e8:	a08001cc 	andi	r2,r20,7
   2b6ec:	10000726 	beq	r2,zero,2b70c <__divdf3+0x73c>
   2b6f0:	a08003cc 	andi	r2,r20,15
   2b6f4:	10800120 	cmpeqi	r2,r2,4
   2b6f8:	1000041e 	bne	r2,zero,2b70c <__divdf3+0x73c>
   2b6fc:	a0800104 	addi	r2,r20,4
   2b700:	1529803a 	cmpltu	r20,r2,r20
   2b704:	2d0b883a 	add	r5,r5,r20
   2b708:	1029883a 	mov	r20,r2
   2b70c:	2880202c 	andhi	r2,r5,128
   2b710:	10006f26 	beq	r2,zero,2b8d0 <__divdf3+0x900>
   2b714:	00c00044 	movi	r3,1
   2b718:	000b883a 	mov	r5,zero
   2b71c:	0029883a 	mov	r20,zero
   2b720:	003e7d06 	br	2b118 <__divdf3+0x148>
   2b724:	89bf6d2e 	bgeu	r17,r6,2b4dc <__divdf3+0x50c>
   2b728:	8d63883a 	add	r17,r17,r21
   2b72c:	8d45803a 	cmpltu	r2,r17,r21
   2b730:	1585883a 	add	r2,r2,r22
   2b734:	1887883a 	add	r3,r3,r2
   2b738:	98bfffc4 	addi	r2,r19,-1
   2b73c:	b0c0202e 	bgeu	r22,r3,2b7c0 <__divdf3+0x7f0>
   2b740:	19405136 	bltu	r3,r5,2b888 <__divdf3+0x8b8>
   2b744:	28c04f26 	beq	r5,r3,2b884 <__divdf3+0x8b4>
   2b748:	1027883a 	mov	r19,r2
   2b74c:	003f6306 	br	2b4dc <__divdf3+0x50c>
   2b750:	a2befc36 	bltu	r20,r10,2b344 <__divdf3+0x374>
   2b754:	983897fa 	slli	fp,r19,31
   2b758:	a004d07a 	srli	r2,r20,1
   2b75c:	9820d07a 	srli	r16,r19,1
   2b760:	a02297fa 	slli	r17,r20,31
   2b764:	e0b8b03a 	or	fp,fp,r2
   2b768:	003efa06 	br	2b354 <__divdf3+0x384>
   2b76c:	002cf500 	call	2cf50 <__clzsi2>
   2b770:	11000544 	addi	r4,r2,21
   2b774:	20c00748 	cmpgei	r3,r4,29
   2b778:	100b883a 	mov	r5,r2
   2b77c:	10800804 	addi	r2,r2,32
   2b780:	183e8226 	beq	r3,zero,2b18c <__divdf3+0x1bc>
   2b784:	297ffe04 	addi	r5,r5,-8
   2b788:	a166983a 	sll	r19,r20,r5
   2b78c:	0029883a 	mov	r20,zero
   2b790:	003e8506 	br	2b1a8 <__divdf3+0x1d8>
   2b794:	e009883a 	mov	r4,fp
   2b798:	002cf500 	call	2cf50 <__clzsi2>
   2b79c:	11400544 	addi	r5,r2,21
   2b7a0:	29000748 	cmpgei	r4,r5,29
   2b7a4:	1007883a 	mov	r3,r2
   2b7a8:	10800804 	addi	r2,r2,32
   2b7ac:	203e9026 	beq	r4,zero,2b1f0 <__divdf3+0x220>
   2b7b0:	18fffe04 	addi	r3,r3,-8
   2b7b4:	e0ec983a 	sll	r22,fp,r3
   2b7b8:	0015883a 	mov	r10,zero
   2b7bc:	003e9306 	br	2b20c <__divdf3+0x23c>
   2b7c0:	b0ffe11e 	bne	r22,r3,2b748 <__divdf3+0x778>
   2b7c4:	8d7fe036 	bltu	r17,r21,2b748 <__divdf3+0x778>
   2b7c8:	003fdd06 	br	2b740 <__divdf3+0x770>
   2b7cc:	30ff132e 	bgeu	r6,r3,2b41c <__divdf3+0x44c>
   2b7d0:	39ffff84 	addi	r7,r7,-2
   2b7d4:	358d883a 	add	r6,r6,r22
   2b7d8:	003f1106 	br	2b420 <__divdf3+0x450>
   2b7dc:	243ef72e 	bgeu	r4,r16,2b3bc <__divdf3+0x3ec>
   2b7e0:	9cffff84 	addi	r19,r19,-2
   2b7e4:	2589883a 	add	r4,r4,r22
   2b7e8:	003ef506 	br	2b3c0 <__divdf3+0x3f0>
   2b7ec:	00fff844 	movi	r3,-31
   2b7f0:	1c47c83a 	sub	r3,r3,r17
   2b7f4:	29400820 	cmpeqi	r5,r5,32
   2b7f8:	98c6d83a 	srl	r3,r19,r3
   2b7fc:	2800031e 	bne	r5,zero,2b80c <__divdf3+0x83c>
   2b800:	91410f84 	addi	r5,r18,1086
   2b804:	994a983a 	sll	r5,r19,r5
   2b808:	a168b03a 	or	r20,r20,r5
   2b80c:	a028c03a 	cmpne	r20,r20,zero
   2b810:	a0e8b03a 	or	r20,r20,r3
   2b814:	a4c001cc 	andi	r19,r20,7
   2b818:	9800291e 	bne	r19,zero,2b8c0 <__divdf3+0x8f0>
   2b81c:	000b883a 	mov	r5,zero
   2b820:	a028d0fa 	srli	r20,r20,3
   2b824:	0007883a 	mov	r3,zero
   2b828:	a4e8b03a 	or	r20,r20,r19
   2b82c:	003e3a06 	br	2b118 <__divdf3+0x148>
   2b830:	1029883a 	mov	r20,r2
   2b834:	313f931e 	bne	r6,r4,2b684 <__divdf3+0x6b4>
   2b838:	1d7f921e 	bne	r3,r21,2b684 <__divdf3+0x6b4>
   2b83c:	003e7f06 	br	2b23c <__divdf3+0x26c>
   2b840:	047f9a0e 	bge	zero,r17,2b6ac <__divdf3+0x6dc>
   2b844:	0009883a 	mov	r4,zero
   2b848:	05000044 	movi	r20,1
   2b84c:	9d27883a 	add	r19,r19,r20
   2b850:	003e7e06 	br	2b24c <__divdf3+0x27c>
   2b854:	a08003cc 	andi	r2,r20,15
   2b858:	10800118 	cmpnei	r2,r2,4
   2b85c:	103e7a26 	beq	r2,zero,2b248 <__divdf3+0x278>
   2b860:	a1000104 	addi	r4,r20,4
   2b864:	00bffec4 	movi	r2,-5
   2b868:	2008d0fa 	srli	r4,r4,3
   2b86c:	1529803a 	cmpltu	r20,r2,r20
   2b870:	003ff606 	br	2b84c <__divdf3+0x87c>
   2b874:	1011883a 	mov	r8,r2
   2b878:	003f5a06 	br	2b5e4 <__divdf3+0x614>
   2b87c:	100f883a 	mov	r7,r2
   2b880:	003f3906 	br	2b568 <__divdf3+0x598>
   2b884:	89bfb02e 	bgeu	r17,r6,2b748 <__divdf3+0x778>
   2b888:	8d63883a 	add	r17,r17,r21
   2b88c:	8d45803a 	cmpltu	r2,r17,r21
   2b890:	1585883a 	add	r2,r2,r22
   2b894:	9cffff84 	addi	r19,r19,-2
   2b898:	1887883a 	add	r3,r3,r2
   2b89c:	003f0f06 	br	2b4dc <__divdf3+0x50c>
   2b8a0:	ad45883a 	add	r2,r21,r21
   2b8a4:	156b803a 	cmpltu	r21,r2,r21
   2b8a8:	adad883a 	add	r22,r21,r22
   2b8ac:	358d883a 	add	r6,r6,r22
   2b8b0:	a53fff84 	addi	r20,r20,-2
   2b8b4:	102b883a 	mov	r21,r2
   2b8b8:	313fdf26 	beq	r6,r4,2b838 <__divdf3+0x868>
   2b8bc:	003f7106 	br	2b684 <__divdf3+0x6b4>
   2b8c0:	a08003cc 	andi	r2,r20,15
   2b8c4:	10800118 	cmpnei	r2,r2,4
   2b8c8:	000b883a 	mov	r5,zero
   2b8cc:	103f8b1e 	bne	r2,zero,2b6fc <__divdf3+0x72c>
   2b8d0:	2804927a 	slli	r2,r5,9
   2b8d4:	2826977a 	slli	r19,r5,29
   2b8d8:	100ad33a 	srli	r5,r2,12
   2b8dc:	003fd006 	br	2b820 <__divdf3+0x850>
   2b8e0:	00800434 	movhi	r2,16
   2b8e4:	99400234 	orhi	r5,r19,8
   2b8e8:	10bfffc4 	addi	r2,r2,-1
   2b8ec:	288a703a 	and	r5,r5,r2
   2b8f0:	003e7f06 	br	2b2f0 <__divdf3+0x320>
   2b8f4:	a8ffea36 	bltu	r21,r3,2b8a0 <__divdf3+0x8d0>
   2b8f8:	1029883a 	mov	r20,r2
   2b8fc:	1d7f611e 	bne	r3,r21,2b684 <__divdf3+0x6b4>
   2b900:	003e4e06 	br	2b23c <__divdf3+0x26c>

0002b904 <__eqdf2>:
   2b904:	2810d53a 	srli	r8,r5,20
   2b908:	3806d53a 	srli	r3,r7,20
   2b90c:	00800434 	movhi	r2,16
   2b910:	4201ffcc 	andi	r8,r8,2047
   2b914:	10bfffc4 	addi	r2,r2,-1
   2b918:	4241ffd8 	cmpnei	r9,r8,2047
   2b91c:	2814d7fa 	srli	r10,r5,31
   2b920:	3816d7fa 	srli	r11,r7,31
   2b924:	288a703a 	and	r5,r5,r2
   2b928:	388e703a 	and	r7,r7,r2
   2b92c:	1881ffcc 	andi	r2,r3,2047
   2b930:	48000626 	beq	r9,zero,2b94c <__eqdf2+0x48>
   2b934:	10c1ffe0 	cmpeqi	r3,r2,2047
   2b938:	1800021e 	bne	r3,zero,2b944 <__eqdf2+0x40>
   2b93c:	4080011e 	bne	r8,r2,2b944 <__eqdf2+0x40>
   2b940:	29c00826 	beq	r5,r7,2b964 <__eqdf2+0x60>
   2b944:	00800044 	movi	r2,1
   2b948:	f800283a 	ret
   2b94c:	2906b03a 	or	r3,r5,r4
   2b950:	183ffc1e 	bne	r3,zero,2b944 <__eqdf2+0x40>
   2b954:	1081ffd8 	cmpnei	r2,r2,2047
   2b958:	103ffa1e 	bne	r2,zero,2b944 <__eqdf2+0x40>
   2b95c:	398eb03a 	or	r7,r7,r6
   2b960:	383ff81e 	bne	r7,zero,2b944 <__eqdf2+0x40>
   2b964:	21bff71e 	bne	r4,r6,2b944 <__eqdf2+0x40>
   2b968:	52c00426 	beq	r10,r11,2b97c <__eqdf2+0x78>
   2b96c:	403ff51e 	bne	r8,zero,2b944 <__eqdf2+0x40>
   2b970:	290ab03a 	or	r5,r5,r4
   2b974:	2804c03a 	cmpne	r2,r5,zero
   2b978:	f800283a 	ret
   2b97c:	0005883a 	mov	r2,zero
   2b980:	f800283a 	ret

0002b984 <__gedf2>:
   2b984:	2810d53a 	srli	r8,r5,20
   2b988:	3812d53a 	srli	r9,r7,20
   2b98c:	00c00434 	movhi	r3,16
   2b990:	4201ffcc 	andi	r8,r8,2047
   2b994:	18ffffc4 	addi	r3,r3,-1
   2b998:	4281ffd8 	cmpnei	r10,r8,2047
   2b99c:	2816d7fa 	srli	r11,r5,31
   2b9a0:	3804d7fa 	srli	r2,r7,31
   2b9a4:	28ca703a 	and	r5,r5,r3
   2b9a8:	38ce703a 	and	r7,r7,r3
   2b9ac:	48c1ffcc 	andi	r3,r9,2047
   2b9b0:	50000b26 	beq	r10,zero,2b9e0 <__gedf2+0x5c>
   2b9b4:	1a41ffd8 	cmpnei	r9,r3,2047
   2b9b8:	48000d26 	beq	r9,zero,2b9f0 <__gedf2+0x6c>
   2b9bc:	4000191e 	bne	r8,zero,2ba24 <__gedf2+0xa0>
   2b9c0:	2914b03a 	or	r10,r5,r4
   2b9c4:	5013003a 	cmpeq	r9,r10,zero
   2b9c8:	1800131e 	bne	r3,zero,2ba18 <__gedf2+0x94>
   2b9cc:	3998b03a 	or	r12,r7,r6
   2b9d0:	6000111e 	bne	r12,zero,2ba18 <__gedf2+0x94>
   2b9d4:	50000a1e 	bne	r10,zero,2ba00 <__gedf2+0x7c>
   2b9d8:	0005883a 	mov	r2,zero
   2b9dc:	f800283a 	ret
   2b9e0:	2912b03a 	or	r9,r5,r4
   2b9e4:	48001e1e 	bne	r9,zero,2ba60 <__gedf2+0xdc>
   2b9e8:	1a41ffe0 	cmpeqi	r9,r3,2047
   2b9ec:	48000d26 	beq	r9,zero,2ba24 <__gedf2+0xa0>
   2b9f0:	3992b03a 	or	r9,r7,r6
   2b9f4:	48001a1e 	bne	r9,zero,2ba60 <__gedf2+0xdc>
   2b9f8:	40000526 	beq	r8,zero,2ba10 <__gedf2+0x8c>
   2b9fc:	58800d26 	beq	r11,r2,2ba34 <__gedf2+0xb0>
   2ba00:	00800044 	movi	r2,1
   2ba04:	58000626 	beq	r11,zero,2ba20 <__gedf2+0x9c>
   2ba08:	00bfffc4 	movi	r2,-1
   2ba0c:	f800283a 	ret
   2ba10:	2912b03a 	or	r9,r5,r4
   2ba14:	4813003a 	cmpeq	r9,r9,zero
   2ba18:	483ff826 	beq	r9,zero,2b9fc <__gedf2+0x78>
   2ba1c:	103ffa26 	beq	r2,zero,2ba08 <__gedf2+0x84>
   2ba20:	f800283a 	ret
   2ba24:	183ff51e 	bne	r3,zero,2b9fc <__gedf2+0x78>
   2ba28:	3992b03a 	or	r9,r7,r6
   2ba2c:	483ff31e 	bne	r9,zero,2b9fc <__gedf2+0x78>
   2ba30:	003ff306 	br	2ba00 <__gedf2+0x7c>
   2ba34:	1a000716 	blt	r3,r8,2ba54 <__gedf2+0xd0>
   2ba38:	40fff816 	blt	r8,r3,2ba1c <__gedf2+0x98>
   2ba3c:	397ff036 	bltu	r7,r5,2ba00 <__gedf2+0x7c>
   2ba40:	29c00926 	beq	r5,r7,2ba68 <__gedf2+0xe4>
   2ba44:	29ffe42e 	bgeu	r5,r7,2b9d8 <__gedf2+0x54>
   2ba48:	583fef26 	beq	r11,zero,2ba08 <__gedf2+0x84>
   2ba4c:	5805883a 	mov	r2,r11
   2ba50:	f800283a 	ret
   2ba54:	103fec1e 	bne	r2,zero,2ba08 <__gedf2+0x84>
   2ba58:	00800044 	movi	r2,1
   2ba5c:	f800283a 	ret
   2ba60:	00bfff84 	movi	r2,-2
   2ba64:	f800283a 	ret
   2ba68:	313fe536 	bltu	r6,r4,2ba00 <__gedf2+0x7c>
   2ba6c:	21bfda2e 	bgeu	r4,r6,2b9d8 <__gedf2+0x54>
   2ba70:	003ff506 	br	2ba48 <__gedf2+0xc4>

0002ba74 <__ledf2>:
   2ba74:	2810d53a 	srli	r8,r5,20
   2ba78:	3812d53a 	srli	r9,r7,20
   2ba7c:	00c00434 	movhi	r3,16
   2ba80:	4201ffcc 	andi	r8,r8,2047
   2ba84:	18ffffc4 	addi	r3,r3,-1
   2ba88:	4281ffd8 	cmpnei	r10,r8,2047
   2ba8c:	2816d7fa 	srli	r11,r5,31
   2ba90:	3804d7fa 	srli	r2,r7,31
   2ba94:	28ca703a 	and	r5,r5,r3
   2ba98:	38ce703a 	and	r7,r7,r3
   2ba9c:	48c1ffcc 	andi	r3,r9,2047
   2baa0:	50000b26 	beq	r10,zero,2bad0 <__ledf2+0x5c>
   2baa4:	1a41ffd8 	cmpnei	r9,r3,2047
   2baa8:	48000d26 	beq	r9,zero,2bae0 <__ledf2+0x6c>
   2baac:	40001b1e 	bne	r8,zero,2bb1c <__ledf2+0xa8>
   2bab0:	2914b03a 	or	r10,r5,r4
   2bab4:	5013003a 	cmpeq	r9,r10,zero
   2bab8:	18000e1e 	bne	r3,zero,2baf4 <__ledf2+0x80>
   2babc:	3998b03a 	or	r12,r7,r6
   2bac0:	60000c1e 	bne	r12,zero,2baf4 <__ledf2+0x80>
   2bac4:	50000d1e 	bne	r10,zero,2bafc <__ledf2+0x88>
   2bac8:	0005883a 	mov	r2,zero
   2bacc:	f800283a 	ret
   2bad0:	2912b03a 	or	r9,r5,r4
   2bad4:	48000d1e 	bne	r9,zero,2bb0c <__ledf2+0x98>
   2bad8:	1a41ffe0 	cmpeqi	r9,r3,2047
   2badc:	48000f26 	beq	r9,zero,2bb1c <__ledf2+0xa8>
   2bae0:	3992b03a 	or	r9,r7,r6
   2bae4:	4800091e 	bne	r9,zero,2bb0c <__ledf2+0x98>
   2bae8:	4000031e 	bne	r8,zero,2baf8 <__ledf2+0x84>
   2baec:	2912b03a 	or	r9,r5,r4
   2baf0:	4813003a 	cmpeq	r9,r9,zero
   2baf4:	4800071e 	bne	r9,zero,2bb14 <__ledf2+0xa0>
   2baf8:	58800c26 	beq	r11,r2,2bb2c <__ledf2+0xb8>
   2bafc:	00800044 	movi	r2,1
   2bb00:	58000526 	beq	r11,zero,2bb18 <__ledf2+0xa4>
   2bb04:	00bfffc4 	movi	r2,-1
   2bb08:	f800283a 	ret
   2bb0c:	00800084 	movi	r2,2
   2bb10:	f800283a 	ret
   2bb14:	103ffb26 	beq	r2,zero,2bb04 <__ledf2+0x90>
   2bb18:	f800283a 	ret
   2bb1c:	183ff61e 	bne	r3,zero,2baf8 <__ledf2+0x84>
   2bb20:	3992b03a 	or	r9,r7,r6
   2bb24:	483ff41e 	bne	r9,zero,2baf8 <__ledf2+0x84>
   2bb28:	003ff406 	br	2bafc <__ledf2+0x88>
   2bb2c:	1a00030e 	bge	r3,r8,2bb3c <__ledf2+0xc8>
   2bb30:	103ff41e 	bne	r2,zero,2bb04 <__ledf2+0x90>
   2bb34:	00800044 	movi	r2,1
   2bb38:	f800283a 	ret
   2bb3c:	40fff516 	blt	r8,r3,2bb14 <__ledf2+0xa0>
   2bb40:	397fee36 	bltu	r7,r5,2bafc <__ledf2+0x88>
   2bb44:	29c00426 	beq	r5,r7,2bb58 <__ledf2+0xe4>
   2bb48:	29ffdf2e 	bgeu	r5,r7,2bac8 <__ledf2+0x54>
   2bb4c:	583fed26 	beq	r11,zero,2bb04 <__ledf2+0x90>
   2bb50:	5805883a 	mov	r2,r11
   2bb54:	f800283a 	ret
   2bb58:	313fe836 	bltu	r6,r4,2bafc <__ledf2+0x88>
   2bb5c:	21bfda2e 	bgeu	r4,r6,2bac8 <__ledf2+0x54>
   2bb60:	003ffa06 	br	2bb4c <__ledf2+0xd8>

0002bb64 <__muldf3>:
   2bb64:	2810d53a 	srli	r8,r5,20
   2bb68:	defff004 	addi	sp,sp,-64
   2bb6c:	00800434 	movhi	r2,16
   2bb70:	df000e15 	stw	fp,56(sp)
   2bb74:	dd000a15 	stw	r20,40(sp)
   2bb78:	dcc00915 	stw	r19,36(sp)
   2bb7c:	dc400715 	stw	r17,28(sp)
   2bb80:	10bfffc4 	addi	r2,r2,-1
   2bb84:	dfc00f15 	stw	ra,60(sp)
   2bb88:	ddc00d15 	stw	r23,52(sp)
   2bb8c:	dd800c15 	stw	r22,48(sp)
   2bb90:	dd400b15 	stw	r21,44(sp)
   2bb94:	dc800815 	stw	r18,32(sp)
   2bb98:	dc000615 	stw	r16,24(sp)
   2bb9c:	4201ffcc 	andi	r8,r8,2047
   2bba0:	2828d7fa 	srli	r20,r5,31
   2bba4:	2023883a 	mov	r17,r4
   2bba8:	3039883a 	mov	fp,r6
   2bbac:	28a6703a 	and	r19,r5,r2
   2bbb0:	40005a26 	beq	r8,zero,2bd1c <__muldf3+0x1b8>
   2bbb4:	4081ffe0 	cmpeqi	r2,r8,2047
   2bbb8:	10006c1e 	bne	r2,zero,2bd6c <__muldf3+0x208>
   2bbbc:	980a90fa 	slli	r5,r19,3
   2bbc0:	2026d77a 	srli	r19,r4,29
   2bbc4:	202490fa 	slli	r18,r4,3
   2bbc8:	423f0044 	addi	r8,r8,-1023
   2bbcc:	9966b03a 	or	r19,r19,r5
   2bbd0:	9cc02034 	orhi	r19,r19,128
   2bbd4:	002b883a 	mov	r21,zero
   2bbd8:	002d883a 	mov	r22,zero
   2bbdc:	3804d53a 	srli	r2,r7,20
   2bbe0:	00c00434 	movhi	r3,16
   2bbe4:	18ffffc4 	addi	r3,r3,-1
   2bbe8:	1081ffcc 	andi	r2,r2,2047
   2bbec:	382ed7fa 	srli	r23,r7,31
   2bbf0:	38e0703a 	and	r16,r7,r3
   2bbf4:	10006426 	beq	r2,zero,2bd88 <__muldf3+0x224>
   2bbf8:	10c1ffe0 	cmpeqi	r3,r2,2047
   2bbfc:	1800211e 	bne	r3,zero,2bc84 <__muldf3+0x120>
   2bc00:	e008d77a 	srli	r4,fp,29
   2bc04:	802090fa 	slli	r16,r16,3
   2bc08:	e02290fa 	slli	r17,fp,3
   2bc0c:	10bf0044 	addi	r2,r2,-1023
   2bc10:	2420b03a 	or	r16,r4,r16
   2bc14:	84002034 	orhi	r16,r16,128
   2bc18:	4091883a 	add	r8,r8,r2
   2bc1c:	0009883a 	mov	r4,zero
   2bc20:	a8800428 	cmpgeui	r2,r21,16
   2bc24:	a5ccf03a 	xor	r6,r20,r23
   2bc28:	41c00044 	addi	r7,r8,1
   2bc2c:	10006d1e 	bne	r2,zero,2bde4 <__muldf3+0x280>
   2bc30:	a80490ba 	slli	r2,r21,2
   2bc34:	00c000f4 	movhi	r3,3
   2bc38:	10c7883a 	add	r3,r2,r3
   2bc3c:	18af1117 	ldw	r2,-17340(r3)
   2bc40:	1000683a 	jmp	r2
   2bc44:	0002bde4 	muli	zero,zero,2807
   2bc48:	0002bca4 	muli	zero,zero,2802
   2bc4c:	0002bca4 	muli	zero,zero,2802
   2bc50:	0002bca0 	cmpeqi	zero,zero,2802
   2bc54:	0002bcb0 	cmpltui	zero,zero,2802
   2bc58:	0002bcb0 	cmpltui	zero,zero,2802
   2bc5c:	0002c160 	cmpeqi	zero,zero,2821
   2bc60:	0002bca0 	cmpeqi	zero,zero,2802
   2bc64:	0002bcb0 	cmpltui	zero,zero,2802
   2bc68:	0002c160 	cmpeqi	zero,zero,2821
   2bc6c:	0002bcb0 	cmpltui	zero,zero,2802
   2bc70:	0002bca0 	cmpeqi	zero,zero,2802
   2bc74:	0002c110 	cmplti	zero,zero,2820
   2bc78:	0002c110 	cmplti	zero,zero,2820
   2bc7c:	0002c110 	cmplti	zero,zero,2820
   2bc80:	0002c1ec 	andhi	zero,zero,2823
   2bc84:	e422b03a 	or	r17,fp,r16
   2bc88:	4201ffc4 	addi	r8,r8,2047
   2bc8c:	8801221e 	bne	r17,zero,2c118 <__muldf3+0x5b4>
   2bc90:	ad400094 	ori	r21,r21,2
   2bc94:	0021883a 	mov	r16,zero
   2bc98:	01000084 	movi	r4,2
   2bc9c:	003fe006 	br	2bc20 <__muldf3+0xbc>
   2bca0:	b80d883a 	mov	r6,r23
   2bca4:	8027883a 	mov	r19,r16
   2bca8:	8825883a 	mov	r18,r17
   2bcac:	202d883a 	mov	r22,r4
   2bcb0:	b08000a0 	cmpeqi	r2,r22,2
   2bcb4:	1000471e 	bne	r2,zero,2bdd4 <__muldf3+0x270>
   2bcb8:	b08000e0 	cmpeqi	r2,r22,3
   2bcbc:	10018e1e 	bne	r2,zero,2c2f8 <__muldf3+0x794>
   2bcc0:	b0800060 	cmpeqi	r2,r22,1
   2bcc4:	1000f826 	beq	r2,zero,2c0a8 <__muldf3+0x544>
   2bcc8:	0007883a 	mov	r3,zero
   2bccc:	0027883a 	mov	r19,zero
   2bcd0:	0025883a 	mov	r18,zero
   2bcd4:	1806953a 	slli	r3,r3,20
   2bcd8:	31803fcc 	andi	r6,r6,255
   2bcdc:	300c97fa 	slli	r6,r6,31
   2bce0:	1cc6b03a 	or	r3,r3,r19
   2bce4:	9005883a 	mov	r2,r18
   2bce8:	1986b03a 	or	r3,r3,r6
   2bcec:	dfc00f17 	ldw	ra,60(sp)
   2bcf0:	df000e17 	ldw	fp,56(sp)
   2bcf4:	ddc00d17 	ldw	r23,52(sp)
   2bcf8:	dd800c17 	ldw	r22,48(sp)
   2bcfc:	dd400b17 	ldw	r21,44(sp)
   2bd00:	dd000a17 	ldw	r20,40(sp)
   2bd04:	dcc00917 	ldw	r19,36(sp)
   2bd08:	dc800817 	ldw	r18,32(sp)
   2bd0c:	dc400717 	ldw	r17,28(sp)
   2bd10:	dc000617 	ldw	r16,24(sp)
   2bd14:	dec01004 	addi	sp,sp,64
   2bd18:	f800283a 	ret
   2bd1c:	9924b03a 	or	r18,r19,r4
   2bd20:	90010a26 	beq	r18,zero,2c14c <__muldf3+0x5e8>
   2bd24:	d9c00015 	stw	r7,0(sp)
   2bd28:	98014d26 	beq	r19,zero,2c260 <__muldf3+0x6fc>
   2bd2c:	9809883a 	mov	r4,r19
   2bd30:	002cf500 	call	2cf50 <__clzsi2>
   2bd34:	d9c00017 	ldw	r7,0(sp)
   2bd38:	113ffd44 	addi	r4,r2,-11
   2bd3c:	00c00744 	movi	r3,29
   2bd40:	14bffe04 	addi	r18,r2,-8
   2bd44:	1907c83a 	sub	r3,r3,r4
   2bd48:	9ca6983a 	sll	r19,r19,r18
   2bd4c:	88c6d83a 	srl	r3,r17,r3
   2bd50:	8ca4983a 	sll	r18,r17,r18
   2bd54:	1ce6b03a 	or	r19,r3,r19
   2bd58:	023f0344 	movi	r8,-1011
   2bd5c:	4091c83a 	sub	r8,r8,r2
   2bd60:	002b883a 	mov	r21,zero
   2bd64:	002d883a 	mov	r22,zero
   2bd68:	003f9c06 	br	2bbdc <__muldf3+0x78>
   2bd6c:	9924b03a 	or	r18,r19,r4
   2bd70:	9000f11e 	bne	r18,zero,2c138 <__muldf3+0x5d4>
   2bd74:	0027883a 	mov	r19,zero
   2bd78:	05400204 	movi	r21,8
   2bd7c:	0201ffc4 	movi	r8,2047
   2bd80:	05800084 	movi	r22,2
   2bd84:	003f9506 	br	2bbdc <__muldf3+0x78>
   2bd88:	e422b03a 	or	r17,fp,r16
   2bd8c:	8800e626 	beq	r17,zero,2c128 <__muldf3+0x5c4>
   2bd90:	da000015 	stw	r8,0(sp)
   2bd94:	80012626 	beq	r16,zero,2c230 <__muldf3+0x6cc>
   2bd98:	8009883a 	mov	r4,r16
   2bd9c:	002cf500 	call	2cf50 <__clzsi2>
   2bda0:	da000017 	ldw	r8,0(sp)
   2bda4:	117ffd44 	addi	r5,r2,-11
   2bda8:	01000744 	movi	r4,29
   2bdac:	147ffe04 	addi	r17,r2,-8
   2bdb0:	2149c83a 	sub	r4,r4,r5
   2bdb4:	8460983a 	sll	r16,r16,r17
   2bdb8:	e108d83a 	srl	r4,fp,r4
   2bdbc:	e462983a 	sll	r17,fp,r17
   2bdc0:	2420b03a 	or	r16,r4,r16
   2bdc4:	4091c83a 	sub	r8,r8,r2
   2bdc8:	423f0344 	addi	r8,r8,-1011
   2bdcc:	0009883a 	mov	r4,zero
   2bdd0:	003f9306 	br	2bc20 <__muldf3+0xbc>
   2bdd4:	00c1ffc4 	movi	r3,2047
   2bdd8:	0027883a 	mov	r19,zero
   2bddc:	0025883a 	mov	r18,zero
   2bde0:	003fbc06 	br	2bcd4 <__muldf3+0x170>
   2bde4:	9028d43a 	srli	r20,r18,16
   2bde8:	8f3fffcc 	andi	fp,r17,65535
   2bdec:	957fffcc 	andi	r21,r18,65535
   2bdf0:	a80b883a 	mov	r5,r21
   2bdf4:	e009883a 	mov	r4,fp
   2bdf8:	d9800315 	stw	r6,12(sp)
   2bdfc:	da000215 	stw	r8,8(sp)
   2be00:	d9c00115 	stw	r7,4(sp)
   2be04:	8822d43a 	srli	r17,r17,16
   2be08:	002a4ac0 	call	2a4ac <__mulsi3>
   2be0c:	e00b883a 	mov	r5,fp
   2be10:	a009883a 	mov	r4,r20
   2be14:	102d883a 	mov	r22,r2
   2be18:	002a4ac0 	call	2a4ac <__mulsi3>
   2be1c:	880b883a 	mov	r5,r17
   2be20:	a009883a 	mov	r4,r20
   2be24:	102f883a 	mov	r23,r2
   2be28:	002a4ac0 	call	2a4ac <__mulsi3>
   2be2c:	a80b883a 	mov	r5,r21
   2be30:	8809883a 	mov	r4,r17
   2be34:	d8800015 	stw	r2,0(sp)
   2be38:	002a4ac0 	call	2a4ac <__mulsi3>
   2be3c:	b006d43a 	srli	r3,r22,16
   2be40:	15e5883a 	add	r18,r2,r23
   2be44:	d9c00117 	ldw	r7,4(sp)
   2be48:	1c87883a 	add	r3,r3,r18
   2be4c:	da000217 	ldw	r8,8(sp)
   2be50:	d9800317 	ldw	r6,12(sp)
   2be54:	1dc0042e 	bgeu	r3,r23,2be68 <__muldf3+0x304>
   2be58:	d9000017 	ldw	r4,0(sp)
   2be5c:	00800074 	movhi	r2,1
   2be60:	2085883a 	add	r2,r4,r2
   2be64:	d8800015 	stw	r2,0(sp)
   2be68:	1804943a 	slli	r2,r3,16
   2be6c:	85ffffcc 	andi	r23,r16,65535
   2be70:	b5bfffcc 	andi	r22,r22,65535
   2be74:	1585883a 	add	r2,r2,r22
   2be78:	a80b883a 	mov	r5,r21
   2be7c:	b809883a 	mov	r4,r23
   2be80:	1824d43a 	srli	r18,r3,16
   2be84:	d9800515 	stw	r6,20(sp)
   2be88:	da000415 	stw	r8,16(sp)
   2be8c:	d9c00315 	stw	r7,12(sp)
   2be90:	8020d43a 	srli	r16,r16,16
   2be94:	d8800115 	stw	r2,4(sp)
   2be98:	002a4ac0 	call	2a4ac <__mulsi3>
   2be9c:	a009883a 	mov	r4,r20
   2bea0:	b80b883a 	mov	r5,r23
   2bea4:	d8800215 	stw	r2,8(sp)
   2bea8:	002a4ac0 	call	2a4ac <__mulsi3>
   2beac:	a009883a 	mov	r4,r20
   2beb0:	800b883a 	mov	r5,r16
   2beb4:	102d883a 	mov	r22,r2
   2beb8:	002a4ac0 	call	2a4ac <__mulsi3>
   2bebc:	a80b883a 	mov	r5,r21
   2bec0:	8009883a 	mov	r4,r16
   2bec4:	1029883a 	mov	r20,r2
   2bec8:	002a4ac0 	call	2a4ac <__mulsi3>
   2becc:	da800217 	ldw	r10,8(sp)
   2bed0:	1585883a 	add	r2,r2,r22
   2bed4:	d9c00317 	ldw	r7,12(sp)
   2bed8:	5006d43a 	srli	r3,r10,16
   2bedc:	da000417 	ldw	r8,16(sp)
   2bee0:	d9800517 	ldw	r6,20(sp)
   2bee4:	1887883a 	add	r3,r3,r2
   2bee8:	1d80022e 	bgeu	r3,r22,2bef4 <__muldf3+0x390>
   2beec:	00800074 	movhi	r2,1
   2bef0:	a0a9883a 	add	r20,r20,r2
   2bef4:	1804d43a 	srli	r2,r3,16
   2bef8:	1806943a 	slli	r3,r3,16
   2befc:	982cd43a 	srli	r22,r19,16
   2bf00:	9d7fffcc 	andi	r21,r19,65535
   2bf04:	e009883a 	mov	r4,fp
   2bf08:	54ffffcc 	andi	r19,r10,65535
   2bf0c:	a80b883a 	mov	r5,r21
   2bf10:	1ce7883a 	add	r19,r3,r19
   2bf14:	d9800515 	stw	r6,20(sp)
   2bf18:	da000415 	stw	r8,16(sp)
   2bf1c:	d9c00315 	stw	r7,12(sp)
   2bf20:	1529883a 	add	r20,r2,r20
   2bf24:	002a4ac0 	call	2a4ac <__mulsi3>
   2bf28:	e00b883a 	mov	r5,fp
   2bf2c:	b009883a 	mov	r4,r22
   2bf30:	d8800215 	stw	r2,8(sp)
   2bf34:	002a4ac0 	call	2a4ac <__mulsi3>
   2bf38:	8809883a 	mov	r4,r17
   2bf3c:	b00b883a 	mov	r5,r22
   2bf40:	1039883a 	mov	fp,r2
   2bf44:	002a4ac0 	call	2a4ac <__mulsi3>
   2bf48:	8809883a 	mov	r4,r17
   2bf4c:	a80b883a 	mov	r5,r21
   2bf50:	1023883a 	mov	r17,r2
   2bf54:	002a4ac0 	call	2a4ac <__mulsi3>
   2bf58:	d8c00217 	ldw	r3,8(sp)
   2bf5c:	1705883a 	add	r2,r2,fp
   2bf60:	d9c00317 	ldw	r7,12(sp)
   2bf64:	1808d43a 	srli	r4,r3,16
   2bf68:	da000417 	ldw	r8,16(sp)
   2bf6c:	d9800517 	ldw	r6,20(sp)
   2bf70:	2089883a 	add	r4,r4,r2
   2bf74:	94e5883a 	add	r18,r18,r19
   2bf78:	2700022e 	bgeu	r4,fp,2bf84 <__muldf3+0x420>
   2bf7c:	00800074 	movhi	r2,1
   2bf80:	88a3883a 	add	r17,r17,r2
   2bf84:	2004d43a 	srli	r2,r4,16
   2bf88:	2038943a 	slli	fp,r4,16
   2bf8c:	18ffffcc 	andi	r3,r3,65535
   2bf90:	b809883a 	mov	r4,r23
   2bf94:	a80b883a 	mov	r5,r21
   2bf98:	d9800415 	stw	r6,16(sp)
   2bf9c:	da000315 	stw	r8,12(sp)
   2bfa0:	d9c00215 	stw	r7,8(sp)
   2bfa4:	e0f9883a 	add	fp,fp,r3
   2bfa8:	1463883a 	add	r17,r2,r17
   2bfac:	002a4ac0 	call	2a4ac <__mulsi3>
   2bfb0:	b80b883a 	mov	r5,r23
   2bfb4:	b009883a 	mov	r4,r22
   2bfb8:	102f883a 	mov	r23,r2
   2bfbc:	002a4ac0 	call	2a4ac <__mulsi3>
   2bfc0:	b00b883a 	mov	r5,r22
   2bfc4:	8009883a 	mov	r4,r16
   2bfc8:	102d883a 	mov	r22,r2
   2bfcc:	002a4ac0 	call	2a4ac <__mulsi3>
   2bfd0:	a80b883a 	mov	r5,r21
   2bfd4:	8009883a 	mov	r4,r16
   2bfd8:	1021883a 	mov	r16,r2
   2bfdc:	002a4ac0 	call	2a4ac <__mulsi3>
   2bfe0:	b80ad43a 	srli	r5,r23,16
   2bfe4:	1585883a 	add	r2,r2,r22
   2bfe8:	d9c00217 	ldw	r7,8(sp)
   2bfec:	288b883a 	add	r5,r5,r2
   2bff0:	da000317 	ldw	r8,12(sp)
   2bff4:	d9800417 	ldw	r6,16(sp)
   2bff8:	2d80022e 	bgeu	r5,r22,2c004 <__muldf3+0x4a0>
   2bffc:	00800074 	movhi	r2,1
   2c000:	80a1883a 	add	r16,r16,r2
   2c004:	2806943a 	slli	r3,r5,16
   2c008:	d8800017 	ldw	r2,0(sp)
   2c00c:	bdffffcc 	andi	r23,r23,65535
   2c010:	1dc7883a 	add	r3,r3,r23
   2c014:	90ab883a 	add	r21,r18,r2
   2c018:	acd5803a 	cmpltu	r10,r21,r19
   2c01c:	1d07883a 	add	r3,r3,r20
   2c020:	af2b883a 	add	r21,r21,fp
   2c024:	1a97883a 	add	r11,r3,r10
   2c028:	af09803a 	cmpltu	r4,r21,fp
   2c02c:	2826d43a 	srli	r19,r5,16
   2c030:	5c53883a 	add	r9,r11,r17
   2c034:	4905883a 	add	r2,r9,r4
   2c038:	1d29803a 	cmpltu	r20,r3,r20
   2c03c:	5a95803a 	cmpltu	r10,r11,r10
   2c040:	1109803a 	cmpltu	r4,r2,r4
   2c044:	a2a8b03a 	or	r20,r20,r10
   2c048:	4c63803a 	cmpltu	r17,r9,r17
   2c04c:	a4e7883a 	add	r19,r20,r19
   2c050:	8908b03a 	or	r4,r17,r4
   2c054:	a824927a 	slli	r18,r21,9
   2c058:	d8c00117 	ldw	r3,4(sp)
   2c05c:	9927883a 	add	r19,r19,r4
   2c060:	9c27883a 	add	r19,r19,r16
   2c064:	9826927a 	slli	r19,r19,9
   2c068:	a82ad5fa 	srli	r21,r21,23
   2c06c:	100ad5fa 	srli	r5,r2,23
   2c070:	90e4b03a 	or	r18,r18,r3
   2c074:	1004927a 	slli	r2,r2,9
   2c078:	9024c03a 	cmpne	r18,r18,zero
   2c07c:	9564b03a 	or	r18,r18,r21
   2c080:	98c0402c 	andhi	r3,r19,256
   2c084:	90a4b03a 	or	r18,r18,r2
   2c088:	9966b03a 	or	r19,r19,r5
   2c08c:	18007f26 	beq	r3,zero,2c28c <__muldf3+0x728>
   2c090:	9006d07a 	srli	r3,r18,1
   2c094:	980497fa 	slli	r2,r19,31
   2c098:	9480004c 	andi	r18,r18,1
   2c09c:	9826d07a 	srli	r19,r19,1
   2c0a0:	1c86b03a 	or	r3,r3,r18
   2c0a4:	18a4b03a 	or	r18,r3,r2
   2c0a8:	3900ffc4 	addi	r4,r7,1023
   2c0ac:	0100320e 	bge	zero,r4,2c178 <__muldf3+0x614>
   2c0b0:	908001cc 	andi	r2,r18,7
   2c0b4:	10000726 	beq	r2,zero,2c0d4 <__muldf3+0x570>
   2c0b8:	908003cc 	andi	r2,r18,15
   2c0bc:	10800120 	cmpeqi	r2,r2,4
   2c0c0:	1000041e 	bne	r2,zero,2c0d4 <__muldf3+0x570>
   2c0c4:	90800104 	addi	r2,r18,4
   2c0c8:	14a5803a 	cmpltu	r18,r2,r18
   2c0cc:	9ca7883a 	add	r19,r19,r18
   2c0d0:	1025883a 	mov	r18,r2
   2c0d4:	9880402c 	andhi	r2,r19,256
   2c0d8:	10000426 	beq	r2,zero,2c0ec <__muldf3+0x588>
   2c0dc:	00bfc034 	movhi	r2,65280
   2c0e0:	10bfffc4 	addi	r2,r2,-1
   2c0e4:	98a6703a 	and	r19,r19,r2
   2c0e8:	39010004 	addi	r4,r7,1024
   2c0ec:	2081ffc8 	cmpgei	r2,r4,2047
   2c0f0:	103f381e 	bne	r2,zero,2bdd4 <__muldf3+0x270>
   2c0f4:	9804977a 	slli	r2,r19,29
   2c0f8:	9024d0fa 	srli	r18,r18,3
   2c0fc:	9826927a 	slli	r19,r19,9
   2c100:	20c1ffcc 	andi	r3,r4,2047
   2c104:	14a4b03a 	or	r18,r2,r18
   2c108:	9826d33a 	srli	r19,r19,12
   2c10c:	003ef106 	br	2bcd4 <__muldf3+0x170>
   2c110:	a00d883a 	mov	r6,r20
   2c114:	003ee606 	br	2bcb0 <__muldf3+0x14c>
   2c118:	ad4000d4 	ori	r21,r21,3
   2c11c:	e023883a 	mov	r17,fp
   2c120:	010000c4 	movi	r4,3
   2c124:	003ebe06 	br	2bc20 <__muldf3+0xbc>
   2c128:	ad400054 	ori	r21,r21,1
   2c12c:	0021883a 	mov	r16,zero
   2c130:	01000044 	movi	r4,1
   2c134:	003eba06 	br	2bc20 <__muldf3+0xbc>
   2c138:	2025883a 	mov	r18,r4
   2c13c:	05400304 	movi	r21,12
   2c140:	0201ffc4 	movi	r8,2047
   2c144:	058000c4 	movi	r22,3
   2c148:	003ea406 	br	2bbdc <__muldf3+0x78>
   2c14c:	0027883a 	mov	r19,zero
   2c150:	05400104 	movi	r21,4
   2c154:	0011883a 	mov	r8,zero
   2c158:	05800044 	movi	r22,1
   2c15c:	003e9f06 	br	2bbdc <__muldf3+0x78>
   2c160:	04c00434 	movhi	r19,16
   2c164:	000d883a 	mov	r6,zero
   2c168:	9cffffc4 	addi	r19,r19,-1
   2c16c:	04bfffc4 	movi	r18,-1
   2c170:	00c1ffc4 	movi	r3,2047
   2c174:	003ed706 	br	2bcd4 <__muldf3+0x170>
   2c178:	00800044 	movi	r2,1
   2c17c:	1105c83a 	sub	r2,r2,r4
   2c180:	10c00e48 	cmpgei	r3,r2,57
   2c184:	183ed01e 	bne	r3,zero,2bcc8 <__muldf3+0x164>
   2c188:	10c00808 	cmpgei	r3,r2,32
   2c18c:	1800411e 	bne	r3,zero,2c294 <__muldf3+0x730>
   2c190:	39c10784 	addi	r7,r7,1054
   2c194:	99c6983a 	sll	r3,r19,r7
   2c198:	9088d83a 	srl	r4,r18,r2
   2c19c:	91ce983a 	sll	r7,r18,r7
   2c1a0:	98a6d83a 	srl	r19,r19,r2
   2c1a4:	1904b03a 	or	r2,r3,r4
   2c1a8:	3824c03a 	cmpne	r18,r7,zero
   2c1ac:	1484b03a 	or	r2,r2,r18
   2c1b0:	10c001cc 	andi	r3,r2,7
   2c1b4:	18000726 	beq	r3,zero,2c1d4 <__muldf3+0x670>
   2c1b8:	10c003cc 	andi	r3,r2,15
   2c1bc:	18c00120 	cmpeqi	r3,r3,4
   2c1c0:	1800041e 	bne	r3,zero,2c1d4 <__muldf3+0x670>
   2c1c4:	10c00104 	addi	r3,r2,4
   2c1c8:	1885803a 	cmpltu	r2,r3,r2
   2c1cc:	98a7883a 	add	r19,r19,r2
   2c1d0:	1805883a 	mov	r2,r3
   2c1d4:	98c0202c 	andhi	r3,r19,128
   2c1d8:	18004326 	beq	r3,zero,2c2e8 <__muldf3+0x784>
   2c1dc:	00c00044 	movi	r3,1
   2c1e0:	0027883a 	mov	r19,zero
   2c1e4:	0025883a 	mov	r18,zero
   2c1e8:	003eba06 	br	2bcd4 <__muldf3+0x170>
   2c1ec:	9880022c 	andhi	r2,r19,8
   2c1f0:	10000926 	beq	r2,zero,2c218 <__muldf3+0x6b4>
   2c1f4:	8080022c 	andhi	r2,r16,8
   2c1f8:	1000071e 	bne	r2,zero,2c218 <__muldf3+0x6b4>
   2c1fc:	00800434 	movhi	r2,16
   2c200:	84c00234 	orhi	r19,r16,8
   2c204:	10bfffc4 	addi	r2,r2,-1
   2c208:	98a6703a 	and	r19,r19,r2
   2c20c:	b80d883a 	mov	r6,r23
   2c210:	8825883a 	mov	r18,r17
   2c214:	003fd606 	br	2c170 <__muldf3+0x60c>
   2c218:	00800434 	movhi	r2,16
   2c21c:	9cc00234 	orhi	r19,r19,8
   2c220:	10bfffc4 	addi	r2,r2,-1
   2c224:	98a6703a 	and	r19,r19,r2
   2c228:	a00d883a 	mov	r6,r20
   2c22c:	003fd006 	br	2c170 <__muldf3+0x60c>
   2c230:	e009883a 	mov	r4,fp
   2c234:	002cf500 	call	2cf50 <__clzsi2>
   2c238:	11400544 	addi	r5,r2,21
   2c23c:	29000748 	cmpgei	r4,r5,29
   2c240:	1007883a 	mov	r3,r2
   2c244:	da000017 	ldw	r8,0(sp)
   2c248:	10800804 	addi	r2,r2,32
   2c24c:	203ed626 	beq	r4,zero,2bda8 <__muldf3+0x244>
   2c250:	1c3ffe04 	addi	r16,r3,-8
   2c254:	e420983a 	sll	r16,fp,r16
   2c258:	0023883a 	mov	r17,zero
   2c25c:	003ed906 	br	2bdc4 <__muldf3+0x260>
   2c260:	002cf500 	call	2cf50 <__clzsi2>
   2c264:	11000544 	addi	r4,r2,21
   2c268:	21400748 	cmpgei	r5,r4,29
   2c26c:	1007883a 	mov	r3,r2
   2c270:	d9c00017 	ldw	r7,0(sp)
   2c274:	10800804 	addi	r2,r2,32
   2c278:	283eb026 	beq	r5,zero,2bd3c <__muldf3+0x1d8>
   2c27c:	1cfffe04 	addi	r19,r3,-8
   2c280:	8ce6983a 	sll	r19,r17,r19
   2c284:	0025883a 	mov	r18,zero
   2c288:	003eb306 	br	2bd58 <__muldf3+0x1f4>
   2c28c:	400f883a 	mov	r7,r8
   2c290:	003f8506 	br	2c0a8 <__muldf3+0x544>
   2c294:	00fff844 	movi	r3,-31
   2c298:	1907c83a 	sub	r3,r3,r4
   2c29c:	10800820 	cmpeqi	r2,r2,32
   2c2a0:	98c6d83a 	srl	r3,r19,r3
   2c2a4:	1000031e 	bne	r2,zero,2c2b4 <__muldf3+0x750>
   2c2a8:	39c10f84 	addi	r7,r7,1086
   2c2ac:	99e6983a 	sll	r19,r19,r7
   2c2b0:	94e4b03a 	or	r18,r18,r19
   2c2b4:	9024c03a 	cmpne	r18,r18,zero
   2c2b8:	90c4b03a 	or	r2,r18,r3
   2c2bc:	148001cc 	andi	r18,r2,7
   2c2c0:	9000051e 	bne	r18,zero,2c2d8 <__muldf3+0x774>
   2c2c4:	0027883a 	mov	r19,zero
   2c2c8:	1004d0fa 	srli	r2,r2,3
   2c2cc:	0007883a 	mov	r3,zero
   2c2d0:	14a4b03a 	or	r18,r2,r18
   2c2d4:	003e7f06 	br	2bcd4 <__muldf3+0x170>
   2c2d8:	10c003cc 	andi	r3,r2,15
   2c2dc:	18c00118 	cmpnei	r3,r3,4
   2c2e0:	0027883a 	mov	r19,zero
   2c2e4:	183fb71e 	bne	r3,zero,2c1c4 <__muldf3+0x660>
   2c2e8:	9806927a 	slli	r3,r19,9
   2c2ec:	9824977a 	slli	r18,r19,29
   2c2f0:	1826d33a 	srli	r19,r3,12
   2c2f4:	003ff406 	br	2c2c8 <__muldf3+0x764>
   2c2f8:	00800434 	movhi	r2,16
   2c2fc:	9cc00234 	orhi	r19,r19,8
   2c300:	10bfffc4 	addi	r2,r2,-1
   2c304:	98a6703a 	and	r19,r19,r2
   2c308:	003f9906 	br	2c170 <__muldf3+0x60c>

0002c30c <__subdf3>:
   2c30c:	00c00434 	movhi	r3,16
   2c310:	3812d53a 	srli	r9,r7,20
   2c314:	18ffffc4 	addi	r3,r3,-1
   2c318:	defffb04 	addi	sp,sp,-20
   2c31c:	28d0703a 	and	r8,r5,r3
   2c320:	38c6703a 	and	r3,r7,r3
   2c324:	2804d7fa 	srli	r2,r5,31
   2c328:	401090fa 	slli	r8,r8,3
   2c32c:	280ad53a 	srli	r5,r5,20
   2c330:	180690fa 	slli	r3,r3,3
   2c334:	dcc00315 	stw	r19,12(sp)
   2c338:	dc400115 	stw	r17,4(sp)
   2c33c:	2026d77a 	srli	r19,r4,29
   2c340:	3022d77a 	srli	r17,r6,29
   2c344:	4b41ffcc 	andi	r13,r9,2047
   2c348:	dc800215 	stw	r18,8(sp)
   2c34c:	dc000015 	stw	r16,0(sp)
   2c350:	dfc00415 	stw	ra,16(sp)
   2c354:	6a41ffe0 	cmpeqi	r9,r13,2047
   2c358:	1025883a 	mov	r18,r2
   2c35c:	201690fa 	slli	r11,r4,3
   2c360:	380ed7fa 	srli	r7,r7,31
   2c364:	301490fa 	slli	r10,r6,3
   2c368:	2c01ffcc 	andi	r16,r5,2047
   2c36c:	10803fcc 	andi	r2,r2,255
   2c370:	9a10b03a 	or	r8,r19,r8
   2c374:	88c6b03a 	or	r3,r17,r3
   2c378:	48006e1e 	bne	r9,zero,2c534 <__subdf3+0x228>
   2c37c:	3a40005c 	xori	r9,r7,1
   2c380:	834bc83a 	sub	r5,r16,r13
   2c384:	12405726 	beq	r2,r9,2c4e4 <__subdf3+0x1d8>
   2c388:	01406f0e 	bge	zero,r5,2c548 <__subdf3+0x23c>
   2c38c:	68007a26 	beq	r13,zero,2c578 <__subdf3+0x26c>
   2c390:	8081ffd8 	cmpnei	r2,r16,2047
   2c394:	10019f26 	beq	r2,zero,2ca14 <__subdf3+0x708>
   2c398:	18c02034 	orhi	r3,r3,128
   2c39c:	28800e48 	cmpgei	r2,r5,57
   2c3a0:	1000f91e 	bne	r2,zero,2c788 <__subdf3+0x47c>
   2c3a4:	28800808 	cmpgei	r2,r5,32
   2c3a8:	1001451e 	bne	r2,zero,2c8c0 <__subdf3+0x5b4>
   2c3ac:	00800804 	movi	r2,32
   2c3b0:	1145c83a 	sub	r2,r2,r5
   2c3b4:	18a2983a 	sll	r17,r3,r2
   2c3b8:	5148d83a 	srl	r4,r10,r5
   2c3bc:	5084983a 	sll	r2,r10,r2
   2c3c0:	1946d83a 	srl	r3,r3,r5
   2c3c4:	8922b03a 	or	r17,r17,r4
   2c3c8:	1004c03a 	cmpne	r2,r2,zero
   2c3cc:	88a2b03a 	or	r17,r17,r2
   2c3d0:	40d1c83a 	sub	r8,r8,r3
   2c3d4:	5c63c83a 	sub	r17,r11,r17
   2c3d8:	5c49803a 	cmpltu	r4,r11,r17
   2c3dc:	4109c83a 	sub	r4,r8,r4
   2c3e0:	2080202c 	andhi	r2,r4,128
   2c3e4:	1000a526 	beq	r2,zero,2c67c <__subdf3+0x370>
   2c3e8:	04c02034 	movhi	r19,128
   2c3ec:	9cffffc4 	addi	r19,r19,-1
   2c3f0:	24e6703a 	and	r19,r4,r19
   2c3f4:	9800db26 	beq	r19,zero,2c764 <__subdf3+0x458>
   2c3f8:	9809883a 	mov	r4,r19
   2c3fc:	002cf500 	call	2cf50 <__clzsi2>
   2c400:	117ffe04 	addi	r5,r2,-8
   2c404:	01000804 	movi	r4,32
   2c408:	2149c83a 	sub	r4,r4,r5
   2c40c:	8906d83a 	srl	r3,r17,r4
   2c410:	9948983a 	sll	r4,r19,r5
   2c414:	8962983a 	sll	r17,r17,r5
   2c418:	1908b03a 	or	r4,r3,r4
   2c41c:	2c00cc16 	blt	r5,r16,2c750 <__subdf3+0x444>
   2c420:	2c0bc83a 	sub	r5,r5,r16
   2c424:	28c00044 	addi	r3,r5,1
   2c428:	18800808 	cmpgei	r2,r3,32
   2c42c:	1001171e 	bne	r2,zero,2c88c <__subdf3+0x580>
   2c430:	00800804 	movi	r2,32
   2c434:	10c5c83a 	sub	r2,r2,r3
   2c438:	88cad83a 	srl	r5,r17,r3
   2c43c:	88a2983a 	sll	r17,r17,r2
   2c440:	2084983a 	sll	r2,r4,r2
   2c444:	20c8d83a 	srl	r4,r4,r3
   2c448:	8822c03a 	cmpne	r17,r17,zero
   2c44c:	1144b03a 	or	r2,r2,r5
   2c450:	1462b03a 	or	r17,r2,r17
   2c454:	0021883a 	mov	r16,zero
   2c458:	888001cc 	andi	r2,r17,7
   2c45c:	10000726 	beq	r2,zero,2c47c <__subdf3+0x170>
   2c460:	888003cc 	andi	r2,r17,15
   2c464:	10800120 	cmpeqi	r2,r2,4
   2c468:	1000041e 	bne	r2,zero,2c47c <__subdf3+0x170>
   2c46c:	88c00104 	addi	r3,r17,4
   2c470:	1c63803a 	cmpltu	r17,r3,r17
   2c474:	2449883a 	add	r4,r4,r17
   2c478:	1823883a 	mov	r17,r3
   2c47c:	2080202c 	andhi	r2,r4,128
   2c480:	10008026 	beq	r2,zero,2c684 <__subdf3+0x378>
   2c484:	81400044 	addi	r5,r16,1
   2c488:	2881ffe0 	cmpeqi	r2,r5,2047
   2c48c:	2941ffcc 	andi	r5,r5,2047
   2c490:	1000921e 	bne	r2,zero,2c6dc <__subdf3+0x3d0>
   2c494:	00bfe034 	movhi	r2,65408
   2c498:	10bfffc4 	addi	r2,r2,-1
   2c49c:	2088703a 	and	r4,r4,r2
   2c4a0:	2006927a 	slli	r3,r4,9
   2c4a4:	8822d0fa 	srli	r17,r17,3
   2c4a8:	2004977a 	slli	r2,r4,29
   2c4ac:	1806d33a 	srli	r3,r3,12
   2c4b0:	1444b03a 	or	r2,r2,r17
   2c4b4:	280a953a 	slli	r5,r5,20
   2c4b8:	94803fcc 	andi	r18,r18,255
   2c4bc:	902497fa 	slli	r18,r18,31
   2c4c0:	28c6b03a 	or	r3,r5,r3
   2c4c4:	1c86b03a 	or	r3,r3,r18
   2c4c8:	dfc00417 	ldw	ra,16(sp)
   2c4cc:	dcc00317 	ldw	r19,12(sp)
   2c4d0:	dc800217 	ldw	r18,8(sp)
   2c4d4:	dc400117 	ldw	r17,4(sp)
   2c4d8:	dc000017 	ldw	r16,0(sp)
   2c4dc:	dec00504 	addi	sp,sp,20
   2c4e0:	f800283a 	ret
   2c4e4:	01402e0e 	bge	zero,r5,2c5a0 <__subdf3+0x294>
   2c4e8:	68005526 	beq	r13,zero,2c640 <__subdf3+0x334>
   2c4ec:	8081ffd8 	cmpnei	r2,r16,2047
   2c4f0:	10013b26 	beq	r2,zero,2c9e0 <__subdf3+0x6d4>
   2c4f4:	18c02034 	orhi	r3,r3,128
   2c4f8:	28800e48 	cmpgei	r2,r5,57
   2c4fc:	10006d1e 	bne	r2,zero,2c6b4 <__subdf3+0x3a8>
   2c500:	28800808 	cmpgei	r2,r5,32
   2c504:	10010826 	beq	r2,zero,2c928 <__subdf3+0x61c>
   2c508:	2c7ff804 	addi	r17,r5,-32
   2c50c:	29000820 	cmpeqi	r4,r5,32
   2c510:	1c44d83a 	srl	r2,r3,r17
   2c514:	2000041e 	bne	r4,zero,2c528 <__subdf3+0x21c>
   2c518:	01001004 	movi	r4,64
   2c51c:	214bc83a 	sub	r5,r4,r5
   2c520:	1946983a 	sll	r3,r3,r5
   2c524:	50d4b03a 	or	r10,r10,r3
   2c528:	5022c03a 	cmpne	r17,r10,zero
   2c52c:	88a2b03a 	or	r17,r17,r2
   2c530:	00006206 	br	2c6bc <__subdf3+0x3b0>
   2c534:	1a98b03a 	or	r12,r3,r10
   2c538:	817e0044 	addi	r5,r16,-2047
   2c53c:	6000161e 	bne	r12,zero,2c598 <__subdf3+0x28c>
   2c540:	3a40005c 	xori	r9,r7,1
   2c544:	12401626 	beq	r2,r9,2c5a0 <__subdf3+0x294>
   2c548:	28002e26 	beq	r5,zero,2c604 <__subdf3+0x2f8>
   2c54c:	6c0bc83a 	sub	r5,r13,r16
   2c550:	4825883a 	mov	r18,r9
   2c554:	80009e1e 	bne	r16,zero,2c7d0 <__subdf3+0x4c4>
   2c558:	42c4b03a 	or	r2,r8,r11
   2c55c:	10010926 	beq	r2,zero,2c984 <__subdf3+0x678>
   2c560:	28bfffc4 	addi	r2,r5,-1
   2c564:	10016826 	beq	r2,zero,2cb08 <__subdf3+0x7fc>
   2c568:	2941ffd8 	cmpnei	r5,r5,2047
   2c56c:	28015f26 	beq	r5,zero,2caec <__subdf3+0x7e0>
   2c570:	100b883a 	mov	r5,r2
   2c574:	00009906 	br	2c7dc <__subdf3+0x4d0>
   2c578:	1a84b03a 	or	r2,r3,r10
   2c57c:	1000b126 	beq	r2,zero,2c844 <__subdf3+0x538>
   2c580:	28bfffc4 	addi	r2,r5,-1
   2c584:	10011d26 	beq	r2,zero,2c9fc <__subdf3+0x6f0>
   2c588:	2941ffd8 	cmpnei	r5,r5,2047
   2c58c:	28011426 	beq	r5,zero,2c9e0 <__subdf3+0x6d4>
   2c590:	100b883a 	mov	r5,r2
   2c594:	003f8106 	br	2c39c <__subdf3+0x90>
   2c598:	3a403fcc 	andi	r9,r7,255
   2c59c:	11ffea1e 	bne	r2,r7,2c548 <__subdf3+0x23c>
   2c5a0:	28007c26 	beq	r5,zero,2c794 <__subdf3+0x488>
   2c5a4:	6c0bc83a 	sub	r5,r13,r16
   2c5a8:	8000d726 	beq	r16,zero,2c908 <__subdf3+0x5fc>
   2c5ac:	6881ffd8 	cmpnei	r2,r13,2047
   2c5b0:	10012626 	beq	r2,zero,2ca4c <__subdf3+0x740>
   2c5b4:	42002034 	orhi	r8,r8,128
   2c5b8:	28800e48 	cmpgei	r2,r5,57
   2c5bc:	10012a1e 	bne	r2,zero,2ca68 <__subdf3+0x75c>
   2c5c0:	28800808 	cmpgei	r2,r5,32
   2c5c4:	1001821e 	bne	r2,zero,2cbd0 <__subdf3+0x8c4>
   2c5c8:	00800804 	movi	r2,32
   2c5cc:	1145c83a 	sub	r2,r2,r5
   2c5d0:	40a2983a 	sll	r17,r8,r2
   2c5d4:	5948d83a 	srl	r4,r11,r5
   2c5d8:	5884983a 	sll	r2,r11,r2
   2c5dc:	4150d83a 	srl	r8,r8,r5
   2c5e0:	8922b03a 	or	r17,r17,r4
   2c5e4:	1004c03a 	cmpne	r2,r2,zero
   2c5e8:	88a2b03a 	or	r17,r17,r2
   2c5ec:	1a07883a 	add	r3,r3,r8
   2c5f0:	8aa3883a 	add	r17,r17,r10
   2c5f4:	8a89803a 	cmpltu	r4,r17,r10
   2c5f8:	20c9883a 	add	r4,r4,r3
   2c5fc:	6821883a 	mov	r16,r13
   2c600:	00003106 	br	2c6c8 <__subdf3+0x3bc>
   2c604:	80800044 	addi	r2,r16,1
   2c608:	1081ff8c 	andi	r2,r2,2046
   2c60c:	1000821e 	bne	r2,zero,2c818 <__subdf3+0x50c>
   2c610:	42ceb03a 	or	r7,r8,r11
   2c614:	1a84b03a 	or	r2,r3,r10
   2c618:	8000e11e 	bne	r16,zero,2c9a0 <__subdf3+0x694>
   2c61c:	38012a26 	beq	r7,zero,2cac8 <__subdf3+0x7bc>
   2c620:	1001461e 	bne	r2,zero,2cb3c <__subdf3+0x830>
   2c624:	4004977a 	slli	r2,r8,29
   2c628:	00c80034 	movhi	r3,8192
   2c62c:	18ffffc4 	addi	r3,r3,-1
   2c630:	20c8703a 	and	r4,r4,r3
   2c634:	4010d0fa 	srli	r8,r8,3
   2c638:	1104b03a 	or	r2,r2,r4
   2c63c:	00001806 	br	2c6a0 <__subdf3+0x394>
   2c640:	1a84b03a 	or	r2,r3,r10
   2c644:	1000fa26 	beq	r2,zero,2ca30 <__subdf3+0x724>
   2c648:	28bfffc4 	addi	r2,r5,-1
   2c64c:	10000426 	beq	r2,zero,2c660 <__subdf3+0x354>
   2c650:	2941ffd8 	cmpnei	r5,r5,2047
   2c654:	28013226 	beq	r5,zero,2cb20 <__subdf3+0x814>
   2c658:	100b883a 	mov	r5,r2
   2c65c:	003fa606 	br	2c4f8 <__subdf3+0x1ec>
   2c660:	5aa3883a 	add	r17,r11,r10
   2c664:	40c9883a 	add	r4,r8,r3
   2c668:	8ad7803a 	cmpltu	r11,r17,r11
   2c66c:	22c9883a 	add	r4,r4,r11
   2c670:	2080202c 	andhi	r2,r4,128
   2c674:	10007a1e 	bne	r2,zero,2c860 <__subdf3+0x554>
   2c678:	04000044 	movi	r16,1
   2c67c:	888001cc 	andi	r2,r17,7
   2c680:	103f771e 	bne	r2,zero,2c460 <__subdf3+0x154>
   2c684:	8822d0fa 	srli	r17,r17,3
   2c688:	2004977a 	slli	r2,r4,29
   2c68c:	2010d0fa 	srli	r8,r4,3
   2c690:	800b883a 	mov	r5,r16
   2c694:	8884b03a 	or	r2,r17,r2
   2c698:	28c1ffe0 	cmpeqi	r3,r5,2047
   2c69c:	1800241e 	bne	r3,zero,2c730 <__subdf3+0x424>
   2c6a0:	00c00434 	movhi	r3,16
   2c6a4:	18ffffc4 	addi	r3,r3,-1
   2c6a8:	40c6703a 	and	r3,r8,r3
   2c6ac:	2941ffcc 	andi	r5,r5,2047
   2c6b0:	003f8006 	br	2c4b4 <__subdf3+0x1a8>
   2c6b4:	1aa2b03a 	or	r17,r3,r10
   2c6b8:	8822c03a 	cmpne	r17,r17,zero
   2c6bc:	8ae3883a 	add	r17,r17,r11
   2c6c0:	8ac9803a 	cmpltu	r4,r17,r11
   2c6c4:	2209883a 	add	r4,r4,r8
   2c6c8:	2080202c 	andhi	r2,r4,128
   2c6cc:	103feb26 	beq	r2,zero,2c67c <__subdf3+0x370>
   2c6d0:	84000044 	addi	r16,r16,1
   2c6d4:	8081ffe0 	cmpeqi	r2,r16,2047
   2c6d8:	10006226 	beq	r2,zero,2c864 <__subdf3+0x558>
   2c6dc:	0141ffc4 	movi	r5,2047
   2c6e0:	0007883a 	mov	r3,zero
   2c6e4:	0005883a 	mov	r2,zero
   2c6e8:	003f7206 	br	2c4b4 <__subdf3+0x1a8>
   2c6ec:	400e977a 	slli	r7,r8,29
   2c6f0:	4010d0fa 	srli	r8,r8,3
   2c6f4:	1000ef26 	beq	r2,zero,2cab4 <__subdf3+0x7a8>
   2c6f8:	01480034 	movhi	r5,8192
   2c6fc:	297fffc4 	addi	r5,r5,-1
   2c700:	2144703a 	and	r2,r4,r5
   2c704:	4100022c 	andhi	r4,r8,8
   2c708:	11c4b03a 	or	r2,r2,r7
   2c70c:	20000826 	beq	r4,zero,2c730 <__subdf3+0x424>
   2c710:	1808d0fa 	srli	r4,r3,3
   2c714:	21c0022c 	andhi	r7,r4,8
   2c718:	3800051e 	bne	r7,zero,2c730 <__subdf3+0x424>
   2c71c:	1804977a 	slli	r2,r3,29
   2c720:	314c703a 	and	r6,r6,r5
   2c724:	4825883a 	mov	r18,r9
   2c728:	3084b03a 	or	r2,r6,r2
   2c72c:	2011883a 	mov	r8,r4
   2c730:	1206b03a 	or	r3,r2,r8
   2c734:	18013e26 	beq	r3,zero,2cc30 <__subdf3+0x924>
   2c738:	01000434 	movhi	r4,16
   2c73c:	40c00234 	orhi	r3,r8,8
   2c740:	213fffc4 	addi	r4,r4,-1
   2c744:	1906703a 	and	r3,r3,r4
   2c748:	0141ffc4 	movi	r5,2047
   2c74c:	003f5906 	br	2c4b4 <__subdf3+0x1a8>
   2c750:	00ffe034 	movhi	r3,65408
   2c754:	18ffffc4 	addi	r3,r3,-1
   2c758:	8161c83a 	sub	r16,r16,r5
   2c75c:	20c8703a 	and	r4,r4,r3
   2c760:	003f3d06 	br	2c458 <__subdf3+0x14c>
   2c764:	8809883a 	mov	r4,r17
   2c768:	002cf500 	call	2cf50 <__clzsi2>
   2c76c:	11400604 	addi	r5,r2,24
   2c770:	28c00808 	cmpgei	r3,r5,32
   2c774:	183f2326 	beq	r3,zero,2c404 <__subdf3+0xf8>
   2c778:	113ffe04 	addi	r4,r2,-8
   2c77c:	8908983a 	sll	r4,r17,r4
   2c780:	0023883a 	mov	r17,zero
   2c784:	003f2506 	br	2c41c <__subdf3+0x110>
   2c788:	1aa2b03a 	or	r17,r3,r10
   2c78c:	8822c03a 	cmpne	r17,r17,zero
   2c790:	003f1006 	br	2c3d4 <__subdf3+0xc8>
   2c794:	80800044 	addi	r2,r16,1
   2c798:	11c1ff8c 	andi	r7,r2,2046
   2c79c:	38006d1e 	bne	r7,zero,2c954 <__subdf3+0x648>
   2c7a0:	42c4b03a 	or	r2,r8,r11
   2c7a4:	8000be1e 	bne	r16,zero,2caa0 <__subdf3+0x794>
   2c7a8:	1000f726 	beq	r2,zero,2cb88 <__subdf3+0x87c>
   2c7ac:	1a84b03a 	or	r2,r3,r10
   2c7b0:	1000fc1e 	bne	r2,zero,2cba4 <__subdf3+0x898>
   2c7b4:	4006977a 	slli	r3,r8,29
   2c7b8:	00880034 	movhi	r2,8192
   2c7bc:	10bfffc4 	addi	r2,r2,-1
   2c7c0:	2084703a 	and	r2,r4,r2
   2c7c4:	4010d0fa 	srli	r8,r8,3
   2c7c8:	10c4b03a 	or	r2,r2,r3
   2c7cc:	003fb406 	br	2c6a0 <__subdf3+0x394>
   2c7d0:	6881ffd8 	cmpnei	r2,r13,2047
   2c7d4:	10009d26 	beq	r2,zero,2ca4c <__subdf3+0x740>
   2c7d8:	42002034 	orhi	r8,r8,128
   2c7dc:	28800e48 	cmpgei	r2,r5,57
   2c7e0:	1000421e 	bne	r2,zero,2c8ec <__subdf3+0x5e0>
   2c7e4:	28800808 	cmpgei	r2,r5,32
   2c7e8:	1000a21e 	bne	r2,zero,2ca74 <__subdf3+0x768>
   2c7ec:	00800804 	movi	r2,32
   2c7f0:	1145c83a 	sub	r2,r2,r5
   2c7f4:	40a2983a 	sll	r17,r8,r2
   2c7f8:	5948d83a 	srl	r4,r11,r5
   2c7fc:	5896983a 	sll	r11,r11,r2
   2c800:	4150d83a 	srl	r8,r8,r5
   2c804:	8922b03a 	or	r17,r17,r4
   2c808:	5816c03a 	cmpne	r11,r11,zero
   2c80c:	8ae2b03a 	or	r17,r17,r11
   2c810:	1a07c83a 	sub	r3,r3,r8
   2c814:	00003706 	br	2c8f4 <__subdf3+0x5e8>
   2c818:	5aa3c83a 	sub	r17,r11,r10
   2c81c:	40e7c83a 	sub	r19,r8,r3
   2c820:	5c49803a 	cmpltu	r4,r11,r17
   2c824:	9927c83a 	sub	r19,r19,r4
   2c828:	9880202c 	andhi	r2,r19,128
   2c82c:	1000661e 	bne	r2,zero,2c9c8 <__subdf3+0x6bc>
   2c830:	8cc4b03a 	or	r2,r17,r19
   2c834:	103eef1e 	bne	r2,zero,2c3f4 <__subdf3+0xe8>
   2c838:	0011883a 	mov	r8,zero
   2c83c:	0025883a 	mov	r18,zero
   2c840:	003f9706 	br	2c6a0 <__subdf3+0x394>
   2c844:	4022977a 	slli	r17,r8,29
   2c848:	00880034 	movhi	r2,8192
   2c84c:	10bfffc4 	addi	r2,r2,-1
   2c850:	2088703a 	and	r4,r4,r2
   2c854:	4010d0fa 	srli	r8,r8,3
   2c858:	2444b03a 	or	r2,r4,r17
   2c85c:	003f8e06 	br	2c698 <__subdf3+0x38c>
   2c860:	04000084 	movi	r16,2
   2c864:	00bfe034 	movhi	r2,65408
   2c868:	10bfffc4 	addi	r2,r2,-1
   2c86c:	8806d07a 	srli	r3,r17,1
   2c870:	2088703a 	and	r4,r4,r2
   2c874:	200497fa 	slli	r2,r4,31
   2c878:	8c40004c 	andi	r17,r17,1
   2c87c:	1c62b03a 	or	r17,r3,r17
   2c880:	2008d07a 	srli	r4,r4,1
   2c884:	1462b03a 	or	r17,r2,r17
   2c888:	003ef306 	br	2c458 <__subdf3+0x14c>
   2c88c:	297ff844 	addi	r5,r5,-31
   2c890:	18800820 	cmpeqi	r2,r3,32
   2c894:	214ad83a 	srl	r5,r4,r5
   2c898:	1000041e 	bne	r2,zero,2c8ac <__subdf3+0x5a0>
   2c89c:	00801004 	movi	r2,64
   2c8a0:	10c7c83a 	sub	r3,r2,r3
   2c8a4:	20c8983a 	sll	r4,r4,r3
   2c8a8:	8922b03a 	or	r17,r17,r4
   2c8ac:	8822c03a 	cmpne	r17,r17,zero
   2c8b0:	8962b03a 	or	r17,r17,r5
   2c8b4:	0009883a 	mov	r4,zero
   2c8b8:	0021883a 	mov	r16,zero
   2c8bc:	003f6f06 	br	2c67c <__subdf3+0x370>
   2c8c0:	2c7ff804 	addi	r17,r5,-32
   2c8c4:	29000820 	cmpeqi	r4,r5,32
   2c8c8:	1c44d83a 	srl	r2,r3,r17
   2c8cc:	2000041e 	bne	r4,zero,2c8e0 <__subdf3+0x5d4>
   2c8d0:	01001004 	movi	r4,64
   2c8d4:	214bc83a 	sub	r5,r4,r5
   2c8d8:	1946983a 	sll	r3,r3,r5
   2c8dc:	50d4b03a 	or	r10,r10,r3
   2c8e0:	5022c03a 	cmpne	r17,r10,zero
   2c8e4:	88a2b03a 	or	r17,r17,r2
   2c8e8:	003eba06 	br	2c3d4 <__subdf3+0xc8>
   2c8ec:	42d0b03a 	or	r8,r8,r11
   2c8f0:	4022c03a 	cmpne	r17,r8,zero
   2c8f4:	5463c83a 	sub	r17,r10,r17
   2c8f8:	5449803a 	cmpltu	r4,r10,r17
   2c8fc:	1909c83a 	sub	r4,r3,r4
   2c900:	6821883a 	mov	r16,r13
   2c904:	003eb606 	br	2c3e0 <__subdf3+0xd4>
   2c908:	42c4b03a 	or	r2,r8,r11
   2c90c:	10009726 	beq	r2,zero,2cb6c <__subdf3+0x860>
   2c910:	28bfffc4 	addi	r2,r5,-1
   2c914:	1000b926 	beq	r2,zero,2cbfc <__subdf3+0x8f0>
   2c918:	2941ffd8 	cmpnei	r5,r5,2047
   2c91c:	28007326 	beq	r5,zero,2caec <__subdf3+0x7e0>
   2c920:	100b883a 	mov	r5,r2
   2c924:	003f2406 	br	2c5b8 <__subdf3+0x2ac>
   2c928:	00800804 	movi	r2,32
   2c92c:	1145c83a 	sub	r2,r2,r5
   2c930:	18a2983a 	sll	r17,r3,r2
   2c934:	5148d83a 	srl	r4,r10,r5
   2c938:	5084983a 	sll	r2,r10,r2
   2c93c:	1946d83a 	srl	r3,r3,r5
   2c940:	8922b03a 	or	r17,r17,r4
   2c944:	1004c03a 	cmpne	r2,r2,zero
   2c948:	88a2b03a 	or	r17,r17,r2
   2c94c:	40d1883a 	add	r8,r8,r3
   2c950:	003f5a06 	br	2c6bc <__subdf3+0x3b0>
   2c954:	1101ffe0 	cmpeqi	r4,r2,2047
   2c958:	203f601e 	bne	r4,zero,2c6dc <__subdf3+0x3d0>
   2c95c:	5a95883a 	add	r10,r11,r10
   2c960:	52d7803a 	cmpltu	r11,r10,r11
   2c964:	40c9883a 	add	r4,r8,r3
   2c968:	22c9883a 	add	r4,r4,r11
   2c96c:	202297fa 	slli	r17,r4,31
   2c970:	5014d07a 	srli	r10,r10,1
   2c974:	2008d07a 	srli	r4,r4,1
   2c978:	1021883a 	mov	r16,r2
   2c97c:	8aa2b03a 	or	r17,r17,r10
   2c980:	003f3e06 	br	2c67c <__subdf3+0x370>
   2c984:	1808977a 	slli	r4,r3,29
   2c988:	00880034 	movhi	r2,8192
   2c98c:	10bfffc4 	addi	r2,r2,-1
   2c990:	308c703a 	and	r6,r6,r2
   2c994:	1810d0fa 	srli	r8,r3,3
   2c998:	3104b03a 	or	r2,r6,r4
   2c99c:	003f3e06 	br	2c698 <__subdf3+0x38c>
   2c9a0:	383f521e 	bne	r7,zero,2c6ec <__subdf3+0x3e0>
   2c9a4:	10009d26 	beq	r2,zero,2cc1c <__subdf3+0x910>
   2c9a8:	1808977a 	slli	r4,r3,29
   2c9ac:	00880034 	movhi	r2,8192
   2c9b0:	10bfffc4 	addi	r2,r2,-1
   2c9b4:	3084703a 	and	r2,r6,r2
   2c9b8:	1810d0fa 	srli	r8,r3,3
   2c9bc:	1104b03a 	or	r2,r2,r4
   2c9c0:	4825883a 	mov	r18,r9
   2c9c4:	003f5a06 	br	2c730 <__subdf3+0x424>
   2c9c8:	52e3c83a 	sub	r17,r10,r11
   2c9cc:	1a09c83a 	sub	r4,r3,r8
   2c9d0:	5467803a 	cmpltu	r19,r10,r17
   2c9d4:	24e7c83a 	sub	r19,r4,r19
   2c9d8:	4825883a 	mov	r18,r9
   2c9dc:	003e8506 	br	2c3f4 <__subdf3+0xe8>
   2c9e0:	4022977a 	slli	r17,r8,29
   2c9e4:	00880034 	movhi	r2,8192
   2c9e8:	10bfffc4 	addi	r2,r2,-1
   2c9ec:	2088703a 	and	r4,r4,r2
   2c9f0:	4010d0fa 	srli	r8,r8,3
   2c9f4:	2444b03a 	or	r2,r4,r17
   2c9f8:	003f4d06 	br	2c730 <__subdf3+0x424>
   2c9fc:	5aa3c83a 	sub	r17,r11,r10
   2ca00:	40c9c83a 	sub	r4,r8,r3
   2ca04:	5c57803a 	cmpltu	r11,r11,r17
   2ca08:	22c9c83a 	sub	r4,r4,r11
   2ca0c:	04000044 	movi	r16,1
   2ca10:	003e7306 	br	2c3e0 <__subdf3+0xd4>
   2ca14:	4004977a 	slli	r2,r8,29
   2ca18:	00c80034 	movhi	r3,8192
   2ca1c:	18ffffc4 	addi	r3,r3,-1
   2ca20:	20c8703a 	and	r4,r4,r3
   2ca24:	4010d0fa 	srli	r8,r8,3
   2ca28:	1104b03a 	or	r2,r2,r4
   2ca2c:	003f4006 	br	2c730 <__subdf3+0x424>
   2ca30:	4004977a 	slli	r2,r8,29
   2ca34:	00c80034 	movhi	r3,8192
   2ca38:	18ffffc4 	addi	r3,r3,-1
   2ca3c:	20c8703a 	and	r4,r4,r3
   2ca40:	4010d0fa 	srli	r8,r8,3
   2ca44:	1104b03a 	or	r2,r2,r4
   2ca48:	003f1306 	br	2c698 <__subdf3+0x38c>
   2ca4c:	1804977a 	slli	r2,r3,29
   2ca50:	01080034 	movhi	r4,8192
   2ca54:	213fffc4 	addi	r4,r4,-1
   2ca58:	310c703a 	and	r6,r6,r4
   2ca5c:	1810d0fa 	srli	r8,r3,3
   2ca60:	1184b03a 	or	r2,r2,r6
   2ca64:	003f3206 	br	2c730 <__subdf3+0x424>
   2ca68:	42d0b03a 	or	r8,r8,r11
   2ca6c:	4022c03a 	cmpne	r17,r8,zero
   2ca70:	003edf06 	br	2c5f0 <__subdf3+0x2e4>
   2ca74:	2c7ff804 	addi	r17,r5,-32
   2ca78:	29000820 	cmpeqi	r4,r5,32
   2ca7c:	4444d83a 	srl	r2,r8,r17
   2ca80:	2000041e 	bne	r4,zero,2ca94 <__subdf3+0x788>
   2ca84:	01001004 	movi	r4,64
   2ca88:	214bc83a 	sub	r5,r4,r5
   2ca8c:	4150983a 	sll	r8,r8,r5
   2ca90:	5a16b03a 	or	r11,r11,r8
   2ca94:	5822c03a 	cmpne	r17,r11,zero
   2ca98:	88a2b03a 	or	r17,r17,r2
   2ca9c:	003f9506 	br	2c8f4 <__subdf3+0x5e8>
   2caa0:	103fea26 	beq	r2,zero,2ca4c <__subdf3+0x740>
   2caa4:	1a94b03a 	or	r10,r3,r10
   2caa8:	400e977a 	slli	r7,r8,29
   2caac:	4010d0fa 	srli	r8,r8,3
   2cab0:	503f111e 	bne	r10,zero,2c6f8 <__subdf3+0x3ec>
   2cab4:	00880034 	movhi	r2,8192
   2cab8:	10bfffc4 	addi	r2,r2,-1
   2cabc:	2084703a 	and	r2,r4,r2
   2cac0:	11c4b03a 	or	r2,r2,r7
   2cac4:	003f1a06 	br	2c730 <__subdf3+0x424>
   2cac8:	103f5b26 	beq	r2,zero,2c838 <__subdf3+0x52c>
   2cacc:	1804977a 	slli	r2,r3,29
   2cad0:	01080034 	movhi	r4,8192
   2cad4:	213fffc4 	addi	r4,r4,-1
   2cad8:	310c703a 	and	r6,r6,r4
   2cadc:	1810d0fa 	srli	r8,r3,3
   2cae0:	1184b03a 	or	r2,r2,r6
   2cae4:	4825883a 	mov	r18,r9
   2cae8:	003eed06 	br	2c6a0 <__subdf3+0x394>
   2caec:	1808977a 	slli	r4,r3,29
   2caf0:	00880034 	movhi	r2,8192
   2caf4:	10bfffc4 	addi	r2,r2,-1
   2caf8:	3084703a 	and	r2,r6,r2
   2cafc:	1810d0fa 	srli	r8,r3,3
   2cb00:	1104b03a 	or	r2,r2,r4
   2cb04:	003f0a06 	br	2c730 <__subdf3+0x424>
   2cb08:	52e3c83a 	sub	r17,r10,r11
   2cb0c:	1a09c83a 	sub	r4,r3,r8
   2cb10:	5455803a 	cmpltu	r10,r10,r17
   2cb14:	2289c83a 	sub	r4,r4,r10
   2cb18:	04000044 	movi	r16,1
   2cb1c:	003e3006 	br	2c3e0 <__subdf3+0xd4>
   2cb20:	4006977a 	slli	r3,r8,29
   2cb24:	00880034 	movhi	r2,8192
   2cb28:	10bfffc4 	addi	r2,r2,-1
   2cb2c:	2084703a 	and	r2,r4,r2
   2cb30:	4010d0fa 	srli	r8,r8,3
   2cb34:	10c4b03a 	or	r2,r2,r3
   2cb38:	003efd06 	br	2c730 <__subdf3+0x424>
   2cb3c:	5aa3c83a 	sub	r17,r11,r10
   2cb40:	5c45803a 	cmpltu	r2,r11,r17
   2cb44:	40c9c83a 	sub	r4,r8,r3
   2cb48:	2089c83a 	sub	r4,r4,r2
   2cb4c:	2080202c 	andhi	r2,r4,128
   2cb50:	10002f26 	beq	r2,zero,2cc10 <__subdf3+0x904>
   2cb54:	52e3c83a 	sub	r17,r10,r11
   2cb58:	1a09c83a 	sub	r4,r3,r8
   2cb5c:	5455803a 	cmpltu	r10,r10,r17
   2cb60:	2289c83a 	sub	r4,r4,r10
   2cb64:	4825883a 	mov	r18,r9
   2cb68:	003e3b06 	br	2c458 <__subdf3+0x14c>
   2cb6c:	1808977a 	slli	r4,r3,29
   2cb70:	00880034 	movhi	r2,8192
   2cb74:	10bfffc4 	addi	r2,r2,-1
   2cb78:	3084703a 	and	r2,r6,r2
   2cb7c:	1810d0fa 	srli	r8,r3,3
   2cb80:	1104b03a 	or	r2,r2,r4
   2cb84:	003ec406 	br	2c698 <__subdf3+0x38c>
   2cb88:	1808977a 	slli	r4,r3,29
   2cb8c:	00880034 	movhi	r2,8192
   2cb90:	10bfffc4 	addi	r2,r2,-1
   2cb94:	3084703a 	and	r2,r6,r2
   2cb98:	1810d0fa 	srli	r8,r3,3
   2cb9c:	1104b03a 	or	r2,r2,r4
   2cba0:	003ebf06 	br	2c6a0 <__subdf3+0x394>
   2cba4:	5aa3883a 	add	r17,r11,r10
   2cba8:	40c9883a 	add	r4,r8,r3
   2cbac:	8ad7803a 	cmpltu	r11,r17,r11
   2cbb0:	22c9883a 	add	r4,r4,r11
   2cbb4:	2080202c 	andhi	r2,r4,128
   2cbb8:	103eb026 	beq	r2,zero,2c67c <__subdf3+0x370>
   2cbbc:	00bfe034 	movhi	r2,65408
   2cbc0:	10bfffc4 	addi	r2,r2,-1
   2cbc4:	2088703a 	and	r4,r4,r2
   2cbc8:	04000044 	movi	r16,1
   2cbcc:	003eab06 	br	2c67c <__subdf3+0x370>
   2cbd0:	28bff804 	addi	r2,r5,-32
   2cbd4:	29000820 	cmpeqi	r4,r5,32
   2cbd8:	4084d83a 	srl	r2,r8,r2
   2cbdc:	2000041e 	bne	r4,zero,2cbf0 <__subdf3+0x8e4>
   2cbe0:	01001004 	movi	r4,64
   2cbe4:	214bc83a 	sub	r5,r4,r5
   2cbe8:	4150983a 	sll	r8,r8,r5
   2cbec:	5a16b03a 	or	r11,r11,r8
   2cbf0:	5822c03a 	cmpne	r17,r11,zero
   2cbf4:	88a2b03a 	or	r17,r17,r2
   2cbf8:	003e7d06 	br	2c5f0 <__subdf3+0x2e4>
   2cbfc:	5aa3883a 	add	r17,r11,r10
   2cc00:	40c9883a 	add	r4,r8,r3
   2cc04:	8a95803a 	cmpltu	r10,r17,r10
   2cc08:	2289883a 	add	r4,r4,r10
   2cc0c:	003e9806 	br	2c670 <__subdf3+0x364>
   2cc10:	8904b03a 	or	r2,r17,r4
   2cc14:	103f0826 	beq	r2,zero,2c838 <__subdf3+0x52c>
   2cc18:	003e9806 	br	2c67c <__subdf3+0x370>
   2cc1c:	02000434 	movhi	r8,16
   2cc20:	423fffc4 	addi	r8,r8,-1
   2cc24:	0025883a 	mov	r18,zero
   2cc28:	00bfffc4 	movi	r2,-1
   2cc2c:	003ec206 	br	2c738 <__subdf3+0x42c>
   2cc30:	0005883a 	mov	r2,zero
   2cc34:	0141ffc4 	movi	r5,2047
   2cc38:	0007883a 	mov	r3,zero
   2cc3c:	003e1d06 	br	2c4b4 <__subdf3+0x1a8>

0002cc40 <__unorddf2>:
   2cc40:	2806d53a 	srli	r3,r5,20
   2cc44:	3810d53a 	srli	r8,r7,20
   2cc48:	02400434 	movhi	r9,16
   2cc4c:	18c1ffcc 	andi	r3,r3,2047
   2cc50:	4a7fffc4 	addi	r9,r9,-1
   2cc54:	18c1ffd8 	cmpnei	r3,r3,2047
   2cc58:	2a4a703a 	and	r5,r5,r9
   2cc5c:	3a4e703a 	and	r7,r7,r9
   2cc60:	4201ffcc 	andi	r8,r8,2047
   2cc64:	18000426 	beq	r3,zero,2cc78 <__unorddf2+0x38>
   2cc68:	4201ffd8 	cmpnei	r8,r8,2047
   2cc6c:	40000626 	beq	r8,zero,2cc88 <__unorddf2+0x48>
   2cc70:	0005883a 	mov	r2,zero
   2cc74:	f800283a 	ret
   2cc78:	214ab03a 	or	r5,r4,r5
   2cc7c:	283ffa26 	beq	r5,zero,2cc68 <__unorddf2+0x28>
   2cc80:	00800044 	movi	r2,1
   2cc84:	f800283a 	ret
   2cc88:	398eb03a 	or	r7,r7,r6
   2cc8c:	3804c03a 	cmpne	r2,r7,zero
   2cc90:	f800283a 	ret

0002cc94 <__floatsidf>:
   2cc94:	defffd04 	addi	sp,sp,-12
   2cc98:	dfc00215 	stw	ra,8(sp)
   2cc9c:	dc400115 	stw	r17,4(sp)
   2cca0:	dc000015 	stw	r16,0(sp)
   2cca4:	20001326 	beq	r4,zero,2ccf4 <__floatsidf+0x60>
   2cca8:	2022d7fa 	srli	r17,r4,31
   2ccac:	2021883a 	mov	r16,r4
   2ccb0:	20002516 	blt	r4,zero,2cd48 <__floatsidf+0xb4>
   2ccb4:	8009883a 	mov	r4,r16
   2ccb8:	002cf500 	call	2cf50 <__clzsi2>
   2ccbc:	01410784 	movi	r5,1054
   2ccc0:	288bc83a 	sub	r5,r5,r2
   2ccc4:	10c002c8 	cmpgei	r3,r2,11
   2ccc8:	2941ffcc 	andi	r5,r5,2047
   2cccc:	1800171e 	bne	r3,zero,2cd2c <__floatsidf+0x98>
   2ccd0:	00c002c4 	movi	r3,11
   2ccd4:	1887c83a 	sub	r3,r3,r2
   2ccd8:	80c6d83a 	srl	r3,r16,r3
   2ccdc:	01000434 	movhi	r4,16
   2cce0:	10800544 	addi	r2,r2,21
   2cce4:	213fffc4 	addi	r4,r4,-1
   2cce8:	8084983a 	sll	r2,r16,r2
   2ccec:	1906703a 	and	r3,r3,r4
   2ccf0:	00000406 	br	2cd04 <__floatsidf+0x70>
   2ccf4:	0023883a 	mov	r17,zero
   2ccf8:	000b883a 	mov	r5,zero
   2ccfc:	0007883a 	mov	r3,zero
   2cd00:	0005883a 	mov	r2,zero
   2cd04:	280a953a 	slli	r5,r5,20
   2cd08:	8c403fcc 	andi	r17,r17,255
   2cd0c:	882297fa 	slli	r17,r17,31
   2cd10:	28c6b03a 	or	r3,r5,r3
   2cd14:	1c46b03a 	or	r3,r3,r17
   2cd18:	dfc00217 	ldw	ra,8(sp)
   2cd1c:	dc400117 	ldw	r17,4(sp)
   2cd20:	dc000017 	ldw	r16,0(sp)
   2cd24:	dec00304 	addi	sp,sp,12
   2cd28:	f800283a 	ret
   2cd2c:	10bffd44 	addi	r2,r2,-11
   2cd30:	8086983a 	sll	r3,r16,r2
   2cd34:	00800434 	movhi	r2,16
   2cd38:	10bfffc4 	addi	r2,r2,-1
   2cd3c:	1886703a 	and	r3,r3,r2
   2cd40:	0005883a 	mov	r2,zero
   2cd44:	003fef06 	br	2cd04 <__floatsidf+0x70>
   2cd48:	0121c83a 	sub	r16,zero,r4
   2cd4c:	003fd906 	br	2ccb4 <__floatsidf+0x20>

0002cd50 <__floatunsidf>:
   2cd50:	defffe04 	addi	sp,sp,-8
   2cd54:	dc000015 	stw	r16,0(sp)
   2cd58:	dfc00115 	stw	ra,4(sp)
   2cd5c:	2021883a 	mov	r16,r4
   2cd60:	20000f26 	beq	r4,zero,2cda0 <__floatunsidf+0x50>
   2cd64:	002cf500 	call	2cf50 <__clzsi2>
   2cd68:	00c10784 	movi	r3,1054
   2cd6c:	1887c83a 	sub	r3,r3,r2
   2cd70:	110002c8 	cmpgei	r4,r2,11
   2cd74:	18c1ffcc 	andi	r3,r3,2047
   2cd78:	2000121e 	bne	r4,zero,2cdc4 <__floatunsidf+0x74>
   2cd7c:	014002c4 	movi	r5,11
   2cd80:	288bc83a 	sub	r5,r5,r2
   2cd84:	814ad83a 	srl	r5,r16,r5
   2cd88:	01000434 	movhi	r4,16
   2cd8c:	10800544 	addi	r2,r2,21
   2cd90:	213fffc4 	addi	r4,r4,-1
   2cd94:	80a0983a 	sll	r16,r16,r2
   2cd98:	290a703a 	and	r5,r5,r4
   2cd9c:	00000206 	br	2cda8 <__floatunsidf+0x58>
   2cda0:	0007883a 	mov	r3,zero
   2cda4:	000b883a 	mov	r5,zero
   2cda8:	1806953a 	slli	r3,r3,20
   2cdac:	8005883a 	mov	r2,r16
   2cdb0:	1946b03a 	or	r3,r3,r5
   2cdb4:	dfc00117 	ldw	ra,4(sp)
   2cdb8:	dc000017 	ldw	r16,0(sp)
   2cdbc:	dec00204 	addi	sp,sp,8
   2cdc0:	f800283a 	ret
   2cdc4:	10bffd44 	addi	r2,r2,-11
   2cdc8:	808a983a 	sll	r5,r16,r2
   2cdcc:	00800434 	movhi	r2,16
   2cdd0:	10bfffc4 	addi	r2,r2,-1
   2cdd4:	288a703a 	and	r5,r5,r2
   2cdd8:	0021883a 	mov	r16,zero
   2cddc:	003ff206 	br	2cda8 <__floatunsidf+0x58>

0002cde0 <__truncdfsf2>:
   2cde0:	2806d53a 	srli	r3,r5,20
   2cde4:	01800434 	movhi	r6,16
   2cde8:	31bfffc4 	addi	r6,r6,-1
   2cdec:	298c703a 	and	r6,r5,r6
   2cdf0:	300490fa 	slli	r2,r6,3
   2cdf4:	18c1ffcc 	andi	r3,r3,2047
   2cdf8:	200cd77a 	srli	r6,r4,29
   2cdfc:	19c00044 	addi	r7,r3,1
   2ce00:	39c1ff8c 	andi	r7,r7,2046
   2ce04:	280ad7fa 	srli	r5,r5,31
   2ce08:	201090fa 	slli	r8,r4,3
   2ce0c:	308cb03a 	or	r6,r6,r2
   2ce10:	38000b26 	beq	r7,zero,2ce40 <__truncdfsf2+0x60>
   2ce14:	18bf2004 	addi	r2,r3,-896
   2ce18:	11c03fc8 	cmpgei	r7,r2,255
   2ce1c:	38001226 	beq	r7,zero,2ce68 <__truncdfsf2+0x88>
   2ce20:	00ffffc4 	movi	r3,-1
   2ce24:	0009883a 	mov	r4,zero
   2ce28:	18c03fcc 	andi	r3,r3,255
   2ce2c:	180495fa 	slli	r2,r3,23
   2ce30:	280a97fa 	slli	r5,r5,31
   2ce34:	1104b03a 	or	r2,r2,r4
   2ce38:	1144b03a 	or	r2,r2,r5
   2ce3c:	f800283a 	ret
   2ce40:	3208b03a 	or	r4,r6,r8
   2ce44:	1800041e 	bne	r3,zero,2ce58 <__truncdfsf2+0x78>
   2ce48:	20001d1e 	bne	r4,zero,2cec0 <__truncdfsf2+0xe0>
   2ce4c:	0007883a 	mov	r3,zero
   2ce50:	0009883a 	mov	r4,zero
   2ce54:	003ff406 	br	2ce28 <__truncdfsf2+0x48>
   2ce58:	203ff126 	beq	r4,zero,2ce20 <__truncdfsf2+0x40>
   2ce5c:	31001034 	orhi	r4,r6,64
   2ce60:	00ffffc4 	movi	r3,-1
   2ce64:	003ff006 	br	2ce28 <__truncdfsf2+0x48>
   2ce68:	0080170e 	bge	zero,r2,2cec8 <__truncdfsf2+0xe8>
   2ce6c:	200891ba 	slli	r4,r4,6
   2ce70:	300c90fa 	slli	r6,r6,3
   2ce74:	4010d77a 	srli	r8,r8,29
   2ce78:	2008c03a 	cmpne	r4,r4,zero
   2ce7c:	218cb03a 	or	r6,r4,r6
   2ce80:	3208b03a 	or	r4,r6,r8
   2ce84:	20c001cc 	andi	r3,r4,7
   2ce88:	18002f26 	beq	r3,zero,2cf48 <__truncdfsf2+0x168>
   2ce8c:	20c003cc 	andi	r3,r4,15
   2ce90:	18c00118 	cmpnei	r3,r3,4
   2ce94:	18000126 	beq	r3,zero,2ce9c <__truncdfsf2+0xbc>
   2ce98:	21000104 	addi	r4,r4,4
   2ce9c:	20c1002c 	andhi	r3,r4,1024
   2cea0:	18002926 	beq	r3,zero,2cf48 <__truncdfsf2+0x168>
   2cea4:	10c00044 	addi	r3,r2,1
   2cea8:	18803fe0 	cmpeqi	r2,r3,255
   2ceac:	103fdc1e 	bne	r2,zero,2ce20 <__truncdfsf2+0x40>
   2ceb0:	200891ba 	slli	r4,r4,6
   2ceb4:	2008d27a 	srli	r4,r4,9
   2ceb8:	003fdb06 	br	2ce28 <__truncdfsf2+0x48>
   2cebc:	0007883a 	mov	r3,zero
   2cec0:	01000144 	movi	r4,5
   2cec4:	003ffa06 	br	2ceb0 <__truncdfsf2+0xd0>
   2cec8:	113ffa50 	cmplti	r4,r2,-23
   2cecc:	203ffb1e 	bne	r4,zero,2cebc <__truncdfsf2+0xdc>
   2ced0:	01000784 	movi	r4,30
   2ced4:	2089c83a 	sub	r4,r4,r2
   2ced8:	21c00808 	cmpgei	r7,r4,32
   2cedc:	31802034 	orhi	r6,r6,128
   2cee0:	38001126 	beq	r7,zero,2cf28 <__truncdfsf2+0x148>
   2cee4:	01ffff84 	movi	r7,-2
   2cee8:	3885c83a 	sub	r2,r7,r2
   2ceec:	21000820 	cmpeqi	r4,r4,32
   2cef0:	3084d83a 	srl	r2,r6,r2
   2cef4:	2000031e 	bne	r4,zero,2cf04 <__truncdfsf2+0x124>
   2cef8:	18ff2884 	addi	r3,r3,-862
   2cefc:	30c6983a 	sll	r3,r6,r3
   2cf00:	40d0b03a 	or	r8,r8,r3
   2cf04:	4008c03a 	cmpne	r4,r8,zero
   2cf08:	2088b03a 	or	r4,r4,r2
   2cf0c:	20c001cc 	andi	r3,r4,7
   2cf10:	0005883a 	mov	r2,zero
   2cf14:	183fdd1e 	bne	r3,zero,2ce8c <__truncdfsf2+0xac>
   2cf18:	2081002c 	andhi	r2,r4,1024
   2cf1c:	103fe426 	beq	r2,zero,2ceb0 <__truncdfsf2+0xd0>
   2cf20:	00c00044 	movi	r3,1
   2cf24:	003fe206 	br	2ceb0 <__truncdfsf2+0xd0>
   2cf28:	18ff2084 	addi	r3,r3,-894
   2cf2c:	40c4983a 	sll	r2,r8,r3
   2cf30:	30c6983a 	sll	r3,r6,r3
   2cf34:	4108d83a 	srl	r4,r8,r4
   2cf38:	100cc03a 	cmpne	r6,r2,zero
   2cf3c:	30c6b03a 	or	r3,r6,r3
   2cf40:	20c8b03a 	or	r4,r4,r3
   2cf44:	003ff106 	br	2cf0c <__truncdfsf2+0x12c>
   2cf48:	1007883a 	mov	r3,r2
   2cf4c:	003fd806 	br	2ceb0 <__truncdfsf2+0xd0>

0002cf50 <__clzsi2>:
   2cf50:	00bfffd4 	movui	r2,65535
   2cf54:	11000436 	bltu	r2,r4,2cf68 <__clzsi2+0x18>
   2cf58:	20804030 	cmpltui	r2,r4,256
   2cf5c:	10000e26 	beq	r2,zero,2cf98 <__clzsi2+0x48>
   2cf60:	01400804 	movi	r5,32
   2cf64:	00000406 	br	2cf78 <__clzsi2+0x28>
   2cf68:	00804034 	movhi	r2,256
   2cf6c:	20800736 	bltu	r4,r2,2cf8c <__clzsi2+0x3c>
   2cf70:	2008d63a 	srli	r4,r4,24
   2cf74:	01400204 	movi	r5,8
   2cf78:	00c000f4 	movhi	r3,3
   2cf7c:	20c7883a 	add	r3,r4,r3
   2cf80:	18815403 	ldbu	r2,1360(r3)
   2cf84:	2885c83a 	sub	r2,r5,r2
   2cf88:	f800283a 	ret
   2cf8c:	2008d43a 	srli	r4,r4,16
   2cf90:	01400404 	movi	r5,16
   2cf94:	003ff806 	br	2cf78 <__clzsi2+0x28>
   2cf98:	2008d23a 	srli	r4,r4,8
   2cf9c:	01400604 	movi	r5,24
   2cfa0:	003ff506 	br	2cf78 <__clzsi2+0x28>

0002cfa4 <alt_get_errno>:
#undef errno

extern int errno;

static ALT_INLINE int* alt_get_errno(void)
{
   2cfa4:	defffe04 	addi	sp,sp,-8
   2cfa8:	dfc00115 	stw	ra,4(sp)
   2cfac:	df000015 	stw	fp,0(sp)
   2cfb0:	d839883a 	mov	fp,sp
  return ((alt_errno) ? alt_errno() : &errno);
   2cfb4:	d0a00e17 	ldw	r2,-32712(gp)
   2cfb8:	10000326 	beq	r2,zero,2cfc8 <alt_get_errno+0x24>
   2cfbc:	d0a00e17 	ldw	r2,-32712(gp)
   2cfc0:	103ee83a 	callr	r2
   2cfc4:	00000106 	br	2cfcc <alt_get_errno+0x28>
   2cfc8:	d0a72504 	addi	r2,gp,-25452
}
   2cfcc:	e037883a 	mov	sp,fp
   2cfd0:	dfc00117 	ldw	ra,4(sp)
   2cfd4:	df000017 	ldw	fp,0(sp)
   2cfd8:	dec00204 	addi	sp,sp,8
   2cfdc:	f800283a 	ret

0002cfe0 <close>:
 *
 * ALT_CLOSE is mapped onto the close() system call in alt_syscall.h
 */
 
int ALT_CLOSE (int fildes)
{
   2cfe0:	defffb04 	addi	sp,sp,-20
   2cfe4:	dfc00415 	stw	ra,16(sp)
   2cfe8:	df000315 	stw	fp,12(sp)
   2cfec:	df000304 	addi	fp,sp,12
   2cff0:	e13ffd15 	stw	r4,-12(fp)
   * A common error case is that when the file descriptor was created, the call
   * to open() failed resulting in a negative file descriptor. This is trapped
   * below so that we don't try and process an invalid file descriptor.
   */

  fd = (fildes < 0) ? NULL : &alt_fd_list[fildes];
   2cff4:	e0bffd17 	ldw	r2,-12(fp)
   2cff8:	10000916 	blt	r2,zero,2d020 <close+0x40>
   2cffc:	e0fffd17 	ldw	r3,-12(fp)
   2d000:	1805883a 	mov	r2,r3
   2d004:	1085883a 	add	r2,r2,r2
   2d008:	10c5883a 	add	r2,r2,r3
   2d00c:	100490ba 	slli	r2,r2,2
   2d010:	00c000f4 	movhi	r3,3
   2d014:	18c41e04 	addi	r3,r3,4216
   2d018:	10c5883a 	add	r2,r2,r3
   2d01c:	00000106 	br	2d024 <close+0x44>
   2d020:	0005883a 	mov	r2,zero
   2d024:	e0bfff15 	stw	r2,-4(fp)

  if (fd)
   2d028:	e0bfff17 	ldw	r2,-4(fp)
   2d02c:	10001926 	beq	r2,zero,2d094 <close+0xb4>
    /*
     * If the associated file system/device has a close function, call it so 
     * that any necessary cleanup code can run.
     */

    rval = (fd->dev->close) ? fd->dev->close(fd) : 0;
   2d030:	e0bfff17 	ldw	r2,-4(fp)
   2d034:	10800017 	ldw	r2,0(r2)
   2d038:	10800417 	ldw	r2,16(r2)
   2d03c:	10000626 	beq	r2,zero,2d058 <close+0x78>
   2d040:	e0bfff17 	ldw	r2,-4(fp)
   2d044:	10800017 	ldw	r2,0(r2)
   2d048:	10800417 	ldw	r2,16(r2)
   2d04c:	e13fff17 	ldw	r4,-4(fp)
   2d050:	103ee83a 	callr	r2
   2d054:	00000106 	br	2d05c <close+0x7c>
   2d058:	0005883a 	mov	r2,zero
   2d05c:	e0bffe15 	stw	r2,-8(fp)

    /* Free the file descriptor structure and return. */

    alt_release_fd (fildes);
   2d060:	e13ffd17 	ldw	r4,-12(fp)
   2d064:	002def00 	call	2def0 <alt_release_fd>
    if (rval < 0)
   2d068:	e0bffe17 	ldw	r2,-8(fp)
   2d06c:	1000070e 	bge	r2,zero,2d08c <close+0xac>
    {
      ALT_ERRNO = -rval;
   2d070:	002cfa40 	call	2cfa4 <alt_get_errno>
   2d074:	1007883a 	mov	r3,r2
   2d078:	e0bffe17 	ldw	r2,-8(fp)
   2d07c:	0085c83a 	sub	r2,zero,r2
   2d080:	18800015 	stw	r2,0(r3)
      return -1;
   2d084:	00bfffc4 	movi	r2,-1
   2d088:	00000706 	br	2d0a8 <close+0xc8>
    }
    return 0;
   2d08c:	0005883a 	mov	r2,zero
   2d090:	00000506 	br	2d0a8 <close+0xc8>
  }
  else
  {
    ALT_ERRNO = EBADFD;
   2d094:	002cfa40 	call	2cfa4 <alt_get_errno>
   2d098:	1007883a 	mov	r3,r2
   2d09c:	00801444 	movi	r2,81
   2d0a0:	18800015 	stw	r2,0(r3)
    return -1;
   2d0a4:	00bfffc4 	movi	r2,-1
  }
}
   2d0a8:	e037883a 	mov	sp,fp
   2d0ac:	dfc00117 	ldw	ra,4(sp)
   2d0b0:	df000017 	ldw	fp,0(sp)
   2d0b4:	dec00204 	addi	sp,sp,8
   2d0b8:	f800283a 	ret

0002d0bc <alt_dev_null_write>:
 * by the alt_dev_null device. It simple discards all data passed to it, and
 * indicates that the data has been successfully transmitted.
 */

static int alt_dev_null_write (alt_fd* fd, const char* ptr, int len)
{
   2d0bc:	defffc04 	addi	sp,sp,-16
   2d0c0:	df000315 	stw	fp,12(sp)
   2d0c4:	df000304 	addi	fp,sp,12
   2d0c8:	e13fff15 	stw	r4,-4(fp)
   2d0cc:	e17ffe15 	stw	r5,-8(fp)
   2d0d0:	e1bffd15 	stw	r6,-12(fp)
  return len;
   2d0d4:	e0bffd17 	ldw	r2,-12(fp)
}
   2d0d8:	e037883a 	mov	sp,fp
   2d0dc:	df000017 	ldw	fp,0(sp)
   2d0e0:	dec00104 	addi	sp,sp,4
   2d0e4:	f800283a 	ret

0002d0e8 <_exit>:
 *
 * ALT_EXIT is mapped onto the _exit() system call in alt_syscall.h
 */

void ALT_EXIT (int exit_code)
{
   2d0e8:	defffd04 	addi	sp,sp,-12
   2d0ec:	df000215 	stw	fp,8(sp)
   2d0f0:	df000204 	addi	fp,sp,8
   2d0f4:	e13ffe15 	stw	r4,-8(fp)
  ALT_LOG_PRINT_BOOT("[alt_exit.c] Entering _exit() function.\r\n");
  ALT_LOG_PRINT_BOOT("[alt_exit.c] Exit code from main was %d.\r\n",exit_code);
  /* Stop all other threads */

  ALT_LOG_PRINT_BOOT("[alt_exit.c] Calling ALT_OS_STOP().\r\n");
  ALT_OS_STOP();
   2d0f8:	0001883a 	nop
   2d0fc:	e0bffe17 	ldw	r2,-8(fp)
   2d100:	e0bfff15 	stw	r2,-4(fp)
/*
 * Routine called on exit.
 */
static ALT_INLINE ALT_ALWAYS_INLINE void alt_sim_halt(int exit_code)
{
  register int r2 asm ("r2") = exit_code;
   2d104:	e0bfff17 	ldw	r2,-4(fp)
  __asm__ volatile ("\n0:\n\taddi %0,%0, -1\n\tbgt %0,zero,0b" : : "r" (ALT_CPU_FREQ/100) ); /* Delay for >30ms */

  __asm__ volatile ("break 2" : : "r"(r2), "r"(r3) ALT_GMON_DATA );

#else /* !DEBUG_STUB */
  if (r2) {
   2d108:	10000226 	beq	r2,zero,2d114 <_exit+0x2c>
    ALT_SIM_FAIL();
   2d10c:	002af070 	cmpltui	zero,zero,43969
  } else {
    ALT_SIM_PASS();
  }
#endif /* DEBUG_STUB */
}
   2d110:	00000106 	br	2d118 <_exit+0x30>
    ALT_SIM_PASS();
   2d114:	002af0b0 	cmpltui	zero,zero,43970
}
   2d118:	0001883a 	nop
  ALT_SIM_HALT(exit_code);

  /* spin forever, since there's no where to go back to */

  ALT_LOG_PRINT_BOOT("[alt_exit.c] Spinning forever.\r\n");
  while (1);
   2d11c:	003fff06 	br	2d11c <_exit+0x34>

0002d120 <alt_get_errno>:
{
   2d120:	defffe04 	addi	sp,sp,-8
   2d124:	dfc00115 	stw	ra,4(sp)
   2d128:	df000015 	stw	fp,0(sp)
   2d12c:	d839883a 	mov	fp,sp
  return ((alt_errno) ? alt_errno() : &errno);
   2d130:	d0a00e17 	ldw	r2,-32712(gp)
   2d134:	10000326 	beq	r2,zero,2d144 <alt_get_errno+0x24>
   2d138:	d0a00e17 	ldw	r2,-32712(gp)
   2d13c:	103ee83a 	callr	r2
   2d140:	00000106 	br	2d148 <alt_get_errno+0x28>
   2d144:	d0a72504 	addi	r2,gp,-25452
}
   2d148:	e037883a 	mov	sp,fp
   2d14c:	dfc00117 	ldw	ra,4(sp)
   2d150:	df000017 	ldw	fp,0(sp)
   2d154:	dec00204 	addi	sp,sp,8
   2d158:	f800283a 	ret

0002d15c <fstat>:
}

#else /* !ALT_USE_DIRECT_DRIVERS */

int ALT_FSTAT (int file, struct stat *st)
{
   2d15c:	defffb04 	addi	sp,sp,-20
   2d160:	dfc00415 	stw	ra,16(sp)
   2d164:	df000315 	stw	fp,12(sp)
   2d168:	df000304 	addi	fp,sp,12
   2d16c:	e13ffe15 	stw	r4,-8(fp)
   2d170:	e17ffd15 	stw	r5,-12(fp)
   * A common error case is that when the file descriptor was created, the call
   * to open() failed resulting in a negative file descriptor. This is trapped
   * below so that we don't try and process an invalid file descriptor.
   */

  fd = (file < 0) ? NULL : &alt_fd_list[file];
   2d174:	e0bffe17 	ldw	r2,-8(fp)
   2d178:	10000916 	blt	r2,zero,2d1a0 <fstat+0x44>
   2d17c:	e0fffe17 	ldw	r3,-8(fp)
   2d180:	1805883a 	mov	r2,r3
   2d184:	1085883a 	add	r2,r2,r2
   2d188:	10c5883a 	add	r2,r2,r3
   2d18c:	100490ba 	slli	r2,r2,2
   2d190:	00c000f4 	movhi	r3,3
   2d194:	18c41e04 	addi	r3,r3,4216
   2d198:	10c5883a 	add	r2,r2,r3
   2d19c:	00000106 	br	2d1a4 <fstat+0x48>
   2d1a0:	0005883a 	mov	r2,zero
   2d1a4:	e0bfff15 	stw	r2,-4(fp)
  
  if (fd)
   2d1a8:	e0bfff17 	ldw	r2,-4(fp)
   2d1ac:	10001026 	beq	r2,zero,2d1f0 <fstat+0x94>
  {
    /* Call the drivers fstat() function to fill out the "st" structure. */

    if (fd->dev->fstat)
   2d1b0:	e0bfff17 	ldw	r2,-4(fp)
   2d1b4:	10800017 	ldw	r2,0(r2)
   2d1b8:	10800817 	ldw	r2,32(r2)
   2d1bc:	10000726 	beq	r2,zero,2d1dc <fstat+0x80>
    {
      return fd->dev->fstat(fd, st);
   2d1c0:	e0bfff17 	ldw	r2,-4(fp)
   2d1c4:	10800017 	ldw	r2,0(r2)
   2d1c8:	10800817 	ldw	r2,32(r2)
   2d1cc:	e17ffd17 	ldw	r5,-12(fp)
   2d1d0:	e13fff17 	ldw	r4,-4(fp)
   2d1d4:	103ee83a 	callr	r2
   2d1d8:	00000a06 	br	2d204 <fstat+0xa8>
     * device.
     */
 
    else
    {
      st->st_mode = _IFCHR;
   2d1dc:	e0bffd17 	ldw	r2,-12(fp)
   2d1e0:	00c80004 	movi	r3,8192
   2d1e4:	10c00115 	stw	r3,4(r2)
      return 0;
   2d1e8:	0005883a 	mov	r2,zero
   2d1ec:	00000506 	br	2d204 <fstat+0xa8>
    }
  }
  else
  {
    ALT_ERRNO = EBADFD;
   2d1f0:	002d1200 	call	2d120 <alt_get_errno>
   2d1f4:	1007883a 	mov	r3,r2
   2d1f8:	00801444 	movi	r2,81
   2d1fc:	18800015 	stw	r2,0(r3)
    return -1;
   2d200:	00bfffc4 	movi	r2,-1
  }
}
   2d204:	e037883a 	mov	sp,fp
   2d208:	dfc00117 	ldw	ra,4(sp)
   2d20c:	df000017 	ldw	fp,0(sp)
   2d210:	dec00204 	addi	sp,sp,8
   2d214:	f800283a 	ret

0002d218 <getpid>:
 *
 * ALT_GETPID is mapped onto the getpid() system call in alt_syscall.h
 */
 
int ALT_GETPID (void)
{
   2d218:	deffff04 	addi	sp,sp,-4
   2d21c:	df000015 	stw	fp,0(sp)
   2d220:	d839883a 	mov	fp,sp
  return 0;
   2d224:	0005883a 	mov	r2,zero
}
   2d228:	e037883a 	mov	sp,fp
   2d22c:	df000017 	ldw	fp,0(sp)
   2d230:	dec00104 	addi	sp,sp,4
   2d234:	f800283a 	ret

0002d238 <alt_irq_register>:
 */
 
int alt_irq_register (alt_u32 id, 
                      void* context, 
                      alt_isr_func handler)
{
   2d238:	defff004 	addi	sp,sp,-64
   2d23c:	df000f15 	stw	fp,60(sp)
   2d240:	df000f04 	addi	fp,sp,60
   2d244:	e13ff315 	stw	r4,-52(fp)
   2d248:	e17ff215 	stw	r5,-56(fp)
   2d24c:	e1bff115 	stw	r6,-60(fp)
  int rc = -EINVAL;  
   2d250:	00bffa84 	movi	r2,-22
   2d254:	e0bfff15 	stw	r2,-4(fp)
  alt_irq_context status;

  if (id < ALT_NIRQ)
   2d258:	e0bff317 	ldw	r2,-52(fp)
   2d25c:	10800828 	cmpgeui	r2,r2,32
   2d260:	1000501e 	bne	r2,zero,2d3a4 <alt_irq_register+0x16c>
  NIOS2_READ_STATUS (context);
   2d264:	0005303a 	rdctl	r2,status
   2d268:	e0bffd15 	stw	r2,-12(fp)
  NIOS2_WRITE_STATUS (context & ~NIOS2_STATUS_PIE_MSK);
   2d26c:	e0fffd17 	ldw	r3,-12(fp)
   2d270:	00bfff84 	movi	r2,-2
   2d274:	1884703a 	and	r2,r3,r2
   2d278:	1001703a 	wrctl	status,r2
  return context;
   2d27c:	e0bffd17 	ldw	r2,-12(fp)
     * interrupts are disabled while the handler tables are updated to ensure
     * that an interrupt doesn't occur while the tables are in an inconsistant
     * state.
     */

    status = alt_irq_disable_all ();
   2d280:	e0bffe15 	stw	r2,-8(fp)

    alt_irq[id].handler = handler;
   2d284:	e0bff317 	ldw	r2,-52(fp)
   2d288:	100890fa 	slli	r4,r2,3
   2d28c:	e0fff117 	ldw	r3,-60(fp)
   2d290:	008000f4 	movhi	r2,3
   2d294:	2085883a 	add	r2,r4,r2
   2d298:	10cfe215 	stw	r3,16264(r2)
    alt_irq[id].context = context;
   2d29c:	e0bff317 	ldw	r2,-52(fp)
   2d2a0:	100890fa 	slli	r4,r2,3
   2d2a4:	e0fff217 	ldw	r3,-56(fp)
   2d2a8:	008000f4 	movhi	r2,3
   2d2ac:	2085883a 	add	r2,r4,r2
   2d2b0:	10cfe315 	stw	r3,16268(r2)

    rc = (handler) ? alt_irq_enable (id): alt_irq_disable (id);
   2d2b4:	e0bff117 	ldw	r2,-60(fp)
   2d2b8:	10001a26 	beq	r2,zero,2d324 <alt_irq_register+0xec>
   2d2bc:	e0bff317 	ldw	r2,-52(fp)
   2d2c0:	e0bffc15 	stw	r2,-16(fp)
  NIOS2_READ_STATUS (context);
   2d2c4:	0005303a 	rdctl	r2,status
   2d2c8:	e0bffb15 	stw	r2,-20(fp)
  NIOS2_WRITE_STATUS (context & ~NIOS2_STATUS_PIE_MSK);
   2d2cc:	e0fffb17 	ldw	r3,-20(fp)
   2d2d0:	00bfff84 	movi	r2,-2
   2d2d4:	1884703a 	and	r2,r3,r2
   2d2d8:	1001703a 	wrctl	status,r2
  return context;
   2d2dc:	e0bffb17 	ldw	r2,-20(fp)
static ALT_INLINE int ALT_ALWAYS_INLINE alt_irq_enable (alt_u32 id)
{
  alt_irq_context  status;
  extern volatile alt_u32 alt_irq_active;

  status = alt_irq_disable_all ();
   2d2e0:	e0bffa15 	stw	r2,-24(fp)

  alt_irq_active |= (1 << id);
   2d2e4:	00c00044 	movi	r3,1
   2d2e8:	e0bffc17 	ldw	r2,-16(fp)
   2d2ec:	1884983a 	sll	r2,r3,r2
   2d2f0:	1007883a 	mov	r3,r2
   2d2f4:	d0a72a17 	ldw	r2,-25432(gp)
   2d2f8:	1884b03a 	or	r2,r3,r2
   2d2fc:	d0a72a15 	stw	r2,-25432(gp)
  NIOS2_WRITE_IENABLE (alt_irq_active);
   2d300:	d0a72a17 	ldw	r2,-25432(gp)
   2d304:	100170fa 	wrctl	ienable,r2
   2d308:	e0bffa17 	ldw	r2,-24(fp)
   2d30c:	e0bff915 	stw	r2,-28(fp)
  NIOS2_WRITE_STATUS (context);
   2d310:	e0bff917 	ldw	r2,-28(fp)
   2d314:	1001703a 	wrctl	status,r2
}
   2d318:	0001883a 	nop

  alt_irq_enable_all(status);

  return 0;
   2d31c:	0005883a 	mov	r2,zero
   2d320:	00001a06 	br	2d38c <alt_irq_register+0x154>
   2d324:	e0bff317 	ldw	r2,-52(fp)
   2d328:	e0bff815 	stw	r2,-32(fp)
  NIOS2_READ_STATUS (context);
   2d32c:	0005303a 	rdctl	r2,status
   2d330:	e0bff715 	stw	r2,-36(fp)
  NIOS2_WRITE_STATUS (context & ~NIOS2_STATUS_PIE_MSK);
   2d334:	e0fff717 	ldw	r3,-36(fp)
   2d338:	00bfff84 	movi	r2,-2
   2d33c:	1884703a 	and	r2,r3,r2
   2d340:	1001703a 	wrctl	status,r2
  return context;
   2d344:	e0bff717 	ldw	r2,-36(fp)
  status = alt_irq_disable_all ();
   2d348:	e0bff615 	stw	r2,-40(fp)
  alt_irq_active &= ~(1 << id);
   2d34c:	00c00044 	movi	r3,1
   2d350:	e0bff817 	ldw	r2,-32(fp)
   2d354:	1884983a 	sll	r2,r3,r2
   2d358:	0084303a 	nor	r2,zero,r2
   2d35c:	1007883a 	mov	r3,r2
   2d360:	d0a72a17 	ldw	r2,-25432(gp)
   2d364:	1884703a 	and	r2,r3,r2
   2d368:	d0a72a15 	stw	r2,-25432(gp)
  NIOS2_WRITE_IENABLE (alt_irq_active);
   2d36c:	d0a72a17 	ldw	r2,-25432(gp)
   2d370:	100170fa 	wrctl	ienable,r2
   2d374:	e0bff617 	ldw	r2,-40(fp)
   2d378:	e0bff515 	stw	r2,-44(fp)
  NIOS2_WRITE_STATUS (context);
   2d37c:	e0bff517 	ldw	r2,-44(fp)
   2d380:	1001703a 	wrctl	status,r2
}
   2d384:	0001883a 	nop
  return 0;
   2d388:	0005883a 	mov	r2,zero
   2d38c:	e0bfff15 	stw	r2,-4(fp)
   2d390:	e0bffe17 	ldw	r2,-8(fp)
   2d394:	e0bff415 	stw	r2,-48(fp)
  NIOS2_WRITE_STATUS (context);
   2d398:	e0bff417 	ldw	r2,-48(fp)
   2d39c:	1001703a 	wrctl	status,r2
}
   2d3a0:	0001883a 	nop

    alt_irq_enable_all(status);
  }
  return rc; 
   2d3a4:	e0bfff17 	ldw	r2,-4(fp)
}
   2d3a8:	e037883a 	mov	sp,fp
   2d3ac:	df000017 	ldw	fp,0(sp)
   2d3b0:	dec00104 	addi	sp,sp,4
   2d3b4:	f800283a 	ret

0002d3b8 <alt_get_errno>:
{
   2d3b8:	defffe04 	addi	sp,sp,-8
   2d3bc:	dfc00115 	stw	ra,4(sp)
   2d3c0:	df000015 	stw	fp,0(sp)
   2d3c4:	d839883a 	mov	fp,sp
  return ((alt_errno) ? alt_errno() : &errno);
   2d3c8:	d0a00e17 	ldw	r2,-32712(gp)
   2d3cc:	10000326 	beq	r2,zero,2d3dc <alt_get_errno+0x24>
   2d3d0:	d0a00e17 	ldw	r2,-32712(gp)
   2d3d4:	103ee83a 	callr	r2
   2d3d8:	00000106 	br	2d3e0 <alt_get_errno+0x28>
   2d3dc:	d0a72504 	addi	r2,gp,-25452
}
   2d3e0:	e037883a 	mov	sp,fp
   2d3e4:	dfc00117 	ldw	ra,4(sp)
   2d3e8:	df000017 	ldw	fp,0(sp)
   2d3ec:	dec00204 	addi	sp,sp,8
   2d3f0:	f800283a 	ret

0002d3f4 <isatty>:
 *
 * ALT_ISATTY is mapped onto the isatty() system call in alt_syscall.h
 */
 
int ALT_ISATTY (int file)
{
   2d3f4:	deffea04 	addi	sp,sp,-88
   2d3f8:	dfc01515 	stw	ra,84(sp)
   2d3fc:	df001415 	stw	fp,80(sp)
   2d400:	df001404 	addi	fp,sp,80
   2d404:	e13fec15 	stw	r4,-80(fp)
   * A common error case is that when the file descriptor was created, the call
   * to open() failed resulting in a negative file descriptor. This is trapped
   * below so that we don't try and process an invalid file descriptor.
   */

  fd = (file < 0) ? NULL : &alt_fd_list[file];
   2d408:	e0bfec17 	ldw	r2,-80(fp)
   2d40c:	10000916 	blt	r2,zero,2d434 <isatty+0x40>
   2d410:	e0ffec17 	ldw	r3,-80(fp)
   2d414:	1805883a 	mov	r2,r3
   2d418:	1085883a 	add	r2,r2,r2
   2d41c:	10c5883a 	add	r2,r2,r3
   2d420:	100490ba 	slli	r2,r2,2
   2d424:	00c000f4 	movhi	r3,3
   2d428:	18c41e04 	addi	r3,r3,4216
   2d42c:	10c5883a 	add	r2,r2,r3
   2d430:	00000106 	br	2d438 <isatty+0x44>
   2d434:	0005883a 	mov	r2,zero
   2d438:	e0bfff15 	stw	r2,-4(fp)
  
  if (fd)
   2d43c:	e0bfff17 	ldw	r2,-4(fp)
   2d440:	10000e26 	beq	r2,zero,2d47c <isatty+0x88>
    /*
     * If a device driver does not provide an fstat() function, then it is 
     * treated as a terminal device by default.
     */

    if (!fd->dev->fstat)
   2d444:	e0bfff17 	ldw	r2,-4(fp)
   2d448:	10800017 	ldw	r2,0(r2)
   2d44c:	10800817 	ldw	r2,32(r2)
   2d450:	1000021e 	bne	r2,zero,2d45c <isatty+0x68>
    {
      return 1;
   2d454:	00800044 	movi	r2,1
   2d458:	00000d06 	br	2d490 <isatty+0x9c>
     * this is called so that the device can identify itself.
     */ 

    else
    {
      fstat (file, &stat);
   2d45c:	e0bfed04 	addi	r2,fp,-76
   2d460:	100b883a 	mov	r5,r2
   2d464:	e13fec17 	ldw	r4,-80(fp)
   2d468:	002d15c0 	call	2d15c <fstat>
      return (stat.st_mode == _IFCHR) ? 1 : 0;
   2d46c:	e0bfee17 	ldw	r2,-72(fp)
   2d470:	10880020 	cmpeqi	r2,r2,8192
   2d474:	10803fcc 	andi	r2,r2,255
   2d478:	00000506 	br	2d490 <isatty+0x9c>
    }
  }
  else
  {
    ALT_ERRNO = EBADFD;
   2d47c:	002d3b80 	call	2d3b8 <alt_get_errno>
   2d480:	1007883a 	mov	r3,r2
   2d484:	00801444 	movi	r2,81
   2d488:	18800015 	stw	r2,0(r3)
    return 0;
   2d48c:	0005883a 	mov	r2,zero
  }
}
   2d490:	e037883a 	mov	sp,fp
   2d494:	dfc00117 	ldw	ra,4(sp)
   2d498:	df000017 	ldw	fp,0(sp)
   2d49c:	dec00204 	addi	sp,sp,8
   2d4a0:	f800283a 	ret

0002d4a4 <alt_get_errno>:
{
   2d4a4:	defffe04 	addi	sp,sp,-8
   2d4a8:	dfc00115 	stw	ra,4(sp)
   2d4ac:	df000015 	stw	fp,0(sp)
   2d4b0:	d839883a 	mov	fp,sp
  return ((alt_errno) ? alt_errno() : &errno);
   2d4b4:	d0a00e17 	ldw	r2,-32712(gp)
   2d4b8:	10000326 	beq	r2,zero,2d4c8 <alt_get_errno+0x24>
   2d4bc:	d0a00e17 	ldw	r2,-32712(gp)
   2d4c0:	103ee83a 	callr	r2
   2d4c4:	00000106 	br	2d4cc <alt_get_errno+0x28>
   2d4c8:	d0a72504 	addi	r2,gp,-25452
}
   2d4cc:	e037883a 	mov	sp,fp
   2d4d0:	dfc00117 	ldw	ra,4(sp)
   2d4d4:	df000017 	ldw	fp,0(sp)
   2d4d8:	dec00204 	addi	sp,sp,8
   2d4dc:	f800283a 	ret

0002d4e0 <kill>:
 *
 * ALT_KILL is mapped onto the kill() system call in alt_syscall.h
 */

int ALT_KILL (int pid, int sig)
{
   2d4e0:	defffb04 	addi	sp,sp,-20
   2d4e4:	dfc00415 	stw	ra,16(sp)
   2d4e8:	df000315 	stw	fp,12(sp)
   2d4ec:	df000304 	addi	fp,sp,12
   2d4f0:	e13ffe15 	stw	r4,-8(fp)
   2d4f4:	e17ffd15 	stw	r5,-12(fp)
  int status = 0;
   2d4f8:	e03fff15 	stw	zero,-4(fp)

  if (pid <= 0)
   2d4fc:	e0bffe17 	ldw	r2,-8(fp)
   2d500:	00802e16 	blt	zero,r2,2d5bc <kill+0xdc>
   2d504:	e0bffd17 	ldw	r2,-12(fp)
   2d508:	10800828 	cmpgeui	r2,r2,32
   2d50c:	1000281e 	bne	r2,zero,2d5b0 <kill+0xd0>
   2d510:	e0bffd17 	ldw	r2,-12(fp)
   2d514:	100690ba 	slli	r3,r2,2
   2d518:	008000f4 	movhi	r2,3
   2d51c:	1885883a 	add	r2,r3,r2
   2d520:	10b54a17 	ldw	r2,-10968(r2)
   2d524:	1000683a 	jmp	r2
   2d528:	0002d5d0 	cmplti	zero,zero,2903
   2d52c:	0002d5b0 	cmpltui	zero,zero,2902
   2d530:	0002d5b0 	cmpltui	zero,zero,2902
   2d534:	0002d5a8 	cmpgeui	zero,zero,2902
   2d538:	0002d5a8 	cmpgeui	zero,zero,2902
   2d53c:	0002d5a8 	cmpgeui	zero,zero,2902
   2d540:	0002d5a8 	cmpgeui	zero,zero,2902
   2d544:	0002d5b0 	cmpltui	zero,zero,2902
   2d548:	0002d5a8 	cmpgeui	zero,zero,2902
   2d54c:	0002d5a8 	cmpgeui	zero,zero,2902
   2d550:	0002d5a8 	cmpgeui	zero,zero,2902
   2d554:	0002d5a8 	cmpgeui	zero,zero,2902
   2d558:	0002d5a8 	cmpgeui	zero,zero,2902
   2d55c:	0002d5a8 	cmpgeui	zero,zero,2902
   2d560:	0002d5a8 	cmpgeui	zero,zero,2902
   2d564:	0002d5a8 	cmpgeui	zero,zero,2902
   2d568:	0002d5d0 	cmplti	zero,zero,2903
   2d56c:	0002d5b0 	cmpltui	zero,zero,2902
   2d570:	0002d5b0 	cmpltui	zero,zero,2902
   2d574:	0002d5b0 	cmpltui	zero,zero,2902
   2d578:	0002d5d0 	cmplti	zero,zero,2903
   2d57c:	0002d5b0 	cmpltui	zero,zero,2902
   2d580:	0002d5b0 	cmpltui	zero,zero,2902
   2d584:	0002d5a8 	cmpgeui	zero,zero,2902
   2d588:	0002d5a8 	cmpgeui	zero,zero,2902
   2d58c:	0002d5a8 	cmpgeui	zero,zero,2902
   2d590:	0002d5a8 	cmpgeui	zero,zero,2902
   2d594:	0002d5a8 	cmpgeui	zero,zero,2902
   2d598:	0002d5b0 	cmpltui	zero,zero,2902
   2d59c:	0002d5b0 	cmpltui	zero,zero,2902
   2d5a0:	0002d5a8 	cmpgeui	zero,zero,2902
   2d5a4:	0002d5a8 	cmpgeui	zero,zero,2902
       * The Posix standard defines the default behaviour for all these signals 
       * as being eqivalent to a call to _exit(). No mechanism is provided to 
       * change this behaviour.
       */

      _exit(0);
   2d5a8:	0009883a 	mov	r4,zero
   2d5ac:	002d0e80 	call	2d0e8 <_exit>
      break;
    default:

      /* Tried to send an unsupported signal */

      status = EINVAL;
   2d5b0:	00800584 	movi	r2,22
   2d5b4:	e0bfff15 	stw	r2,-4(fp)
   2d5b8:	00000606 	br	2d5d4 <kill+0xf4>
    }
  }

  else if (pid > 0)
   2d5bc:	e0bffe17 	ldw	r2,-8(fp)
   2d5c0:	0080040e 	bge	zero,r2,2d5d4 <kill+0xf4>
  {
    /* Attempted to signal a non-existant process */

    status = ESRCH;
   2d5c4:	008000c4 	movi	r2,3
   2d5c8:	e0bfff15 	stw	r2,-4(fp)
   2d5cc:	00000106 	br	2d5d4 <kill+0xf4>
      break;
   2d5d0:	0001883a 	nop
  }

  if (status)
   2d5d4:	e0bfff17 	ldw	r2,-4(fp)
   2d5d8:	10000626 	beq	r2,zero,2d5f4 <kill+0x114>
  {
    ALT_ERRNO = status;
   2d5dc:	002d4a40 	call	2d4a4 <alt_get_errno>
   2d5e0:	1007883a 	mov	r3,r2
   2d5e4:	e0bfff17 	ldw	r2,-4(fp)
   2d5e8:	18800015 	stw	r2,0(r3)
    return -1;
   2d5ec:	00bfffc4 	movi	r2,-1
   2d5f0:	00000106 	br	2d5f8 <kill+0x118>
  }

  return 0;
   2d5f4:	0005883a 	mov	r2,zero
}
   2d5f8:	e037883a 	mov	sp,fp
   2d5fc:	dfc00117 	ldw	ra,4(sp)
   2d600:	df000017 	ldw	fp,0(sp)
   2d604:	dec00204 	addi	sp,sp,8
   2d608:	f800283a 	ret

0002d60c <alt_load_section>:
 */

static void ALT_INLINE alt_load_section (alt_u32* from, 
                                         alt_u32* to, 
                                         alt_u32* end)
{
   2d60c:	defffc04 	addi	sp,sp,-16
   2d610:	df000315 	stw	fp,12(sp)
   2d614:	df000304 	addi	fp,sp,12
   2d618:	e13fff15 	stw	r4,-4(fp)
   2d61c:	e17ffe15 	stw	r5,-8(fp)
   2d620:	e1bffd15 	stw	r6,-12(fp)
  if (to != from)
   2d624:	e0fffe17 	ldw	r3,-8(fp)
   2d628:	e0bfff17 	ldw	r2,-4(fp)
   2d62c:	18800c26 	beq	r3,r2,2d660 <alt_load_section+0x54>
  {
    while( to != end )
   2d630:	00000806 	br	2d654 <alt_load_section+0x48>
    {
      *to++ = *from++;
   2d634:	e0ffff17 	ldw	r3,-4(fp)
   2d638:	18800104 	addi	r2,r3,4
   2d63c:	e0bfff15 	stw	r2,-4(fp)
   2d640:	e0bffe17 	ldw	r2,-8(fp)
   2d644:	11000104 	addi	r4,r2,4
   2d648:	e13ffe15 	stw	r4,-8(fp)
   2d64c:	18c00017 	ldw	r3,0(r3)
   2d650:	10c00015 	stw	r3,0(r2)
    while( to != end )
   2d654:	e0fffe17 	ldw	r3,-8(fp)
   2d658:	e0bffd17 	ldw	r2,-12(fp)
   2d65c:	18bff51e 	bne	r3,r2,2d634 <alt_load_section+0x28>
    }
  }
}
   2d660:	0001883a 	nop
   2d664:	e037883a 	mov	sp,fp
   2d668:	df000017 	ldw	fp,0(sp)
   2d66c:	dec00104 	addi	sp,sp,4
   2d670:	f800283a 	ret

0002d674 <alt_load>:
 * there is no bootloader, so this application is responsible for loading to
 * RAM any sections that are required.
 */  

void alt_load (void)
{
   2d674:	defffe04 	addi	sp,sp,-8
   2d678:	dfc00115 	stw	ra,4(sp)
   2d67c:	df000015 	stw	fp,0(sp)
   2d680:	d839883a 	mov	fp,sp
  /* 
   * Copy the .rwdata section. 
   */

  alt_load_section (&__flash_rwdata_start, 
   2d684:	018000f4 	movhi	r6,3
   2d688:	3188b404 	addi	r6,r6,8912
   2d68c:	014000f4 	movhi	r5,3
   2d690:	2941a504 	addi	r5,r5,1684
   2d694:	010000f4 	movhi	r4,3
   2d698:	2108b404 	addi	r4,r4,8912
   2d69c:	002d60c0 	call	2d60c <alt_load_section>

  /*
   * Copy the exception handler.
   */

  alt_load_section (&__flash_exceptions_start, 
   2d6a0:	018000b4 	movhi	r6,2
   2d6a4:	31808a04 	addi	r6,r6,552
   2d6a8:	014000b4 	movhi	r5,2
   2d6ac:	29400804 	addi	r5,r5,32
   2d6b0:	010000b4 	movhi	r4,2
   2d6b4:	21000804 	addi	r4,r4,32
   2d6b8:	002d60c0 	call	2d60c <alt_load_section>

  /*
   * Copy the .rodata section.
   */

  alt_load_section (&__flash_rodata_start, 
   2d6bc:	018000f4 	movhi	r6,3
   2d6c0:	3181a504 	addi	r6,r6,1684
   2d6c4:	014000f4 	movhi	r5,3
   2d6c8:	297fb404 	addi	r5,r5,-304
   2d6cc:	010000f4 	movhi	r4,3
   2d6d0:	213fb404 	addi	r4,r4,-304
   2d6d4:	002d60c0 	call	2d60c <alt_load_section>
  
  /*
   * Now ensure that the caches are in synch.
   */
  
  alt_dcache_flush_all();
   2d6d8:	002f2a00 	call	2f2a0 <alt_dcache_flush_all>
  alt_icache_flush_all();
   2d6dc:	002f6bc0 	call	2f6bc <alt_icache_flush_all>
}
   2d6e0:	0001883a 	nop
   2d6e4:	e037883a 	mov	sp,fp
   2d6e8:	dfc00117 	ldw	ra,4(sp)
   2d6ec:	df000017 	ldw	fp,0(sp)
   2d6f0:	dec00204 	addi	sp,sp,8
   2d6f4:	f800283a 	ret

0002d6f8 <alt_get_errno>:
{
   2d6f8:	defffe04 	addi	sp,sp,-8
   2d6fc:	dfc00115 	stw	ra,4(sp)
   2d700:	df000015 	stw	fp,0(sp)
   2d704:	d839883a 	mov	fp,sp
  return ((alt_errno) ? alt_errno() : &errno);
   2d708:	d0a00e17 	ldw	r2,-32712(gp)
   2d70c:	10000326 	beq	r2,zero,2d71c <alt_get_errno+0x24>
   2d710:	d0a00e17 	ldw	r2,-32712(gp)
   2d714:	103ee83a 	callr	r2
   2d718:	00000106 	br	2d720 <alt_get_errno+0x28>
   2d71c:	d0a72504 	addi	r2,gp,-25452
}
   2d720:	e037883a 	mov	sp,fp
   2d724:	dfc00117 	ldw	ra,4(sp)
   2d728:	df000017 	ldw	fp,0(sp)
   2d72c:	dec00204 	addi	sp,sp,8
   2d730:	f800283a 	ret

0002d734 <lseek>:
 * ALT_LSEEK is mapped onto the lseek() system call in alt_syscall.h
 *
 */

off_t ALT_LSEEK (int file, off_t ptr, int dir)
{
   2d734:	defff904 	addi	sp,sp,-28
   2d738:	dfc00615 	stw	ra,24(sp)
   2d73c:	df000515 	stw	fp,20(sp)
   2d740:	df000504 	addi	fp,sp,20
   2d744:	e13ffd15 	stw	r4,-12(fp)
   2d748:	e17ffc15 	stw	r5,-16(fp)
   2d74c:	e1bffb15 	stw	r6,-20(fp)
  alt_fd* fd;
  off_t   rc = 0; 
   2d750:	e03fff15 	stw	zero,-4(fp)
   * A common error case is that when the file descriptor was created, the call
   * to open() failed resulting in a negative file descriptor. This is trapped
   * below so that we don't try and process an invalid file descriptor.
   */

  fd = (file < 0) ? NULL : &alt_fd_list[file];
   2d754:	e0bffd17 	ldw	r2,-12(fp)
   2d758:	10000916 	blt	r2,zero,2d780 <lseek+0x4c>
   2d75c:	e0fffd17 	ldw	r3,-12(fp)
   2d760:	1805883a 	mov	r2,r3
   2d764:	1085883a 	add	r2,r2,r2
   2d768:	10c5883a 	add	r2,r2,r3
   2d76c:	100490ba 	slli	r2,r2,2
   2d770:	00c000f4 	movhi	r3,3
   2d774:	18c41e04 	addi	r3,r3,4216
   2d778:	10c5883a 	add	r2,r2,r3
   2d77c:	00000106 	br	2d784 <lseek+0x50>
   2d780:	0005883a 	mov	r2,zero
   2d784:	e0bffe15 	stw	r2,-8(fp)
  
  if (fd) 
   2d788:	e0bffe17 	ldw	r2,-8(fp)
   2d78c:	10001026 	beq	r2,zero,2d7d0 <lseek+0x9c>
    /*
     * If the device driver provides an implementation of the lseek() function,
     * then call that to process the request.
     */
 
    if (fd->dev->lseek)
   2d790:	e0bffe17 	ldw	r2,-8(fp)
   2d794:	10800017 	ldw	r2,0(r2)
   2d798:	10800717 	ldw	r2,28(r2)
   2d79c:	10000926 	beq	r2,zero,2d7c4 <lseek+0x90>
    {
      rc = fd->dev->lseek(fd, ptr, dir);
   2d7a0:	e0bffe17 	ldw	r2,-8(fp)
   2d7a4:	10800017 	ldw	r2,0(r2)
   2d7a8:	10800717 	ldw	r2,28(r2)
   2d7ac:	e1bffb17 	ldw	r6,-20(fp)
   2d7b0:	e17ffc17 	ldw	r5,-16(fp)
   2d7b4:	e13ffe17 	ldw	r4,-8(fp)
   2d7b8:	103ee83a 	callr	r2
   2d7bc:	e0bfff15 	stw	r2,-4(fp)
   2d7c0:	00000506 	br	2d7d8 <lseek+0xa4>
     * Otherwise return an error.
     */

    else
    {
      rc = -ENOTSUP;
   2d7c4:	00bfde84 	movi	r2,-134
   2d7c8:	e0bfff15 	stw	r2,-4(fp)
   2d7cc:	00000206 	br	2d7d8 <lseek+0xa4>
    }
  }
  else  
  {
    rc = -EBADFD;
   2d7d0:	00bfebc4 	movi	r2,-81
   2d7d4:	e0bfff15 	stw	r2,-4(fp)
  }

  if (rc < 0)
   2d7d8:	e0bfff17 	ldw	r2,-4(fp)
   2d7dc:	1000070e 	bge	r2,zero,2d7fc <lseek+0xc8>
  {
    ALT_ERRNO = -rc;
   2d7e0:	002d6f80 	call	2d6f8 <alt_get_errno>
   2d7e4:	1007883a 	mov	r3,r2
   2d7e8:	e0bfff17 	ldw	r2,-4(fp)
   2d7ec:	0085c83a 	sub	r2,zero,r2
   2d7f0:	18800015 	stw	r2,0(r3)
    rc = -1;
   2d7f4:	00bfffc4 	movi	r2,-1
   2d7f8:	e0bfff15 	stw	r2,-4(fp)
  }

  return rc;
   2d7fc:	e0bfff17 	ldw	r2,-4(fp)
}
   2d800:	e037883a 	mov	sp,fp
   2d804:	dfc00117 	ldw	ra,4(sp)
   2d808:	df000017 	ldw	fp,0(sp)
   2d80c:	dec00204 	addi	sp,sp,8
   2d810:	f800283a 	ret

0002d814 <alt_main>:
 * devices/filesystems/components in the system; and call the entry point for
 * the users application, i.e. main().
 */

void alt_main (void)
{
   2d814:	defffd04 	addi	sp,sp,-12
   2d818:	dfc00215 	stw	ra,8(sp)
   2d81c:	df000115 	stw	fp,4(sp)
   2d820:	df000104 	addi	fp,sp,4
#endif

  /* ALT LOG - please see HAL/sys/alt_log_printf.h for details */
  ALT_LOG_PRINT_BOOT("[alt_main.c] Entering alt_main, calling alt_irq_init.\r\n");
  /* Initialize the interrupt controller. */
  alt_irq_init (NULL);
   2d824:	0009883a 	mov	r4,zero
   2d828:	002e18c0 	call	2e18c <alt_irq_init>

  /* Initialize the operating system */
  ALT_LOG_PRINT_BOOT("[alt_main.c] Done alt_irq_init, calling alt_os_init.\r\n");
  ALT_OS_INIT();
   2d82c:	0001883a 	nop
  ALT_LOG_PRINT_BOOT("[alt_main.c] Done OS Init, calling alt_sem_create.\r\n");
  ALT_SEM_CREATE (&alt_fd_list_lock, 1);

  /* Initialize the device drivers/software components. */
  ALT_LOG_PRINT_BOOT("[alt_main.c] Calling alt_sys_init.\r\n");
  alt_sys_init();
   2d830:	002e1c80 	call	2e1c8 <alt_sys_init>
   * devices be present (not equal to /dev/null) and if direct drivers
   * aren't being used.
   */

    ALT_LOG_PRINT_BOOT("[alt_main.c] Redirecting IO.\r\n");
    alt_io_redirect(ALT_STDOUT, ALT_STDIN, ALT_STDERR);
   2d834:	018000f4 	movhi	r6,3
   2d838:	31819704 	addi	r6,r6,1628
   2d83c:	014000f4 	movhi	r5,3
   2d840:	29419704 	addi	r5,r5,1628
   2d844:	010000f4 	movhi	r4,3
   2d848:	21019704 	addi	r4,r4,1628
   2d84c:	002f7b00 	call	2f7b0 <alt_io_redirect>
  /* 
   * Call the C++ constructors 
   */

  ALT_LOG_PRINT_BOOT("[alt_main.c] Calling C++ constructors.\r\n");
  _do_ctors ();
   2d850:	002f3a40 	call	2f3a4 <_do_ctors>
   * redefined as _exit()). This is in the interest of reducing code footprint,
   * in that the atexit() overhead is removed when it's not needed.
   */

  ALT_LOG_PRINT_BOOT("[alt_main.c] Calling atexit.\r\n");
  atexit (_do_dtors);
   2d854:	010000f4 	movhi	r4,3
   2d858:	213d0204 	addi	r4,r4,-3064
   2d85c:	002fa940 	call	2fa94 <atexit>
  ALT_LOG_PRINT_BOOT("[alt_main.c] Calling main.\r\n");

#ifdef ALT_NO_EXIT
  main (alt_argc, alt_argv, alt_envp);
#else
  result = main (alt_argc, alt_argv, alt_envp);
   2d860:	d0a72b17 	ldw	r2,-25428(gp)
   2d864:	d0e72c17 	ldw	r3,-25424(gp)
   2d868:	d1272d17 	ldw	r4,-25420(gp)
   2d86c:	200d883a 	mov	r6,r4
   2d870:	180b883a 	mov	r5,r3
   2d874:	1009883a 	mov	r4,r2
   2d878:	00207b40 	call	207b4 <main>
   2d87c:	e0bfff15 	stw	r2,-4(fp)
  close(STDOUT_FILENO);
   2d880:	01000044 	movi	r4,1
   2d884:	002cfe00 	call	2cfe0 <close>
  exit (result);
   2d888:	e13fff17 	ldw	r4,-4(fp)
   2d88c:	002faa80 	call	2faa8 <exit>

0002d890 <__malloc_lock>:
 * configuration is single threaded, so there is nothing to do here. Note that 
 * this requires that malloc is never called by an interrupt service routine.
 */

void __malloc_lock ( struct _reent *_r )
{
   2d890:	defffe04 	addi	sp,sp,-8
   2d894:	df000115 	stw	fp,4(sp)
   2d898:	df000104 	addi	fp,sp,4
   2d89c:	e13fff15 	stw	r4,-4(fp)
}
   2d8a0:	0001883a 	nop
   2d8a4:	e037883a 	mov	sp,fp
   2d8a8:	df000017 	ldw	fp,0(sp)
   2d8ac:	dec00104 	addi	sp,sp,4
   2d8b0:	f800283a 	ret

0002d8b4 <__malloc_unlock>:
/*
 *
 */

void __malloc_unlock ( struct _reent *_r )
{
   2d8b4:	defffe04 	addi	sp,sp,-8
   2d8b8:	df000115 	stw	fp,4(sp)
   2d8bc:	df000104 	addi	fp,sp,4
   2d8c0:	e13fff15 	stw	r4,-4(fp)
}
   2d8c4:	0001883a 	nop
   2d8c8:	e037883a 	mov	sp,fp
   2d8cc:	df000017 	ldw	fp,0(sp)
   2d8d0:	dec00104 	addi	sp,sp,4
   2d8d4:	f800283a 	ret

0002d8d8 <alt_get_errno>:
{
   2d8d8:	defffe04 	addi	sp,sp,-8
   2d8dc:	dfc00115 	stw	ra,4(sp)
   2d8e0:	df000015 	stw	fp,0(sp)
   2d8e4:	d839883a 	mov	fp,sp
  return ((alt_errno) ? alt_errno() : &errno);
   2d8e8:	d0a00e17 	ldw	r2,-32712(gp)
   2d8ec:	10000326 	beq	r2,zero,2d8fc <alt_get_errno+0x24>
   2d8f0:	d0a00e17 	ldw	r2,-32712(gp)
   2d8f4:	103ee83a 	callr	r2
   2d8f8:	00000106 	br	2d900 <alt_get_errno+0x28>
   2d8fc:	d0a72504 	addi	r2,gp,-25452
}
   2d900:	e037883a 	mov	sp,fp
   2d904:	dfc00117 	ldw	ra,4(sp)
   2d908:	df000017 	ldw	fp,0(sp)
   2d90c:	dec00204 	addi	sp,sp,8
   2d910:	f800283a 	ret

0002d914 <alt_file_locked>:
 * performed for devices. Filesystems are required to handle the ioctl() call
 * themselves, and report the error from the filesystems open() function. 
 */ 

static int alt_file_locked (alt_fd* fd)
{
   2d914:	defffd04 	addi	sp,sp,-12
   2d918:	df000215 	stw	fp,8(sp)
   2d91c:	df000204 	addi	fp,sp,8
   2d920:	e13ffe15 	stw	r4,-8(fp)

  /*
   * Mark the file descriptor as belonging to a device.
   */

  fd->fd_flags |= ALT_FD_DEV;
   2d924:	e0bffe17 	ldw	r2,-8(fp)
   2d928:	10800217 	ldw	r2,8(r2)
   2d92c:	10d00034 	orhi	r3,r2,16384
   2d930:	e0bffe17 	ldw	r2,-8(fp)
   2d934:	10c00215 	stw	r3,8(r2)
  /*
   * Loop through all current file descriptors searching for one that's locked
   * for exclusive access. If a match is found, generate an error.
   */

  for (i = 0; i <= alt_max_fd; i++)
   2d938:	e03fff15 	stw	zero,-4(fp)
   2d93c:	00002306 	br	2d9cc <alt_file_locked+0xb8>
  {
    if ((alt_fd_list[i].dev == fd->dev) &&
   2d940:	e0ffff17 	ldw	r3,-4(fp)
   2d944:	1805883a 	mov	r2,r3
   2d948:	1085883a 	add	r2,r2,r2
   2d94c:	10c5883a 	add	r2,r2,r3
   2d950:	100490ba 	slli	r2,r2,2
   2d954:	00c000f4 	movhi	r3,3
   2d958:	10c7883a 	add	r3,r2,r3
   2d95c:	18c41e17 	ldw	r3,4216(r3)
   2d960:	e0bffe17 	ldw	r2,-8(fp)
   2d964:	10800017 	ldw	r2,0(r2)
   2d968:	1880151e 	bne	r3,r2,2d9c0 <alt_file_locked+0xac>
        (alt_fd_list[i].fd_flags & ALT_FD_EXCL) &&
   2d96c:	e0ffff17 	ldw	r3,-4(fp)
   2d970:	1805883a 	mov	r2,r3
   2d974:	1085883a 	add	r2,r2,r2
   2d978:	10c5883a 	add	r2,r2,r3
   2d97c:	100490ba 	slli	r2,r2,2
   2d980:	00c000f4 	movhi	r3,3
   2d984:	10c7883a 	add	r3,r2,r3
   2d988:	18842017 	ldw	r2,4224(r3)
    if ((alt_fd_list[i].dev == fd->dev) &&
   2d98c:	10000c0e 	bge	r2,zero,2d9c0 <alt_file_locked+0xac>
        (&alt_fd_list[i] != fd))
   2d990:	e0ffff17 	ldw	r3,-4(fp)
   2d994:	1805883a 	mov	r2,r3
   2d998:	1085883a 	add	r2,r2,r2
   2d99c:	10c5883a 	add	r2,r2,r3
   2d9a0:	100490ba 	slli	r2,r2,2
   2d9a4:	00c000f4 	movhi	r3,3
   2d9a8:	18c41e04 	addi	r3,r3,4216
   2d9ac:	10c5883a 	add	r2,r2,r3
        (alt_fd_list[i].fd_flags & ALT_FD_EXCL) &&
   2d9b0:	e0fffe17 	ldw	r3,-8(fp)
   2d9b4:	18800226 	beq	r3,r2,2d9c0 <alt_file_locked+0xac>
    {
      return -EACCES;
   2d9b8:	00bffcc4 	movi	r2,-13
   2d9bc:	00000806 	br	2d9e0 <alt_file_locked+0xcc>
  for (i = 0; i <= alt_max_fd; i++)
   2d9c0:	e0bfff17 	ldw	r2,-4(fp)
   2d9c4:	10800044 	addi	r2,r2,1
   2d9c8:	e0bfff15 	stw	r2,-4(fp)
   2d9cc:	d0a00d17 	ldw	r2,-32716(gp)
   2d9d0:	1007883a 	mov	r3,r2
   2d9d4:	e0bfff17 	ldw	r2,-4(fp)
   2d9d8:	18bfd92e 	bgeu	r3,r2,2d940 <alt_file_locked+0x2c>
    }
  }
  
  /* The device is not locked */
 
  return 0;
   2d9dc:	0005883a 	mov	r2,zero
}
   2d9e0:	e037883a 	mov	sp,fp
   2d9e4:	df000017 	ldw	fp,0(sp)
   2d9e8:	dec00104 	addi	sp,sp,4
   2d9ec:	f800283a 	ret

0002d9f0 <open>:
 *
 * ALT_OPEN is mapped onto the open() system call in alt_syscall.h
 */
 
int ALT_OPEN (const char* file, int flags, int mode)
{ 
   2d9f0:	defff604 	addi	sp,sp,-40
   2d9f4:	dfc00915 	stw	ra,36(sp)
   2d9f8:	df000815 	stw	fp,32(sp)
   2d9fc:	df000804 	addi	fp,sp,32
   2da00:	e13ffa15 	stw	r4,-24(fp)
   2da04:	e17ff915 	stw	r5,-28(fp)
   2da08:	e1bff815 	stw	r6,-32(fp)
  alt_dev* dev;
  alt_fd*  fd;
  int index  = -1;
   2da0c:	00bfffc4 	movi	r2,-1
   2da10:	e0bffe15 	stw	r2,-8(fp)
  int status = -ENODEV;
   2da14:	00bffb44 	movi	r2,-19
   2da18:	e0bffd15 	stw	r2,-12(fp)
  int isafs = 0;
   2da1c:	e03ffc15 	stw	zero,-16(fp)
  /* 
   * Check the device list, to see if a device with a matching name is 
   * registered.
   */
  
  if (!(dev = alt_find_dev (file, &alt_dev_list)))
   2da20:	d1600b04 	addi	r5,gp,-32724
   2da24:	e13ffa17 	ldw	r4,-24(fp)
   2da28:	002f46c0 	call	2f46c <alt_find_dev>
   2da2c:	e0bfff15 	stw	r2,-4(fp)
   2da30:	e0bfff17 	ldw	r2,-4(fp)
   2da34:	1000051e 	bne	r2,zero,2da4c <open+0x5c>
  {
    /* No matching device, so try the filesystem list */

    dev   = alt_find_file (file);
   2da38:	e13ffa17 	ldw	r4,-24(fp)
   2da3c:	002f4fc0 	call	2f4fc <alt_find_file>
   2da40:	e0bfff15 	stw	r2,-4(fp)
    isafs = 1;
   2da44:	00800044 	movi	r2,1
   2da48:	e0bffc15 	stw	r2,-16(fp)

  /* 
   * If a matching device or filesystem is found, allocate a file descriptor. 
   */

  if (dev)
   2da4c:	e0bfff17 	ldw	r2,-4(fp)
   2da50:	10002c26 	beq	r2,zero,2db04 <open+0x114>
  {
    if ((index = alt_get_fd (dev)) < 0)
   2da54:	e13fff17 	ldw	r4,-4(fp)
   2da58:	002f6040 	call	2f604 <alt_get_fd>
   2da5c:	e0bffe15 	stw	r2,-8(fp)
   2da60:	e0bffe17 	ldw	r2,-8(fp)
   2da64:	1000030e 	bge	r2,zero,2da74 <open+0x84>
    {
      status = index;
   2da68:	e0bffe17 	ldw	r2,-8(fp)
   2da6c:	e0bffd15 	stw	r2,-12(fp)
   2da70:	00002606 	br	2db0c <open+0x11c>
    }
    else
    {
      fd = &alt_fd_list[index];
   2da74:	e0fffe17 	ldw	r3,-8(fp)
   2da78:	1805883a 	mov	r2,r3
   2da7c:	1085883a 	add	r2,r2,r2
   2da80:	10c5883a 	add	r2,r2,r3
   2da84:	100490ba 	slli	r2,r2,2
   2da88:	00c000f4 	movhi	r3,3
   2da8c:	18c41e04 	addi	r3,r3,4216
   2da90:	10c5883a 	add	r2,r2,r3
   2da94:	e0bffb15 	stw	r2,-20(fp)
      fd->fd_flags = (flags & ~ALT_FD_FLAGS_MASK);
   2da98:	e0fff917 	ldw	r3,-28(fp)
   2da9c:	00900034 	movhi	r2,16384
   2daa0:	10bfffc4 	addi	r2,r2,-1
   2daa4:	1886703a 	and	r3,r3,r2
   2daa8:	e0bffb17 	ldw	r2,-20(fp)
   2daac:	10c00215 	stw	r3,8(r2)
      
      /* If this is a device, ensure it isn't already locked */

      if (isafs || ((status = alt_file_locked (fd)) >= 0))
   2dab0:	e0bffc17 	ldw	r2,-16(fp)
   2dab4:	1000051e 	bne	r2,zero,2dacc <open+0xdc>
   2dab8:	e13ffb17 	ldw	r4,-20(fp)
   2dabc:	002d9140 	call	2d914 <alt_file_locked>
   2dac0:	e0bffd15 	stw	r2,-12(fp)
   2dac4:	e0bffd17 	ldw	r2,-12(fp)
   2dac8:	10001016 	blt	r2,zero,2db0c <open+0x11c>
        /* 
         * If the device or filesystem provides an open() callback function,
         * call it now to perform any device/filesystem specific operations.
         */
    
        status = (dev->open) ? dev->open(fd, file, flags, mode): 0;
   2dacc:	e0bfff17 	ldw	r2,-4(fp)
   2dad0:	10800317 	ldw	r2,12(r2)
   2dad4:	10000826 	beq	r2,zero,2daf8 <open+0x108>
   2dad8:	e0bfff17 	ldw	r2,-4(fp)
   2dadc:	10800317 	ldw	r2,12(r2)
   2dae0:	e1fff817 	ldw	r7,-32(fp)
   2dae4:	e1bff917 	ldw	r6,-28(fp)
   2dae8:	e17ffa17 	ldw	r5,-24(fp)
   2daec:	e13ffb17 	ldw	r4,-20(fp)
   2daf0:	103ee83a 	callr	r2
   2daf4:	00000106 	br	2dafc <open+0x10c>
   2daf8:	0005883a 	mov	r2,zero
   2dafc:	e0bffd15 	stw	r2,-12(fp)
   2db00:	00000206 	br	2db0c <open+0x11c>
      }
    }
  }
  else
  {
    status = -ENODEV;
   2db04:	00bffb44 	movi	r2,-19
   2db08:	e0bffd15 	stw	r2,-12(fp)
  }

  /* Allocation failed, so clean up and return an error */ 

  if (status < 0)
   2db0c:	e0bffd17 	ldw	r2,-12(fp)
   2db10:	1000090e 	bge	r2,zero,2db38 <open+0x148>
  {
    alt_release_fd (index);  
   2db14:	e13ffe17 	ldw	r4,-8(fp)
   2db18:	002def00 	call	2def0 <alt_release_fd>
    ALT_ERRNO = -status;
   2db1c:	002d8d80 	call	2d8d8 <alt_get_errno>
   2db20:	1007883a 	mov	r3,r2
   2db24:	e0bffd17 	ldw	r2,-12(fp)
   2db28:	0085c83a 	sub	r2,zero,r2
   2db2c:	18800015 	stw	r2,0(r3)
    return -1;
   2db30:	00bfffc4 	movi	r2,-1
   2db34:	00000106 	br	2db3c <open+0x14c>
  }
  
  /* return the reference upon success */

  return index;
   2db38:	e0bffe17 	ldw	r2,-8(fp)
}
   2db3c:	e037883a 	mov	sp,fp
   2db40:	dfc00117 	ldw	ra,4(sp)
   2db44:	df000017 	ldw	fp,0(sp)
   2db48:	dec00204 	addi	sp,sp,8
   2db4c:	f800283a 	ret

0002db50 <alt_printf>:
/* 
 * ALT printf function 
 */
void 
alt_printf(const char* fmt, ... )
{
   2db50:	defff204 	addi	sp,sp,-56
   2db54:	dfc00a15 	stw	ra,40(sp)
   2db58:	df000915 	stw	fp,36(sp)
   2db5c:	df000904 	addi	fp,sp,36
   2db60:	e13ff715 	stw	r4,-36(fp)
   2db64:	e1400215 	stw	r5,8(fp)
   2db68:	e1800315 	stw	r6,12(fp)
   2db6c:	e1c00415 	stw	r7,16(fp)
	va_list args;
	va_start(args, fmt);
   2db70:	e0800204 	addi	r2,fp,8
   2db74:	e0bff815 	stw	r2,-32(fp)
    const char *w;
    char c;

    /* Process format string. */
    w = fmt;
   2db78:	e0bff717 	ldw	r2,-36(fp)
   2db7c:	e0bfff15 	stw	r2,-4(fp)
    while ((c = *w++) != 0)
   2db80:	00006f06 	br	2dd40 <alt_printf+0x1f0>
    {
        /* If not a format escape character, just print  */
        /* character.  Otherwise, process format string. */
        if (c != '%')
   2db84:	e0bffec7 	ldb	r2,-5(fp)
   2db88:	10800960 	cmpeqi	r2,r2,37
   2db8c:	1000041e 	bne	r2,zero,2dba0 <alt_printf+0x50>
        {
            alt_putchar(c);
   2db90:	e0bffec7 	ldb	r2,-5(fp)
   2db94:	1009883a 	mov	r4,r2
   2db98:	002dd7c0 	call	2dd7c <alt_putchar>
   2db9c:	00006806 	br	2dd40 <alt_printf+0x1f0>
        }
        else
        {
            /* Get format character.  If none     */
            /* available, processing is complete. */
            if ((c = *w++) != 0)
   2dba0:	e0bfff17 	ldw	r2,-4(fp)
   2dba4:	10c00044 	addi	r3,r2,1
   2dba8:	e0ffff15 	stw	r3,-4(fp)
   2dbac:	10800003 	ldbu	r2,0(r2)
   2dbb0:	e0bffec5 	stb	r2,-5(fp)
   2dbb4:	e0bffec7 	ldb	r2,-5(fp)
   2dbb8:	10006926 	beq	r2,zero,2dd60 <alt_printf+0x210>
            {
                if (c == '%')
   2dbbc:	e0bffec7 	ldb	r2,-5(fp)
   2dbc0:	10800958 	cmpnei	r2,r2,37
   2dbc4:	1000041e 	bne	r2,zero,2dbd8 <alt_printf+0x88>
                {
                    /* Process "%" escape sequence. */
                    alt_putchar(c);
   2dbc8:	e0bffec7 	ldb	r2,-5(fp)
   2dbcc:	1009883a 	mov	r4,r2
   2dbd0:	002dd7c0 	call	2dd7c <alt_putchar>
   2dbd4:	00005a06 	br	2dd40 <alt_printf+0x1f0>
                } 
                else if (c == 'c')
   2dbd8:	e0bffec7 	ldb	r2,-5(fp)
   2dbdc:	108018d8 	cmpnei	r2,r2,99
   2dbe0:	1000081e 	bne	r2,zero,2dc04 <alt_printf+0xb4>
                {
                    int v = va_arg(args, int);
   2dbe4:	e0bff817 	ldw	r2,-32(fp)
   2dbe8:	10c00104 	addi	r3,r2,4
   2dbec:	e0fff815 	stw	r3,-32(fp)
   2dbf0:	10800017 	ldw	r2,0(r2)
   2dbf4:	e0bff915 	stw	r2,-28(fp)
                    alt_putchar(v);
   2dbf8:	e13ff917 	ldw	r4,-28(fp)
   2dbfc:	002dd7c0 	call	2dd7c <alt_putchar>
   2dc00:	00004f06 	br	2dd40 <alt_printf+0x1f0>
                }
                else if (c == 'x')
   2dc04:	e0bffec7 	ldb	r2,-5(fp)
   2dc08:	10801e18 	cmpnei	r2,r2,120
   2dc0c:	1000341e 	bne	r2,zero,2dce0 <alt_printf+0x190>
                {
                    /* Process hexadecimal number format. */
                    unsigned long v = va_arg(args, unsigned long);
   2dc10:	e0bff817 	ldw	r2,-32(fp)
   2dc14:	10c00104 	addi	r3,r2,4
   2dc18:	e0fff815 	stw	r3,-32(fp)
   2dc1c:	10800017 	ldw	r2,0(r2)
   2dc20:	e0bffb15 	stw	r2,-20(fp)
                    unsigned long digit;
                    int digit_shift;

                    /* If the number value is zero, just print and continue. */
                    if (v == 0)
   2dc24:	e0bffb17 	ldw	r2,-20(fp)
   2dc28:	1000031e 	bne	r2,zero,2dc38 <alt_printf+0xe8>
                    {
                        alt_putchar('0');
   2dc2c:	01000c04 	movi	r4,48
   2dc30:	002dd7c0 	call	2dd7c <alt_putchar>
                        continue;
   2dc34:	00004206 	br	2dd40 <alt_printf+0x1f0>
                    }

                    /* Find first non-zero digit. */
                    digit_shift = 28;
   2dc38:	00800704 	movi	r2,28
   2dc3c:	e0bffd15 	stw	r2,-12(fp)
                    while (!(v & (0xF << digit_shift)))
   2dc40:	00000306 	br	2dc50 <alt_printf+0x100>
                        digit_shift -= 4;
   2dc44:	e0bffd17 	ldw	r2,-12(fp)
   2dc48:	10bfff04 	addi	r2,r2,-4
   2dc4c:	e0bffd15 	stw	r2,-12(fp)
                    while (!(v & (0xF << digit_shift)))
   2dc50:	00c003c4 	movi	r3,15
   2dc54:	e0bffd17 	ldw	r2,-12(fp)
   2dc58:	1884983a 	sll	r2,r3,r2
   2dc5c:	1007883a 	mov	r3,r2
   2dc60:	e0bffb17 	ldw	r2,-20(fp)
   2dc64:	1884703a 	and	r2,r3,r2
   2dc68:	103ff626 	beq	r2,zero,2dc44 <alt_printf+0xf4>

                    /* Print digits. */
                    for (; digit_shift >= 0; digit_shift -= 4)
   2dc6c:	00001906 	br	2dcd4 <alt_printf+0x184>
                    {
                        digit = (v & (0xF << digit_shift)) >> digit_shift;
   2dc70:	00c003c4 	movi	r3,15
   2dc74:	e0bffd17 	ldw	r2,-12(fp)
   2dc78:	1884983a 	sll	r2,r3,r2
   2dc7c:	1007883a 	mov	r3,r2
   2dc80:	e0bffb17 	ldw	r2,-20(fp)
   2dc84:	1886703a 	and	r3,r3,r2
   2dc88:	e0bffd17 	ldw	r2,-12(fp)
   2dc8c:	1884d83a 	srl	r2,r3,r2
   2dc90:	e0bffa15 	stw	r2,-24(fp)
                        if (digit <= 9)
   2dc94:	e0bffa17 	ldw	r2,-24(fp)
   2dc98:	108002a8 	cmpgeui	r2,r2,10
   2dc9c:	1000041e 	bne	r2,zero,2dcb0 <alt_printf+0x160>
                            c = '0' + digit;
   2dca0:	e0bffa17 	ldw	r2,-24(fp)
   2dca4:	10800c04 	addi	r2,r2,48
   2dca8:	e0bffec5 	stb	r2,-5(fp)
   2dcac:	00000306 	br	2dcbc <alt_printf+0x16c>
                        else
                            c = 'a' + digit - 10;
   2dcb0:	e0bffa17 	ldw	r2,-24(fp)
   2dcb4:	108015c4 	addi	r2,r2,87
   2dcb8:	e0bffec5 	stb	r2,-5(fp)
                        alt_putchar(c);
   2dcbc:	e0bffec7 	ldb	r2,-5(fp)
   2dcc0:	1009883a 	mov	r4,r2
   2dcc4:	002dd7c0 	call	2dd7c <alt_putchar>
                    for (; digit_shift >= 0; digit_shift -= 4)
   2dcc8:	e0bffd17 	ldw	r2,-12(fp)
   2dccc:	10bfff04 	addi	r2,r2,-4
   2dcd0:	e0bffd15 	stw	r2,-12(fp)
   2dcd4:	e0bffd17 	ldw	r2,-12(fp)
   2dcd8:	103fe50e 	bge	r2,zero,2dc70 <alt_printf+0x120>
   2dcdc:	00001806 	br	2dd40 <alt_printf+0x1f0>
                    }
                }
                else if (c == 's')
   2dce0:	e0bffec7 	ldb	r2,-5(fp)
   2dce4:	10801cd8 	cmpnei	r2,r2,115
   2dce8:	1000151e 	bne	r2,zero,2dd40 <alt_printf+0x1f0>
                {
                    /* Process string format. */
                    char *s = va_arg(args, char *);
   2dcec:	e0bff817 	ldw	r2,-32(fp)
   2dcf0:	10c00104 	addi	r3,r2,4
   2dcf4:	e0fff815 	stw	r3,-32(fp)
   2dcf8:	10800017 	ldw	r2,0(r2)
   2dcfc:	e0bffc15 	stw	r2,-16(fp)

                    while(*s)
   2dd00:	00000906 	br	2dd28 <alt_printf+0x1d8>
                      alt_putchar(*s++);
   2dd04:	e0bffc17 	ldw	r2,-16(fp)
   2dd08:	10c00044 	addi	r3,r2,1
   2dd0c:	e0fffc15 	stw	r3,-16(fp)
   2dd10:	10800003 	ldbu	r2,0(r2)
   2dd14:	10803fcc 	andi	r2,r2,255
   2dd18:	1080201c 	xori	r2,r2,128
   2dd1c:	10bfe004 	addi	r2,r2,-128
   2dd20:	1009883a 	mov	r4,r2
   2dd24:	002dd7c0 	call	2dd7c <alt_putchar>
                    while(*s)
   2dd28:	e0bffc17 	ldw	r2,-16(fp)
   2dd2c:	10800003 	ldbu	r2,0(r2)
   2dd30:	10803fcc 	andi	r2,r2,255
   2dd34:	1080201c 	xori	r2,r2,128
   2dd38:	10bfe004 	addi	r2,r2,-128
   2dd3c:	103ff11e 	bne	r2,zero,2dd04 <alt_printf+0x1b4>
    while ((c = *w++) != 0)
   2dd40:	e0bfff17 	ldw	r2,-4(fp)
   2dd44:	10c00044 	addi	r3,r2,1
   2dd48:	e0ffff15 	stw	r3,-4(fp)
   2dd4c:	10800003 	ldbu	r2,0(r2)
   2dd50:	e0bffec5 	stb	r2,-5(fp)
   2dd54:	e0bffec7 	ldb	r2,-5(fp)
   2dd58:	103f8a1e 	bne	r2,zero,2db84 <alt_printf+0x34>
        }
    }
#ifdef ALT_SEMIHOSTING
    alt_putbufflush();
#endif
}
   2dd5c:	00000106 	br	2dd64 <alt_printf+0x214>
                break;
   2dd60:	0001883a 	nop
}
   2dd64:	0001883a 	nop
   2dd68:	e037883a 	mov	sp,fp
   2dd6c:	dfc00117 	ldw	ra,4(sp)
   2dd70:	df000017 	ldw	fp,0(sp)
   2dd74:	dec00504 	addi	sp,sp,20
   2dd78:	f800283a 	ret

0002dd7c <alt_putchar>:
 * Uses the ALT_DRIVER_WRITE() macro to call directly to driver if available.
 * Otherwise, uses newlib provided putchar() routine.
 */
int 
alt_putchar(int c)
{
   2dd7c:	defffd04 	addi	sp,sp,-12
   2dd80:	dfc00215 	stw	ra,8(sp)
   2dd84:	df000115 	stw	fp,4(sp)
   2dd88:	df000104 	addi	fp,sp,4
   2dd8c:	e13fff15 	stw	r4,-4(fp)
    if (ALT_DRIVER_WRITE(ALT_STDOUT_DEV, &c1, 1, 0) == -1) {
        return -1;
    }
    return c;
#else
    return putchar(c);
   2dd90:	e13fff17 	ldw	r4,-4(fp)
   2dd94:	002fb5c0 	call	2fb5c <putchar>
#endif
#endif
}
   2dd98:	e037883a 	mov	sp,fp
   2dd9c:	dfc00117 	ldw	ra,4(sp)
   2dda0:	df000017 	ldw	fp,0(sp)
   2dda4:	dec00204 	addi	sp,sp,8
   2dda8:	f800283a 	ret

0002ddac <alt_get_errno>:
{
   2ddac:	defffe04 	addi	sp,sp,-8
   2ddb0:	dfc00115 	stw	ra,4(sp)
   2ddb4:	df000015 	stw	fp,0(sp)
   2ddb8:	d839883a 	mov	fp,sp
  return ((alt_errno) ? alt_errno() : &errno);
   2ddbc:	d0a00e17 	ldw	r2,-32712(gp)
   2ddc0:	10000326 	beq	r2,zero,2ddd0 <alt_get_errno+0x24>
   2ddc4:	d0a00e17 	ldw	r2,-32712(gp)
   2ddc8:	103ee83a 	callr	r2
   2ddcc:	00000106 	br	2ddd4 <alt_get_errno+0x28>
   2ddd0:	d0a72504 	addi	r2,gp,-25452
}
   2ddd4:	e037883a 	mov	sp,fp
   2ddd8:	dfc00117 	ldw	ra,4(sp)
   2dddc:	df000017 	ldw	fp,0(sp)
   2dde0:	dec00204 	addi	sp,sp,8
   2dde4:	f800283a 	ret

0002dde8 <read>:
}

#else /* !ALT_USE_DIRECT_DRIVERS */

int ALT_READ (int file, void *ptr, size_t len)
{
   2dde8:	defff904 	addi	sp,sp,-28
   2ddec:	dfc00615 	stw	ra,24(sp)
   2ddf0:	df000515 	stw	fp,20(sp)
   2ddf4:	df000504 	addi	fp,sp,20
   2ddf8:	e13ffd15 	stw	r4,-12(fp)
   2ddfc:	e17ffc15 	stw	r5,-16(fp)
   2de00:	e1bffb15 	stw	r6,-20(fp)
   * A common error case is that when the file descriptor was created, the call
   * to open() failed resulting in a negative file descriptor. This is trapped
   * below so that we don't try and process an invalid file descriptor.
   */

  fd = (file < 0) ? NULL : &alt_fd_list[file];
   2de04:	e0bffd17 	ldw	r2,-12(fp)
   2de08:	10000916 	blt	r2,zero,2de30 <read+0x48>
   2de0c:	e0fffd17 	ldw	r3,-12(fp)
   2de10:	1805883a 	mov	r2,r3
   2de14:	1085883a 	add	r2,r2,r2
   2de18:	10c5883a 	add	r2,r2,r3
   2de1c:	100490ba 	slli	r2,r2,2
   2de20:	00c000f4 	movhi	r3,3
   2de24:	18c41e04 	addi	r3,r3,4216
   2de28:	10c5883a 	add	r2,r2,r3
   2de2c:	00000106 	br	2de34 <read+0x4c>
   2de30:	0005883a 	mov	r2,zero
   2de34:	e0bfff15 	stw	r2,-4(fp)
  
  if (fd)
   2de38:	e0bfff17 	ldw	r2,-4(fp)
   2de3c:	10002226 	beq	r2,zero,2dec8 <read+0xe0>
     * If the file has not been opened with read access, or if the driver does
     * not provide an implementation of read(), generate an error. Otherwise
     * call the drivers read() function to process the request.
     */

    if (((fd->fd_flags & O_ACCMODE) != O_WRONLY) && 
   2de40:	e0bfff17 	ldw	r2,-4(fp)
   2de44:	10800217 	ldw	r2,8(r2)
   2de48:	108000cc 	andi	r2,r2,3
   2de4c:	10800060 	cmpeqi	r2,r2,1
   2de50:	1000181e 	bne	r2,zero,2deb4 <read+0xcc>
        (fd->dev->read))
   2de54:	e0bfff17 	ldw	r2,-4(fp)
   2de58:	10800017 	ldw	r2,0(r2)
   2de5c:	10800517 	ldw	r2,20(r2)
    if (((fd->fd_flags & O_ACCMODE) != O_WRONLY) && 
   2de60:	10001426 	beq	r2,zero,2deb4 <read+0xcc>
      {
        if ((rval = fd->dev->read(fd, ptr, len)) < 0)
   2de64:	e0bfff17 	ldw	r2,-4(fp)
   2de68:	10800017 	ldw	r2,0(r2)
   2de6c:	10800517 	ldw	r2,20(r2)
   2de70:	e0fffb17 	ldw	r3,-20(fp)
   2de74:	180d883a 	mov	r6,r3
   2de78:	e17ffc17 	ldw	r5,-16(fp)
   2de7c:	e13fff17 	ldw	r4,-4(fp)
   2de80:	103ee83a 	callr	r2
   2de84:	e0bffe15 	stw	r2,-8(fp)
   2de88:	e0bffe17 	ldw	r2,-8(fp)
   2de8c:	1000070e 	bge	r2,zero,2deac <read+0xc4>
        {
          ALT_ERRNO = -rval;
   2de90:	002ddac0 	call	2ddac <alt_get_errno>
   2de94:	1007883a 	mov	r3,r2
   2de98:	e0bffe17 	ldw	r2,-8(fp)
   2de9c:	0085c83a 	sub	r2,zero,r2
   2dea0:	18800015 	stw	r2,0(r3)
          return -1;
   2dea4:	00bfffc4 	movi	r2,-1
   2dea8:	00000c06 	br	2dedc <read+0xf4>
        }
        return rval;
   2deac:	e0bffe17 	ldw	r2,-8(fp)
   2deb0:	00000a06 	br	2dedc <read+0xf4>
      }
      else
      {
        ALT_ERRNO = EACCES;
   2deb4:	002ddac0 	call	2ddac <alt_get_errno>
   2deb8:	1007883a 	mov	r3,r2
   2debc:	00800344 	movi	r2,13
   2dec0:	18800015 	stw	r2,0(r3)
   2dec4:	00000406 	br	2ded8 <read+0xf0>
      }
    }
  else
  {
    ALT_ERRNO = EBADFD;
   2dec8:	002ddac0 	call	2ddac <alt_get_errno>
   2decc:	1007883a 	mov	r3,r2
   2ded0:	00801444 	movi	r2,81
   2ded4:	18800015 	stw	r2,0(r3)
  }
  return -1;
   2ded8:	00bfffc4 	movi	r2,-1
}
   2dedc:	e037883a 	mov	sp,fp
   2dee0:	dfc00117 	ldw	ra,4(sp)
   2dee4:	df000017 	ldw	fp,0(sp)
   2dee8:	dec00204 	addi	sp,sp,8
   2deec:	f800283a 	ret

0002def0 <alt_release_fd>:
 * File descriptors correcponding to standard in, standard out and standard 
 * error cannont be released backed to the pool. They are always reserved.
 */

void alt_release_fd (int fd)
{
   2def0:	defffe04 	addi	sp,sp,-8
   2def4:	df000115 	stw	fp,4(sp)
   2def8:	df000104 	addi	fp,sp,4
   2defc:	e13fff15 	stw	r4,-4(fp)
  if (fd > 2)
   2df00:	e0bfff17 	ldw	r2,-4(fp)
   2df04:	108000d0 	cmplti	r2,r2,3
   2df08:	1000101e 	bne	r2,zero,2df4c <alt_release_fd+0x5c>
  {
    alt_fd_list[fd].fd_flags = 0;
   2df0c:	e0ffff17 	ldw	r3,-4(fp)
   2df10:	1805883a 	mov	r2,r3
   2df14:	1085883a 	add	r2,r2,r2
   2df18:	10c5883a 	add	r2,r2,r3
   2df1c:	100490ba 	slli	r2,r2,2
   2df20:	00c000f4 	movhi	r3,3
   2df24:	10c7883a 	add	r3,r2,r3
   2df28:	18042015 	stw	zero,4224(r3)
    alt_fd_list[fd].dev      = 0;
   2df2c:	e0ffff17 	ldw	r3,-4(fp)
   2df30:	1805883a 	mov	r2,r3
   2df34:	1085883a 	add	r2,r2,r2
   2df38:	10c5883a 	add	r2,r2,r3
   2df3c:	100490ba 	slli	r2,r2,2
   2df40:	00c000f4 	movhi	r3,3
   2df44:	10c7883a 	add	r3,r2,r3
   2df48:	18041e15 	stw	zero,4216(r3)
  }
}
   2df4c:	0001883a 	nop
   2df50:	e037883a 	mov	sp,fp
   2df54:	df000017 	ldw	fp,0(sp)
   2df58:	dec00104 	addi	sp,sp,4
   2df5c:	f800283a 	ret

0002df60 <sbrk>:
#endif
 
caddr_t ALT_SBRK (int incr) __attribute__ ((no_instrument_function ));

caddr_t ALT_SBRK (int incr)
{ 
   2df60:	defff904 	addi	sp,sp,-28
   2df64:	df000615 	stw	fp,24(sp)
   2df68:	df000604 	addi	fp,sp,24
   2df6c:	e13ffa15 	stw	r4,-24(fp)
  NIOS2_READ_STATUS (context);
   2df70:	0005303a 	rdctl	r2,status
   2df74:	e0bffd15 	stw	r2,-12(fp)
  NIOS2_WRITE_STATUS (context & ~NIOS2_STATUS_PIE_MSK);
   2df78:	e0fffd17 	ldw	r3,-12(fp)
   2df7c:	00bfff84 	movi	r2,-2
   2df80:	1884703a 	and	r2,r3,r2
   2df84:	1001703a 	wrctl	status,r2
  return context;
   2df88:	e0bffd17 	ldw	r2,-12(fp)
  alt_irq_context context;
  char *prev_heap_end; 

  context = alt_irq_disable_all();
   2df8c:	e0bfff15 	stw	r2,-4(fp)

  /* Always return data aligned on a word boundary */
  heap_end = (char *)(((unsigned int)heap_end + 3) & ~3);
   2df90:	d0a01017 	ldw	r2,-32704(gp)
   2df94:	10c000c4 	addi	r3,r2,3
   2df98:	00bfff04 	movi	r2,-4
   2df9c:	1884703a 	and	r2,r3,r2
   2dfa0:	d0a01015 	stw	r2,-32704(gp)
  if (((heap_end + incr) - __alt_heap_start) > ALT_MAX_HEAP_BYTES) {
    alt_irq_enable_all(context);
    return (caddr_t)-1;
  }
#else
  if ((heap_end + incr) > __alt_heap_limit) {
   2dfa4:	d0e01017 	ldw	r3,-32704(gp)
   2dfa8:	e0bffa17 	ldw	r2,-24(fp)
   2dfac:	1887883a 	add	r3,r3,r2
   2dfb0:	00800134 	movhi	r2,4
   2dfb4:	10800004 	addi	r2,r2,0
   2dfb8:	10c0072e 	bgeu	r2,r3,2dfd8 <sbrk+0x78>
   2dfbc:	e0bfff17 	ldw	r2,-4(fp)
   2dfc0:	e0bffc15 	stw	r2,-16(fp)
  NIOS2_WRITE_STATUS (context);
   2dfc4:	e0bffc17 	ldw	r2,-16(fp)
   2dfc8:	1001703a 	wrctl	status,r2
}
   2dfcc:	0001883a 	nop
    alt_irq_enable_all(context);
    return (caddr_t)-1;
   2dfd0:	00bfffc4 	movi	r2,-1
   2dfd4:	00000c06 	br	2e008 <sbrk+0xa8>
  }
#endif

  prev_heap_end = heap_end; 
   2dfd8:	d0a01017 	ldw	r2,-32704(gp)
   2dfdc:	e0bffe15 	stw	r2,-8(fp)
  heap_end += incr; 
   2dfe0:	d0e01017 	ldw	r3,-32704(gp)
   2dfe4:	e0bffa17 	ldw	r2,-24(fp)
   2dfe8:	1885883a 	add	r2,r3,r2
   2dfec:	d0a01015 	stw	r2,-32704(gp)
   2dff0:	e0bfff17 	ldw	r2,-4(fp)
   2dff4:	e0bffb15 	stw	r2,-20(fp)
  NIOS2_WRITE_STATUS (context);
   2dff8:	e0bffb17 	ldw	r2,-20(fp)
   2dffc:	1001703a 	wrctl	status,r2
}
   2e000:	0001883a 	nop

#endif

  alt_irq_enable_all(context);

  return (caddr_t) prev_heap_end; 
   2e004:	e0bffe17 	ldw	r2,-8(fp)
} 
   2e008:	e037883a 	mov	sp,fp
   2e00c:	df000017 	ldw	fp,0(sp)
   2e010:	dec00104 	addi	sp,sp,4
   2e014:	f800283a 	ret

0002e018 <alt_get_errno>:
{
   2e018:	defffe04 	addi	sp,sp,-8
   2e01c:	dfc00115 	stw	ra,4(sp)
   2e020:	df000015 	stw	fp,0(sp)
   2e024:	d839883a 	mov	fp,sp
  return ((alt_errno) ? alt_errno() : &errno);
   2e028:	d0a00e17 	ldw	r2,-32712(gp)
   2e02c:	10000326 	beq	r2,zero,2e03c <alt_get_errno+0x24>
   2e030:	d0a00e17 	ldw	r2,-32712(gp)
   2e034:	103ee83a 	callr	r2
   2e038:	00000106 	br	2e040 <alt_get_errno+0x28>
   2e03c:	d0a72504 	addi	r2,gp,-25452
}
   2e040:	e037883a 	mov	sp,fp
   2e044:	dfc00117 	ldw	ra,4(sp)
   2e048:	df000017 	ldw	fp,0(sp)
   2e04c:	dec00204 	addi	sp,sp,8
   2e050:	f800283a 	ret

0002e054 <write>:
}

#else /* !ALT_USE_DIRECT_DRIVERS */

int ALT_WRITE (int file, const void *ptr, size_t len)
{
   2e054:	defff904 	addi	sp,sp,-28
   2e058:	dfc00615 	stw	ra,24(sp)
   2e05c:	df000515 	stw	fp,20(sp)
   2e060:	df000504 	addi	fp,sp,20
   2e064:	e13ffd15 	stw	r4,-12(fp)
   2e068:	e17ffc15 	stw	r5,-16(fp)
   2e06c:	e1bffb15 	stw	r6,-20(fp)
   * A common error case is that when the file descriptor was created, the call
   * to open() failed resulting in a negative file descriptor. This is trapped
   * below so that we don't try and process an invalid file descriptor.
   */

  fd = (file < 0) ? NULL : &alt_fd_list[file];
   2e070:	e0bffd17 	ldw	r2,-12(fp)
   2e074:	10000916 	blt	r2,zero,2e09c <write+0x48>
   2e078:	e0fffd17 	ldw	r3,-12(fp)
   2e07c:	1805883a 	mov	r2,r3
   2e080:	1085883a 	add	r2,r2,r2
   2e084:	10c5883a 	add	r2,r2,r3
   2e088:	100490ba 	slli	r2,r2,2
   2e08c:	00c000f4 	movhi	r3,3
   2e090:	18c41e04 	addi	r3,r3,4216
   2e094:	10c5883a 	add	r2,r2,r3
   2e098:	00000106 	br	2e0a0 <write+0x4c>
   2e09c:	0005883a 	mov	r2,zero
   2e0a0:	e0bfff15 	stw	r2,-4(fp)
  
  if (fd)
   2e0a4:	e0bfff17 	ldw	r2,-4(fp)
   2e0a8:	10002126 	beq	r2,zero,2e130 <write+0xdc>
     * If the file has not been opened with write access, or if the driver does
     * not provide an implementation of write(), generate an error. Otherwise
     * call the drivers write() function to process the request.
     */

    if (((fd->fd_flags & O_ACCMODE) != O_RDONLY) && fd->dev->write)
   2e0ac:	e0bfff17 	ldw	r2,-4(fp)
   2e0b0:	10800217 	ldw	r2,8(r2)
   2e0b4:	108000cc 	andi	r2,r2,3
   2e0b8:	10001826 	beq	r2,zero,2e11c <write+0xc8>
   2e0bc:	e0bfff17 	ldw	r2,-4(fp)
   2e0c0:	10800017 	ldw	r2,0(r2)
   2e0c4:	10800617 	ldw	r2,24(r2)
   2e0c8:	10001426 	beq	r2,zero,2e11c <write+0xc8>
    {
      
      /* ALT_LOG - see altera_hal/HAL/inc/sys/alt_log_printf.h */
      ALT_LOG_WRITE_FUNCTION(ptr,len);

      if ((rval = fd->dev->write(fd, ptr, len)) < 0)
   2e0cc:	e0bfff17 	ldw	r2,-4(fp)
   2e0d0:	10800017 	ldw	r2,0(r2)
   2e0d4:	10800617 	ldw	r2,24(r2)
   2e0d8:	e0fffb17 	ldw	r3,-20(fp)
   2e0dc:	180d883a 	mov	r6,r3
   2e0e0:	e17ffc17 	ldw	r5,-16(fp)
   2e0e4:	e13fff17 	ldw	r4,-4(fp)
   2e0e8:	103ee83a 	callr	r2
   2e0ec:	e0bffe15 	stw	r2,-8(fp)
   2e0f0:	e0bffe17 	ldw	r2,-8(fp)
   2e0f4:	1000070e 	bge	r2,zero,2e114 <write+0xc0>
      {
        ALT_ERRNO = -rval;
   2e0f8:	002e0180 	call	2e018 <alt_get_errno>
   2e0fc:	1007883a 	mov	r3,r2
   2e100:	e0bffe17 	ldw	r2,-8(fp)
   2e104:	0085c83a 	sub	r2,zero,r2
   2e108:	18800015 	stw	r2,0(r3)
        return -1;
   2e10c:	00bfffc4 	movi	r2,-1
   2e110:	00000c06 	br	2e144 <write+0xf0>
      }
      return rval;
   2e114:	e0bffe17 	ldw	r2,-8(fp)
   2e118:	00000a06 	br	2e144 <write+0xf0>
    }
    else
    {
      ALT_ERRNO = EACCES;
   2e11c:	002e0180 	call	2e018 <alt_get_errno>
   2e120:	1007883a 	mov	r3,r2
   2e124:	00800344 	movi	r2,13
   2e128:	18800015 	stw	r2,0(r3)
   2e12c:	00000406 	br	2e140 <write+0xec>
    }
  }
  else  
  {
    ALT_ERRNO = EBADFD;
   2e130:	002e0180 	call	2e018 <alt_get_errno>
   2e134:	1007883a 	mov	r3,r2
   2e138:	00801444 	movi	r2,81
   2e13c:	18800015 	stw	r2,0(r3)
  }
  return -1;
   2e140:	00bfffc4 	movi	r2,-1
}
   2e144:	e037883a 	mov	sp,fp
   2e148:	dfc00117 	ldw	ra,4(sp)
   2e14c:	df000017 	ldw	fp,0(sp)
   2e150:	dec00204 	addi	sp,sp,8
   2e154:	f800283a 	ret

0002e158 <alt_dev_reg>:
 */

extern int alt_fs_reg  (alt_dev* dev); 

static ALT_INLINE int alt_dev_reg (alt_dev* dev)
{
   2e158:	defffd04 	addi	sp,sp,-12
   2e15c:	dfc00215 	stw	ra,8(sp)
   2e160:	df000115 	stw	fp,4(sp)
   2e164:	df000104 	addi	fp,sp,4
   2e168:	e13fff15 	stw	r4,-4(fp)
  extern alt_llist alt_dev_list;

  return alt_dev_llist_insert ((alt_dev_llist*) dev, &alt_dev_list);
   2e16c:	d1600b04 	addi	r5,gp,-32724
   2e170:	e13fff17 	ldw	r4,-4(fp)
   2e174:	002f2fc0 	call	2f2fc <alt_dev_llist_insert>
}
   2e178:	e037883a 	mov	sp,fp
   2e17c:	dfc00117 	ldw	ra,4(sp)
   2e180:	df000017 	ldw	fp,0(sp)
   2e184:	dec00204 	addi	sp,sp,8
   2e188:	f800283a 	ret

0002e18c <alt_irq_init>:
 * The "base" parameter is ignored and only
 * present for backwards-compatibility.
 */

void alt_irq_init ( const void* base )
{
   2e18c:	defffd04 	addi	sp,sp,-12
   2e190:	dfc00215 	stw	ra,8(sp)
   2e194:	df000115 	stw	fp,4(sp)
   2e198:	df000104 	addi	fp,sp,4
   2e19c:	e13fff15 	stw	r4,-4(fp)
    ALTERA_NIOS2_GEN2_IRQ_INIT ( CPU, cpu);
   2e1a0:	002f9d80 	call	2f9d8 <altera_nios2_gen2_irq_init>
    NIOS2_WRITE_STATUS(NIOS2_STATUS_PIE_MSK
   2e1a4:	00800044 	movi	r2,1
   2e1a8:	1001703a 	wrctl	status,r2
}
   2e1ac:	0001883a 	nop
    alt_irq_cpu_enable_interrupts();
}
   2e1b0:	0001883a 	nop
   2e1b4:	e037883a 	mov	sp,fp
   2e1b8:	dfc00117 	ldw	ra,4(sp)
   2e1bc:	df000017 	ldw	fp,0(sp)
   2e1c0:	dec00204 	addi	sp,sp,8
   2e1c4:	f800283a 	ret

0002e1c8 <alt_sys_init>:
 * Initialize the non-interrupt controller devices.
 * Called after alt_irq_init().
 */

void alt_sys_init( void )
{
   2e1c8:	defffe04 	addi	sp,sp,-8
   2e1cc:	dfc00115 	stw	ra,4(sp)
   2e1d0:	df000015 	stw	fp,0(sp)
   2e1d4:	d839883a 	mov	fp,sp
    ALTERA_AVALON_TIMER_INIT ( TIMER, timer);
   2e1d8:	01c0fa04 	movi	r7,1000
   2e1dc:	000d883a 	mov	r6,zero
   2e1e0:	000b883a 	mov	r5,zero
   2e1e4:	01000134 	movhi	r4,4
   2e1e8:	21040004 	addi	r4,r4,4096
   2e1ec:	002ed240 	call	2ed24 <alt_avalon_timer_sc_init>
    ALTERA_AVALON_JTAG_UART_INIT ( JTAG_UART, jtag_uart);
   2e1f0:	01800084 	movi	r6,2
   2e1f4:	000b883a 	mov	r5,zero
   2e1f8:	010000f4 	movhi	r4,3
   2e1fc:	21048804 	addi	r4,r4,4640
   2e200:	002e39c0 	call	2e39c <altera_avalon_jtag_uart_init>
   2e204:	010000f4 	movhi	r4,3
   2e208:	21047e04 	addi	r4,r4,4600
   2e20c:	002e1580 	call	2e158 <alt_dev_reg>
    ALTERA_AVALON_SYSID_QSYS_INIT ( SYSID_QSYS, sysid_qsys);
   2e210:	0001883a 	nop
    ALTERA_UP_AVALON_ACCELEROMETER_SPI_INIT ( ACCELEROMETER_SPI, accelerometer_spi);
   2e214:	010000f4 	movhi	r4,3
   2e218:	21089604 	addi	r4,r4,8792
   2e21c:	002e1580 	call	2e158 <alt_dev_reg>
}
   2e220:	0001883a 	nop
   2e224:	e037883a 	mov	sp,fp
   2e228:	dfc00117 	ldw	ra,4(sp)
   2e22c:	df000017 	ldw	fp,0(sp)
   2e230:	dec00204 	addi	sp,sp,8
   2e234:	f800283a 	ret

0002e238 <altera_avalon_jtag_uart_read_fd>:
 *
 */

int 
altera_avalon_jtag_uart_read_fd(alt_fd* fd, char* buffer, int space)
{
   2e238:	defffa04 	addi	sp,sp,-24
   2e23c:	dfc00515 	stw	ra,20(sp)
   2e240:	df000415 	stw	fp,16(sp)
   2e244:	df000404 	addi	fp,sp,16
   2e248:	e13ffe15 	stw	r4,-8(fp)
   2e24c:	e17ffd15 	stw	r5,-12(fp)
   2e250:	e1bffc15 	stw	r6,-16(fp)
    altera_avalon_jtag_uart_dev* dev = (altera_avalon_jtag_uart_dev*) fd->dev; 
   2e254:	e0bffe17 	ldw	r2,-8(fp)
   2e258:	10800017 	ldw	r2,0(r2)
   2e25c:	e0bfff15 	stw	r2,-4(fp)

    return altera_avalon_jtag_uart_read(&dev->state, buffer, space,
   2e260:	e0bfff17 	ldw	r2,-4(fp)
   2e264:	10c00a04 	addi	r3,r2,40
   2e268:	e0bffe17 	ldw	r2,-8(fp)
   2e26c:	10800217 	ldw	r2,8(r2)
   2e270:	100f883a 	mov	r7,r2
   2e274:	e1bffc17 	ldw	r6,-16(fp)
   2e278:	e17ffd17 	ldw	r5,-12(fp)
   2e27c:	1809883a 	mov	r4,r3
   2e280:	002e85c0 	call	2e85c <altera_avalon_jtag_uart_read>
      fd->fd_flags);
}
   2e284:	e037883a 	mov	sp,fp
   2e288:	dfc00117 	ldw	ra,4(sp)
   2e28c:	df000017 	ldw	fp,0(sp)
   2e290:	dec00204 	addi	sp,sp,8
   2e294:	f800283a 	ret

0002e298 <altera_avalon_jtag_uart_write_fd>:

int 
altera_avalon_jtag_uart_write_fd(alt_fd* fd, const char* buffer, int space)
{
   2e298:	defffa04 	addi	sp,sp,-24
   2e29c:	dfc00515 	stw	ra,20(sp)
   2e2a0:	df000415 	stw	fp,16(sp)
   2e2a4:	df000404 	addi	fp,sp,16
   2e2a8:	e13ffe15 	stw	r4,-8(fp)
   2e2ac:	e17ffd15 	stw	r5,-12(fp)
   2e2b0:	e1bffc15 	stw	r6,-16(fp)
    altera_avalon_jtag_uart_dev* dev = (altera_avalon_jtag_uart_dev*) fd->dev; 
   2e2b4:	e0bffe17 	ldw	r2,-8(fp)
   2e2b8:	10800017 	ldw	r2,0(r2)
   2e2bc:	e0bfff15 	stw	r2,-4(fp)

    return altera_avalon_jtag_uart_write(&dev->state, buffer, space,
   2e2c0:	e0bfff17 	ldw	r2,-4(fp)
   2e2c4:	10c00a04 	addi	r3,r2,40
   2e2c8:	e0bffe17 	ldw	r2,-8(fp)
   2e2cc:	10800217 	ldw	r2,8(r2)
   2e2d0:	100f883a 	mov	r7,r2
   2e2d4:	e1bffc17 	ldw	r6,-16(fp)
   2e2d8:	e17ffd17 	ldw	r5,-12(fp)
   2e2dc:	1809883a 	mov	r4,r3
   2e2e0:	002ea7c0 	call	2ea7c <altera_avalon_jtag_uart_write>
      fd->fd_flags);
}
   2e2e4:	e037883a 	mov	sp,fp
   2e2e8:	dfc00117 	ldw	ra,4(sp)
   2e2ec:	df000017 	ldw	fp,0(sp)
   2e2f0:	dec00204 	addi	sp,sp,8
   2e2f4:	f800283a 	ret

0002e2f8 <altera_avalon_jtag_uart_close_fd>:

#ifndef ALTERA_AVALON_JTAG_UART_SMALL

int 
altera_avalon_jtag_uart_close_fd(alt_fd* fd)
{
   2e2f8:	defffc04 	addi	sp,sp,-16
   2e2fc:	dfc00315 	stw	ra,12(sp)
   2e300:	df000215 	stw	fp,8(sp)
   2e304:	df000204 	addi	fp,sp,8
   2e308:	e13ffe15 	stw	r4,-8(fp)
    altera_avalon_jtag_uart_dev* dev = (altera_avalon_jtag_uart_dev*) fd->dev; 
   2e30c:	e0bffe17 	ldw	r2,-8(fp)
   2e310:	10800017 	ldw	r2,0(r2)
   2e314:	e0bfff15 	stw	r2,-4(fp)

    return altera_avalon_jtag_uart_close(&dev->state, fd->fd_flags);
   2e318:	e0bfff17 	ldw	r2,-4(fp)
   2e31c:	10c00a04 	addi	r3,r2,40
   2e320:	e0bffe17 	ldw	r2,-8(fp)
   2e324:	10800217 	ldw	r2,8(r2)
   2e328:	100b883a 	mov	r5,r2
   2e32c:	1809883a 	mov	r4,r3
   2e330:	002e7000 	call	2e700 <altera_avalon_jtag_uart_close>
}
   2e334:	e037883a 	mov	sp,fp
   2e338:	dfc00117 	ldw	ra,4(sp)
   2e33c:	df000017 	ldw	fp,0(sp)
   2e340:	dec00204 	addi	sp,sp,8
   2e344:	f800283a 	ret

0002e348 <altera_avalon_jtag_uart_ioctl_fd>:

int 
altera_avalon_jtag_uart_ioctl_fd(alt_fd* fd, int req, void* arg)
{
   2e348:	defffa04 	addi	sp,sp,-24
   2e34c:	dfc00515 	stw	ra,20(sp)
   2e350:	df000415 	stw	fp,16(sp)
   2e354:	df000404 	addi	fp,sp,16
   2e358:	e13ffe15 	stw	r4,-8(fp)
   2e35c:	e17ffd15 	stw	r5,-12(fp)
   2e360:	e1bffc15 	stw	r6,-16(fp)
    altera_avalon_jtag_uart_dev* dev = (altera_avalon_jtag_uart_dev*) fd->dev;
   2e364:	e0bffe17 	ldw	r2,-8(fp)
   2e368:	10800017 	ldw	r2,0(r2)
   2e36c:	e0bfff15 	stw	r2,-4(fp)

    return altera_avalon_jtag_uart_ioctl(&dev->state, req, arg);
   2e370:	e0bfff17 	ldw	r2,-4(fp)
   2e374:	10800a04 	addi	r2,r2,40
   2e378:	e1bffc17 	ldw	r6,-16(fp)
   2e37c:	e17ffd17 	ldw	r5,-12(fp)
   2e380:	1009883a 	mov	r4,r2
   2e384:	002e7680 	call	2e768 <altera_avalon_jtag_uart_ioctl>
}
   2e388:	e037883a 	mov	sp,fp
   2e38c:	dfc00117 	ldw	ra,4(sp)
   2e390:	df000017 	ldw	fp,0(sp)
   2e394:	dec00204 	addi	sp,sp,8
   2e398:	f800283a 	ret

0002e39c <altera_avalon_jtag_uart_init>:
 * Return 1 on sucessful IRQ register and 0 on failure.
 */

void altera_avalon_jtag_uart_init(altera_avalon_jtag_uart_state* sp, 
                                  int irq_controller_id, int irq)
{
   2e39c:	defffb04 	addi	sp,sp,-20
   2e3a0:	dfc00415 	stw	ra,16(sp)
   2e3a4:	df000315 	stw	fp,12(sp)
   2e3a8:	df000304 	addi	fp,sp,12
   2e3ac:	e13fff15 	stw	r4,-4(fp)
   2e3b0:	e17ffe15 	stw	r5,-8(fp)
   2e3b4:	e1bffd15 	stw	r6,-12(fp)
  ALT_FLAG_CREATE(&sp->events, 0);
  ALT_SEM_CREATE(&sp->read_lock, 1);
  ALT_SEM_CREATE(&sp->write_lock, 1);

  /* enable read interrupts at the device */
  sp->irq_enable = ALTERA_AVALON_JTAG_UART_CONTROL_RE_MSK;
   2e3b8:	e0bfff17 	ldw	r2,-4(fp)
   2e3bc:	00c00044 	movi	r3,1
   2e3c0:	10c00815 	stw	r3,32(r2)

  IOWR_ALTERA_AVALON_JTAG_UART_CONTROL(sp->base, sp->irq_enable); 
   2e3c4:	e0bfff17 	ldw	r2,-4(fp)
   2e3c8:	10800017 	ldw	r2,0(r2)
   2e3cc:	10800104 	addi	r2,r2,4
   2e3d0:	1007883a 	mov	r3,r2
   2e3d4:	e0bfff17 	ldw	r2,-4(fp)
   2e3d8:	10800817 	ldw	r2,32(r2)
   2e3dc:	18800035 	stwio	r2,0(r3)
  /* register the interrupt handler */
#ifdef ALT_ENHANCED_INTERRUPT_API_PRESENT
  alt_ic_isr_register(irq_controller_id, irq, altera_avalon_jtag_uart_irq, 
                      sp, NULL);
#else
  alt_irq_register(irq, sp, altera_avalon_jtag_uart_irq);
   2e3e0:	e0bffd17 	ldw	r2,-12(fp)
   2e3e4:	018000f4 	movhi	r6,3
   2e3e8:	31b91404 	addi	r6,r6,-7088
   2e3ec:	e17fff17 	ldw	r5,-4(fp)
   2e3f0:	1009883a 	mov	r4,r2
   2e3f4:	002d2380 	call	2d238 <alt_irq_register>
#endif  

  /* Register an alarm to go off every second to check for presence of host */
  sp->host_inactive = 0;
   2e3f8:	e0bfff17 	ldw	r2,-4(fp)
   2e3fc:	10000915 	stw	zero,36(r2)

  if (alt_alarm_start(&sp->alarm, alt_ticks_per_second(), 
   2e400:	e0bfff17 	ldw	r2,-4(fp)
   2e404:	10800204 	addi	r2,r2,8
 * Obtain the system clock rate in ticks/s. 
 */

static ALT_INLINE alt_u32 ALT_ALWAYS_INLINE alt_ticks_per_second (void)
{
  return _alt_tick_rate;
   2e408:	d0e72e17 	ldw	r3,-25416(gp)
   2e40c:	e1ffff17 	ldw	r7,-4(fp)
   2e410:	018000f4 	movhi	r6,3
   2e414:	31b99804 	addi	r6,r6,-6560
   2e418:	180b883a 	mov	r5,r3
   2e41c:	1009883a 	mov	r4,r2
   2e420:	002f16c0 	call	2f16c <alt_alarm_start>
   2e424:	1000040e 	bge	r2,zero,2e438 <altera_avalon_jtag_uart_init+0x9c>
    &altera_avalon_jtag_uart_timeout, sp) < 0)
  {
    /* If we can't set the alarm then record "don't know if host present" 
     * and behave as though the host is present.
     */
    sp->timeout = INT_MAX;
   2e428:	e0ffff17 	ldw	r3,-4(fp)
   2e42c:	00a00034 	movhi	r2,32768
   2e430:	10bfffc4 	addi	r2,r2,-1
   2e434:	18800115 	stw	r2,4(r3)
  }

  /* ALT_LOG - see altera_hal/HAL/inc/sys/alt_log_printf.h */ 
  ALT_LOG_JTAG_UART_ALARM_REGISTER(sp, sp->base);
}
   2e438:	0001883a 	nop
   2e43c:	e037883a 	mov	sp,fp
   2e440:	dfc00117 	ldw	ra,4(sp)
   2e444:	df000017 	ldw	fp,0(sp)
   2e448:	dec00204 	addi	sp,sp,8
   2e44c:	f800283a 	ret

0002e450 <altera_avalon_jtag_uart_irq>:
#ifdef ALT_ENHANCED_INTERRUPT_API_PRESENT
static void altera_avalon_jtag_uart_irq(void* context)
#else
static void altera_avalon_jtag_uart_irq(void* context, alt_u32 id)
#endif
{
   2e450:	defff704 	addi	sp,sp,-36
   2e454:	df000815 	stw	fp,32(sp)
   2e458:	df000804 	addi	fp,sp,32
   2e45c:	e13ff915 	stw	r4,-28(fp)
   2e460:	e17ff815 	stw	r5,-32(fp)
  altera_avalon_jtag_uart_state* sp = (altera_avalon_jtag_uart_state*) context;
   2e464:	e0bff917 	ldw	r2,-28(fp)
   2e468:	e0bffd15 	stw	r2,-12(fp)
  unsigned int base = sp->base;
   2e46c:	e0bffd17 	ldw	r2,-12(fp)
   2e470:	10800017 	ldw	r2,0(r2)
   2e474:	e0bffc15 	stw	r2,-16(fp)
  /* ALT_LOG - see altera_hal/HAL/inc/sys/alt_log_printf.h */ 
  ALT_LOG_JTAG_UART_ISR_FUNCTION(base, sp);

  for ( ; ; )
  {
    unsigned int control = IORD_ALTERA_AVALON_JTAG_UART_CONTROL(base);
   2e478:	e0bffc17 	ldw	r2,-16(fp)
   2e47c:	10800104 	addi	r2,r2,4
   2e480:	10800037 	ldwio	r2,0(r2)
   2e484:	e0bffb15 	stw	r2,-20(fp)

    /* Return once nothing more to do */
    if ((control & (ALTERA_AVALON_JTAG_UART_CONTROL_RI_MSK | ALTERA_AVALON_JTAG_UART_CONTROL_WI_MSK)) == 0)
   2e488:	e0bffb17 	ldw	r2,-20(fp)
   2e48c:	1080c00c 	andi	r2,r2,768
   2e490:	10006d26 	beq	r2,zero,2e648 <altera_avalon_jtag_uart_irq+0x1f8>
      break;

    if (control & ALTERA_AVALON_JTAG_UART_CONTROL_RI_MSK)
   2e494:	e0bffb17 	ldw	r2,-20(fp)
   2e498:	1080400c 	andi	r2,r2,256
   2e49c:	10003526 	beq	r2,zero,2e574 <altera_avalon_jtag_uart_irq+0x124>
    {
      /* process a read irq.  Start by assuming that there is data in the
       * receive FIFO (otherwise why would we have been interrupted?)
       */
      unsigned int data = 1 << ALTERA_AVALON_JTAG_UART_DATA_RAVAIL_OFST;
   2e4a0:	00800074 	movhi	r2,1
   2e4a4:	e0bfff15 	stw	r2,-4(fp)
      for ( ; ; )
      {
        /* Check whether there is space in the buffer.  If not then we must not
         * read any characters from the buffer as they will be lost.
         */
        unsigned int next = (sp->rx_in + 1) % ALTERA_AVALON_JTAG_UART_BUF_LEN;
   2e4a8:	e0bffd17 	ldw	r2,-12(fp)
   2e4ac:	10800a17 	ldw	r2,40(r2)
   2e4b0:	10800044 	addi	r2,r2,1
   2e4b4:	1081ffcc 	andi	r2,r2,2047
   2e4b8:	e0bffa15 	stw	r2,-24(fp)
        if (next == sp->rx_out)
   2e4bc:	e0bffd17 	ldw	r2,-12(fp)
   2e4c0:	10800b17 	ldw	r2,44(r2)
   2e4c4:	e0fffa17 	ldw	r3,-24(fp)
   2e4c8:	18801526 	beq	r3,r2,2e520 <altera_avalon_jtag_uart_irq+0xd0>
          break;

        /* Try to remove a character from the FIFO and find out whether there
         * are any more characters remaining.
         */
        data = IORD_ALTERA_AVALON_JTAG_UART_DATA(base);
   2e4cc:	e0bffc17 	ldw	r2,-16(fp)
   2e4d0:	10800037 	ldwio	r2,0(r2)
   2e4d4:	e0bfff15 	stw	r2,-4(fp)
        
        if ((data & ALTERA_AVALON_JTAG_UART_DATA_RVALID_MSK) == 0)
   2e4d8:	e0bfff17 	ldw	r2,-4(fp)
   2e4dc:	10a0000c 	andi	r2,r2,32768
   2e4e0:	10001126 	beq	r2,zero,2e528 <altera_avalon_jtag_uart_irq+0xd8>
          break;

        sp->rx_buf[sp->rx_in] = (data & ALTERA_AVALON_JTAG_UART_DATA_DATA_MSK) >> ALTERA_AVALON_JTAG_UART_DATA_DATA_OFST;
   2e4e4:	e0bffd17 	ldw	r2,-12(fp)
   2e4e8:	10800a17 	ldw	r2,40(r2)
   2e4ec:	e0ffff17 	ldw	r3,-4(fp)
   2e4f0:	1809883a 	mov	r4,r3
   2e4f4:	e0fffd17 	ldw	r3,-12(fp)
   2e4f8:	1885883a 	add	r2,r3,r2
   2e4fc:	11000e05 	stb	r4,56(r2)
        sp->rx_in = (sp->rx_in + 1) % ALTERA_AVALON_JTAG_UART_BUF_LEN;
   2e500:	e0bffd17 	ldw	r2,-12(fp)
   2e504:	10800a17 	ldw	r2,40(r2)
   2e508:	10800044 	addi	r2,r2,1
   2e50c:	10c1ffcc 	andi	r3,r2,2047
   2e510:	e0bffd17 	ldw	r2,-12(fp)
   2e514:	10c00a15 	stw	r3,40(r2)
 * HAL.
 */

static ALT_INLINE int ALT_ALWAYS_INLINE alt_no_error (void)
{
  return 0;
   2e518:	0001883a 	nop
      {
   2e51c:	003fe206 	br	2e4a8 <altera_avalon_jtag_uart_irq+0x58>
          break;
   2e520:	0001883a 	nop
   2e524:	00000106 	br	2e52c <altera_avalon_jtag_uart_irq+0xdc>
          break;
   2e528:	0001883a 	nop

        /* Post an event to notify jtag_uart_read that a character has been read */
        ALT_FLAG_POST (sp->events, ALT_JTAG_UART_READ_RDY, OS_FLAG_SET);
      }

      if (data & ALTERA_AVALON_JTAG_UART_DATA_RAVAIL_MSK)
   2e52c:	e0bfff17 	ldw	r2,-4(fp)
   2e530:	10bfffec 	andhi	r2,r2,65535
   2e534:	10000f26 	beq	r2,zero,2e574 <altera_avalon_jtag_uart_irq+0x124>
      {
        /* If there is still data available here then the buffer is full 
         * so turn off receive interrupts until some space becomes available.
         */
        sp->irq_enable &= ~ALTERA_AVALON_JTAG_UART_CONTROL_RE_MSK;
   2e538:	e0bffd17 	ldw	r2,-12(fp)
   2e53c:	10c00817 	ldw	r3,32(r2)
   2e540:	00bfff84 	movi	r2,-2
   2e544:	1886703a 	and	r3,r3,r2
   2e548:	e0bffd17 	ldw	r2,-12(fp)
   2e54c:	10c00815 	stw	r3,32(r2)
        IOWR_ALTERA_AVALON_JTAG_UART_CONTROL(base, sp->irq_enable);
   2e550:	e0bffc17 	ldw	r2,-16(fp)
   2e554:	10800104 	addi	r2,r2,4
   2e558:	1007883a 	mov	r3,r2
   2e55c:	e0bffd17 	ldw	r2,-12(fp)
   2e560:	10800817 	ldw	r2,32(r2)
   2e564:	18800035 	stwio	r2,0(r3)
        
        /* Dummy read to ensure IRQ is cleared prior to ISR completion */
        IORD_ALTERA_AVALON_JTAG_UART_CONTROL(base);
   2e568:	e0bffc17 	ldw	r2,-16(fp)
   2e56c:	10800104 	addi	r2,r2,4
   2e570:	10800037 	ldwio	r2,0(r2)
      }
    }

    if (control & ALTERA_AVALON_JTAG_UART_CONTROL_WI_MSK)
   2e574:	e0bffb17 	ldw	r2,-20(fp)
   2e578:	1080800c 	andi	r2,r2,512
   2e57c:	103fbe26 	beq	r2,zero,2e478 <altera_avalon_jtag_uart_irq+0x28>
    {
      /* process a write irq */
      unsigned int space = (control & ALTERA_AVALON_JTAG_UART_CONTROL_WSPACE_MSK) >> ALTERA_AVALON_JTAG_UART_CONTROL_WSPACE_OFST;
   2e580:	e0bffb17 	ldw	r2,-20(fp)
   2e584:	1004d43a 	srli	r2,r2,16
   2e588:	e0bffe15 	stw	r2,-8(fp)

      while (space > 0 && sp->tx_out != sp->tx_in)
   2e58c:	00001406 	br	2e5e0 <altera_avalon_jtag_uart_irq+0x190>
      {
        IOWR_ALTERA_AVALON_JTAG_UART_DATA(base, sp->tx_buf[sp->tx_out]);
   2e590:	e0bffc17 	ldw	r2,-16(fp)
   2e594:	e0fffd17 	ldw	r3,-12(fp)
   2e598:	18c00d17 	ldw	r3,52(r3)
   2e59c:	e13ffd17 	ldw	r4,-12(fp)
   2e5a0:	20c7883a 	add	r3,r4,r3
   2e5a4:	18c20e03 	ldbu	r3,2104(r3)
   2e5a8:	18c03fcc 	andi	r3,r3,255
   2e5ac:	18c0201c 	xori	r3,r3,128
   2e5b0:	18ffe004 	addi	r3,r3,-128
   2e5b4:	10c00035 	stwio	r3,0(r2)

        sp->tx_out = (sp->tx_out + 1) % ALTERA_AVALON_JTAG_UART_BUF_LEN;
   2e5b8:	e0bffd17 	ldw	r2,-12(fp)
   2e5bc:	10800d17 	ldw	r2,52(r2)
   2e5c0:	10800044 	addi	r2,r2,1
   2e5c4:	10c1ffcc 	andi	r3,r2,2047
   2e5c8:	e0bffd17 	ldw	r2,-12(fp)
   2e5cc:	10c00d15 	stw	r3,52(r2)
   2e5d0:	0001883a 	nop

        /* Post an event to notify jtag_uart_write that a character has been written */
        ALT_FLAG_POST (sp->events, ALT_JTAG_UART_WRITE_RDY, OS_FLAG_SET);

        space--;
   2e5d4:	e0bffe17 	ldw	r2,-8(fp)
   2e5d8:	10bfffc4 	addi	r2,r2,-1
   2e5dc:	e0bffe15 	stw	r2,-8(fp)
      while (space > 0 && sp->tx_out != sp->tx_in)
   2e5e0:	e0bffe17 	ldw	r2,-8(fp)
   2e5e4:	10000526 	beq	r2,zero,2e5fc <altera_avalon_jtag_uart_irq+0x1ac>
   2e5e8:	e0bffd17 	ldw	r2,-12(fp)
   2e5ec:	10c00d17 	ldw	r3,52(r2)
   2e5f0:	e0bffd17 	ldw	r2,-12(fp)
   2e5f4:	10800c17 	ldw	r2,48(r2)
   2e5f8:	18bfe51e 	bne	r3,r2,2e590 <altera_avalon_jtag_uart_irq+0x140>
      }

      if (space > 0)
   2e5fc:	e0bffe17 	ldw	r2,-8(fp)
   2e600:	103f9d26 	beq	r2,zero,2e478 <altera_avalon_jtag_uart_irq+0x28>
      {
        /* If we don't have any more data available then turn off the TX interrupt */
        sp->irq_enable &= ~ALTERA_AVALON_JTAG_UART_CONTROL_WE_MSK;
   2e604:	e0bffd17 	ldw	r2,-12(fp)
   2e608:	10c00817 	ldw	r3,32(r2)
   2e60c:	00bfff44 	movi	r2,-3
   2e610:	1886703a 	and	r3,r3,r2
   2e614:	e0bffd17 	ldw	r2,-12(fp)
   2e618:	10c00815 	stw	r3,32(r2)
        IOWR_ALTERA_AVALON_JTAG_UART_CONTROL(sp->base, sp->irq_enable);
   2e61c:	e0bffd17 	ldw	r2,-12(fp)
   2e620:	10800017 	ldw	r2,0(r2)
   2e624:	10800104 	addi	r2,r2,4
   2e628:	1007883a 	mov	r3,r2
   2e62c:	e0bffd17 	ldw	r2,-12(fp)
   2e630:	10800817 	ldw	r2,32(r2)
   2e634:	18800035 	stwio	r2,0(r3)
        
        /* Dummy read to ensure IRQ is cleared prior to ISR completion */
        IORD_ALTERA_AVALON_JTAG_UART_CONTROL(base);
   2e638:	e0bffc17 	ldw	r2,-16(fp)
   2e63c:	10800104 	addi	r2,r2,4
   2e640:	10800037 	ldwio	r2,0(r2)
  {
   2e644:	003f8c06 	br	2e478 <altera_avalon_jtag_uart_irq+0x28>
      break;
   2e648:	0001883a 	nop
      }
    }
  }
}
   2e64c:	0001883a 	nop
   2e650:	e037883a 	mov	sp,fp
   2e654:	df000017 	ldw	fp,0(sp)
   2e658:	dec00104 	addi	sp,sp,4
   2e65c:	f800283a 	ret

0002e660 <altera_avalon_jtag_uart_timeout>:
 * Timeout routine is called every second
 */

static alt_u32 
altera_avalon_jtag_uart_timeout(void* context) 
{
   2e660:	defffc04 	addi	sp,sp,-16
   2e664:	df000315 	stw	fp,12(sp)
   2e668:	df000304 	addi	fp,sp,12
   2e66c:	e13ffd15 	stw	r4,-12(fp)
  altera_avalon_jtag_uart_state* sp = (altera_avalon_jtag_uart_state *) context;
   2e670:	e0bffd17 	ldw	r2,-12(fp)
   2e674:	e0bfff15 	stw	r2,-4(fp)

  unsigned int control = IORD_ALTERA_AVALON_JTAG_UART_CONTROL(sp->base);
   2e678:	e0bfff17 	ldw	r2,-4(fp)
   2e67c:	10800017 	ldw	r2,0(r2)
   2e680:	10800104 	addi	r2,r2,4
   2e684:	10800037 	ldwio	r2,0(r2)
   2e688:	e0bffe15 	stw	r2,-8(fp)

  if (control & ALTERA_AVALON_JTAG_UART_CONTROL_AC_MSK)
   2e68c:	e0bffe17 	ldw	r2,-8(fp)
   2e690:	1081000c 	andi	r2,r2,1024
   2e694:	10000b26 	beq	r2,zero,2e6c4 <altera_avalon_jtag_uart_timeout+0x64>
  {
    IOWR_ALTERA_AVALON_JTAG_UART_CONTROL(sp->base, sp->irq_enable | ALTERA_AVALON_JTAG_UART_CONTROL_AC_MSK);
   2e698:	e0bfff17 	ldw	r2,-4(fp)
   2e69c:	10800017 	ldw	r2,0(r2)
   2e6a0:	10800104 	addi	r2,r2,4
   2e6a4:	1007883a 	mov	r3,r2
   2e6a8:	e0bfff17 	ldw	r2,-4(fp)
   2e6ac:	10800817 	ldw	r2,32(r2)
   2e6b0:	10810014 	ori	r2,r2,1024
   2e6b4:	18800035 	stwio	r2,0(r3)
    sp->host_inactive = 0;
   2e6b8:	e0bfff17 	ldw	r2,-4(fp)
   2e6bc:	10000915 	stw	zero,36(r2)
   2e6c0:	00000a06 	br	2e6ec <altera_avalon_jtag_uart_timeout+0x8c>
  }
  else if (sp->host_inactive < INT_MAX - 2) {
   2e6c4:	e0bfff17 	ldw	r2,-4(fp)
   2e6c8:	10c00917 	ldw	r3,36(r2)
   2e6cc:	00a00034 	movhi	r2,32768
   2e6d0:	10bfff04 	addi	r2,r2,-4
   2e6d4:	10c00536 	bltu	r2,r3,2e6ec <altera_avalon_jtag_uart_timeout+0x8c>
    sp->host_inactive++;
   2e6d8:	e0bfff17 	ldw	r2,-4(fp)
   2e6dc:	10800917 	ldw	r2,36(r2)
   2e6e0:	10c00044 	addi	r3,r2,1
   2e6e4:	e0bfff17 	ldw	r2,-4(fp)
   2e6e8:	10c00915 	stw	r3,36(r2)
   2e6ec:	d0a72e17 	ldw	r2,-25416(gp)
      ALT_FLAG_POST (sp->events, ALT_JTAG_UART_TIMEOUT, OS_FLAG_SET);
    }
  }

  return alt_ticks_per_second();
}
   2e6f0:	e037883a 	mov	sp,fp
   2e6f4:	df000017 	ldw	fp,0(sp)
   2e6f8:	dec00104 	addi	sp,sp,4
   2e6fc:	f800283a 	ret

0002e700 <altera_avalon_jtag_uart_close>:
 * The close routine is not implemented for the small driver; instead it will
 * map to null. This is because the small driver simply waits while characters
 * are transmitted; there is no interrupt-serviced buffer to empty 
 */
int altera_avalon_jtag_uart_close(altera_avalon_jtag_uart_state* sp, int flags)
{
   2e700:	defffd04 	addi	sp,sp,-12
   2e704:	df000215 	stw	fp,8(sp)
   2e708:	df000204 	addi	fp,sp,8
   2e70c:	e13fff15 	stw	r4,-4(fp)
   2e710:	e17ffe15 	stw	r5,-8(fp)
  /* 
   * Wait for all transmit data to be emptied by the JTAG UART ISR, or
   * for a host-inactivity timeout, in which case transmit data will be lost
   */
  while ( (sp->tx_out != sp->tx_in) && (sp->host_inactive < sp->timeout) ) {
   2e714:	00000506 	br	2e72c <altera_avalon_jtag_uart_close+0x2c>
    if (flags & O_NONBLOCK) {
   2e718:	e0bffe17 	ldw	r2,-8(fp)
   2e71c:	1090000c 	andi	r2,r2,16384
   2e720:	10000226 	beq	r2,zero,2e72c <altera_avalon_jtag_uart_close+0x2c>
      return -EWOULDBLOCK; 
   2e724:	00bffd44 	movi	r2,-11
   2e728:	00000b06 	br	2e758 <altera_avalon_jtag_uart_close+0x58>
  while ( (sp->tx_out != sp->tx_in) && (sp->host_inactive < sp->timeout) ) {
   2e72c:	e0bfff17 	ldw	r2,-4(fp)
   2e730:	10c00d17 	ldw	r3,52(r2)
   2e734:	e0bfff17 	ldw	r2,-4(fp)
   2e738:	10800c17 	ldw	r2,48(r2)
   2e73c:	18800526 	beq	r3,r2,2e754 <altera_avalon_jtag_uart_close+0x54>
   2e740:	e0bfff17 	ldw	r2,-4(fp)
   2e744:	10c00917 	ldw	r3,36(r2)
   2e748:	e0bfff17 	ldw	r2,-4(fp)
   2e74c:	10800117 	ldw	r2,4(r2)
   2e750:	18bff136 	bltu	r3,r2,2e718 <altera_avalon_jtag_uart_close+0x18>
    }
  }

  return 0;
   2e754:	0005883a 	mov	r2,zero
}
   2e758:	e037883a 	mov	sp,fp
   2e75c:	df000017 	ldw	fp,0(sp)
   2e760:	dec00104 	addi	sp,sp,4
   2e764:	f800283a 	ret

0002e768 <altera_avalon_jtag_uart_ioctl>:
/* ----------------------------------------------------------- */

int 
altera_avalon_jtag_uart_ioctl(altera_avalon_jtag_uart_state* sp, int req,
  void* arg)
{
   2e768:	defffa04 	addi	sp,sp,-24
   2e76c:	df000515 	stw	fp,20(sp)
   2e770:	df000504 	addi	fp,sp,20
   2e774:	e13ffd15 	stw	r4,-12(fp)
   2e778:	e17ffc15 	stw	r5,-16(fp)
   2e77c:	e1bffb15 	stw	r6,-20(fp)
  int rc = -ENOTTY;
   2e780:	00bff9c4 	movi	r2,-25
   2e784:	e0bfff15 	stw	r2,-4(fp)

  switch (req)
   2e788:	e0bffc17 	ldw	r2,-16(fp)
   2e78c:	109a8060 	cmpeqi	r2,r2,27137
   2e790:	1000041e 	bne	r2,zero,2e7a4 <altera_avalon_jtag_uart_ioctl+0x3c>
   2e794:	e0bffc17 	ldw	r2,-16(fp)
   2e798:	109a80a0 	cmpeqi	r2,r2,27138
   2e79c:	1000181e 	bne	r2,zero,2e800 <altera_avalon_jtag_uart_ioctl+0x98>
      rc = 0;
    }
    break;

  default:
    break;
   2e7a0:	00002906 	br	2e848 <altera_avalon_jtag_uart_ioctl+0xe0>
    if (sp->timeout != INT_MAX)
   2e7a4:	e0bffd17 	ldw	r2,-12(fp)
   2e7a8:	10c00117 	ldw	r3,4(r2)
   2e7ac:	00a00034 	movhi	r2,32768
   2e7b0:	10bfffc4 	addi	r2,r2,-1
   2e7b4:	18802126 	beq	r3,r2,2e83c <altera_avalon_jtag_uart_ioctl+0xd4>
      int timeout = *((int *)arg);
   2e7b8:	e0bffb17 	ldw	r2,-20(fp)
   2e7bc:	10800017 	ldw	r2,0(r2)
   2e7c0:	e0bffe15 	stw	r2,-8(fp)
      sp->timeout = (timeout >= 2 && timeout < INT_MAX) ? timeout : INT_MAX - 1;
   2e7c4:	e0bffe17 	ldw	r2,-8(fp)
   2e7c8:	10800090 	cmplti	r2,r2,2
   2e7cc:	1000061e 	bne	r2,zero,2e7e8 <altera_avalon_jtag_uart_ioctl+0x80>
   2e7d0:	e0fffe17 	ldw	r3,-8(fp)
   2e7d4:	00a00034 	movhi	r2,32768
   2e7d8:	10bfffc4 	addi	r2,r2,-1
   2e7dc:	18800226 	beq	r3,r2,2e7e8 <altera_avalon_jtag_uart_ioctl+0x80>
   2e7e0:	e0bffe17 	ldw	r2,-8(fp)
   2e7e4:	00000206 	br	2e7f0 <altera_avalon_jtag_uart_ioctl+0x88>
   2e7e8:	00a00034 	movhi	r2,32768
   2e7ec:	10bfff84 	addi	r2,r2,-2
   2e7f0:	e0fffd17 	ldw	r3,-12(fp)
   2e7f4:	18800115 	stw	r2,4(r3)
      rc = 0;
   2e7f8:	e03fff15 	stw	zero,-4(fp)
    break;
   2e7fc:	00000f06 	br	2e83c <altera_avalon_jtag_uart_ioctl+0xd4>
    if (sp->timeout != INT_MAX)
   2e800:	e0bffd17 	ldw	r2,-12(fp)
   2e804:	10c00117 	ldw	r3,4(r2)
   2e808:	00a00034 	movhi	r2,32768
   2e80c:	10bfffc4 	addi	r2,r2,-1
   2e810:	18800c26 	beq	r3,r2,2e844 <altera_avalon_jtag_uart_ioctl+0xdc>
      *((int *)arg) = (sp->host_inactive < sp->timeout) ? 1 : 0;
   2e814:	e0bffd17 	ldw	r2,-12(fp)
   2e818:	10c00917 	ldw	r3,36(r2)
   2e81c:	e0bffd17 	ldw	r2,-12(fp)
   2e820:	10800117 	ldw	r2,4(r2)
   2e824:	1885803a 	cmpltu	r2,r3,r2
   2e828:	10c03fcc 	andi	r3,r2,255
   2e82c:	e0bffb17 	ldw	r2,-20(fp)
   2e830:	10c00015 	stw	r3,0(r2)
      rc = 0;
   2e834:	e03fff15 	stw	zero,-4(fp)
    break;
   2e838:	00000206 	br	2e844 <altera_avalon_jtag_uart_ioctl+0xdc>
    break;
   2e83c:	0001883a 	nop
   2e840:	00000106 	br	2e848 <altera_avalon_jtag_uart_ioctl+0xe0>
    break;
   2e844:	0001883a 	nop
  }

  return rc;
   2e848:	e0bfff17 	ldw	r2,-4(fp)
}
   2e84c:	e037883a 	mov	sp,fp
   2e850:	df000017 	ldw	fp,0(sp)
   2e854:	dec00104 	addi	sp,sp,4
   2e858:	f800283a 	ret

0002e85c <altera_avalon_jtag_uart_read>:
/* ----------------------------------------------------------- */

int 
altera_avalon_jtag_uart_read(altera_avalon_jtag_uart_state* sp, 
  char * buffer, int space, int flags)
{
   2e85c:	defff304 	addi	sp,sp,-52
   2e860:	dfc00c15 	stw	ra,48(sp)
   2e864:	df000b15 	stw	fp,44(sp)
   2e868:	df000b04 	addi	fp,sp,44
   2e86c:	e13ff815 	stw	r4,-32(fp)
   2e870:	e17ff715 	stw	r5,-36(fp)
   2e874:	e1bff615 	stw	r6,-40(fp)
   2e878:	e1fff515 	stw	r7,-44(fp)
  char * ptr = buffer;
   2e87c:	e0bff717 	ldw	r2,-36(fp)
   2e880:	e0bfff15 	stw	r2,-4(fp)
   * When running in a multi threaded environment, obtain the "read_lock"
   * semaphore. This ensures that reading from the device is thread-safe.
   */
  ALT_SEM_PEND (sp->read_lock, 0);

  while (space > 0)
   2e884:	00004706 	br	2e9a4 <altera_avalon_jtag_uart_read+0x148>
    unsigned int in, out;

    /* Read as much data as possible */
    do
    {
      in  = sp->rx_in;
   2e888:	e0bff817 	ldw	r2,-32(fp)
   2e88c:	10800a17 	ldw	r2,40(r2)
   2e890:	e0bffd15 	stw	r2,-12(fp)
      out = sp->rx_out;
   2e894:	e0bff817 	ldw	r2,-32(fp)
   2e898:	10800b17 	ldw	r2,44(r2)
   2e89c:	e0bffc15 	stw	r2,-16(fp)

      if (in >= out)
   2e8a0:	e0fffd17 	ldw	r3,-12(fp)
   2e8a4:	e0bffc17 	ldw	r2,-16(fp)
   2e8a8:	18800536 	bltu	r3,r2,2e8c0 <altera_avalon_jtag_uart_read+0x64>
        n = in - out;
   2e8ac:	e0fffd17 	ldw	r3,-12(fp)
   2e8b0:	e0bffc17 	ldw	r2,-16(fp)
   2e8b4:	1885c83a 	sub	r2,r3,r2
   2e8b8:	e0bffe15 	stw	r2,-8(fp)
   2e8bc:	00000406 	br	2e8d0 <altera_avalon_jtag_uart_read+0x74>
      else
        n = ALTERA_AVALON_JTAG_UART_BUF_LEN - out;
   2e8c0:	00c20004 	movi	r3,2048
   2e8c4:	e0bffc17 	ldw	r2,-16(fp)
   2e8c8:	1885c83a 	sub	r2,r3,r2
   2e8cc:	e0bffe15 	stw	r2,-8(fp)

      if (n == 0)
   2e8d0:	e0bffe17 	ldw	r2,-8(fp)
   2e8d4:	10001e26 	beq	r2,zero,2e950 <altera_avalon_jtag_uart_read+0xf4>
        break; /* No more data available */

      if (n > space)
   2e8d8:	e0fff617 	ldw	r3,-40(fp)
   2e8dc:	e0bffe17 	ldw	r2,-8(fp)
   2e8e0:	1880022e 	bgeu	r3,r2,2e8ec <altera_avalon_jtag_uart_read+0x90>
        n = space;
   2e8e4:	e0bff617 	ldw	r2,-40(fp)
   2e8e8:	e0bffe15 	stw	r2,-8(fp)

      memcpy(ptr, sp->rx_buf + out, n);
   2e8ec:	e0bff817 	ldw	r2,-32(fp)
   2e8f0:	10c00e04 	addi	r3,r2,56
   2e8f4:	e0bffc17 	ldw	r2,-16(fp)
   2e8f8:	1885883a 	add	r2,r3,r2
   2e8fc:	e1bffe17 	ldw	r6,-8(fp)
   2e900:	100b883a 	mov	r5,r2
   2e904:	e13fff17 	ldw	r4,-4(fp)
   2e908:	00252a80 	call	252a8 <memcpy>
      ptr   += n;
   2e90c:	e0ffff17 	ldw	r3,-4(fp)
   2e910:	e0bffe17 	ldw	r2,-8(fp)
   2e914:	1885883a 	add	r2,r3,r2
   2e918:	e0bfff15 	stw	r2,-4(fp)
      space -= n;
   2e91c:	e0fff617 	ldw	r3,-40(fp)
   2e920:	e0bffe17 	ldw	r2,-8(fp)
   2e924:	1885c83a 	sub	r2,r3,r2
   2e928:	e0bff615 	stw	r2,-40(fp)

      sp->rx_out = (out + n) % ALTERA_AVALON_JTAG_UART_BUF_LEN;
   2e92c:	e0fffc17 	ldw	r3,-16(fp)
   2e930:	e0bffe17 	ldw	r2,-8(fp)
   2e934:	1885883a 	add	r2,r3,r2
   2e938:	10c1ffcc 	andi	r3,r2,2047
   2e93c:	e0bff817 	ldw	r2,-32(fp)
   2e940:	10c00b15 	stw	r3,44(r2)
    }
    while (space > 0);
   2e944:	e0bff617 	ldw	r2,-40(fp)
   2e948:	00bfcf16 	blt	zero,r2,2e888 <altera_avalon_jtag_uart_read+0x2c>
   2e94c:	00000106 	br	2e954 <altera_avalon_jtag_uart_read+0xf8>
        break; /* No more data available */
   2e950:	0001883a 	nop

    /* If we read any data then return it */
    if (ptr != buffer)
   2e954:	e0ffff17 	ldw	r3,-4(fp)
   2e958:	e0bff717 	ldw	r2,-36(fp)
   2e95c:	1880141e 	bne	r3,r2,2e9b0 <altera_avalon_jtag_uart_read+0x154>
      break;

    /* If in non-blocking mode then return error */
    if (flags & O_NONBLOCK)
   2e960:	e0bff517 	ldw	r2,-44(fp)
   2e964:	1090000c 	andi	r2,r2,16384
   2e968:	1000131e 	bne	r2,zero,2e9b8 <altera_avalon_jtag_uart_read+0x15c>
      while (in == sp->rx_in && sp->host_inactive < sp->timeout)
        ;
    }
#else
    /* No OS: Always spin */
    while (in == sp->rx_in && sp->host_inactive < sp->timeout)
   2e96c:	0001883a 	nop
   2e970:	e0bff817 	ldw	r2,-32(fp)
   2e974:	10800a17 	ldw	r2,40(r2)
   2e978:	e0fffd17 	ldw	r3,-12(fp)
   2e97c:	1880051e 	bne	r3,r2,2e994 <altera_avalon_jtag_uart_read+0x138>
   2e980:	e0bff817 	ldw	r2,-32(fp)
   2e984:	10c00917 	ldw	r3,36(r2)
   2e988:	e0bff817 	ldw	r2,-32(fp)
   2e98c:	10800117 	ldw	r2,4(r2)
   2e990:	18bff736 	bltu	r3,r2,2e970 <altera_avalon_jtag_uart_read+0x114>
      ;
#endif /* __ucosii__ */

    if (in == sp->rx_in)
   2e994:	e0bff817 	ldw	r2,-32(fp)
   2e998:	10800a17 	ldw	r2,40(r2)
   2e99c:	e0fffd17 	ldw	r3,-12(fp)
   2e9a0:	18800726 	beq	r3,r2,2e9c0 <altera_avalon_jtag_uart_read+0x164>
  while (space > 0)
   2e9a4:	e0bff617 	ldw	r2,-40(fp)
   2e9a8:	00bfb716 	blt	zero,r2,2e888 <altera_avalon_jtag_uart_read+0x2c>
   2e9ac:	00000506 	br	2e9c4 <altera_avalon_jtag_uart_read+0x168>
      break;
   2e9b0:	0001883a 	nop
   2e9b4:	00000306 	br	2e9c4 <altera_avalon_jtag_uart_read+0x168>
      break;
   2e9b8:	0001883a 	nop
   2e9bc:	00000106 	br	2e9c4 <altera_avalon_jtag_uart_read+0x168>
      break;
   2e9c0:	0001883a 	nop
   * semaphore so that other threads can access the buffer.
   */

  ALT_SEM_POST (sp->read_lock);

  if (ptr != buffer)
   2e9c4:	e0ffff17 	ldw	r3,-4(fp)
   2e9c8:	e0bff717 	ldw	r2,-36(fp)
   2e9cc:	18801926 	beq	r3,r2,2ea34 <altera_avalon_jtag_uart_read+0x1d8>
  NIOS2_READ_STATUS (context);
   2e9d0:	0005303a 	rdctl	r2,status
   2e9d4:	e0bff915 	stw	r2,-28(fp)
  NIOS2_WRITE_STATUS (context & ~NIOS2_STATUS_PIE_MSK);
   2e9d8:	e0fff917 	ldw	r3,-28(fp)
   2e9dc:	00bfff84 	movi	r2,-2
   2e9e0:	1884703a 	and	r2,r3,r2
   2e9e4:	1001703a 	wrctl	status,r2
  return context;
   2e9e8:	e0bff917 	ldw	r2,-28(fp)
  {
    /* If we read any data then there is space in the buffer so enable interrupts */
    context = alt_irq_disable_all();
   2e9ec:	e0bffb15 	stw	r2,-20(fp)
    sp->irq_enable |= ALTERA_AVALON_JTAG_UART_CONTROL_RE_MSK;
   2e9f0:	e0bff817 	ldw	r2,-32(fp)
   2e9f4:	10800817 	ldw	r2,32(r2)
   2e9f8:	10c00054 	ori	r3,r2,1
   2e9fc:	e0bff817 	ldw	r2,-32(fp)
   2ea00:	10c00815 	stw	r3,32(r2)
    IOWR_ALTERA_AVALON_JTAG_UART_CONTROL(sp->base, sp->irq_enable);
   2ea04:	e0bff817 	ldw	r2,-32(fp)
   2ea08:	10800017 	ldw	r2,0(r2)
   2ea0c:	10800104 	addi	r2,r2,4
   2ea10:	1007883a 	mov	r3,r2
   2ea14:	e0bff817 	ldw	r2,-32(fp)
   2ea18:	10800817 	ldw	r2,32(r2)
   2ea1c:	18800035 	stwio	r2,0(r3)
   2ea20:	e0bffb17 	ldw	r2,-20(fp)
   2ea24:	e0bffa15 	stw	r2,-24(fp)
  NIOS2_WRITE_STATUS (context);
   2ea28:	e0bffa17 	ldw	r2,-24(fp)
   2ea2c:	1001703a 	wrctl	status,r2
}
   2ea30:	0001883a 	nop
    alt_irq_enable_all(context);
  }

  if (ptr != buffer)
   2ea34:	e0ffff17 	ldw	r3,-4(fp)
   2ea38:	e0bff717 	ldw	r2,-36(fp)
   2ea3c:	18800426 	beq	r3,r2,2ea50 <altera_avalon_jtag_uart_read+0x1f4>
    return ptr - buffer;
   2ea40:	e0ffff17 	ldw	r3,-4(fp)
   2ea44:	e0bff717 	ldw	r2,-36(fp)
   2ea48:	1885c83a 	sub	r2,r3,r2
   2ea4c:	00000606 	br	2ea68 <altera_avalon_jtag_uart_read+0x20c>
  else if (flags & O_NONBLOCK)
   2ea50:	e0bff517 	ldw	r2,-44(fp)
   2ea54:	1090000c 	andi	r2,r2,16384
   2ea58:	10000226 	beq	r2,zero,2ea64 <altera_avalon_jtag_uart_read+0x208>
    return -EWOULDBLOCK;
   2ea5c:	00bffd44 	movi	r2,-11
   2ea60:	00000106 	br	2ea68 <altera_avalon_jtag_uart_read+0x20c>
  else
    return -EIO;
   2ea64:	00bffec4 	movi	r2,-5
}
   2ea68:	e037883a 	mov	sp,fp
   2ea6c:	dfc00117 	ldw	ra,4(sp)
   2ea70:	df000017 	ldw	fp,0(sp)
   2ea74:	dec00204 	addi	sp,sp,8
   2ea78:	f800283a 	ret

0002ea7c <altera_avalon_jtag_uart_write>:
/* ----------------------------------------------------------- */

int 
altera_avalon_jtag_uart_write(altera_avalon_jtag_uart_state* sp, 
  const char * ptr, int count, int flags)
{
   2ea7c:	defff304 	addi	sp,sp,-52
   2ea80:	dfc00c15 	stw	ra,48(sp)
   2ea84:	df000b15 	stw	fp,44(sp)
   2ea88:	df000b04 	addi	fp,sp,44
   2ea8c:	e13ff815 	stw	r4,-32(fp)
   2ea90:	e17ff715 	stw	r5,-36(fp)
   2ea94:	e1bff615 	stw	r6,-40(fp)
   2ea98:	e1fff515 	stw	r7,-44(fp)
  /* Remove warning at optimisation level 03 by seting out to 0 */
  unsigned int in, out=0;
   2ea9c:	e03fff15 	stw	zero,-4(fp)
  unsigned int n;
  alt_irq_context context;

  const char * start = ptr;
   2eaa0:	e0bff717 	ldw	r2,-36(fp)
   2eaa4:	e0bffd15 	stw	r2,-12(fp)
  ALT_SEM_PEND (sp->write_lock, 0);

  do
  {
    /* Copy as much as we can into the transmit buffer */
    while (count > 0)
   2eaa8:	00003706 	br	2eb88 <altera_avalon_jtag_uart_write+0x10c>
    {
      /* We need a stable value of the out pointer to calculate the space available */
      in  = sp->tx_in;
   2eaac:	e0bff817 	ldw	r2,-32(fp)
   2eab0:	10800c17 	ldw	r2,48(r2)
   2eab4:	e0bffc15 	stw	r2,-16(fp)
      out = sp->tx_out;
   2eab8:	e0bff817 	ldw	r2,-32(fp)
   2eabc:	10800d17 	ldw	r2,52(r2)
   2eac0:	e0bfff15 	stw	r2,-4(fp)

      if (in < out)
   2eac4:	e0fffc17 	ldw	r3,-16(fp)
   2eac8:	e0bfff17 	ldw	r2,-4(fp)
   2eacc:	1880062e 	bgeu	r3,r2,2eae8 <altera_avalon_jtag_uart_write+0x6c>
        n = out - 1 - in;
   2ead0:	e0ffff17 	ldw	r3,-4(fp)
   2ead4:	e0bffc17 	ldw	r2,-16(fp)
   2ead8:	1885c83a 	sub	r2,r3,r2
   2eadc:	10bfffc4 	addi	r2,r2,-1
   2eae0:	e0bffe15 	stw	r2,-8(fp)
   2eae4:	00000b06 	br	2eb14 <altera_avalon_jtag_uart_write+0x98>
      else if (out > 0)
   2eae8:	e0bfff17 	ldw	r2,-4(fp)
   2eaec:	10000526 	beq	r2,zero,2eb04 <altera_avalon_jtag_uart_write+0x88>
        n = ALTERA_AVALON_JTAG_UART_BUF_LEN - in;
   2eaf0:	00c20004 	movi	r3,2048
   2eaf4:	e0bffc17 	ldw	r2,-16(fp)
   2eaf8:	1885c83a 	sub	r2,r3,r2
   2eafc:	e0bffe15 	stw	r2,-8(fp)
   2eb00:	00000406 	br	2eb14 <altera_avalon_jtag_uart_write+0x98>
      else
        n = ALTERA_AVALON_JTAG_UART_BUF_LEN - 1 - in;
   2eb04:	00c1ffc4 	movi	r3,2047
   2eb08:	e0bffc17 	ldw	r2,-16(fp)
   2eb0c:	1885c83a 	sub	r2,r3,r2
   2eb10:	e0bffe15 	stw	r2,-8(fp)

      if (n == 0)
   2eb14:	e0bffe17 	ldw	r2,-8(fp)
   2eb18:	10001e26 	beq	r2,zero,2eb94 <altera_avalon_jtag_uart_write+0x118>
        break;

      if (n > count)
   2eb1c:	e0fff617 	ldw	r3,-40(fp)
   2eb20:	e0bffe17 	ldw	r2,-8(fp)
   2eb24:	1880022e 	bgeu	r3,r2,2eb30 <altera_avalon_jtag_uart_write+0xb4>
        n = count;
   2eb28:	e0bff617 	ldw	r2,-40(fp)
   2eb2c:	e0bffe15 	stw	r2,-8(fp)

      memcpy(sp->tx_buf + in, ptr, n);
   2eb30:	e0bff817 	ldw	r2,-32(fp)
   2eb34:	10c20e04 	addi	r3,r2,2104
   2eb38:	e0bffc17 	ldw	r2,-16(fp)
   2eb3c:	1885883a 	add	r2,r3,r2
   2eb40:	e1bffe17 	ldw	r6,-8(fp)
   2eb44:	e17ff717 	ldw	r5,-36(fp)
   2eb48:	1009883a 	mov	r4,r2
   2eb4c:	00252a80 	call	252a8 <memcpy>
      ptr   += n;
   2eb50:	e0fff717 	ldw	r3,-36(fp)
   2eb54:	e0bffe17 	ldw	r2,-8(fp)
   2eb58:	1885883a 	add	r2,r3,r2
   2eb5c:	e0bff715 	stw	r2,-36(fp)
      count -= n;
   2eb60:	e0fff617 	ldw	r3,-40(fp)
   2eb64:	e0bffe17 	ldw	r2,-8(fp)
   2eb68:	1885c83a 	sub	r2,r3,r2
   2eb6c:	e0bff615 	stw	r2,-40(fp)

      sp->tx_in = (in + n) % ALTERA_AVALON_JTAG_UART_BUF_LEN;
   2eb70:	e0fffc17 	ldw	r3,-16(fp)
   2eb74:	e0bffe17 	ldw	r2,-8(fp)
   2eb78:	1885883a 	add	r2,r3,r2
   2eb7c:	10c1ffcc 	andi	r3,r2,2047
   2eb80:	e0bff817 	ldw	r2,-32(fp)
   2eb84:	10c00c15 	stw	r3,48(r2)
    while (count > 0)
   2eb88:	e0bff617 	ldw	r2,-40(fp)
   2eb8c:	00bfc716 	blt	zero,r2,2eaac <altera_avalon_jtag_uart_write+0x30>
   2eb90:	00000106 	br	2eb98 <altera_avalon_jtag_uart_write+0x11c>
        break;
   2eb94:	0001883a 	nop
  NIOS2_READ_STATUS (context);
   2eb98:	0005303a 	rdctl	r2,status
   2eb9c:	e0bff915 	stw	r2,-28(fp)
  NIOS2_WRITE_STATUS (context & ~NIOS2_STATUS_PIE_MSK);
   2eba0:	e0fff917 	ldw	r3,-28(fp)
   2eba4:	00bfff84 	movi	r2,-2
   2eba8:	1884703a 	and	r2,r3,r2
   2ebac:	1001703a 	wrctl	status,r2
  return context;
   2ebb0:	e0bff917 	ldw	r2,-28(fp)
     * to enable interrupts if there is no space left in the FIFO
     *
     * For now kick the interrupt routine every time to make it transmit 
     * the data 
     */
    context = alt_irq_disable_all();
   2ebb4:	e0bffb15 	stw	r2,-20(fp)
    sp->irq_enable |= ALTERA_AVALON_JTAG_UART_CONTROL_WE_MSK;
   2ebb8:	e0bff817 	ldw	r2,-32(fp)
   2ebbc:	10800817 	ldw	r2,32(r2)
   2ebc0:	10c00094 	ori	r3,r2,2
   2ebc4:	e0bff817 	ldw	r2,-32(fp)
   2ebc8:	10c00815 	stw	r3,32(r2)
    IOWR_ALTERA_AVALON_JTAG_UART_CONTROL(sp->base, sp->irq_enable);
   2ebcc:	e0bff817 	ldw	r2,-32(fp)
   2ebd0:	10800017 	ldw	r2,0(r2)
   2ebd4:	10800104 	addi	r2,r2,4
   2ebd8:	1007883a 	mov	r3,r2
   2ebdc:	e0bff817 	ldw	r2,-32(fp)
   2ebe0:	10800817 	ldw	r2,32(r2)
   2ebe4:	18800035 	stwio	r2,0(r3)
   2ebe8:	e0bffb17 	ldw	r2,-20(fp)
   2ebec:	e0bffa15 	stw	r2,-24(fp)
  NIOS2_WRITE_STATUS (context);
   2ebf0:	e0bffa17 	ldw	r2,-24(fp)
   2ebf4:	1001703a 	wrctl	status,r2
}
   2ebf8:	0001883a 	nop
    /* 
     * If there is any data left then either return now or block until 
     * some has been sent 
     */
    /* consider: test whether there is anything there while doing this and delay for at most 2s. */
    if (count > 0)
   2ebfc:	e0bff617 	ldw	r2,-40(fp)
   2ec00:	0080100e 	bge	zero,r2,2ec44 <altera_avalon_jtag_uart_write+0x1c8>
    {
      if (flags & O_NONBLOCK)
   2ec04:	e0bff517 	ldw	r2,-44(fp)
   2ec08:	1090000c 	andi	r2,r2,16384
   2ec0c:	1000101e 	bne	r2,zero,2ec50 <altera_avalon_jtag_uart_write+0x1d4>
      /*
       * No OS present: Always wait for data to be removed from buffer.  Once
       * the interrupt routine has removed some data then we will be able to
       * insert some more.
       */
      while (out == sp->tx_out && sp->host_inactive < sp->timeout)
   2ec10:	0001883a 	nop
   2ec14:	e0bff817 	ldw	r2,-32(fp)
   2ec18:	10800d17 	ldw	r2,52(r2)
   2ec1c:	e0ffff17 	ldw	r3,-4(fp)
   2ec20:	1880051e 	bne	r3,r2,2ec38 <altera_avalon_jtag_uart_write+0x1bc>
   2ec24:	e0bff817 	ldw	r2,-32(fp)
   2ec28:	10c00917 	ldw	r3,36(r2)
   2ec2c:	e0bff817 	ldw	r2,-32(fp)
   2ec30:	10800117 	ldw	r2,4(r2)
   2ec34:	18bff736 	bltu	r3,r2,2ec14 <altera_avalon_jtag_uart_write+0x198>
        ;
#endif /* __ucosii__ */

      if  (sp->host_inactive)
   2ec38:	e0bff817 	ldw	r2,-32(fp)
   2ec3c:	10800917 	ldw	r2,36(r2)
   2ec40:	1000051e 	bne	r2,zero,2ec58 <altera_avalon_jtag_uart_write+0x1dc>
         break;
    }
  }
  while (count > 0);
   2ec44:	e0bff617 	ldw	r2,-40(fp)
   2ec48:	00bfcf16 	blt	zero,r2,2eb88 <altera_avalon_jtag_uart_write+0x10c>
   2ec4c:	00000306 	br	2ec5c <altera_avalon_jtag_uart_write+0x1e0>
        break;
   2ec50:	0001883a 	nop
   2ec54:	00000106 	br	2ec5c <altera_avalon_jtag_uart_write+0x1e0>
         break;
   2ec58:	0001883a 	nop
   * Now that access to the circular buffer is complete, release the write
   * semaphore so that other threads can access the buffer.
   */
  ALT_SEM_POST (sp->write_lock);

  if (ptr != start)
   2ec5c:	e0fff717 	ldw	r3,-36(fp)
   2ec60:	e0bffd17 	ldw	r2,-12(fp)
   2ec64:	18800426 	beq	r3,r2,2ec78 <altera_avalon_jtag_uart_write+0x1fc>
    return ptr - start;
   2ec68:	e0fff717 	ldw	r3,-36(fp)
   2ec6c:	e0bffd17 	ldw	r2,-12(fp)
   2ec70:	1885c83a 	sub	r2,r3,r2
   2ec74:	00000606 	br	2ec90 <altera_avalon_jtag_uart_write+0x214>
  else if (flags & O_NONBLOCK)
   2ec78:	e0bff517 	ldw	r2,-44(fp)
   2ec7c:	1090000c 	andi	r2,r2,16384
   2ec80:	10000226 	beq	r2,zero,2ec8c <altera_avalon_jtag_uart_write+0x210>
    return -EWOULDBLOCK;
   2ec84:	00bffd44 	movi	r2,-11
   2ec88:	00000106 	br	2ec90 <altera_avalon_jtag_uart_write+0x214>
    sp->tx_out = sp->tx_in = 0;
    return ptr - start + count;
  }
#endif
  else
    return -EIO; /* Host not connected */
   2ec8c:	00bffec4 	movi	r2,-5
}
   2ec90:	e037883a 	mov	sp,fp
   2ec94:	dfc00117 	ldw	ra,4(sp)
   2ec98:	df000017 	ldw	fp,0(sp)
   2ec9c:	dec00204 	addi	sp,sp,8
   2eca0:	f800283a 	ret

0002eca4 <alt_avalon_timer_sc_irq>:
#ifdef ALT_ENHANCED_INTERRUPT_API_PRESENT
static void alt_avalon_timer_sc_irq (void* base)
#else
static void alt_avalon_timer_sc_irq (void* base, alt_u32 id)
#endif
{
   2eca4:	defff904 	addi	sp,sp,-28
   2eca8:	dfc00615 	stw	ra,24(sp)
   2ecac:	df000515 	stw	fp,20(sp)
   2ecb0:	df000504 	addi	fp,sp,20
   2ecb4:	e13ffc15 	stw	r4,-16(fp)
   2ecb8:	e17ffb15 	stw	r5,-20(fp)
  alt_irq_context cpu_sr;
  
  /* clear the interrupt */
  IOWR_ALTERA_AVALON_TIMER_STATUS (base, 0);
   2ecbc:	0007883a 	mov	r3,zero
   2ecc0:	e0bffc17 	ldw	r2,-16(fp)
   2ecc4:	10c00035 	stwio	r3,0(r2)
  /* 
   * Dummy read to ensure IRQ is negated before the ISR returns.
   * The control register is read because reading the status
   * register has side-effects per the register map documentation.
   */
  IORD_ALTERA_AVALON_TIMER_CONTROL (base);
   2ecc8:	e0bffc17 	ldw	r2,-16(fp)
   2eccc:	10800104 	addi	r2,r2,4
   2ecd0:	10800037 	ldwio	r2,0(r2)
  NIOS2_READ_STATUS (context);
   2ecd4:	0005303a 	rdctl	r2,status
   2ecd8:	e0bffd15 	stw	r2,-12(fp)
  NIOS2_WRITE_STATUS (context & ~NIOS2_STATUS_PIE_MSK);
   2ecdc:	e0fffd17 	ldw	r3,-12(fp)
   2ece0:	00bfff84 	movi	r2,-2
   2ece4:	1884703a 	and	r2,r3,r2
   2ece8:	1001703a 	wrctl	status,r2
  return context;
   2ecec:	e0bffd17 	ldw	r2,-12(fp)

  /* 
   * Notify the system of a clock tick. disable interrupts 
   * during this time to safely support ISR preemption
   */
  cpu_sr = alt_irq_disable_all();
   2ecf0:	e0bfff15 	stw	r2,-4(fp)
  alt_tick ();
   2ecf4:	002f8d00 	call	2f8d0 <alt_tick>
   2ecf8:	e0bfff17 	ldw	r2,-4(fp)
   2ecfc:	e0bffe15 	stw	r2,-8(fp)
  NIOS2_WRITE_STATUS (context);
   2ed00:	e0bffe17 	ldw	r2,-8(fp)
   2ed04:	1001703a 	wrctl	status,r2
}
   2ed08:	0001883a 	nop
  alt_irq_enable_all(cpu_sr);
}
   2ed0c:	0001883a 	nop
   2ed10:	e037883a 	mov	sp,fp
   2ed14:	dfc00117 	ldw	ra,4(sp)
   2ed18:	df000017 	ldw	fp,0(sp)
   2ed1c:	dec00204 	addi	sp,sp,8
   2ed20:	f800283a 	ret

0002ed24 <alt_avalon_timer_sc_init>:
 * auto-generated alt_sys_init() function.
 */

void alt_avalon_timer_sc_init (void* base, alt_u32 irq_controller_id, 
                                alt_u32 irq, alt_u32 freq)
{
   2ed24:	defff904 	addi	sp,sp,-28
   2ed28:	dfc00615 	stw	ra,24(sp)
   2ed2c:	df000515 	stw	fp,20(sp)
   2ed30:	df000504 	addi	fp,sp,20
   2ed34:	e13ffe15 	stw	r4,-8(fp)
   2ed38:	e17ffd15 	stw	r5,-12(fp)
   2ed3c:	e1bffc15 	stw	r6,-16(fp)
   2ed40:	e1fffb15 	stw	r7,-20(fp)
   2ed44:	e0bffb17 	ldw	r2,-20(fp)
   2ed48:	e0bfff15 	stw	r2,-4(fp)
 * in order to initialise the value of the clock frequency.
 */

static ALT_INLINE int ALT_ALWAYS_INLINE alt_sysclk_init (alt_u32 nticks)
{
  if (! _alt_tick_rate)
   2ed4c:	d0a72e17 	ldw	r2,-25416(gp)
   2ed50:	1000031e 	bne	r2,zero,2ed60 <alt_avalon_timer_sc_init+0x3c>
  {
    _alt_tick_rate = nticks;
   2ed54:	e0bfff17 	ldw	r2,-4(fp)
   2ed58:	d0a72e15 	stw	r2,-25416(gp)
    return 0;
   2ed5c:	00000106 	br	2ed64 <alt_avalon_timer_sc_init+0x40>
  }
  else
  {
    return -1;
   2ed60:	0001883a 	nop
  
  alt_sysclk_init (freq);
  
  /* set to free running mode */
  
  IOWR_ALTERA_AVALON_TIMER_CONTROL (base, 
   2ed64:	e0bffe17 	ldw	r2,-8(fp)
   2ed68:	10800104 	addi	r2,r2,4
   2ed6c:	00c001c4 	movi	r3,7
   2ed70:	10c00035 	stwio	r3,0(r2)
  /* register the interrupt handler, and enable the interrupt */
#ifdef ALT_ENHANCED_INTERRUPT_API_PRESENT
  alt_ic_isr_register(irq_controller_id, irq, alt_avalon_timer_sc_irq, 
                      base, NULL);
#else
  alt_irq_register (irq, base, alt_avalon_timer_sc_irq);
   2ed74:	018000f4 	movhi	r6,3
   2ed78:	31bb2904 	addi	r6,r6,-4956
   2ed7c:	e17ffe17 	ldw	r5,-8(fp)
   2ed80:	e13ffc17 	ldw	r4,-16(fp)
   2ed84:	002d2380 	call	2d238 <alt_irq_register>
#endif  
}
   2ed88:	0001883a 	nop
   2ed8c:	e037883a 	mov	sp,fp
   2ed90:	dfc00117 	ldw	ra,4(sp)
   2ed94:	df000017 	ldw	fp,0(sp)
   2ed98:	dec00204 	addi	sp,sp,8
   2ed9c:	f800283a 	ret

0002eda0 <alt_up_accelerometer_spi_open_dev>:

#include "altera_up_avalon_accelerometer_spi.h"
#include "altera_up_avalon_accelerometer_spi_regs.h"

alt_up_accelerometer_spi_dev* alt_up_accelerometer_spi_open_dev(const char* name)
{
   2eda0:	defffc04 	addi	sp,sp,-16
   2eda4:	dfc00315 	stw	ra,12(sp)
   2eda8:	df000215 	stw	fp,8(sp)
   2edac:	df000204 	addi	fp,sp,8
   2edb0:	e13ffe15 	stw	r4,-8(fp)
  // find the device from the device list 
  // (see altera_hal/HAL/inc/priv/alt_file.h 
  // and altera_hal/HAL/src/alt_find_dev.c 
  // for details)
  alt_up_accelerometer_spi_dev *dev = (alt_up_accelerometer_spi_dev*)alt_find_dev(name, &alt_dev_list);
   2edb4:	d1600b04 	addi	r5,gp,-32724
   2edb8:	e13ffe17 	ldw	r4,-8(fp)
   2edbc:	002f46c0 	call	2f46c <alt_find_dev>
   2edc0:	e0bfff15 	stw	r2,-4(fp)

  return dev;
   2edc4:	e0bfff17 	ldw	r2,-4(fp)
}
   2edc8:	e037883a 	mov	sp,fp
   2edcc:	dfc00117 	ldw	ra,4(sp)
   2edd0:	df000017 	ldw	fp,0(sp)
   2edd4:	dec00204 	addi	sp,sp,8
   2edd8:	f800283a 	ret

0002eddc <alt_up_accelerometer_spi_read_address_register>:
 * @param addr -- a pointer to the location where the read address should be stored
 *
 * @return 0 for success 
 **/
int alt_up_accelerometer_spi_read_address_register(alt_up_accelerometer_spi_dev *accel_spi, alt_u8 *addr)
{
   2eddc:	defffd04 	addi	sp,sp,-12
   2ede0:	df000215 	stw	fp,8(sp)
   2ede4:	df000204 	addi	fp,sp,8
   2ede8:	e13fff15 	stw	r4,-4(fp)
   2edec:	e17ffe15 	stw	r5,-8(fp)
	// reads data from the device Address register
	*(addr) = IORD_ALT_UP_ACCELEROMETER_SPI_ADDRESS(accel_spi->base); 
   2edf0:	e0bfff17 	ldw	r2,-4(fp)
   2edf4:	10800a17 	ldw	r2,40(r2)
   2edf8:	10800023 	ldbuio	r2,0(r2)
   2edfc:	10803fcc 	andi	r2,r2,255
   2ee00:	1007883a 	mov	r3,r2
   2ee04:	e0bffe17 	ldw	r2,-8(fp)
   2ee08:	10c00005 	stb	r3,0(r2)

	return 0;
   2ee0c:	0005883a 	mov	r2,zero
}
   2ee10:	e037883a 	mov	sp,fp
   2ee14:	df000017 	ldw	fp,0(sp)
   2ee18:	dec00104 	addi	sp,sp,4
   2ee1c:	f800283a 	ret

0002ee20 <alt_up_accelerometer_spi_read>:
 * @param data -- a pointer to the location where the read data should be stored
 *
 * @return 0 for success
 **/
int alt_up_accelerometer_spi_read(alt_up_accelerometer_spi_dev *accel_spi, alt_u8 addr, alt_u8 *data)
{
   2ee20:	defffc04 	addi	sp,sp,-16
   2ee24:	df000315 	stw	fp,12(sp)
   2ee28:	df000304 	addi	fp,sp,12
   2ee2c:	e13fff15 	stw	r4,-4(fp)
   2ee30:	2805883a 	mov	r2,r5
   2ee34:	e1bffd15 	stw	r6,-12(fp)
   2ee38:	e0bffe05 	stb	r2,-8(fp)
	// set the register address in the Address register
	IOWR_ALT_UP_ACCELEROMETER_SPI_ADDRESS(accel_spi->base, addr & ALT_UP_ACCELEROMETER_SPI_ADDRESS_ADDR_MSK); 
   2ee3c:	e0bfff17 	ldw	r2,-4(fp)
   2ee40:	10800a17 	ldw	r2,40(r2)
   2ee44:	1007883a 	mov	r3,r2
   2ee48:	e0bffe03 	ldbu	r2,-8(fp)
   2ee4c:	10800fcc 	andi	r2,r2,63
   2ee50:	18800025 	stbio	r2,0(r3)

	// read data to the device Data register
	*(data) = IORD_ALT_UP_ACCELEROMETER_SPI_DATA(accel_spi->base) & ALT_UP_ACCELEROMETER_SPI_DATA_DATA_MSK;
   2ee54:	e0bfff17 	ldw	r2,-4(fp)
   2ee58:	10800a17 	ldw	r2,40(r2)
   2ee5c:	10800044 	addi	r2,r2,1
   2ee60:	10800023 	ldbuio	r2,0(r2)
   2ee64:	10803fcc 	andi	r2,r2,255
   2ee68:	1007883a 	mov	r3,r2
   2ee6c:	e0bffd17 	ldw	r2,-12(fp)
   2ee70:	10c00005 	stb	r3,0(r2)

	return 0;
   2ee74:	0005883a 	mov	r2,zero
}
   2ee78:	e037883a 	mov	sp,fp
   2ee7c:	df000017 	ldw	fp,0(sp)
   2ee80:	dec00104 	addi	sp,sp,4
   2ee84:	f800283a 	ret

0002ee88 <alt_up_accelerometer_spi_write>:
 * @param data -- the data to be written
 *
 * @return 0 for success
 **/
int alt_up_accelerometer_spi_write(alt_up_accelerometer_spi_dev *accel_spi, alt_u8 addr, alt_u8 data)
{
   2ee88:	defffc04 	addi	sp,sp,-16
   2ee8c:	df000315 	stw	fp,12(sp)
   2ee90:	df000304 	addi	fp,sp,12
   2ee94:	e13fff15 	stw	r4,-4(fp)
   2ee98:	2805883a 	mov	r2,r5
   2ee9c:	3007883a 	mov	r3,r6
   2eea0:	e0bffe05 	stb	r2,-8(fp)
   2eea4:	1805883a 	mov	r2,r3
   2eea8:	e0bffd05 	stb	r2,-12(fp)
	// set the register address in the Address register
	IOWR_ALT_UP_ACCELEROMETER_SPI_ADDRESS(accel_spi->base, addr & ALT_UP_ACCELEROMETER_SPI_ADDRESS_ADDR_MSK); 
   2eeac:	e0bfff17 	ldw	r2,-4(fp)
   2eeb0:	10800a17 	ldw	r2,40(r2)
   2eeb4:	1007883a 	mov	r3,r2
   2eeb8:	e0bffe03 	ldbu	r2,-8(fp)
   2eebc:	10800fcc 	andi	r2,r2,63
   2eec0:	18800025 	stbio	r2,0(r3)

	// write data to the device Data register
	IOWR_ALT_UP_ACCELEROMETER_SPI_DATA(accel_spi->base, data & ALT_UP_ACCELEROMETER_SPI_DATA_DATA_MSK); 
   2eec4:	e0bfff17 	ldw	r2,-4(fp)
   2eec8:	10800a17 	ldw	r2,40(r2)
   2eecc:	10800044 	addi	r2,r2,1
   2eed0:	1007883a 	mov	r3,r2
   2eed4:	e0bffd03 	ldbu	r2,-12(fp)
   2eed8:	18800025 	stbio	r2,0(r3)

	return 0;
   2eedc:	0005883a 	mov	r2,zero
}
   2eee0:	e037883a 	mov	sp,fp
   2eee4:	df000017 	ldw	fp,0(sp)
   2eee8:	dec00104 	addi	sp,sp,4
   2eeec:	f800283a 	ret

0002eef0 <alt_up_accelerometer_spi_read_x_axis>:
 * @param x_axis -- a pointer to the location where the x axis data should be stored
 *
 * @return 0 for success or -1 for failure
 **/
int alt_up_accelerometer_spi_read_x_axis(alt_up_accelerometer_spi_dev *accel_spi, alt_32 *x_axis)
{
   2eef0:	defffd04 	addi	sp,sp,-12
   2eef4:	df000215 	stw	fp,8(sp)
   2eef8:	df000204 	addi	fp,sp,8
   2eefc:	e13fff15 	stw	r4,-4(fp)
   2ef00:	e17ffe15 	stw	r5,-8(fp)
	// set the register address in the Address register
	IOWR_ALT_UP_ACCELEROMETER_SPI_ADDRESS(accel_spi->base, ACCELEROMETER_SPI_X_AXIS_LOWER_BYTE & ALT_UP_ACCELEROMETER_SPI_ADDRESS_ADDR_MSK); 
   2ef04:	e0bfff17 	ldw	r2,-4(fp)
   2ef08:	10800a17 	ldw	r2,40(r2)
   2ef0c:	1007883a 	mov	r3,r2
   2ef10:	00800c84 	movi	r2,50
   2ef14:	18800025 	stbio	r2,0(r3)

	// read data to the device Data register
	*(x_axis) = IORD_ALT_UP_ACCELEROMETER_SPI_DATA(accel_spi->base) & ALT_UP_ACCELEROMETER_SPI_DATA_DATA_MSK;
   2ef18:	e0bfff17 	ldw	r2,-4(fp)
   2ef1c:	10800a17 	ldw	r2,40(r2)
   2ef20:	10800044 	addi	r2,r2,1
   2ef24:	10800023 	ldbuio	r2,0(r2)
   2ef28:	10803fcc 	andi	r2,r2,255
   2ef2c:	10ffffcc 	andi	r3,r2,65535
   2ef30:	e0bffe17 	ldw	r2,-8(fp)
   2ef34:	10c00015 	stw	r3,0(r2)

	// set the register address in the Address register
	IOWR_ALT_UP_ACCELEROMETER_SPI_ADDRESS(accel_spi->base, ACCELEROMETER_SPI_X_AXIS_UPPER_BYTE & ALT_UP_ACCELEROMETER_SPI_ADDRESS_ADDR_MSK); 
   2ef38:	e0bfff17 	ldw	r2,-4(fp)
   2ef3c:	10800a17 	ldw	r2,40(r2)
   2ef40:	1007883a 	mov	r3,r2
   2ef44:	00800cc4 	movi	r2,51
   2ef48:	18800025 	stbio	r2,0(r3)

	// read data to the device Data register
	*(x_axis) += (IORD_ALT_UP_ACCELEROMETER_SPI_DATA(accel_spi->base) & ALT_UP_ACCELEROMETER_SPI_DATA_DATA_MSK) << 8;
   2ef4c:	e0bfff17 	ldw	r2,-4(fp)
   2ef50:	10800a17 	ldw	r2,40(r2)
   2ef54:	10800044 	addi	r2,r2,1
   2ef58:	10800023 	ldbuio	r2,0(r2)
   2ef5c:	10803fcc 	andi	r2,r2,255
   2ef60:	1006923a 	slli	r3,r2,8
   2ef64:	00804034 	movhi	r2,256
   2ef68:	10bfc004 	addi	r2,r2,-256
   2ef6c:	1884703a 	and	r2,r3,r2
   2ef70:	e0fffe17 	ldw	r3,-8(fp)
   2ef74:	18c00017 	ldw	r3,0(r3)
   2ef78:	10c5883a 	add	r2,r2,r3
   2ef7c:	1007883a 	mov	r3,r2
   2ef80:	e0bffe17 	ldw	r2,-8(fp)
   2ef84:	10c00015 	stw	r3,0(r2)

	if (*(x_axis) & 0x00008000)
   2ef88:	e0bffe17 	ldw	r2,-8(fp)
   2ef8c:	10800017 	ldw	r2,0(r2)
   2ef90:	10a0000c 	andi	r2,r2,32768
   2ef94:	10000626 	beq	r2,zero,2efb0 <alt_up_accelerometer_spi_read_x_axis+0xc0>
	{
		*(x_axis) |= 0xFFFF0000;
   2ef98:	e0bffe17 	ldw	r2,-8(fp)
   2ef9c:	10800017 	ldw	r2,0(r2)
   2efa0:	10bffff4 	orhi	r2,r2,65535
   2efa4:	1007883a 	mov	r3,r2
   2efa8:	e0bffe17 	ldw	r2,-8(fp)
   2efac:	10c00015 	stw	r3,0(r2)
	}

	return 0;
   2efb0:	0005883a 	mov	r2,zero
}
   2efb4:	e037883a 	mov	sp,fp
   2efb8:	df000017 	ldw	fp,0(sp)
   2efbc:	dec00104 	addi	sp,sp,4
   2efc0:	f800283a 	ret

0002efc4 <alt_up_accelerometer_spi_read_y_axis>:
 * @param y_axis -- a pointer to the location where the y axis data should be stored
 *
 * @return 0 for success or -1 for failure
 **/
int alt_up_accelerometer_spi_read_y_axis(alt_up_accelerometer_spi_dev *accel_spi, alt_32 *y_axis)
{
   2efc4:	defffd04 	addi	sp,sp,-12
   2efc8:	df000215 	stw	fp,8(sp)
   2efcc:	df000204 	addi	fp,sp,8
   2efd0:	e13fff15 	stw	r4,-4(fp)
   2efd4:	e17ffe15 	stw	r5,-8(fp)
	// set the register address in the Address register
	IOWR_ALT_UP_ACCELEROMETER_SPI_ADDRESS(accel_spi->base, ACCELEROMETER_SPI_Y_AXIS_LOWER_BYTE & ALT_UP_ACCELEROMETER_SPI_ADDRESS_ADDR_MSK); 
   2efd8:	e0bfff17 	ldw	r2,-4(fp)
   2efdc:	10800a17 	ldw	r2,40(r2)
   2efe0:	1007883a 	mov	r3,r2
   2efe4:	00800d04 	movi	r2,52
   2efe8:	18800025 	stbio	r2,0(r3)

	// read data to the device Data register
	*(y_axis) = IORD_ALT_UP_ACCELEROMETER_SPI_DATA(accel_spi->base) & ALT_UP_ACCELEROMETER_SPI_DATA_DATA_MSK;
   2efec:	e0bfff17 	ldw	r2,-4(fp)
   2eff0:	10800a17 	ldw	r2,40(r2)
   2eff4:	10800044 	addi	r2,r2,1
   2eff8:	10800023 	ldbuio	r2,0(r2)
   2effc:	10803fcc 	andi	r2,r2,255
   2f000:	10ffffcc 	andi	r3,r2,65535
   2f004:	e0bffe17 	ldw	r2,-8(fp)
   2f008:	10c00015 	stw	r3,0(r2)

	// set the register address in the Address register
	IOWR_ALT_UP_ACCELEROMETER_SPI_ADDRESS(accel_spi->base, ACCELEROMETER_SPI_Y_AXIS_UPPER_BYTE & ALT_UP_ACCELEROMETER_SPI_ADDRESS_ADDR_MSK); 
   2f00c:	e0bfff17 	ldw	r2,-4(fp)
   2f010:	10800a17 	ldw	r2,40(r2)
   2f014:	1007883a 	mov	r3,r2
   2f018:	00800d44 	movi	r2,53
   2f01c:	18800025 	stbio	r2,0(r3)

	// read data to the device Data register
	*(y_axis) += (IORD_ALT_UP_ACCELEROMETER_SPI_DATA(accel_spi->base) & ALT_UP_ACCELEROMETER_SPI_DATA_DATA_MSK) << 8;
   2f020:	e0bfff17 	ldw	r2,-4(fp)
   2f024:	10800a17 	ldw	r2,40(r2)
   2f028:	10800044 	addi	r2,r2,1
   2f02c:	10800023 	ldbuio	r2,0(r2)
   2f030:	10803fcc 	andi	r2,r2,255
   2f034:	1006923a 	slli	r3,r2,8
   2f038:	00804034 	movhi	r2,256
   2f03c:	10bfc004 	addi	r2,r2,-256
   2f040:	1884703a 	and	r2,r3,r2
   2f044:	e0fffe17 	ldw	r3,-8(fp)
   2f048:	18c00017 	ldw	r3,0(r3)
   2f04c:	10c5883a 	add	r2,r2,r3
   2f050:	1007883a 	mov	r3,r2
   2f054:	e0bffe17 	ldw	r2,-8(fp)
   2f058:	10c00015 	stw	r3,0(r2)

	if (*(y_axis) & 0x00008000)
   2f05c:	e0bffe17 	ldw	r2,-8(fp)
   2f060:	10800017 	ldw	r2,0(r2)
   2f064:	10a0000c 	andi	r2,r2,32768
   2f068:	10000626 	beq	r2,zero,2f084 <alt_up_accelerometer_spi_read_y_axis+0xc0>
	{
		*(y_axis) |= 0xFFFF0000;
   2f06c:	e0bffe17 	ldw	r2,-8(fp)
   2f070:	10800017 	ldw	r2,0(r2)
   2f074:	10bffff4 	orhi	r2,r2,65535
   2f078:	1007883a 	mov	r3,r2
   2f07c:	e0bffe17 	ldw	r2,-8(fp)
   2f080:	10c00015 	stw	r3,0(r2)
	}

	return 0;
   2f084:	0005883a 	mov	r2,zero
}
   2f088:	e037883a 	mov	sp,fp
   2f08c:	df000017 	ldw	fp,0(sp)
   2f090:	dec00104 	addi	sp,sp,4
   2f094:	f800283a 	ret

0002f098 <alt_up_accelerometer_spi_read_z_axis>:
 * @param z_axis -- a pointer to the location where the z axis data should be stored
 *
 * @return 0 for success or -1 for failure
 **/
int alt_up_accelerometer_spi_read_z_axis(alt_up_accelerometer_spi_dev *accel_spi, alt_32 *z_axis)
{
   2f098:	defffd04 	addi	sp,sp,-12
   2f09c:	df000215 	stw	fp,8(sp)
   2f0a0:	df000204 	addi	fp,sp,8
   2f0a4:	e13fff15 	stw	r4,-4(fp)
   2f0a8:	e17ffe15 	stw	r5,-8(fp)
	// set the register address in the Address register
	IOWR_ALT_UP_ACCELEROMETER_SPI_ADDRESS(accel_spi->base, ACCELEROMETER_SPI_Z_AXIS_LOWER_BYTE & ALT_UP_ACCELEROMETER_SPI_ADDRESS_ADDR_MSK); 
   2f0ac:	e0bfff17 	ldw	r2,-4(fp)
   2f0b0:	10800a17 	ldw	r2,40(r2)
   2f0b4:	1007883a 	mov	r3,r2
   2f0b8:	00800d84 	movi	r2,54
   2f0bc:	18800025 	stbio	r2,0(r3)

	// read data to the device Data register
	*(z_axis) = IORD_ALT_UP_ACCELEROMETER_SPI_DATA(accel_spi->base) & ALT_UP_ACCELEROMETER_SPI_DATA_DATA_MSK;
   2f0c0:	e0bfff17 	ldw	r2,-4(fp)
   2f0c4:	10800a17 	ldw	r2,40(r2)
   2f0c8:	10800044 	addi	r2,r2,1
   2f0cc:	10800023 	ldbuio	r2,0(r2)
   2f0d0:	10803fcc 	andi	r2,r2,255
   2f0d4:	10ffffcc 	andi	r3,r2,65535
   2f0d8:	e0bffe17 	ldw	r2,-8(fp)
   2f0dc:	10c00015 	stw	r3,0(r2)

	// set the register address in the Address register
	IOWR_ALT_UP_ACCELEROMETER_SPI_ADDRESS(accel_spi->base, ACCELEROMETER_SPI_Z_AXIS_UPPER_BYTE & ALT_UP_ACCELEROMETER_SPI_ADDRESS_ADDR_MSK); 
   2f0e0:	e0bfff17 	ldw	r2,-4(fp)
   2f0e4:	10800a17 	ldw	r2,40(r2)
   2f0e8:	1007883a 	mov	r3,r2
   2f0ec:	00800dc4 	movi	r2,55
   2f0f0:	18800025 	stbio	r2,0(r3)

	// read data to the device Data register
	*(z_axis) += (IORD_ALT_UP_ACCELEROMETER_SPI_DATA(accel_spi->base) & ALT_UP_ACCELEROMETER_SPI_DATA_DATA_MSK) << 8;
   2f0f4:	e0bfff17 	ldw	r2,-4(fp)
   2f0f8:	10800a17 	ldw	r2,40(r2)
   2f0fc:	10800044 	addi	r2,r2,1
   2f100:	10800023 	ldbuio	r2,0(r2)
   2f104:	10803fcc 	andi	r2,r2,255
   2f108:	1006923a 	slli	r3,r2,8
   2f10c:	00804034 	movhi	r2,256
   2f110:	10bfc004 	addi	r2,r2,-256
   2f114:	1884703a 	and	r2,r3,r2
   2f118:	e0fffe17 	ldw	r3,-8(fp)
   2f11c:	18c00017 	ldw	r3,0(r3)
   2f120:	10c5883a 	add	r2,r2,r3
   2f124:	1007883a 	mov	r3,r2
   2f128:	e0bffe17 	ldw	r2,-8(fp)
   2f12c:	10c00015 	stw	r3,0(r2)

	if (*(z_axis) & 0x00008000)
   2f130:	e0bffe17 	ldw	r2,-8(fp)
   2f134:	10800017 	ldw	r2,0(r2)
   2f138:	10a0000c 	andi	r2,r2,32768
   2f13c:	10000626 	beq	r2,zero,2f158 <alt_up_accelerometer_spi_read_z_axis+0xc0>
	{
		*(z_axis) |= 0xFFFF0000;
   2f140:	e0bffe17 	ldw	r2,-8(fp)
   2f144:	10800017 	ldw	r2,0(r2)
   2f148:	10bffff4 	orhi	r2,r2,65535
   2f14c:	1007883a 	mov	r3,r2
   2f150:	e0bffe17 	ldw	r2,-8(fp)
   2f154:	10c00015 	stw	r3,0(r2)
	}

	return 0;
   2f158:	0005883a 	mov	r2,zero
}
   2f15c:	e037883a 	mov	sp,fp
   2f160:	df000017 	ldw	fp,0(sp)
   2f164:	dec00104 	addi	sp,sp,4
   2f168:	f800283a 	ret

0002f16c <alt_alarm_start>:
 */ 

int alt_alarm_start (alt_alarm* alarm, alt_u32 nticks,
                     alt_u32 (*callback) (void* context),
                     void* context)
{
   2f16c:	defff504 	addi	sp,sp,-44
   2f170:	df000a15 	stw	fp,40(sp)
   2f174:	df000a04 	addi	fp,sp,40
   2f178:	e13ff915 	stw	r4,-28(fp)
   2f17c:	e17ff815 	stw	r5,-32(fp)
   2f180:	e1bff715 	stw	r6,-36(fp)
   2f184:	e1fff615 	stw	r7,-40(fp)
  alt_irq_context irq_context;
  alt_u32 current_nticks = 0;
   2f188:	e03fff15 	stw	zero,-4(fp)
  return _alt_tick_rate;
   2f18c:	d0a72e17 	ldw	r2,-25416(gp)
  
  if (alt_ticks_per_second ())
   2f190:	10003e26 	beq	r2,zero,2f28c <alt_alarm_start+0x120>
  {
    if (alarm)
   2f194:	e0bff917 	ldw	r2,-28(fp)
   2f198:	10003a26 	beq	r2,zero,2f284 <alt_alarm_start+0x118>
    {
      alarm->callback = callback;
   2f19c:	e0bff917 	ldw	r2,-28(fp)
   2f1a0:	e0fff717 	ldw	r3,-36(fp)
   2f1a4:	10c00315 	stw	r3,12(r2)
      alarm->context  = context;
   2f1a8:	e0bff917 	ldw	r2,-28(fp)
   2f1ac:	e0fff617 	ldw	r3,-40(fp)
   2f1b0:	10c00515 	stw	r3,20(r2)
  NIOS2_READ_STATUS (context);
   2f1b4:	0005303a 	rdctl	r2,status
   2f1b8:	e0bffd15 	stw	r2,-12(fp)
  NIOS2_WRITE_STATUS (context & ~NIOS2_STATUS_PIE_MSK);
   2f1bc:	e0fffd17 	ldw	r3,-12(fp)
   2f1c0:	00bfff84 	movi	r2,-2
   2f1c4:	1884703a 	and	r2,r3,r2
   2f1c8:	1001703a 	wrctl	status,r2
  return context;
   2f1cc:	e0bffd17 	ldw	r2,-12(fp)
 
      irq_context = alt_irq_disable_all ();
   2f1d0:	e0bffe15 	stw	r2,-8(fp)
 * alt_nticks() returns the elapsed number of system clock ticks since reset.
 */

static ALT_INLINE alt_u32 ALT_ALWAYS_INLINE alt_nticks (void)
{
  return _alt_nticks;
   2f1d4:	d0a72f17 	ldw	r2,-25412(gp)
      
      current_nticks = alt_nticks();
   2f1d8:	e0bfff15 	stw	r2,-4(fp)
      
      alarm->time = nticks + current_nticks + 1; 
   2f1dc:	e0fff817 	ldw	r3,-32(fp)
   2f1e0:	e0bfff17 	ldw	r2,-4(fp)
   2f1e4:	1885883a 	add	r2,r3,r2
   2f1e8:	10c00044 	addi	r3,r2,1
   2f1ec:	e0bff917 	ldw	r2,-28(fp)
   2f1f0:	10c00215 	stw	r3,8(r2)
      /* 
       * If the desired alarm time causes a roll-over, set the rollover
       * flag. This will prevent the subsequent tick event from causing
       * an alarm too early.
       */
      if(alarm->time < current_nticks)
   2f1f4:	e0bff917 	ldw	r2,-28(fp)
   2f1f8:	10c00217 	ldw	r3,8(r2)
   2f1fc:	e0bfff17 	ldw	r2,-4(fp)
   2f200:	1880042e 	bgeu	r3,r2,2f214 <alt_alarm_start+0xa8>
      {
        alarm->rollover = 1;
   2f204:	e0bff917 	ldw	r2,-28(fp)
   2f208:	00c00044 	movi	r3,1
   2f20c:	10c00405 	stb	r3,16(r2)
   2f210:	00000206 	br	2f21c <alt_alarm_start+0xb0>
      }
      else
      {
        alarm->rollover = 0;
   2f214:	e0bff917 	ldw	r2,-28(fp)
   2f218:	10000405 	stb	zero,16(r2)
      }
    
      alt_llist_insert (&alt_alarm_list, &alarm->llist);
   2f21c:	e0bff917 	ldw	r2,-28(fp)
   2f220:	d0e01104 	addi	r3,gp,-32700
   2f224:	e0fffb15 	stw	r3,-20(fp)
   2f228:	e0bffa15 	stw	r2,-24(fp)
 */

static ALT_INLINE void ALT_ALWAYS_INLINE alt_llist_insert(alt_llist* list, 
                alt_llist* entry)
{
  entry->previous = list;
   2f22c:	e0bffa17 	ldw	r2,-24(fp)
   2f230:	e0fffb17 	ldw	r3,-20(fp)
   2f234:	10c00115 	stw	r3,4(r2)
  entry->next     = list->next;
   2f238:	e0bffb17 	ldw	r2,-20(fp)
   2f23c:	10c00017 	ldw	r3,0(r2)
   2f240:	e0bffa17 	ldw	r2,-24(fp)
   2f244:	10c00015 	stw	r3,0(r2)

  list->next->previous = entry;
   2f248:	e0bffb17 	ldw	r2,-20(fp)
   2f24c:	10800017 	ldw	r2,0(r2)
   2f250:	e0fffa17 	ldw	r3,-24(fp)
   2f254:	10c00115 	stw	r3,4(r2)
  list->next           = entry;
   2f258:	e0bffb17 	ldw	r2,-20(fp)
   2f25c:	e0fffa17 	ldw	r3,-24(fp)
   2f260:	10c00015 	stw	r3,0(r2)
}
   2f264:	0001883a 	nop
   2f268:	e0bffe17 	ldw	r2,-8(fp)
   2f26c:	e0bffc15 	stw	r2,-16(fp)
  NIOS2_WRITE_STATUS (context);
   2f270:	e0bffc17 	ldw	r2,-16(fp)
   2f274:	1001703a 	wrctl	status,r2
}
   2f278:	0001883a 	nop
      alt_irq_enable_all (irq_context);

      return 0;
   2f27c:	0005883a 	mov	r2,zero
   2f280:	00000306 	br	2f290 <alt_alarm_start+0x124>
    }
    else
    {
      return -EINVAL;
   2f284:	00bffa84 	movi	r2,-22
   2f288:	00000106 	br	2f290 <alt_alarm_start+0x124>
    }
  }
  else
  {
    return -ENOTSUP;
   2f28c:	00bfde84 	movi	r2,-134
  }
}
   2f290:	e037883a 	mov	sp,fp
   2f294:	df000017 	ldw	fp,0(sp)
   2f298:	dec00104 	addi	sp,sp,4
   2f29c:	f800283a 	ret

0002f2a0 <alt_dcache_flush_all>:
/*
 * alt_dcache_flush_all() is called to flush the entire data cache.
 */

void alt_dcache_flush_all (void)
{
   2f2a0:	deffff04 	addi	sp,sp,-4
   2f2a4:	df000015 	stw	fp,0(sp)
   2f2a8:	d839883a 	mov	fp,sp
  for (i = (char*) 0; i < (char*) NIOS2_DCACHE_SIZE; i+= NIOS2_DCACHE_LINE_SIZE)
  { 
    __asm__ volatile ("flushd (%0)" :: "r" (i));
  }
#endif /* NIOS2_DCACHE_SIZE > 0 */
}
   2f2ac:	0001883a 	nop
   2f2b0:	e037883a 	mov	sp,fp
   2f2b4:	df000017 	ldw	fp,0(sp)
   2f2b8:	dec00104 	addi	sp,sp,4
   2f2bc:	f800283a 	ret

0002f2c0 <alt_get_errno>:
{
   2f2c0:	defffe04 	addi	sp,sp,-8
   2f2c4:	dfc00115 	stw	ra,4(sp)
   2f2c8:	df000015 	stw	fp,0(sp)
   2f2cc:	d839883a 	mov	fp,sp
  return ((alt_errno) ? alt_errno() : &errno);
   2f2d0:	d0a00e17 	ldw	r2,-32712(gp)
   2f2d4:	10000326 	beq	r2,zero,2f2e4 <alt_get_errno+0x24>
   2f2d8:	d0a00e17 	ldw	r2,-32712(gp)
   2f2dc:	103ee83a 	callr	r2
   2f2e0:	00000106 	br	2f2e8 <alt_get_errno+0x28>
   2f2e4:	d0a72504 	addi	r2,gp,-25452
}
   2f2e8:	e037883a 	mov	sp,fp
   2f2ec:	dfc00117 	ldw	ra,4(sp)
   2f2f0:	df000017 	ldw	fp,0(sp)
   2f2f4:	dec00204 	addi	sp,sp,8
   2f2f8:	f800283a 	ret

0002f2fc <alt_dev_llist_insert>:
/*
 *
 */

int alt_dev_llist_insert (alt_dev_llist* dev, alt_llist* list)
{
   2f2fc:	defffa04 	addi	sp,sp,-24
   2f300:	dfc00515 	stw	ra,20(sp)
   2f304:	df000415 	stw	fp,16(sp)
   2f308:	df000404 	addi	fp,sp,16
   2f30c:	e13ffd15 	stw	r4,-12(fp)
   2f310:	e17ffc15 	stw	r5,-16(fp)
  /*
   * check that the device exists, and that it has a valid name.
   */

  if (!dev || !dev->name)
   2f314:	e0bffd17 	ldw	r2,-12(fp)
   2f318:	10000326 	beq	r2,zero,2f328 <alt_dev_llist_insert+0x2c>
   2f31c:	e0bffd17 	ldw	r2,-12(fp)
   2f320:	10800217 	ldw	r2,8(r2)
   2f324:	1000061e 	bne	r2,zero,2f340 <alt_dev_llist_insert+0x44>
  {
    ALT_ERRNO = EINVAL;
   2f328:	002f2c00 	call	2f2c0 <alt_get_errno>
   2f32c:	1007883a 	mov	r3,r2
   2f330:	00800584 	movi	r2,22
   2f334:	18800015 	stw	r2,0(r3)
    return -EINVAL;
   2f338:	00bffa84 	movi	r2,-22
   2f33c:	00001406 	br	2f390 <alt_dev_llist_insert+0x94>
  
  /*
   * register the device.
   */
  
  alt_llist_insert(list, &dev->llist);
   2f340:	e0bffd17 	ldw	r2,-12(fp)
   2f344:	e0fffc17 	ldw	r3,-16(fp)
   2f348:	e0ffff15 	stw	r3,-4(fp)
   2f34c:	e0bffe15 	stw	r2,-8(fp)
  entry->previous = list;
   2f350:	e0bffe17 	ldw	r2,-8(fp)
   2f354:	e0ffff17 	ldw	r3,-4(fp)
   2f358:	10c00115 	stw	r3,4(r2)
  entry->next     = list->next;
   2f35c:	e0bfff17 	ldw	r2,-4(fp)
   2f360:	10c00017 	ldw	r3,0(r2)
   2f364:	e0bffe17 	ldw	r2,-8(fp)
   2f368:	10c00015 	stw	r3,0(r2)
  list->next->previous = entry;
   2f36c:	e0bfff17 	ldw	r2,-4(fp)
   2f370:	10800017 	ldw	r2,0(r2)
   2f374:	e0fffe17 	ldw	r3,-8(fp)
   2f378:	10c00115 	stw	r3,4(r2)
  list->next           = entry;
   2f37c:	e0bfff17 	ldw	r2,-4(fp)
   2f380:	e0fffe17 	ldw	r3,-8(fp)
   2f384:	10c00015 	stw	r3,0(r2)
}
   2f388:	0001883a 	nop

  return 0;  
   2f38c:	0005883a 	mov	r2,zero
}
   2f390:	e037883a 	mov	sp,fp
   2f394:	dfc00117 	ldw	ra,4(sp)
   2f398:	df000017 	ldw	fp,0(sp)
   2f39c:	dec00204 	addi	sp,sp,8
   2f3a0:	f800283a 	ret

0002f3a4 <_do_ctors>:
/*
 * Run the C++ static constructors.
 */

void _do_ctors(void)
{
   2f3a4:	defffd04 	addi	sp,sp,-12
   2f3a8:	dfc00215 	stw	ra,8(sp)
   2f3ac:	df000115 	stw	fp,4(sp)
   2f3b0:	df000104 	addi	fp,sp,4
  constructor* ctor;

  for (ctor = &__CTOR_END__[-1]; ctor >= __CTOR_LIST__; ctor--)
   2f3b4:	008000f4 	movhi	r2,3
   2f3b8:	10bfb304 	addi	r2,r2,-308
   2f3bc:	e0bfff15 	stw	r2,-4(fp)
   2f3c0:	00000606 	br	2f3dc <_do_ctors+0x38>
        (*ctor) (); 
   2f3c4:	e0bfff17 	ldw	r2,-4(fp)
   2f3c8:	10800017 	ldw	r2,0(r2)
   2f3cc:	103ee83a 	callr	r2
  for (ctor = &__CTOR_END__[-1]; ctor >= __CTOR_LIST__; ctor--)
   2f3d0:	e0bfff17 	ldw	r2,-4(fp)
   2f3d4:	10bfff04 	addi	r2,r2,-4
   2f3d8:	e0bfff15 	stw	r2,-4(fp)
   2f3dc:	e0ffff17 	ldw	r3,-4(fp)
   2f3e0:	008000f4 	movhi	r2,3
   2f3e4:	10bfb404 	addi	r2,r2,-304
   2f3e8:	18bff62e 	bgeu	r3,r2,2f3c4 <_do_ctors+0x20>
}
   2f3ec:	0001883a 	nop
   2f3f0:	0001883a 	nop
   2f3f4:	e037883a 	mov	sp,fp
   2f3f8:	dfc00117 	ldw	ra,4(sp)
   2f3fc:	df000017 	ldw	fp,0(sp)
   2f400:	dec00204 	addi	sp,sp,8
   2f404:	f800283a 	ret

0002f408 <_do_dtors>:
/*
 * Run the C++ static destructors.
 */

void _do_dtors(void)
{
   2f408:	defffd04 	addi	sp,sp,-12
   2f40c:	dfc00215 	stw	ra,8(sp)
   2f410:	df000115 	stw	fp,4(sp)
   2f414:	df000104 	addi	fp,sp,4
  destructor* dtor;

  for (dtor = &__DTOR_END__[-1]; dtor >= __DTOR_LIST__; dtor--)
   2f418:	008000f4 	movhi	r2,3
   2f41c:	10bfb304 	addi	r2,r2,-308
   2f420:	e0bfff15 	stw	r2,-4(fp)
   2f424:	00000606 	br	2f440 <_do_dtors+0x38>
        (*dtor) (); 
   2f428:	e0bfff17 	ldw	r2,-4(fp)
   2f42c:	10800017 	ldw	r2,0(r2)
   2f430:	103ee83a 	callr	r2
  for (dtor = &__DTOR_END__[-1]; dtor >= __DTOR_LIST__; dtor--)
   2f434:	e0bfff17 	ldw	r2,-4(fp)
   2f438:	10bfff04 	addi	r2,r2,-4
   2f43c:	e0bfff15 	stw	r2,-4(fp)
   2f440:	e0ffff17 	ldw	r3,-4(fp)
   2f444:	008000f4 	movhi	r2,3
   2f448:	10bfb404 	addi	r2,r2,-304
   2f44c:	18bff62e 	bgeu	r3,r2,2f428 <_do_dtors+0x20>
}
   2f450:	0001883a 	nop
   2f454:	0001883a 	nop
   2f458:	e037883a 	mov	sp,fp
   2f45c:	dfc00117 	ldw	ra,4(sp)
   2f460:	df000017 	ldw	fp,0(sp)
   2f464:	dec00204 	addi	sp,sp,8
   2f468:	f800283a 	ret

0002f46c <alt_find_dev>:
 * "name" must be an exact match for the devices registered name for a match to
 * be found.
 */
 
alt_dev* alt_find_dev(const char* name, alt_llist* llist)
{
   2f46c:	defffa04 	addi	sp,sp,-24
   2f470:	dfc00515 	stw	ra,20(sp)
   2f474:	df000415 	stw	fp,16(sp)
   2f478:	df000404 	addi	fp,sp,16
   2f47c:	e13ffd15 	stw	r4,-12(fp)
   2f480:	e17ffc15 	stw	r5,-16(fp)
  alt_dev* next = (alt_dev*) llist->next;
   2f484:	e0bffc17 	ldw	r2,-16(fp)
   2f488:	10800017 	ldw	r2,0(r2)
   2f48c:	e0bfff15 	stw	r2,-4(fp)
  alt_32 len;

  len  = strlen(name) + 1;
   2f490:	e13ffd17 	ldw	r4,-12(fp)
   2f494:	00266ec0 	call	266ec <strlen>
   2f498:	10800044 	addi	r2,r2,1
   2f49c:	e0bffe15 	stw	r2,-8(fp)
  /*
   * Check each list entry in turn, until a match is found, or we reach the
   * end of the list (i.e. next winds up pointing back to the list head).
   */ 

  while (next != (alt_dev*) llist)
   2f4a0:	00000d06 	br	2f4d8 <alt_find_dev+0x6c>
    /* 
     * memcmp() is used here rather than strcmp() in order to reduce the size
     * of the executable.
     */

    if (!memcmp (next->name, name, len))
   2f4a4:	e0bfff17 	ldw	r2,-4(fp)
   2f4a8:	10800217 	ldw	r2,8(r2)
   2f4ac:	e0fffe17 	ldw	r3,-8(fp)
   2f4b0:	180d883a 	mov	r6,r3
   2f4b4:	e17ffd17 	ldw	r5,-12(fp)
   2f4b8:	1009883a 	mov	r4,r2
   2f4bc:	002fadc0 	call	2fadc <memcmp>
   2f4c0:	1000021e 	bne	r2,zero,2f4cc <alt_find_dev+0x60>
    {
      /* match found */

      return next;
   2f4c4:	e0bfff17 	ldw	r2,-4(fp)
   2f4c8:	00000706 	br	2f4e8 <alt_find_dev+0x7c>
    }
    next = (alt_dev*) next->llist.next;
   2f4cc:	e0bfff17 	ldw	r2,-4(fp)
   2f4d0:	10800017 	ldw	r2,0(r2)
   2f4d4:	e0bfff15 	stw	r2,-4(fp)
  while (next != (alt_dev*) llist)
   2f4d8:	e0ffff17 	ldw	r3,-4(fp)
   2f4dc:	e0bffc17 	ldw	r2,-16(fp)
   2f4e0:	18bff01e 	bne	r3,r2,2f4a4 <alt_find_dev+0x38>
  }
  
  /* No match found */
  
  return NULL;
   2f4e4:	0005883a 	mov	r2,zero
}
   2f4e8:	e037883a 	mov	sp,fp
   2f4ec:	dfc00117 	ldw	ra,4(sp)
   2f4f0:	df000017 	ldw	fp,0(sp)
   2f4f4:	dec00204 	addi	sp,sp,8
   2f4f8:	f800283a 	ret

0002f4fc <alt_find_file>:
 * either '/' or '\0' is the prefix of the filename. For example the filename:
 * "/myfilesystem/junk.txt" would match: "/myfilesystem", but not: "/myfile". 
 */
 
alt_dev* alt_find_file (const char* name)
{
   2f4fc:	defffb04 	addi	sp,sp,-20
   2f500:	dfc00415 	stw	ra,16(sp)
   2f504:	df000315 	stw	fp,12(sp)
   2f508:	df000304 	addi	fp,sp,12
   2f50c:	e13ffd15 	stw	r4,-12(fp)
  alt_dev* next = (alt_dev*) alt_fs_list.next;   
   2f510:	d0a00917 	ldw	r2,-32732(gp)
   2f514:	e0bfff15 	stw	r2,-4(fp)
  /*
   * Check each list entry in turn, until a match is found, or we reach the
   * end of the list (i.e. next winds up pointing back to the list head).
   */ 
 
  while (next != (alt_dev*) &alt_fs_list)
   2f518:	00003106 	br	2f5e0 <alt_find_file+0xe4>
  {
    len = strlen(next->name);
   2f51c:	e0bfff17 	ldw	r2,-4(fp)
   2f520:	10800217 	ldw	r2,8(r2)
   2f524:	1009883a 	mov	r4,r2
   2f528:	00266ec0 	call	266ec <strlen>
   2f52c:	e0bffe15 	stw	r2,-8(fp)
    
    if (next->name[len-1] == '/')
   2f530:	e0bfff17 	ldw	r2,-4(fp)
   2f534:	10c00217 	ldw	r3,8(r2)
   2f538:	e0bffe17 	ldw	r2,-8(fp)
   2f53c:	10bfffc4 	addi	r2,r2,-1
   2f540:	1885883a 	add	r2,r3,r2
   2f544:	10800003 	ldbu	r2,0(r2)
   2f548:	10803fcc 	andi	r2,r2,255
   2f54c:	1080201c 	xori	r2,r2,128
   2f550:	10bfe004 	addi	r2,r2,-128
   2f554:	10800bd8 	cmpnei	r2,r2,47
   2f558:	1000031e 	bne	r2,zero,2f568 <alt_find_file+0x6c>
    {
      len -= 1;
   2f55c:	e0bffe17 	ldw	r2,-8(fp)
   2f560:	10bfffc4 	addi	r2,r2,-1
   2f564:	e0bffe15 	stw	r2,-8(fp)
    }

    if (((name[len] == '/') || (name[len] == '\0')) && 
   2f568:	e0bffe17 	ldw	r2,-8(fp)
   2f56c:	e0fffd17 	ldw	r3,-12(fp)
   2f570:	1885883a 	add	r2,r3,r2
   2f574:	10800003 	ldbu	r2,0(r2)
   2f578:	10803fcc 	andi	r2,r2,255
   2f57c:	1080201c 	xori	r2,r2,128
   2f580:	10bfe004 	addi	r2,r2,-128
   2f584:	10800be0 	cmpeqi	r2,r2,47
   2f588:	1000081e 	bne	r2,zero,2f5ac <alt_find_file+0xb0>
   2f58c:	e0bffe17 	ldw	r2,-8(fp)
   2f590:	e0fffd17 	ldw	r3,-12(fp)
   2f594:	1885883a 	add	r2,r3,r2
   2f598:	10800003 	ldbu	r2,0(r2)
   2f59c:	10803fcc 	andi	r2,r2,255
   2f5a0:	1080201c 	xori	r2,r2,128
   2f5a4:	10bfe004 	addi	r2,r2,-128
   2f5a8:	10000a1e 	bne	r2,zero,2f5d4 <alt_find_file+0xd8>
        !memcmp (next->name, name, len))
   2f5ac:	e0bfff17 	ldw	r2,-4(fp)
   2f5b0:	10800217 	ldw	r2,8(r2)
   2f5b4:	e0fffe17 	ldw	r3,-8(fp)
   2f5b8:	180d883a 	mov	r6,r3
   2f5bc:	e17ffd17 	ldw	r5,-12(fp)
   2f5c0:	1009883a 	mov	r4,r2
   2f5c4:	002fadc0 	call	2fadc <memcmp>
    if (((name[len] == '/') || (name[len] == '\0')) && 
   2f5c8:	1000021e 	bne	r2,zero,2f5d4 <alt_find_file+0xd8>
    {
      /* match found */

      return next;
   2f5cc:	e0bfff17 	ldw	r2,-4(fp)
   2f5d0:	00000706 	br	2f5f0 <alt_find_file+0xf4>
    }
    next = (alt_dev*) next->llist.next;
   2f5d4:	e0bfff17 	ldw	r2,-4(fp)
   2f5d8:	10800017 	ldw	r2,0(r2)
   2f5dc:	e0bfff15 	stw	r2,-4(fp)
  while (next != (alt_dev*) &alt_fs_list)
   2f5e0:	e0ffff17 	ldw	r3,-4(fp)
   2f5e4:	d0a00904 	addi	r2,gp,-32732
   2f5e8:	18bfcc1e 	bne	r3,r2,2f51c <alt_find_file+0x20>
  }
  
  /* No match found */
  
  return NULL;     
   2f5ec:	0005883a 	mov	r2,zero
}
   2f5f0:	e037883a 	mov	sp,fp
   2f5f4:	dfc00117 	ldw	ra,4(sp)
   2f5f8:	df000017 	ldw	fp,0(sp)
   2f5fc:	dec00204 	addi	sp,sp,8
   2f600:	f800283a 	ret

0002f604 <alt_get_fd>:
 * the offset of the file descriptor within the file descriptor array). A
 * negative value indicates failure.
 */

int alt_get_fd (alt_dev* dev)
{
   2f604:	defffc04 	addi	sp,sp,-16
   2f608:	df000315 	stw	fp,12(sp)
   2f60c:	df000304 	addi	fp,sp,12
   2f610:	e13ffd15 	stw	r4,-12(fp)
  alt_32 i;
  int rc = -EMFILE;
   2f614:	00bffa04 	movi	r2,-24
   2f618:	e0bffe15 	stw	r2,-8(fp)
   * indicates the highest file descriptor ever allocated. This is used to
   * improve efficency when searching the file descriptor list, and 
   * therefore reduce contention on the alt_fd_list_lock semaphore. 
   */

  for (i = 0; i < ALT_MAX_FD; i++)
   2f61c:	e03fff15 	stw	zero,-4(fp)
   2f620:	00001d06 	br	2f698 <alt_get_fd+0x94>
  {
    if (!alt_fd_list[i].dev)
   2f624:	e0ffff17 	ldw	r3,-4(fp)
   2f628:	1805883a 	mov	r2,r3
   2f62c:	1085883a 	add	r2,r2,r2
   2f630:	10c5883a 	add	r2,r2,r3
   2f634:	100490ba 	slli	r2,r2,2
   2f638:	00c000f4 	movhi	r3,3
   2f63c:	10c7883a 	add	r3,r2,r3
   2f640:	18841e17 	ldw	r2,4216(r3)
   2f644:	1000111e 	bne	r2,zero,2f68c <alt_get_fd+0x88>
    {
      alt_fd_list[i].dev = dev;
   2f648:	e0ffff17 	ldw	r3,-4(fp)
   2f64c:	1805883a 	mov	r2,r3
   2f650:	1085883a 	add	r2,r2,r2
   2f654:	10c5883a 	add	r2,r2,r3
   2f658:	100490ba 	slli	r2,r2,2
   2f65c:	e13ffd17 	ldw	r4,-12(fp)
   2f660:	00c000f4 	movhi	r3,3
   2f664:	10c7883a 	add	r3,r2,r3
   2f668:	19041e15 	stw	r4,4216(r3)
      if (i > alt_max_fd)
   2f66c:	d0e00d17 	ldw	r3,-32716(gp)
   2f670:	e0bfff17 	ldw	r2,-4(fp)
   2f674:	1880020e 	bge	r3,r2,2f680 <alt_get_fd+0x7c>
      {
        alt_max_fd = i;
   2f678:	e0bfff17 	ldw	r2,-4(fp)
   2f67c:	d0a00d15 	stw	r2,-32716(gp)
      }
      rc = i;
   2f680:	e0bfff17 	ldw	r2,-4(fp)
   2f684:	e0bffe15 	stw	r2,-8(fp)
      goto alt_get_fd_exit;
   2f688:	00000706 	br	2f6a8 <alt_get_fd+0xa4>
  for (i = 0; i < ALT_MAX_FD; i++)
   2f68c:	e0bfff17 	ldw	r2,-4(fp)
   2f690:	10800044 	addi	r2,r2,1
   2f694:	e0bfff15 	stw	r2,-4(fp)
   2f698:	e0bfff17 	ldw	r2,-4(fp)
   2f69c:	10800810 	cmplti	r2,r2,32
   2f6a0:	103fe01e 	bne	r2,zero,2f624 <alt_get_fd+0x20>
    }
  }

 alt_get_fd_exit:
   2f6a4:	0001883a 	nop
   * file descriptor pool.
   */

  ALT_SEM_POST(alt_fd_list_lock);

  return rc;
   2f6a8:	e0bffe17 	ldw	r2,-8(fp)
}
   2f6ac:	e037883a 	mov	sp,fp
   2f6b0:	df000017 	ldw	fp,0(sp)
   2f6b4:	dec00104 	addi	sp,sp,4
   2f6b8:	f800283a 	ret

0002f6bc <alt_icache_flush_all>:
/*
 * alt_icache_flush_all() is called to flush the entire instruction cache.
 */

void alt_icache_flush_all (void)
{
   2f6bc:	deffff04 	addi	sp,sp,-4
   2f6c0:	df000015 	stw	fp,0(sp)
   2f6c4:	d839883a 	mov	fp,sp
#if NIOS2_ICACHE_SIZE > 0
  alt_icache_flush (0, NIOS2_ICACHE_SIZE);
#endif
}
   2f6c8:	0001883a 	nop
   2f6cc:	e037883a 	mov	sp,fp
   2f6d0:	df000017 	ldw	fp,0(sp)
   2f6d4:	dec00104 	addi	sp,sp,4
   2f6d8:	f800283a 	ret

0002f6dc <alt_open_fd>:
 * If the device can not be succesfully opened, then the input file descriptor
 * remains unchanged.
 */

static void alt_open_fd(alt_fd* fd, const char* name, int flags, int mode)
{
   2f6dc:	defff904 	addi	sp,sp,-28
   2f6e0:	dfc00615 	stw	ra,24(sp)
   2f6e4:	df000515 	stw	fp,20(sp)
   2f6e8:	df000504 	addi	fp,sp,20
   2f6ec:	e13ffe15 	stw	r4,-8(fp)
   2f6f0:	e17ffd15 	stw	r5,-12(fp)
   2f6f4:	e1bffc15 	stw	r6,-16(fp)
   2f6f8:	e1fffb15 	stw	r7,-20(fp)
  int old;

  old = open (name, flags, mode);
   2f6fc:	e1bffb17 	ldw	r6,-20(fp)
   2f700:	e17ffc17 	ldw	r5,-16(fp)
   2f704:	e13ffd17 	ldw	r4,-12(fp)
   2f708:	002d9f00 	call	2d9f0 <open>
   2f70c:	e0bfff15 	stw	r2,-4(fp)

  if (old >= 0)
   2f710:	e0bfff17 	ldw	r2,-4(fp)
   2f714:	10002016 	blt	r2,zero,2f798 <alt_open_fd+0xbc>
  {
    fd->dev      = alt_fd_list[old].dev;
   2f718:	e0ffff17 	ldw	r3,-4(fp)
   2f71c:	1805883a 	mov	r2,r3
   2f720:	1085883a 	add	r2,r2,r2
   2f724:	10c5883a 	add	r2,r2,r3
   2f728:	100490ba 	slli	r2,r2,2
   2f72c:	00c000f4 	movhi	r3,3
   2f730:	10c7883a 	add	r3,r2,r3
   2f734:	18c41e17 	ldw	r3,4216(r3)
   2f738:	e0bffe17 	ldw	r2,-8(fp)
   2f73c:	10c00015 	stw	r3,0(r2)
    fd->priv     = alt_fd_list[old].priv;
   2f740:	e0ffff17 	ldw	r3,-4(fp)
   2f744:	1805883a 	mov	r2,r3
   2f748:	1085883a 	add	r2,r2,r2
   2f74c:	10c5883a 	add	r2,r2,r3
   2f750:	100490ba 	slli	r2,r2,2
   2f754:	00c000f4 	movhi	r3,3
   2f758:	10c7883a 	add	r3,r2,r3
   2f75c:	18c41f17 	ldw	r3,4220(r3)
   2f760:	e0bffe17 	ldw	r2,-8(fp)
   2f764:	10c00115 	stw	r3,4(r2)
    fd->fd_flags = alt_fd_list[old].fd_flags;
   2f768:	e0ffff17 	ldw	r3,-4(fp)
   2f76c:	1805883a 	mov	r2,r3
   2f770:	1085883a 	add	r2,r2,r2
   2f774:	10c5883a 	add	r2,r2,r3
   2f778:	100490ba 	slli	r2,r2,2
   2f77c:	00c000f4 	movhi	r3,3
   2f780:	10c7883a 	add	r3,r2,r3
   2f784:	18c42017 	ldw	r3,4224(r3)
   2f788:	e0bffe17 	ldw	r2,-8(fp)
   2f78c:	10c00215 	stw	r3,8(r2)

    alt_release_fd (old);
   2f790:	e13fff17 	ldw	r4,-4(fp)
   2f794:	002def00 	call	2def0 <alt_release_fd>
  }
} 
   2f798:	0001883a 	nop
   2f79c:	e037883a 	mov	sp,fp
   2f7a0:	dfc00117 	ldw	ra,4(sp)
   2f7a4:	df000017 	ldw	fp,0(sp)
   2f7a8:	dec00204 	addi	sp,sp,8
   2f7ac:	f800283a 	ret

0002f7b0 <alt_io_redirect>:
 */
 
void alt_io_redirect(const char* stdout_dev, 
                     const char* stdin_dev, 
                     const char* stderr_dev)
{
   2f7b0:	defffb04 	addi	sp,sp,-20
   2f7b4:	dfc00415 	stw	ra,16(sp)
   2f7b8:	df000315 	stw	fp,12(sp)
   2f7bc:	df000304 	addi	fp,sp,12
   2f7c0:	e13fff15 	stw	r4,-4(fp)
   2f7c4:	e17ffe15 	stw	r5,-8(fp)
   2f7c8:	e1bffd15 	stw	r6,-12(fp)
  /* Redirect the channels */

  alt_open_fd (&alt_fd_list[STDOUT_FILENO], stdout_dev, O_WRONLY, 0777);
   2f7cc:	01c07fc4 	movi	r7,511
   2f7d0:	01800044 	movi	r6,1
   2f7d4:	e17fff17 	ldw	r5,-4(fp)
   2f7d8:	010000f4 	movhi	r4,3
   2f7dc:	21042104 	addi	r4,r4,4228
   2f7e0:	002f6dc0 	call	2f6dc <alt_open_fd>
  alt_open_fd (&alt_fd_list[STDIN_FILENO], stdin_dev, O_RDONLY, 0777);
   2f7e4:	01c07fc4 	movi	r7,511
   2f7e8:	000d883a 	mov	r6,zero
   2f7ec:	e17ffe17 	ldw	r5,-8(fp)
   2f7f0:	010000f4 	movhi	r4,3
   2f7f4:	21041e04 	addi	r4,r4,4216
   2f7f8:	002f6dc0 	call	2f6dc <alt_open_fd>
  alt_open_fd (&alt_fd_list[STDERR_FILENO], stderr_dev, O_WRONLY, 0777);
   2f7fc:	01c07fc4 	movi	r7,511
   2f800:	01800044 	movi	r6,1
   2f804:	e17ffd17 	ldw	r5,-12(fp)
   2f808:	010000f4 	movhi	r4,3
   2f80c:	21042404 	addi	r4,r4,4240
   2f810:	002f6dc0 	call	2f6dc <alt_open_fd>
}  
   2f814:	0001883a 	nop
   2f818:	e037883a 	mov	sp,fp
   2f81c:	dfc00117 	ldw	ra,4(sp)
   2f820:	df000017 	ldw	fp,0(sp)
   2f824:	dec00204 	addi	sp,sp,8
   2f828:	f800283a 	ret

0002f82c <alt_alarm_stop>:
 * alarms. Alternatively an alarm can unregister itself by returning zero when 
 * the alarm executes.
 */

void alt_alarm_stop (alt_alarm* alarm)
{
   2f82c:	defffa04 	addi	sp,sp,-24
   2f830:	df000515 	stw	fp,20(sp)
   2f834:	df000504 	addi	fp,sp,20
   2f838:	e13ffb15 	stw	r4,-20(fp)
  NIOS2_READ_STATUS (context);
   2f83c:	0005303a 	rdctl	r2,status
   2f840:	e0bffc15 	stw	r2,-16(fp)
  NIOS2_WRITE_STATUS (context & ~NIOS2_STATUS_PIE_MSK);
   2f844:	e0fffc17 	ldw	r3,-16(fp)
   2f848:	00bfff84 	movi	r2,-2
   2f84c:	1884703a 	and	r2,r3,r2
   2f850:	1001703a 	wrctl	status,r2
  return context;
   2f854:	e0bffc17 	ldw	r2,-16(fp)
  alt_irq_context irq_context;

  irq_context = alt_irq_disable_all();
   2f858:	e0bfff15 	stw	r2,-4(fp)
  alt_llist_remove (&alarm->llist);
   2f85c:	e0bffb17 	ldw	r2,-20(fp)
   2f860:	e0bffd15 	stw	r2,-12(fp)
 * input argument is the element to remove.
 */
     
static ALT_INLINE void ALT_ALWAYS_INLINE alt_llist_remove(alt_llist* entry)
{
  entry->next->previous = entry->previous;
   2f864:	e0bffd17 	ldw	r2,-12(fp)
   2f868:	10800017 	ldw	r2,0(r2)
   2f86c:	e0fffd17 	ldw	r3,-12(fp)
   2f870:	18c00117 	ldw	r3,4(r3)
   2f874:	10c00115 	stw	r3,4(r2)
  entry->previous->next = entry->next;
   2f878:	e0bffd17 	ldw	r2,-12(fp)
   2f87c:	10800117 	ldw	r2,4(r2)
   2f880:	e0fffd17 	ldw	r3,-12(fp)
   2f884:	18c00017 	ldw	r3,0(r3)
   2f888:	10c00015 	stw	r3,0(r2)
  /* 
   * Set the entry to point to itself, so that any further calls to
   * alt_llist_remove() are harmless.
   */

  entry->previous = entry;
   2f88c:	e0bffd17 	ldw	r2,-12(fp)
   2f890:	e0fffd17 	ldw	r3,-12(fp)
   2f894:	10c00115 	stw	r3,4(r2)
  entry->next     = entry;
   2f898:	e0bffd17 	ldw	r2,-12(fp)
   2f89c:	e0fffd17 	ldw	r3,-12(fp)
   2f8a0:	10c00015 	stw	r3,0(r2)
} 
   2f8a4:	0001883a 	nop
   2f8a8:	e0bfff17 	ldw	r2,-4(fp)
   2f8ac:	e0bffe15 	stw	r2,-8(fp)
  NIOS2_WRITE_STATUS (context);
   2f8b0:	e0bffe17 	ldw	r2,-8(fp)
   2f8b4:	1001703a 	wrctl	status,r2
}
   2f8b8:	0001883a 	nop
  alt_irq_enable_all (irq_context);
}
   2f8bc:	0001883a 	nop
   2f8c0:	e037883a 	mov	sp,fp
   2f8c4:	df000017 	ldw	fp,0(sp)
   2f8c8:	dec00104 	addi	sp,sp,4
   2f8cc:	f800283a 	ret

0002f8d0 <alt_tick>:
 * 
 * alt_tick() is expected to run at interrupt level.
 */

void alt_tick (void)
{
   2f8d0:	defffb04 	addi	sp,sp,-20
   2f8d4:	dfc00415 	stw	ra,16(sp)
   2f8d8:	df000315 	stw	fp,12(sp)
   2f8dc:	df000304 	addi	fp,sp,12
  alt_alarm* next;
  alt_alarm* alarm = (alt_alarm*) alt_alarm_list.next;
   2f8e0:	d0a01117 	ldw	r2,-32700(gp)
   2f8e4:	e0bfff15 	stw	r2,-4(fp)

  alt_u32    next_callback;

  /* update the tick counter */

  _alt_nticks++;
   2f8e8:	d0a72f17 	ldw	r2,-25412(gp)
   2f8ec:	10800044 	addi	r2,r2,1
   2f8f0:	d0a72f15 	stw	r2,-25412(gp)

  /* process the registered callbacks */

  while (alarm != (alt_alarm*) &alt_alarm_list)
   2f8f4:	00002e06 	br	2f9b0 <alt_tick+0xe0>
  {
    next = (alt_alarm*) alarm->llist.next;
   2f8f8:	e0bfff17 	ldw	r2,-4(fp)
   2f8fc:	10800017 	ldw	r2,0(r2)
   2f900:	e0bffe15 	stw	r2,-8(fp)
    /* 
     * Upon the tick-counter rolling over it is safe to clear the 
     * roll-over flag; once the flag is cleared this (or subsequnt)
     * tick events are enabled to generate an alarm event. 
     */
    if ((alarm->rollover) && (_alt_nticks == 0))
   2f904:	e0bfff17 	ldw	r2,-4(fp)
   2f908:	10800403 	ldbu	r2,16(r2)
   2f90c:	10803fcc 	andi	r2,r2,255
   2f910:	10000426 	beq	r2,zero,2f924 <alt_tick+0x54>
   2f914:	d0a72f17 	ldw	r2,-25412(gp)
   2f918:	1000021e 	bne	r2,zero,2f924 <alt_tick+0x54>
    {
      alarm->rollover = 0;
   2f91c:	e0bfff17 	ldw	r2,-4(fp)
   2f920:	10000405 	stb	zero,16(r2)
    }
    
    /* if the alarm period has expired, make the callback */    
    if ((alarm->time <= _alt_nticks) && (alarm->rollover == 0))
   2f924:	e0bfff17 	ldw	r2,-4(fp)
   2f928:	10800217 	ldw	r2,8(r2)
   2f92c:	d0e72f17 	ldw	r3,-25412(gp)
   2f930:	18801d36 	bltu	r3,r2,2f9a8 <alt_tick+0xd8>
   2f934:	e0bfff17 	ldw	r2,-4(fp)
   2f938:	10800403 	ldbu	r2,16(r2)
   2f93c:	10803fcc 	andi	r2,r2,255
   2f940:	1000191e 	bne	r2,zero,2f9a8 <alt_tick+0xd8>
    {
      next_callback = alarm->callback (alarm->context);
   2f944:	e0bfff17 	ldw	r2,-4(fp)
   2f948:	10800317 	ldw	r2,12(r2)
   2f94c:	e0ffff17 	ldw	r3,-4(fp)
   2f950:	18c00517 	ldw	r3,20(r3)
   2f954:	1809883a 	mov	r4,r3
   2f958:	103ee83a 	callr	r2
   2f95c:	e0bffd15 	stw	r2,-12(fp)

      /* deactivate the alarm if the return value is zero */

      if (next_callback == 0)
   2f960:	e0bffd17 	ldw	r2,-12(fp)
   2f964:	1000031e 	bne	r2,zero,2f974 <alt_tick+0xa4>
      {
        alt_alarm_stop (alarm);
   2f968:	e13fff17 	ldw	r4,-4(fp)
   2f96c:	002f82c0 	call	2f82c <alt_alarm_stop>
   2f970:	00000d06 	br	2f9a8 <alt_tick+0xd8>
      }
      else
      {
        alarm->time += next_callback;
   2f974:	e0bfff17 	ldw	r2,-4(fp)
   2f978:	10c00217 	ldw	r3,8(r2)
   2f97c:	e0bffd17 	ldw	r2,-12(fp)
   2f980:	1887883a 	add	r3,r3,r2
   2f984:	e0bfff17 	ldw	r2,-4(fp)
   2f988:	10c00215 	stw	r3,8(r2)
        /* 
         * If the desired alarm time causes a roll-over, set the rollover
         * flag. This will prevent the subsequent tick event from causing
         * an alarm too early.
         */
        if(alarm->time < _alt_nticks)
   2f98c:	e0bfff17 	ldw	r2,-4(fp)
   2f990:	10c00217 	ldw	r3,8(r2)
   2f994:	d0a72f17 	ldw	r2,-25412(gp)
   2f998:	1880032e 	bgeu	r3,r2,2f9a8 <alt_tick+0xd8>
        {
          alarm->rollover = 1;
   2f99c:	e0bfff17 	ldw	r2,-4(fp)
   2f9a0:	00c00044 	movi	r3,1
   2f9a4:	10c00405 	stb	r3,16(r2)
        }
      }
    }
    alarm = next;
   2f9a8:	e0bffe17 	ldw	r2,-8(fp)
   2f9ac:	e0bfff15 	stw	r2,-4(fp)
  while (alarm != (alt_alarm*) &alt_alarm_list)
   2f9b0:	e0ffff17 	ldw	r3,-4(fp)
   2f9b4:	d0a01104 	addi	r2,gp,-32700
   2f9b8:	18bfcf1e 	bne	r3,r2,2f8f8 <alt_tick+0x28>

  /* 
   * Update the operating system specific timer facilities.
   */

  ALT_OS_TIME_TICK();
   2f9bc:	0001883a 	nop
}
   2f9c0:	0001883a 	nop
   2f9c4:	e037883a 	mov	sp,fp
   2f9c8:	dfc00117 	ldw	ra,4(sp)
   2f9cc:	df000017 	ldw	fp,0(sp)
   2f9d0:	dec00204 	addi	sp,sp,8
   2f9d4:	f800283a 	ret

0002f9d8 <altera_nios2_gen2_irq_init>:
/*
 * To initialize the internal interrupt controller, just clear the IENABLE
 * register so that all possible IRQs are disabled.
 */
void altera_nios2_gen2_irq_init(void) 
{
   2f9d8:	deffff04 	addi	sp,sp,-4
   2f9dc:	df000015 	stw	fp,0(sp)
   2f9e0:	d839883a 	mov	fp,sp
    NIOS2_WRITE_IENABLE(0);
   2f9e4:	000170fa 	wrctl	ienable,zero
}
   2f9e8:	0001883a 	nop
   2f9ec:	e037883a 	mov	sp,fp
   2f9f0:	df000017 	ldw	fp,0(sp)
   2f9f4:	dec00104 	addi	sp,sp,4
   2f9f8:	f800283a 	ret

0002f9fc <alt_exception_cause_generated_bad_addr>:
 * Return: 1: BADADDR (bad_addr argument to handler) is valid
 *         0: BADADDR is not valid
 */
int 
alt_exception_cause_generated_bad_addr(alt_exception_cause cause)
{
   2f9fc:	defffe04 	addi	sp,sp,-8
   2fa00:	df000115 	stw	fp,4(sp)
   2fa04:	df000104 	addi	fp,sp,4
   2fa08:	e13fff15 	stw	r4,-4(fp)
   2fa0c:	e0bfff17 	ldw	r2,-4(fp)
   2fa10:	10bffe84 	addi	r2,r2,-6
   2fa14:	10c00428 	cmpgeui	r3,r2,16
   2fa18:	1800191e 	bne	r3,zero,2fa80 <alt_exception_cause_generated_bad_addr+0x84>
   2fa1c:	100690ba 	slli	r3,r2,2
   2fa20:	008000f4 	movhi	r2,3
   2fa24:	1885883a 	add	r2,r3,r2
   2fa28:	10be8c17 	ldw	r2,-1488(r2)
   2fa2c:	1000683a 	jmp	r2
   2fa30:	0002fa70 	cmpltui	zero,zero,3049
   2fa34:	0002fa70 	cmpltui	zero,zero,3049
   2fa38:	0002fa80 	call	2fa8 <__alt_mem_onchip_memory-0x1d058>
   2fa3c:	0002fa80 	call	2fa8 <__alt_mem_onchip_memory-0x1d058>
   2fa40:	0002fa80 	call	2fa8 <__alt_mem_onchip_memory-0x1d058>
   2fa44:	0002fa70 	cmpltui	zero,zero,3049
   2fa48:	0002fa78 	rdprs	zero,zero,3049
   2fa4c:	0002fa80 	call	2fa8 <__alt_mem_onchip_memory-0x1d058>
   2fa50:	0002fa70 	cmpltui	zero,zero,3049
   2fa54:	0002fa70 	cmpltui	zero,zero,3049
   2fa58:	0002fa80 	call	2fa8 <__alt_mem_onchip_memory-0x1d058>
   2fa5c:	0002fa70 	cmpltui	zero,zero,3049
   2fa60:	0002fa78 	rdprs	zero,zero,3049
   2fa64:	0002fa80 	call	2fa8 <__alt_mem_onchip_memory-0x1d058>
   2fa68:	0002fa80 	call	2fa8 <__alt_mem_onchip_memory-0x1d058>
   2fa6c:	0002fa70 	cmpltui	zero,zero,3049
  case NIOS2_EXCEPTION_MISALIGNED_TARGET_PC:
  case NIOS2_EXCEPTION_TLB_READ_PERM_VIOLATION:
  case NIOS2_EXCEPTION_TLB_WRITE_PERM_VIOLATION:
  case NIOS2_EXCEPTION_MPU_DATA_REGION_VIOLATION:
  case NIOS2_EXCEPTION_ECC_DATA_ERR:
    return 1;
   2fa70:	00800044 	movi	r2,1
   2fa74:	00000306 	br	2fa84 <alt_exception_cause_generated_bad_addr+0x88>

  case NIOS2_EXCEPTION_TLB_MISS:
  case NIOS2_EXCEPTION_ECC_TLB_ERR:
    return 0;
   2fa78:	0005883a 	mov	r2,zero
   2fa7c:	00000106 	br	2fa84 <alt_exception_cause_generated_bad_addr+0x88>

  default:
    return 0;
   2fa80:	0005883a 	mov	r2,zero
  }
}
   2fa84:	e037883a 	mov	sp,fp
   2fa88:	df000017 	ldw	fp,0(sp)
   2fa8c:	dec00104 	addi	sp,sp,4
   2fa90:	f800283a 	ret

0002fa94 <atexit>:
   2fa94:	200b883a 	mov	r5,r4
   2fa98:	000f883a 	mov	r7,zero
   2fa9c:	000d883a 	mov	r6,zero
   2faa0:	0009883a 	mov	r4,zero
   2faa4:	002fb741 	jmpi	2fb74 <__register_exitproc>

0002faa8 <exit>:
   2faa8:	defffe04 	addi	sp,sp,-8
   2faac:	000b883a 	mov	r5,zero
   2fab0:	dc000015 	stw	r16,0(sp)
   2fab4:	dfc00115 	stw	ra,4(sp)
   2fab8:	2021883a 	mov	r16,r4
   2fabc:	002fc040 	call	2fc04 <__call_exitprocs>
   2fac0:	008000f4 	movhi	r2,3
   2fac4:	1108a517 	ldw	r4,8852(r2)
   2fac8:	20800f17 	ldw	r2,60(r4)
   2facc:	10000126 	beq	r2,zero,2fad4 <exit+0x2c>
   2fad0:	103ee83a 	callr	r2
   2fad4:	8009883a 	mov	r4,r16
   2fad8:	002d0e80 	call	2d0e8 <_exit>

0002fadc <memcmp>:
   2fadc:	30800130 	cmpltui	r2,r6,4
   2fae0:	10000b1e 	bne	r2,zero,2fb10 <memcmp+0x34>
   2fae4:	2144b03a 	or	r2,r4,r5
   2fae8:	108000cc 	andi	r2,r2,3
   2faec:	1000171e 	bne	r2,zero,2fb4c <memcmp+0x70>
   2faf0:	20c00017 	ldw	r3,0(r4)
   2faf4:	28800017 	ldw	r2,0(r5)
   2faf8:	1880141e 	bne	r3,r2,2fb4c <memcmp+0x70>
   2fafc:	31bfff04 	addi	r6,r6,-4
   2fb00:	30800128 	cmpgeui	r2,r6,4
   2fb04:	21000104 	addi	r4,r4,4
   2fb08:	29400104 	addi	r5,r5,4
   2fb0c:	103ff81e 	bne	r2,zero,2faf0 <memcmp+0x14>
   2fb10:	30bfffc4 	addi	r2,r6,-1
   2fb14:	30000b26 	beq	r6,zero,2fb44 <memcmp+0x68>
   2fb18:	11800044 	addi	r6,r2,1
   2fb1c:	298d883a 	add	r6,r5,r6
   2fb20:	00000106 	br	2fb28 <memcmp+0x4c>
   2fb24:	29800726 	beq	r5,r6,2fb44 <memcmp+0x68>
   2fb28:	20800003 	ldbu	r2,0(r4)
   2fb2c:	28c00003 	ldbu	r3,0(r5)
   2fb30:	21000044 	addi	r4,r4,1
   2fb34:	29400044 	addi	r5,r5,1
   2fb38:	10fffa26 	beq	r2,r3,2fb24 <memcmp+0x48>
   2fb3c:	10c5c83a 	sub	r2,r2,r3
   2fb40:	f800283a 	ret
   2fb44:	0005883a 	mov	r2,zero
   2fb48:	f800283a 	ret
   2fb4c:	30bfffc4 	addi	r2,r6,-1
   2fb50:	003ff106 	br	2fb18 <memcmp+0x3c>

0002fb54 <_putchar_r>:
   2fb54:	21800217 	ldw	r6,8(r4)
   2fb58:	002fd241 	jmpi	2fd24 <_putc_r>

0002fb5c <putchar>:
   2fb5c:	008000f4 	movhi	r2,3
   2fb60:	1088a617 	ldw	r2,8856(r2)
   2fb64:	200b883a 	mov	r5,r4
   2fb68:	11800217 	ldw	r6,8(r2)
   2fb6c:	1009883a 	mov	r4,r2
   2fb70:	002fd241 	jmpi	2fd24 <_putc_r>

0002fb74 <__register_exitproc>:
   2fb74:	008000f4 	movhi	r2,3
   2fb78:	10c8a517 	ldw	r3,8852(r2)
   2fb7c:	18805217 	ldw	r2,328(r3)
   2fb80:	10001726 	beq	r2,zero,2fbe0 <__register_exitproc+0x6c>
   2fb84:	10c00117 	ldw	r3,4(r2)
   2fb88:	1a000808 	cmpgei	r8,r3,32
   2fb8c:	40001b1e 	bne	r8,zero,2fbfc <__register_exitproc+0x88>
   2fb90:	20000b26 	beq	r4,zero,2fbc0 <__register_exitproc+0x4c>
   2fb94:	181090ba 	slli	r8,r3,2
   2fb98:	02400044 	movi	r9,1
   2fb9c:	48d2983a 	sll	r9,r9,r3
   2fba0:	1211883a 	add	r8,r2,r8
   2fba4:	41802215 	stw	r6,136(r8)
   2fba8:	11806217 	ldw	r6,392(r2)
   2fbac:	21000098 	cmpnei	r4,r4,2
   2fbb0:	324cb03a 	or	r6,r6,r9
   2fbb4:	11806215 	stw	r6,392(r2)
   2fbb8:	41c04215 	stw	r7,264(r8)
   2fbbc:	20000b26 	beq	r4,zero,2fbec <__register_exitproc+0x78>
   2fbc0:	19000084 	addi	r4,r3,2
   2fbc4:	200890ba 	slli	r4,r4,2
   2fbc8:	18c00044 	addi	r3,r3,1
   2fbcc:	10c00115 	stw	r3,4(r2)
   2fbd0:	1105883a 	add	r2,r2,r4
   2fbd4:	11400015 	stw	r5,0(r2)
   2fbd8:	0005883a 	mov	r2,zero
   2fbdc:	f800283a 	ret
   2fbe0:	18805304 	addi	r2,r3,332
   2fbe4:	18805215 	stw	r2,328(r3)
   2fbe8:	003fe606 	br	2fb84 <__register_exitproc+0x10>
   2fbec:	11006317 	ldw	r4,396(r2)
   2fbf0:	2252b03a 	or	r9,r4,r9
   2fbf4:	12406315 	stw	r9,396(r2)
   2fbf8:	003ff106 	br	2fbc0 <__register_exitproc+0x4c>
   2fbfc:	00bfffc4 	movi	r2,-1
   2fc00:	f800283a 	ret

0002fc04 <__call_exitprocs>:
   2fc04:	defff704 	addi	sp,sp,-36
   2fc08:	008000f4 	movhi	r2,3
   2fc0c:	dcc00315 	stw	r19,12(sp)
   2fc10:	14c8a517 	ldw	r19,8852(r2)
   2fc14:	dc800215 	stw	r18,8(sp)
   2fc18:	dfc00815 	stw	ra,32(sp)
   2fc1c:	9c805217 	ldw	r18,328(r19)
   2fc20:	ddc00715 	stw	r23,28(sp)
   2fc24:	dd800615 	stw	r22,24(sp)
   2fc28:	dd400515 	stw	r21,20(sp)
   2fc2c:	dd000415 	stw	r20,16(sp)
   2fc30:	dc400115 	stw	r17,4(sp)
   2fc34:	dc000015 	stw	r16,0(sp)
   2fc38:	90001026 	beq	r18,zero,2fc7c <__call_exitprocs+0x78>
   2fc3c:	202b883a 	mov	r21,r4
   2fc40:	282d883a 	mov	r22,r5
   2fc44:	05000044 	movi	r20,1
   2fc48:	94000117 	ldw	r16,4(r18)
   2fc4c:	847fffc4 	addi	r17,r16,-1
   2fc50:	88000a16 	blt	r17,zero,2fc7c <__call_exitprocs+0x78>
   2fc54:	84000044 	addi	r16,r16,1
   2fc58:	802090ba 	slli	r16,r16,2
   2fc5c:	9421883a 	add	r16,r18,r16
   2fc60:	b0001126 	beq	r22,zero,2fca8 <__call_exitprocs+0xa4>
   2fc64:	80804017 	ldw	r2,256(r16)
   2fc68:	15800f26 	beq	r2,r22,2fca8 <__call_exitprocs+0xa4>
   2fc6c:	8c7fffc4 	addi	r17,r17,-1
   2fc70:	88bfffd8 	cmpnei	r2,r17,-1
   2fc74:	843fff04 	addi	r16,r16,-4
   2fc78:	103ff91e 	bne	r2,zero,2fc60 <__call_exitprocs+0x5c>
   2fc7c:	dfc00817 	ldw	ra,32(sp)
   2fc80:	ddc00717 	ldw	r23,28(sp)
   2fc84:	dd800617 	ldw	r22,24(sp)
   2fc88:	dd400517 	ldw	r21,20(sp)
   2fc8c:	dd000417 	ldw	r20,16(sp)
   2fc90:	dcc00317 	ldw	r19,12(sp)
   2fc94:	dc800217 	ldw	r18,8(sp)
   2fc98:	dc400117 	ldw	r17,4(sp)
   2fc9c:	dc000017 	ldw	r16,0(sp)
   2fca0:	dec00904 	addi	sp,sp,36
   2fca4:	f800283a 	ret
   2fca8:	90800117 	ldw	r2,4(r18)
   2fcac:	81800017 	ldw	r6,0(r16)
   2fcb0:	10bfffc4 	addi	r2,r2,-1
   2fcb4:	14401726 	beq	r2,r17,2fd14 <__call_exitprocs+0x110>
   2fcb8:	80000015 	stw	zero,0(r16)
   2fcbc:	303feb26 	beq	r6,zero,2fc6c <__call_exitprocs+0x68>
   2fcc0:	a446983a 	sll	r3,r20,r17
   2fcc4:	90806217 	ldw	r2,392(r18)
   2fcc8:	95c00117 	ldw	r23,4(r18)
   2fccc:	1884703a 	and	r2,r3,r2
   2fcd0:	1000081e 	bne	r2,zero,2fcf4 <__call_exitprocs+0xf0>
   2fcd4:	303ee83a 	callr	r6
   2fcd8:	90c00117 	ldw	r3,4(r18)
   2fcdc:	98805217 	ldw	r2,328(r19)
   2fce0:	1dc0011e 	bne	r3,r23,2fce8 <__call_exitprocs+0xe4>
   2fce4:	90bfe126 	beq	r18,r2,2fc6c <__call_exitprocs+0x68>
   2fce8:	103fe426 	beq	r2,zero,2fc7c <__call_exitprocs+0x78>
   2fcec:	1025883a 	mov	r18,r2
   2fcf0:	003fd506 	br	2fc48 <__call_exitprocs+0x44>
   2fcf4:	90806317 	ldw	r2,396(r18)
   2fcf8:	81002017 	ldw	r4,128(r16)
   2fcfc:	1886703a 	and	r3,r3,r2
   2fd00:	1800061e 	bne	r3,zero,2fd1c <__call_exitprocs+0x118>
   2fd04:	200b883a 	mov	r5,r4
   2fd08:	a809883a 	mov	r4,r21
   2fd0c:	303ee83a 	callr	r6
   2fd10:	003ff106 	br	2fcd8 <__call_exitprocs+0xd4>
   2fd14:	94400115 	stw	r17,4(r18)
   2fd18:	003fe806 	br	2fcbc <__call_exitprocs+0xb8>
   2fd1c:	303ee83a 	callr	r6
   2fd20:	003fed06 	br	2fcd8 <__call_exitprocs+0xd4>

0002fd24 <_putc_r>:
   2fd24:	defffc04 	addi	sp,sp,-16
   2fd28:	dc400215 	stw	r17,8(sp)
   2fd2c:	dfc00315 	stw	ra,12(sp)
   2fd30:	2023883a 	mov	r17,r4
   2fd34:	20000226 	beq	r4,zero,2fd40 <_putc_r+0x1c>
   2fd38:	20800e17 	ldw	r2,56(r4)
   2fd3c:	10000e26 	beq	r2,zero,2fd78 <_putc_r+0x54>
   2fd40:	30800217 	ldw	r2,8(r6)
   2fd44:	10bfffc4 	addi	r2,r2,-1
   2fd48:	30800215 	stw	r2,8(r6)
   2fd4c:	10001316 	blt	r2,zero,2fd9c <_putc_r+0x78>
   2fd50:	30800017 	ldw	r2,0(r6)
   2fd54:	11400005 	stb	r5,0(r2)
   2fd58:	30800017 	ldw	r2,0(r6)
   2fd5c:	10c00044 	addi	r3,r2,1
   2fd60:	30c00015 	stw	r3,0(r6)
   2fd64:	10800003 	ldbu	r2,0(r2)
   2fd68:	dfc00317 	ldw	ra,12(sp)
   2fd6c:	dc400217 	ldw	r17,8(sp)
   2fd70:	dec00404 	addi	sp,sp,16
   2fd74:	f800283a 	ret
   2fd78:	d9800115 	stw	r6,4(sp)
   2fd7c:	d9400015 	stw	r5,0(sp)
   2fd80:	0023ecc0 	call	23ecc <__sinit>
   2fd84:	d9800117 	ldw	r6,4(sp)
   2fd88:	d9400017 	ldw	r5,0(sp)
   2fd8c:	30800217 	ldw	r2,8(r6)
   2fd90:	10bfffc4 	addi	r2,r2,-1
   2fd94:	30800215 	stw	r2,8(r6)
   2fd98:	103fed0e 	bge	r2,zero,2fd50 <_putc_r+0x2c>
   2fd9c:	30c00617 	ldw	r3,24(r6)
   2fda0:	10c00e16 	blt	r2,r3,2fddc <_putc_r+0xb8>
   2fda4:	30800017 	ldw	r2,0(r6)
   2fda8:	11400005 	stb	r5,0(r2)
   2fdac:	30c00017 	ldw	r3,0(r6)
   2fdb0:	18800003 	ldbu	r2,0(r3)
   2fdb4:	108002a0 	cmpeqi	r2,r2,10
   2fdb8:	1000071e 	bne	r2,zero,2fdd8 <_putc_r+0xb4>
   2fdbc:	18800044 	addi	r2,r3,1
   2fdc0:	30800015 	stw	r2,0(r6)
   2fdc4:	18800003 	ldbu	r2,0(r3)
   2fdc8:	dfc00317 	ldw	ra,12(sp)
   2fdcc:	dc400217 	ldw	r17,8(sp)
   2fdd0:	dec00404 	addi	sp,sp,16
   2fdd4:	f800283a 	ret
   2fdd8:	01400284 	movi	r5,10
   2fddc:	8809883a 	mov	r4,r17
   2fde0:	dfc00317 	ldw	ra,12(sp)
   2fde4:	dc400217 	ldw	r17,8(sp)
   2fde8:	dec00404 	addi	sp,sp,16
   2fdec:	00292dc1 	jmpi	292dc <__swbuf_r>

0002fdf0 <putc>:
   2fdf0:	defffc04 	addi	sp,sp,-16
   2fdf4:	008000f4 	movhi	r2,3
   2fdf8:	dc800215 	stw	r18,8(sp)
   2fdfc:	1488a617 	ldw	r18,8856(r2)
   2fe00:	dc400115 	stw	r17,4(sp)
   2fe04:	dfc00315 	stw	ra,12(sp)
   2fe08:	2023883a 	mov	r17,r4
   2fe0c:	90000226 	beq	r18,zero,2fe18 <putc+0x28>
   2fe10:	90800e17 	ldw	r2,56(r18)
   2fe14:	10000f26 	beq	r2,zero,2fe54 <putc+0x64>
   2fe18:	28800217 	ldw	r2,8(r5)
   2fe1c:	10bfffc4 	addi	r2,r2,-1
   2fe20:	28800215 	stw	r2,8(r5)
   2fe24:	10001316 	blt	r2,zero,2fe74 <putc+0x84>
   2fe28:	28800017 	ldw	r2,0(r5)
   2fe2c:	14400005 	stb	r17,0(r2)
   2fe30:	28800017 	ldw	r2,0(r5)
   2fe34:	10c00044 	addi	r3,r2,1
   2fe38:	28c00015 	stw	r3,0(r5)
   2fe3c:	10800003 	ldbu	r2,0(r2)
   2fe40:	dfc00317 	ldw	ra,12(sp)
   2fe44:	dc800217 	ldw	r18,8(sp)
   2fe48:	dc400117 	ldw	r17,4(sp)
   2fe4c:	dec00404 	addi	sp,sp,16
   2fe50:	f800283a 	ret
   2fe54:	9009883a 	mov	r4,r18
   2fe58:	d9400015 	stw	r5,0(sp)
   2fe5c:	0023ecc0 	call	23ecc <__sinit>
   2fe60:	d9400017 	ldw	r5,0(sp)
   2fe64:	28800217 	ldw	r2,8(r5)
   2fe68:	10bfffc4 	addi	r2,r2,-1
   2fe6c:	28800215 	stw	r2,8(r5)
   2fe70:	103fed0e 	bge	r2,zero,2fe28 <putc+0x38>
   2fe74:	28c00617 	ldw	r3,24(r5)
   2fe78:	10c00a16 	blt	r2,r3,2fea4 <putc+0xb4>
   2fe7c:	28800017 	ldw	r2,0(r5)
   2fe80:	14400005 	stb	r17,0(r2)
   2fe84:	28c00017 	ldw	r3,0(r5)
   2fe88:	18800003 	ldbu	r2,0(r3)
   2fe8c:	108002a0 	cmpeqi	r2,r2,10
   2fe90:	10000c1e 	bne	r2,zero,2fec4 <putc+0xd4>
   2fe94:	18800044 	addi	r2,r3,1
   2fe98:	28800015 	stw	r2,0(r5)
   2fe9c:	18800003 	ldbu	r2,0(r3)
   2fea0:	003fe706 	br	2fe40 <putc+0x50>
   2fea4:	280d883a 	mov	r6,r5
   2fea8:	880b883a 	mov	r5,r17
   2feac:	9009883a 	mov	r4,r18
   2feb0:	dfc00317 	ldw	ra,12(sp)
   2feb4:	dc800217 	ldw	r18,8(sp)
   2feb8:	dc400117 	ldw	r17,4(sp)
   2febc:	dec00404 	addi	sp,sp,16
   2fec0:	00292dc1 	jmpi	292dc <__swbuf_r>
   2fec4:	280d883a 	mov	r6,r5
   2fec8:	01400284 	movi	r5,10
   2fecc:	003ff706 	br	2feac <putc+0xbc>
