
nik_controller.elf:     file format elf32-littlenios2
nik_controller.elf
architecture: nios2:r1, flags 0x00000112:
EXEC_P, HAS_SYMS, D_PAGED
start address 0x00020228

Program Header:
    LOAD off    0x00001000 vaddr 0x00020000 paddr 0x00020000 align 2**12
         filesz 0x00000020 memsz 0x00000020 flags r-x
    LOAD off    0x00001020 vaddr 0x00020020 paddr 0x00020020 align 2**12
         filesz 0x00010684 memsz 0x00010684 flags r-x
    LOAD off    0x000116a4 vaddr 0x000306a4 paddr 0x000322e0 align 2**12
         filesz 0x00001c3c memsz 0x00001c3c flags rw-
    LOAD off    0x00013f1c vaddr 0x00033f1c paddr 0x00033f1c align 2**12
         filesz 0x00000000 memsz 0x0000017c flags rw-

Sections:
Idx Name          Size      VMA       LMA       File off  Algn
  0 .entry        00000020  00020000  00020000  00001000  2**5
                  CONTENTS, ALLOC, LOAD, READONLY, CODE
  1 .exceptions   00000208  00020020  00020020  00001020  2**2
                  CONTENTS, ALLOC, LOAD, READONLY, CODE
  2 .text         0000fcb4  00020228  00020228  00001228  2**2
                  CONTENTS, ALLOC, LOAD, READONLY, CODE
  3 .rodata       000007c8  0002fedc  0002fedc  00010edc  2**2
                  CONTENTS, ALLOC, LOAD, READONLY, DATA
  4 .rwdata       00001c3c  000306a4  000322e0  000116a4  2**2
                  CONTENTS, ALLOC, LOAD, DATA, SMALL_DATA
  5 .bss          0000017c  00033f1c  00033f1c  00013f1c  2**2
                  ALLOC, SMALL_DATA
  6 .onchip_memory 00000000  00034098  00034098  000132e0  2**0
                  CONTENTS
  7 .comment      0000002c  00000000  00000000  000132e0  2**0
                  CONTENTS, READONLY
  8 .debug_aranges 00001370  00000000  00000000  00013310  2**3
                  CONTENTS, READONLY, DEBUGGING
  9 .debug_info   000574bf  00000000  00000000  00014680  2**0
                  CONTENTS, READONLY, DEBUGGING
 10 .debug_abbrev 00012319  00000000  00000000  0006bb3f  2**0
                  CONTENTS, READONLY, DEBUGGING
 11 .debug_line   0001c09b  00000000  00000000  0007de58  2**0
                  CONTENTS, READONLY, DEBUGGING
 12 .debug_frame  000029f4  00000000  00000000  00099ef4  2**2
                  CONTENTS, READONLY, DEBUGGING
 13 .debug_str    00004a97  00000000  00000000  0009c8e8  2**0
                  CONTENTS, READONLY, DEBUGGING
 14 .debug_loc    0001cd0f  00000000  00000000  000a137f  2**0
                  CONTENTS, READONLY, DEBUGGING
 15 .debug_alt_sim_info 00000010  00000000  00000000  000be090  2**2
                  CONTENTS, READONLY, DEBUGGING
 16 .debug_ranges 00001fa0  00000000  00000000  000be0a0  2**3
                  CONTENTS, READONLY, DEBUGGING
 17 .thread_model 00000003  00000000  00000000  000c3c25  2**0
                  CONTENTS, READONLY
 18 .cpu          00000003  00000000  00000000  000c3c28  2**0
                  CONTENTS, READONLY
 19 .qsys         00000001  00000000  00000000  000c3c2b  2**0
                  CONTENTS, READONLY
 20 .simulation_enabled 00000001  00000000  00000000  000c3c2c  2**0
                  CONTENTS, READONLY
 21 .sysid_hash   00000004  00000000  00000000  000c3c2d  2**0
                  CONTENTS, READONLY
 22 .sysid_base   00000004  00000000  00000000  000c3c31  2**0
                  CONTENTS, READONLY
 23 .sysid_time   00000004  00000000  00000000  000c3c35  2**0
                  CONTENTS, READONLY
 24 .stderr_dev   00000009  00000000  00000000  000c3c39  2**0
                  CONTENTS, READONLY
 25 .stdin_dev    00000009  00000000  00000000  000c3c42  2**0
                  CONTENTS, READONLY
 26 .stdout_dev   00000009  00000000  00000000  000c3c4b  2**0
                  CONTENTS, READONLY
 27 .sopc_system_name 0000000f  00000000  00000000  000c3c54  2**0
                  CONTENTS, READONLY
 28 .quartus_project_dir 00000033  00000000  00000000  000c3c63  2**0
                  CONTENTS, READONLY
 29 .sopcinfo     0006bc9e  00000000  00000000  000c3c96  2**0
                  CONTENTS, READONLY
SYMBOL TABLE:
00020000 l    d  .entry	00000000 .entry
00020020 l    d  .exceptions	00000000 .exceptions
00020228 l    d  .text	00000000 .text
0002fedc l    d  .rodata	00000000 .rodata
000306a4 l    d  .rwdata	00000000 .rwdata
00033f1c l    d  .bss	00000000 .bss
00034098 l    d  .onchip_memory	00000000 .onchip_memory
00000000 l    d  .comment	00000000 .comment
00000000 l    d  .debug_aranges	00000000 .debug_aranges
00000000 l    d  .debug_info	00000000 .debug_info
00000000 l    d  .debug_abbrev	00000000 .debug_abbrev
00000000 l    d  .debug_line	00000000 .debug_line
00000000 l    d  .debug_frame	00000000 .debug_frame
00000000 l    d  .debug_str	00000000 .debug_str
00000000 l    d  .debug_loc	00000000 .debug_loc
00000000 l    d  .debug_alt_sim_info	00000000 .debug_alt_sim_info
00000000 l    d  .debug_ranges	00000000 .debug_ranges
00000000 l    df *ABS*	00000000 ../nik_controller_bsp//obj/HAL/src/crt0.o
00020260 l       .text	00000000 alt_after_alt_main
00000000 l    df *ABS*	00000000 alt_irq_handler.c
00000000 l    df *ABS*	00000000 alt_instruction_exception_entry.c
00000000 l    df *ABS*	00000000 hello_world.c
00000000 l    df *ABS*	00000000 fixdfsi.c
00000000 l    df *ABS*	00000000 atof.c
00000000 l    df *ABS*	00000000 fopen.c
00000000 l    df *ABS*	00000000 fseek.c
00000000 l    df *ABS*	00000000 fseeko.c
00000000 l    df *ABS*	00000000 fstatr.c
00000000 l    df *ABS*	00000000 getc.c
00000000 l    df *ABS*	00000000 impure.c
000306c8 l     O .rwdata	00000424 impure_data
00000000 l    df *ABS*	00000000 int_errno.c
00000000 l    df *ABS*	00000000 makebuf.c
00000000 l    df *ABS*	00000000 malloc.c
00000000 l    df *ABS*	00000000 mallocr.c
00000000 l    df *ABS*	00000000 openr.c
00000000 l    df *ABS*	00000000 refill.c
00021ba8 l     F .text	0000001c lflush
00000000 l    df *ABS*	00000000 rget.c
00000000 l    df *ABS*	00000000 sbrkr.c
00000000 l    df *ABS*	00000000 stdio.c
00000000 l    df *ABS*	00000000 strtod.c
00021fac l     F .text	00000064 sulp
0002ff48 l     O .rodata	00000028 tinytens
0002ff34 l     O .rodata	00000014 fpi.4065
0002ff20 l     O .rodata	00000014 fpinan.4101
00000000 l    df *ABS*	00000000 writer.c
00000000 l    df *ABS*	00000000 closer.c
00000000 l    df *ABS*	00000000 fflush.c
00000000 l    df *ABS*	00000000 findfp.c
00023bcc l     F .text	00000008 __fp_lock
00023be0 l     F .text	00000168 __sinit.part.0
00023d48 l     F .text	00000008 __fp_unlock
00000000 l    df *ABS*	00000000 flags.c
00000000 l    df *ABS*	00000000 mallocr.c
00000000 l    df *ABS*	00000000 fwalk.c
00000000 l    df *ABS*	00000000 gdtoa-gethex.c
00024530 l     F .text	000000dc rshift
00000000 l    df *ABS*	00000000 gdtoa-hexnan.c
00000000 l    df *ABS*	00000000 isattyr.c
00000000 l    df *ABS*	00000000 lnumeric.c
000322b4 l     O .rwdata	00000002 numempty
00000000 l    df *ABS*	00000000 locale.c
00000000 l    df *ABS*	00000000 lseekr.c
00000000 l    df *ABS*	00000000 mbtowc_r.c
00000000 l    df *ABS*	00000000 memcpy.c
00000000 l    df *ABS*	00000000 memset.c
00000000 l    df *ABS*	00000000 mprec.c
00030128 l     O .rodata	0000000c p05.3991
00000000 l    df *ABS*	00000000 readr.c
00000000 l    df *ABS*	00000000 strcmp.c
00000000 l    df *ABS*	00000000 strlen.c
00000000 l    df *ABS*	00000000 strncmp.c
00000000 l    df *ABS*	00000000 wctomb_r.c
00000000 l    df *ABS*	00000000 assert.c
00000000 l    df *ABS*	00000000 mallocr.c
00000000 l    df *ABS*	00000000 ctype_.c
00000000 l    df *ABS*	00000000 fclose.c
00000000 l    df *ABS*	00000000 fiprintf.c
00000000 l    df *ABS*	00000000 vfiprintfr_1.c
00000000 l    df *ABS*	00000000 abort.c
00000000 l    df *ABS*	00000000 signal.c
00026b48 l     F .text	0000004c _init_signal_r.part.0
00000000 l    df *ABS*	00000000 signalr.c
00000000 l    df *ABS*	00000000 vfprintf.c
00026e60 l     F .text	000000f4 __sprint_r.part.0
0002829c l     F .text	000000c0 __sbprintf
00030550 l     O .rodata	00000010 blanks.5153
00030540 l     O .rodata	00000010 zeroes.5154
00000000 l    df *ABS*	00000000 wsetup.c
00000000 l    df *ABS*	00000000 fputwc.c
00000000 l    df *ABS*	00000000 fvwrite.c
00000000 l    df *ABS*	00000000 memchr.c
00000000 l    df *ABS*	00000000 memmove.c
00000000 l    df *ABS*	00000000 mallocr.c
00000000 l    df *ABS*	00000000 wbuf.c
00000000 l    df *ABS*	00000000 wcrtomb.c
00000000 l    df *ABS*	00000000 libgcc2.c
00000000 l    df *ABS*	00000000 libgcc2.c
00000000 l    df *ABS*	00000000 libgcc2.c
00000000 l    df *ABS*	00000000 libgcc2.c
00000000 l    df *ABS*	00000000 libgcc2.c
00000000 l    df *ABS*	00000000 libgcc2.c
00000000 l    df *ABS*	00000000 lib2-divmod.c
00000000 l    df *ABS*	00000000 lib2-mul.c
00000000 l    df *ABS*	00000000 eqsf2.c
00000000 l    df *ABS*	00000000 lesf2.c
00000000 l    df *ABS*	00000000 unordsf2.c
00000000 l    df *ABS*	00000000 adddf3.c
00000000 l    df *ABS*	00000000 divdf3.c
00000000 l    df *ABS*	00000000 eqdf2.c
00000000 l    df *ABS*	00000000 gedf2.c
00000000 l    df *ABS*	00000000 ledf2.c
00000000 l    df *ABS*	00000000 muldf3.c
00000000 l    df *ABS*	00000000 subdf3.c
00000000 l    df *ABS*	00000000 unorddf2.c
00000000 l    df *ABS*	00000000 floatsidf.c
00000000 l    df *ABS*	00000000 floatunsidf.c
00000000 l    df *ABS*	00000000 truncdfsf2.c
00000000 l    df *ABS*	00000000 libgcc2.c
00000000 l    df *ABS*	00000000 libgcc2.c
00000000 l    df *ABS*	00000000 alt_close.c
0002cfb0 l     F .text	0000003c alt_get_errno
00000000 l    df *ABS*	00000000 alt_dev.c
0002d0c8 l     F .text	0000002c alt_dev_null_write
00000000 l    df *ABS*	00000000 alt_errno.c
00000000 l    df *ABS*	00000000 alt_exit.c
00000000 l    df *ABS*	00000000 alt_fstat.c
0002d12c l     F .text	0000003c alt_get_errno
00000000 l    df *ABS*	00000000 alt_getpid.c
00000000 l    df *ABS*	00000000 alt_irq_register.c
00000000 l    df *ABS*	00000000 alt_irq_vars.c
00000000 l    df *ABS*	00000000 alt_isatty.c
0002d3c4 l     F .text	0000003c alt_get_errno
00000000 l    df *ABS*	00000000 alt_kill.c
0002d4b0 l     F .text	0000003c alt_get_errno
00000000 l    df *ABS*	00000000 alt_load.c
0002d618 l     F .text	00000068 alt_load_section
00000000 l    df *ABS*	00000000 alt_lseek.c
0002d704 l     F .text	0000003c alt_get_errno
00000000 l    df *ABS*	00000000 alt_main.c
00000000 l    df *ABS*	00000000 alt_malloc_lock.c
00000000 l    df *ABS*	00000000 alt_open.c
0002d8e4 l     F .text	0000003c alt_get_errno
0002d920 l     F .text	000000dc alt_file_locked
00000000 l    df *ABS*	00000000 alt_printf.c
00000000 l    df *ABS*	00000000 alt_putchar.c
00000000 l    df *ABS*	00000000 alt_read.c
0002ddb8 l     F .text	0000003c alt_get_errno
00000000 l    df *ABS*	00000000 alt_release_fd.c
00000000 l    df *ABS*	00000000 alt_sbrk.c
000322d4 l     O .rwdata	00000004 heap_end
00000000 l    df *ABS*	00000000 alt_write.c
0002e024 l     F .text	0000003c alt_get_errno
00000000 l    df *ABS*	00000000 alt_sys_init.c
0002e164 l     F .text	00000034 alt_dev_reg
00031208 l     O .rwdata	00001060 jtag_uart
00032268 l     O .rwdata	0000002c accelerometer_spi
00000000 l    df *ABS*	00000000 altera_avalon_jtag_uart_fd.c
00000000 l    df *ABS*	00000000 altera_avalon_jtag_uart_init.c
0002e45c l     F .text	00000210 altera_avalon_jtag_uart_irq
0002e66c l     F .text	000000a0 altera_avalon_jtag_uart_timeout
00000000 l    df *ABS*	00000000 altera_avalon_jtag_uart_ioctl.c
00000000 l    df *ABS*	00000000 altera_avalon_jtag_uart_read.c
00000000 l    df *ABS*	00000000 altera_avalon_jtag_uart_write.c
00000000 l    df *ABS*	00000000 altera_avalon_timer_sc.c
0002ecb0 l     F .text	00000080 alt_avalon_timer_sc_irq
00000000 l    df *ABS*	00000000 altera_up_avalon_accelerometer_spi.c
00000000 l    df *ABS*	00000000 alt_alarm_start.c
00000000 l    df *ABS*	00000000 alt_dcache_flush_all.c
00000000 l    df *ABS*	00000000 alt_dev_llist_insert.c
0002f2cc l     F .text	0000003c alt_get_errno
00000000 l    df *ABS*	00000000 alt_do_ctors.c
00000000 l    df *ABS*	00000000 alt_do_dtors.c
00000000 l    df *ABS*	00000000 alt_find_dev.c
00000000 l    df *ABS*	00000000 alt_find_file.c
00000000 l    df *ABS*	00000000 alt_get_fd.c
00000000 l    df *ABS*	00000000 alt_icache_flush_all.c
00000000 l    df *ABS*	00000000 alt_io_redirect.c
0002f6e8 l     F .text	000000d4 alt_open_fd
00000000 l    df *ABS*	00000000 alt_tick.c
00000000 l    df *ABS*	00000000 altera_nios2_gen2_irq.c
00000000 l    df *ABS*	00000000 atexit.c
00000000 l    df *ABS*	00000000 exit.c
00000000 l    df *ABS*	00000000 memcmp.c
00000000 l    df *ABS*	00000000 putchar.c
00000000 l    df *ABS*	00000000 __atexit.c
00000000 l    df *ABS*	00000000 __call_atexit.c
00000000 l    df *ABS*	00000000 putc.c
00033f54 g     O .bss	00000004 alt_instruction_exception_handler
0002fb68 g     F .text	00000018 putchar
000264a0 g     F .text	00000070 _mprec_log10
0002657c g     F .text	00000060 __any_on
00025108 g     F .text	00000058 _isatty_r
00030134 g     O .rodata	00000028 __mprec_tinytens
0002d820 g     F .text	0000007c alt_main
00033f98 g     O .bss	00000100 alt_irq
00025200 g     F .text	00000064 _lseek_r
0003229c g     O .rwdata	00000004 en_f
000322e0 g       *ABS*	00000000 __flash_rwdata_start
00023f20 g     F .text	000000b8 __sflags
0002b910 g     F .text	00000080 .hidden __eqdf2
00034098 g       *ABS*	00000000 __alt_heap_start
000296b4 g     F .text	00000070 .hidden __floatdidf
00026dfc g     F .text	00000060 _kill_r
00029448 g     F .text	0000006c _wcrtomb_r
00026ba8 g     F .text	00000084 _signal_r
00021f48 g     F .text	0000005c __sseek
00023ed8 g     F .text	00000010 __sinit
000292e8 g     F .text	00000148 __swbuf_r
00025168 g     F .text	00000074 _setlocale_r
00023d50 g     F .text	00000078 __sfmoreglue
0002d8c0 g     F .text	00000024 __malloc_unlock
0002359c g     F .text	0000000c _strtod_r
00028c58 g     F .text	0000012c memmove
00023ec4 g     F .text	00000014 _cleanup
000254a4 g     F .text	000000a4 _Balloc
000202e0 g     F .text	00000034 sys_timer_isr
000306bc g     O .rwdata	0000000c inact_thresh_coef
0002b990 g     F .text	000000f0 .hidden __gtdf2
0002f9e4 g     F .text	00000024 altera_nios2_gen2_irq_init
00020000 g     F .entry	0000000c __reset
0002eefc g     F .text	000000d4 alt_up_accelerometer_spi_read_x_axis
00020020 g       *ABS*	00000000 __flash_exceptions_start
00021000 g     F .text	00000060 _fstat_r
00033f28 g     O .bss	00000004 errno
00021e04 g     F .text	00000010 __srget
00021ec0 g     F .text	00000008 __seofread
00033f44 g     O .bss	00000004 alt_argv
0003a294 g       *ABS*	00000000 _gp
0002d224 g     F .text	00000020 getpid
00032294 g     O .rwdata	00000006 output
00033f58 g     O .bss	0000000c xyz
00031088 g     O .rwdata	00000180 alt_fd_list
00021060 g     F .text	0000007c _getc_r
000210dc g     F .text	00000090 getc
0002fb60 g     F .text	00000008 _putchar_r
0002f478 g     F .text	00000090 alt_find_dev
000252b4 g     F .text	00000100 memcpy
00024ea0 g     F .text	00000268 __hexnan
00023bd4 g     F .text	0000000c _cleanup_r
0002cca0 g     F .text	000000bc .hidden __floatsidf
0002f7bc g     F .text	0000007c alt_io_redirect
0002ba80 g     F .text	000000f0 .hidden __ltdf2
0002fedc g       *ABS*	00000000 __DTOR_END__
0002fa08 g     F .text	00000098 alt_exception_cause_generated_bad_addr
000306a4 g     O .rwdata	00000018 act_thresh_coef
000263fc g     F .text	000000a4 __ratio
00028280 g     F .text	0000001c __vfiprintf_internal
000322a0 g     O .rwdata	00000004 nox
0002e868 g     F .text	00000220 altera_avalon_jtag_uart_read
00021344 g     F .text	00000010 malloc
0002a3f8 g     F .text	00000064 .hidden __udivsi3
0002d400 g     F .text	000000b0 isatty
00026c2c g     F .text	000000c4 _raise_r
00026890 g     F .text	00000064 __assert_func
00030184 g     O .rodata	000000c8 __mprec_tens
00020380 g     F .text	0000006c read_accelerometer
0002a558 g     F .text	000000c0 .hidden __lesf2
0002953c g     F .text	00000074 .hidden __fixunsdfsi
00033f34 g     O .bss	00000004 __malloc_top_pad
00026e5c g     F .text	00000004 _getpid_r
000286b8 g     F .text	000004cc __sfvwrite_r
00025914 g     F .text	00000054 __i2b
00026cf0 g     F .text	000000b8 __sigtramp_r
00021e14 g     F .text	00000058 _sbrk_r
000265dc g     F .text	00000064 _read_r
000322c8 g     O .rwdata	00000004 alt_max_fd
000269cc g     F .text	000000f8 _fclose_r
00023ba4 g     F .text	00000028 fflush
00033f30 g     O .bss	00000004 __malloc_max_sbrked_mem
0002d244 g     F .text	00000180 alt_irq_register
0002a664 g     F .text	00000978 .hidden __adddf3
0002a4e0 g     F .text	00000078 .hidden __nesf2
00026194 g     F .text	00000104 __b2d
00029d40 g     F .text	000005c4 .hidden __umoddi3
0002d740 g     F .text	000000e0 lseek
000322a4 g     O .rwdata	00000004 _global_impure_ptr
00028d84 g     F .text	00000564 _realloc_r
00034098 g       *ABS*	00000000 __bss_end
0002f8dc g     F .text	00000108 alt_tick
0002ffcc g     O .rodata	00000100 __hexdig
00029724 g     F .text	0000061c .hidden __udivdi3
0002861c g     F .text	00000024 _fputwc_r
0003015c g     O .rodata	00000028 __mprec_bigtens
000256c8 g     F .text	00000138 __s2b
00026b30 g     F .text	00000018 abort
0002cd5c g     F .text	00000090 .hidden __floatunsidf
00025eb4 g     F .text	00000058 __mcmp
00023ef8 g     F .text	00000014 __fp_lock_all
0002f838 g     F .text	000000a4 alt_alarm_stop
00033f3c g     O .bss	00000004 alt_irq_active
00020b90 g     F .text	00000454 _fseeko_r
000200fc g     F .exceptions	000000cc alt_irq_handler
00031060 g     O .rwdata	00000028 alt_dev_null
00022010 g     F .text	0000158c _strtod_l
00024e50 g     F .text	00000050 __match
000206d4 g     F .text	00000084 detect_INACT
0002f2ac g     F .text	00000020 alt_dcache_flush_all
00025800 g     F .text	00000064 __hi0bits
000209e0 g     F .text	00000080 .hidden __fixdfsi
000235c4 g     F .text	00000020 strtod
000322e0 g       *ABS*	00000000 __ram_rwdata_end
00020264 g     F .text	0000007c timer_init
00020000 g       *ABS*	00000000 __alt_mem_onchip_memory
000322c0 g     O .rwdata	00000008 alt_dev_list
0002e060 g     F .text	00000104 write
0002fd30 g     F .text	000000cc _putc_r
00020a60 g     F .text	00000008 atof
000306a4 g       *ABS*	00000000 __ram_rodata_end
0002d168 g     F .text	000000bc fstat
00020314 g     F .text	0000006c shift_xyz
0002d4ec g     F .text	0000012c kill
0002ba80 g     F .text	000000f0 .hidden __ledf2
000235e4 g     F .text	00000120 strtof_l
00025c14 g     F .text	00000118 __pow5mult
0003229a g     O .rwdata	00000001 led
00026f6c g     F .text	00001314 ___vfiprintf_internal_r
0002a45c g     F .text	0000005c .hidden __umodsi3
00034098 g       *ABS*	00000000 end
00020fe4 g     F .text	0000001c fseeko
00020b74 g     F .text	0000001c fseek
0002e3a8 g     F .text	000000b4 altera_avalon_jtag_uart_init
000201c8 g     F .exceptions	00000060 alt_instruction_exception_entry
0002fedc g       *ABS*	00000000 __CTOR_LIST__
00040000 g       *ABS*	00000000 __alt_stack_pointer
0002ed30 g     F .text	0000007c alt_avalon_timer_sc_init
0002cf5c g     F .text	00000054 .hidden __clzsi2
0002ea88 g     F .text	00000228 altera_avalon_jtag_uart_write
00023ee8 g     F .text	00000004 __sfp_lock_acquire
00028b84 g     F .text	000000d4 memchr
000240f4 g     F .text	000002fc _free_r
0002db5c g     F .text	0000022c alt_printf
00030390 g     O .rodata	00000180 _ctype_b
000251dc g     F .text	0000000c __locale_mb_cur_max
0002fc10 g     F .text	00000120 __call_exitprocs
00021d90 g     F .text	00000074 __srget_r
000322ac g     O .rwdata	00000004 __malloc_sbrk_base
00020228 g     F .text	0000003c _start
00033f4c g     O .bss	00000004 _alt_tick_rate
00025d2c g     F .text	00000188 __lshift
00033f50 g     O .bss	00000004 _alt_nticks
00026db8 g     F .text	00000018 signal
0002ddf4 g     F .text	00000108 read
0002e1d4 g     F .text	00000070 alt_sys_init
0002ede8 g     F .text	00000044 alt_up_accelerometer_spi_read_address_register
00021b44 g     F .text	00000064 _open_r
0002fb80 g     F .text	00000090 __register_exitproc
00026790 g     F .text	000000c4 strncmp
00025968 g     F .text	000002ac __multiply
0002e70c g     F .text	00000068 altera_avalon_jtag_uart_close
0002a4b8 g     F .text	00000028 .hidden __mulsi3
000306a4 g       *ABS*	00000000 __ram_rwdata_start
0002fedc g       *ABS*	00000000 __ram_rodata_start
00033f70 g     O .bss	00000028 __malloc_current_mallinfo
0002a4e0 g     F .text	00000078 .hidden __eqsf2
00026298 g     F .text	00000164 __d2b
0002e244 g     F .text	00000060 altera_avalon_jtag_uart_read_fd
0002f610 g     F .text	000000b8 alt_get_fd
0002efd0 g     F .text	000000d4 alt_up_accelerometer_spi_read_y_axis
000238c4 g     F .text	00000058 _close_r
000203ec g     F .text	000000bc max
0002fae8 g     F .text	00000078 memcmp
0002e304 g     F .text	00000050 altera_avalon_jtag_uart_close_fd
00034098 g       *ABS*	00000000 __alt_stack_base
0002e354 g     F .text	00000054 altera_avalon_jtag_uart_ioctl_fd
0002835c g     F .text	0000015c __swsetup_r
0002afdc g     F .text	00000934 .hidden __divdf3
00023dc8 g     F .text	000000fc __sfp
00026510 g     F .text	0000006c __copybits
00030aec g     O .rwdata	00000408 __malloc_av_
00023ef4 g     F .text	00000004 __sinit_lock_release
0002bb70 g     F .text	000007a8 .hidden __muldf3
00021e6c g     F .text	00000054 __sread
0002f508 g     F .text	00000108 alt_find_file
0002f308 g     F .text	000000a8 alt_dev_llist_insert
0002d89c g     F .text	00000024 __malloc_lock
0002df6c g     F .text	000000b8 sbrk
00023b44 g     F .text	00000060 _fflush_r
00026908 g     F .text	000000c4 _calloc_r
00020b58 g     F .text	00000018 fopen
00033f1c g       *ABS*	00000000 __bss_start
000253b4 g     F .text	000000f0 memset
000207c0 g     F .text	00000220 main
00033f48 g     O .bss	00000004 alt_envp
00033f2c g     O .bss	00000004 __malloc_max_total_mem
0002e2a4 g     F .text	00000060 altera_avalon_jtag_uart_write_fd
00029430 g     F .text	00000018 __swbuf
0002a558 g     F .text	000000c0 .hidden __ltsf2
00021fa4 g     F .text	00000008 __sclose
00040000 g       *ABS*	00000000 __alt_heap_limit
00026ac4 g     F .text	00000010 fclose
0002cdec g     F .text	00000170 .hidden __truncdfsf2
00021364 g     F .text	000007e0 _malloc_r
00026860 g     F .text	00000030 __ascii_wctomb
000322cc g     O .rwdata	00000004 alt_errno
00026ad4 g     F .text	00000020 _fiprintf_r
00026dd0 g     F .text	0000001c _init_signal
000243f0 g     F .text	00000098 _fwalk
00025264 g     F .text	0000000c _mbtowc_r
0002fdfc g     F .text	000000e0 putc
0002a304 g     F .text	00000080 .hidden __divsi3
00023fd8 g     F .text	0000011c _malloc_trim_r
0002fedc g       *ABS*	00000000 __CTOR_END__
00026640 g     F .text	000000b8 strcmp
0002fedc g       *ABS*	00000000 __flash_rodata_start
0002fedc g       *ABS*	00000000 __DTOR_LIST__
000204a8 g     F .text	000000bc min
00029624 g     F .text	00000090 .hidden __fixunsdfdi
0002b910 g     F .text	00000080 .hidden __nedf2
00033f20 g     O .bss	00000004 inact_counter
0002e198 g     F .text	0000003c alt_irq_init
0002defc g     F .text	00000070 alt_release_fd
00030560 g     O .rodata	00000100 .hidden __clz_tab
00033f38 g     O .bss	00000004 _PathLocale
000295b0 g     F .text	00000074 .hidden __fixdfdi
00023704 g     F .text	0000015c strtof
000235a8 g     F .text	0000001c strtod_l
0002faa0 g     F .text	00000014 atexit
00020564 g     F .text	00000170 detect_ACT
00023860 g     F .text	00000064 _write_r
000251e8 g     F .text	00000018 setlocale
000322a8 g     O .rwdata	00000004 _impure_ptr
00033f40 g     O .bss	00000004 alt_argc
0002391c g     F .text	00000228 __sflush_r
0002f414 g     F .text	00000064 _do_dtors
00020b70 g     F .text	00000004 _fseek_r
00021bc4 g     F .text	000001cc __srefill_r
00020020 g       .exceptions	00000000 alt_irq_entry
00025270 g     F .text	00000044 __ascii_mbtowc
00026138 g     F .text	0000005c __ulp
00023f0c g     F .text	00000014 __fp_unlock_all
000300d0 g     O .rodata	0000000c _C_numeric_locale
000322b8 g     O .rwdata	00000008 alt_fs_list
00020020 g       *ABS*	00000000 __ram_exceptions_start
0002edac g     F .text	0000003c alt_up_accelerometer_spi_open_dev
0002116c g     F .text	00000098 __swhatbuf_r
00033f64 g     O .bss	0000000c xyz_prev
000322e0 g       *ABS*	00000000 _edata
00034098 g       *ABS*	00000000 _end
0002a618 g     F .text	0000004c .hidden __unordsf2
000284b8 g     F .text	00000164 __fputwc
00020228 g       *ABS*	00000000 __ram_exceptions_end
0002e774 g     F .text	000000f4 altera_avalon_jtag_uart_ioctl
00021ec8 g     F .text	00000080 __swrite
000322b0 g     O .rwdata	00000004 __malloc_trim_threshold
0002fab4 g     F .text	00000034 exit
00026af4 g     F .text	00000038 fiprintf
00026b2c g     F .text	00000004 _vfiprintf_r
00024488 g     F .text	000000a8 _fwalk_reent
00025f0c g     F .text	0000022c __mdiff
0002a384 g     F .text	00000074 .hidden __modsi3
0002f0a4 g     F .text	000000d4 alt_up_accelerometer_spi_read_z_axis
00040000 g       *ABS*	00000000 __alt_data_end
00020020 g     F .exceptions	00000000 alt_exception
00023eec g     F .text	00000004 __sfp_lock_release
00033f1c g     O .bss	00000004 timer_f
0003028c g     O .rodata	00000101 _ctype_
00020758 g     F .text	00000068 wait_INACT
0002cc4c g     F .text	00000054 .hidden __unorddf2
00020a68 g     F .text	000000f0 _fopen_r
0002d0f4 g     F .text	00000038 _exit
0002f178 g     F .text	00000134 alt_alarm_start
0002ee2c g     F .text	00000068 alt_up_accelerometer_spi_read
0002ee94 g     F .text	00000068 alt_up_accelerometer_spi_write
00021204 g     F .text	00000140 __smakebuf_r
000266f8 g     F .text	00000098 strlen
00026b94 g     F .text	00000014 _init_signal_r
0002d9fc g     F .text	00000160 open
0002b990 g     F .text	000000f0 .hidden __gedf2
0002dd88 g     F .text	00000030 alt_putchar
0002460c g     F .text	00000844 __gethex
000268f4 g     F .text	00000014 __assert
00026f54 g     F .text	00000018 __sprint_r
0002f6c8 g     F .text	00000020 alt_icache_flush_all
00025160 g     F .text	00000008 __numeric_load_locale
000322d0 g     O .rwdata	00000004 alt_priority_mask
00026854 g     F .text	0000000c _wctomb_r
0002c318 g     F .text	00000934 .hidden __subdf3
00033f24 g     O .bss	00000004 acc_dev
00025864 g     F .text	000000b0 __lo0bits
000322d8 g     O .rwdata	00000008 alt_alarm_list
0002f3b0 g     F .text	00000064 _do_ctors
00026dec g     F .text	00000010 __sigtramp
000294b4 g     F .text	00000088 wcrtomb
0002cfec g     F .text	000000dc close
00030ef4 g     O .rwdata	0000016c __global_locale
0002d680 g     F .text	00000084 alt_load
00028640 g     F .text	00000078 fputwc
00026da8 g     F .text	00000010 raise
00021354 g     F .text	00000010 free
00023ef0 g     F .text	00000004 __sinit_lock_acquire
0002556c g     F .text	0000015c __multadd
00025548 g     F .text	00000024 _Bfree



Disassembly of section .entry:

00020000 <__reset>:
 * Jump to the _start entry point in the .text section if reset code
 * is allowed or if optimizing for RTL simulation.
 */
#if defined(ALT_ALLOW_CODE_AT_RESET) || defined(ALT_SIM_OPTIMIZE)
    /* Jump to the _start entry point in the .text section. */
    movhi r1, %hi(_start)
   20000:	004000b4 	movhi	at,2
    ori r1, r1, %lo(_start)
   20004:	08408a14 	ori	at,at,552
    jmp r1
   20008:	0800683a 	jmp	at
	...

Disassembly of section .exceptions:

00020020 <alt_exception>:

#else /* ALT_EXCEPTION_STACK disabled */
        /* 
         * Reserve space on normal stack for registers about to be pushed.
         */
        addi  sp, sp, -76
   20020:	deffed04 	addi	sp,sp,-76
         * documentation for details).
         *
         * Leave a gap in the stack frame at 4(sp) for the muldiv handler to
         * store zero into.
         */
        stw   ra,  0(sp)
   20024:	dfc00015 	stw	ra,0(sp)
        stw   r1,   8(sp)
   20028:	d8400215 	stw	at,8(sp)
        stw   r2,  12(sp)
   2002c:	d8800315 	stw	r2,12(sp)
        stw   r3,  16(sp)
   20030:	d8c00415 	stw	r3,16(sp)
        stw   r4,  20(sp)
   20034:	d9000515 	stw	r4,20(sp)
        stw   r5,  24(sp)
   20038:	d9400615 	stw	r5,24(sp)
        stw   r6,  28(sp)
   2003c:	d9800715 	stw	r6,28(sp)
        stw   r7,  32(sp)
   20040:	d9c00815 	stw	r7,32(sp)
        rdctl r5, estatus   /* Read early to avoid usage stall */
   20044:	000b307a 	rdctl	r5,estatus
        stw   r8,  36(sp)
   20048:	da000915 	stw	r8,36(sp)
        stw   r9,  40(sp)
   2004c:	da400a15 	stw	r9,40(sp)
        stw   r10, 44(sp)
   20050:	da800b15 	stw	r10,44(sp)
        stw   r11, 48(sp)
   20054:	dac00c15 	stw	r11,48(sp)
        stw   r12, 52(sp)
   20058:	db000d15 	stw	r12,52(sp)
        stw   r13, 56(sp)
   2005c:	db400e15 	stw	r13,56(sp)
        stw   r14, 60(sp)
   20060:	db800f15 	stw	r14,60(sp)
        stw   r15, 64(sp)
   20064:	dbc01015 	stw	r15,64(sp)
        /*
         * ea-4 contains the address of the instruction being executed
         * when the exception occured. For interrupt exceptions, we will
         * will be re-issue the isntruction. Store it in 72(sp)
         */
        stw   r5,  68(sp)  /* estatus */
   20068:	d9401115 	stw	r5,68(sp)
        addi  r15, ea, -4  /* instruction that caused exception */
   2006c:	ebffff04 	addi	r15,ea,-4
        stw   r15,  72(sp)
   20070:	dbc01215 	stw	r15,72(sp)
#else
        /*
         * Test to see if the exception was a software exception or caused 
         * by an external interrupt, and vector accordingly.
         */
        rdctl r4, ipending
   20074:	0009313a 	rdctl	r4,ipending
        andi  r2, r5, 1
   20078:	2880004c 	andi	r2,r5,1
        beq   r2, zero, .Lnot_irq
   2007c:	10000326 	beq	r2,zero,2008c <alt_exception+0x6c>
        beq   r4, zero, .Lnot_irq
   20080:	20000226 	beq	r4,zero,2008c <alt_exception+0x6c>
        /*
         * Now that all necessary registers have been preserved, call 
         * alt_irq_handler() to process the interrupts.
         */

        call alt_irq_handler
   20084:	00200fc0 	call	200fc <alt_irq_handler>

        .section .exceptions.irqreturn, "xa"

        br    .Lexception_exit
   20088:	00000706 	br	200a8 <alt_exception+0x88>
         * upon completion, so we write ea (address of instruction *after*
         * the one where the exception occured) into 72(sp). The actual
         * instruction that caused the exception is written in r2, which these
         * handlers will utilize.
         */
        stw ea, 72(sp) /* EA is PC+4 so will skip over instruction causing exception */
   2008c:	df401215 	stw	ea,72(sp)
.Lunknown_16bit:
        addi.n r4, r4, 2 /* Need PC+2 to skip over instruction causing exception */
        stw r4, 72(sp)

#else /* CDX is not Enabled and all instructions are 32bits */
        ldw r2, -4(ea) /* Instruction value that caused exception */
   20090:	e8bfff17 	ldw	r2,-4(ea)
         * debugger is present) or go into an infinite loop since the
         * handling behavior is undefined; in that case we will not return here.
         */

        /* Load exception-causing address as first argument (r4) */
        addi   r4, ea, -4
   20094:	e93fff04 	addi	r4,ea,-4

        /* Call the instruction-exception entry */
        call   alt_instruction_exception_entry
   20098:	00201c80 	call	201c8 <alt_instruction_exception_entry>
         * instruction
         *
         * Return code was 0: Skip. The instruction after the exception is
         * already stored in 72(sp).
         */
        bne   r2, r0, .Lexception_exit
   2009c:	1000021e 	bne	r2,zero,200a8 <alt_exception+0x88>

        /*
         * Otherwise, modify 72(sp) to re-issue the instruction that caused the
         * exception.
         */
        addi  r15, ea, -4  /* instruction that caused exception */
   200a0:	ebffff04 	addi	r15,ea,-4
        stw   r15,  72(sp)
   200a4:	dbc01215 	stw	r15,72(sp)
        /* 
         * Restore the saved registers, so that all general purpose registers 
         * have been restored to their state at the time the interrupt occured.
         */

        ldw   r5,  68(sp)
   200a8:	d9401117 	ldw	r5,68(sp)
        ldw   ea,  72(sp)  /* This becomes the PC once eret is executed */
   200ac:	df401217 	ldw	ea,72(sp)
        ldw   ra,   0(sp)
   200b0:	dfc00017 	ldw	ra,0(sp)

        wrctl estatus, r5
   200b4:	2801707a 	wrctl	estatus,r5

        ldw   r1,   8(sp)
   200b8:	d8400217 	ldw	at,8(sp)
        ldw   r2,  12(sp)
   200bc:	d8800317 	ldw	r2,12(sp)
        ldw   r3,  16(sp)
   200c0:	d8c00417 	ldw	r3,16(sp)
        ldw   r4,  20(sp)
   200c4:	d9000517 	ldw	r4,20(sp)
        ldw   r5,  24(sp)
   200c8:	d9400617 	ldw	r5,24(sp)
        ldw   r6,  28(sp)
   200cc:	d9800717 	ldw	r6,28(sp)
        ldw   r7,  32(sp)
   200d0:	d9c00817 	ldw	r7,32(sp)

#if defined(ALT_EXCEPTION_STACK) && defined(ALT_STACK_CHECK)
        ldw   et, %gprel(alt_exception_old_stack_limit)(gp)
#endif

        ldw   r8,  36(sp)
   200d4:	da000917 	ldw	r8,36(sp)
        ldw   r9,  40(sp)
   200d8:	da400a17 	ldw	r9,40(sp)
        ldw   r10, 44(sp)
   200dc:	da800b17 	ldw	r10,44(sp)
        ldw   r11, 48(sp)
   200e0:	dac00c17 	ldw	r11,48(sp)
        ldw   r12, 52(sp)
   200e4:	db000d17 	ldw	r12,52(sp)
        ldw   r13, 56(sp)
   200e8:	db400e17 	ldw	r13,56(sp)
        ldw   r14, 60(sp)
   200ec:	db800f17 	ldw	r14,60(sp)
        ldw   r15, 64(sp)
   200f0:	dbc01017 	ldw	r15,64(sp)
        stw   et, %gprel(alt_stack_limit_value)(gp)
        stw   zero, %gprel(alt_exception_old_stack_limit)(gp)
#endif /* ALT_STACK_CHECK */
        ldw   sp,  76(sp)
#else /* ALT_EXCEPTION_STACK disabled */
        addi  sp, sp, 76
   200f4:	dec01304 	addi	sp,sp,76

        /*
         * Return to the interrupted instruction.
         */

        eret
   200f8:	ef80083a 	eret

000200fc <alt_irq_handler>:
 * instruction is present if the macro ALT_CI_INTERRUPT_VECTOR defined.
 */

void alt_irq_handler (void) __attribute__ ((section (".exceptions")));
void alt_irq_handler (void)
{
   200fc:	defff904 	addi	sp,sp,-28
   20100:	dfc00615 	stw	ra,24(sp)
   20104:	df000515 	stw	fp,20(sp)
   20108:	df000504 	addi	fp,sp,20
  
  /*
   * Notify the operating system that we are at interrupt level.
   */ 
  
  ALT_OS_INT_ENTER();
   2010c:	0001883a 	nop
#ifndef NIOS2_EIC_PRESENT
static ALT_INLINE alt_u32 ALT_ALWAYS_INLINE alt_irq_pending (void)
{
  alt_u32 active;

  NIOS2_READ_IPENDING (active);
   20110:	0005313a 	rdctl	r2,ipending
   20114:	e0bffc15 	stw	r2,-16(fp)

  return active;
   20118:	e0bffc17 	ldw	r2,-16(fp)
   * Consider the case where the high priority interupt is asserted during
   * the interrupt entry sequence for a lower priority interrupt to see why
   * this is the case.
   */

  active = alt_irq_pending ();
   2011c:	e0bfff15 	stw	r2,-4(fp)

  do
  {
    i = 0;
   20120:	e03ffd15 	stw	zero,-12(fp)
    mask = 1;
   20124:	00800044 	movi	r2,1
   20128:	e0bffe15 	stw	r2,-8(fp)
     * called to clear the interrupt condition.
     */

    do
    {
      if (active & mask)
   2012c:	e0ffff17 	ldw	r3,-4(fp)
   20130:	e0bffe17 	ldw	r2,-8(fp)
   20134:	1884703a 	and	r2,r3,r2
   20138:	10001226 	beq	r2,zero,20184 <alt_irq_handler+0x88>
      { 
#ifdef ALT_ENHANCED_INTERRUPT_API_PRESENT
        alt_irq[i].handler(alt_irq[i].context); 
#else
        alt_irq[i].handler(alt_irq[i].context, i); 
   2013c:	e0bffd17 	ldw	r2,-12(fp)
   20140:	100690fa 	slli	r3,r2,3
   20144:	008000f4 	movhi	r2,3
   20148:	1885883a 	add	r2,r3,r2
   2014c:	10cfe617 	ldw	r3,16280(r2)
   20150:	e0bffd17 	ldw	r2,-12(fp)
   20154:	100890fa 	slli	r4,r2,3
   20158:	008000f4 	movhi	r2,3
   2015c:	2085883a 	add	r2,r4,r2
   20160:	108fe717 	ldw	r2,16284(r2)
   20164:	e17ffd17 	ldw	r5,-12(fp)
   20168:	1009883a 	mov	r4,r2
   2016c:	183ee83a 	callr	r3
#endif
        break;
   20170:	0001883a 	nop
  NIOS2_READ_IPENDING (active);
   20174:	0005313a 	rdctl	r2,ipending
   20178:	e0bffb15 	stw	r2,-20(fp)
  return active;
   2017c:	e0bffb17 	ldw	r2,-20(fp)
   20180:	00000706 	br	201a0 <alt_irq_handler+0xa4>
      }
      mask <<= 1;
   20184:	e0bffe17 	ldw	r2,-8(fp)
   20188:	1085883a 	add	r2,r2,r2
   2018c:	e0bffe15 	stw	r2,-8(fp)
      i++;
   20190:	e0bffd17 	ldw	r2,-12(fp)
   20194:	10800044 	addi	r2,r2,1
   20198:	e0bffd15 	stw	r2,-12(fp)
      if (active & mask)
   2019c:	003fe306 	br	2012c <alt_irq_handler+0x30>

    } while (1);

    active = alt_irq_pending ();
   201a0:	e0bfff15 	stw	r2,-4(fp)
    
  } while (active);
   201a4:	e0bfff17 	ldw	r2,-4(fp)
   201a8:	103fdd1e 	bne	r2,zero,20120 <alt_irq_handler+0x24>

  /*
   * Notify the operating system that interrupt processing is complete.
   */ 

  ALT_OS_INT_EXIT();
   201ac:	0001883a 	nop
}
   201b0:	0001883a 	nop
   201b4:	e037883a 	mov	sp,fp
   201b8:	dfc00117 	ldw	ra,4(sp)
   201bc:	df000017 	ldw	fp,0(sp)
   201c0:	dec00204 	addi	sp,sp,8
   201c4:	f800283a 	ret

000201c8 <alt_instruction_exception_entry>:
 * that handler if it has been registered. Absent a handler, it will
 * break break or hang as discussed below.
 */
int 
alt_instruction_exception_entry (alt_u32 exception_pc)
{
   201c8:	defffb04 	addi	sp,sp,-20
   201cc:	dfc00415 	stw	ra,16(sp)
   201d0:	df000315 	stw	fp,12(sp)
   201d4:	df000304 	addi	fp,sp,12
   201d8:	e13ffd15 	stw	r4,-12(fp)
  cause = ( (cause & NIOS2_EXCEPTION_REG_CAUSE_MASK) >>
              NIOS2_EXCEPTION_REG_CAUSE_OFST );

  NIOS2_READ_BADADDR(badaddr);
#else
  cause = NIOS2_EXCEPTION_CAUSE_NOT_PRESENT;
   201dc:	00bfffc4 	movi	r2,-1
   201e0:	e0bfff15 	stw	r2,-4(fp)
  badaddr = 0;
   201e4:	e03ffe15 	stw	zero,-8(fp)
#endif /* NIOS2_HAS_EXTRA_EXCEPTION_INFO */

  if(alt_instruction_exception_handler) {
   201e8:	d0a73017 	ldw	r2,-25408(gp)
   201ec:	10000726 	beq	r2,zero,2020c <alt_instruction_exception_entry+0x44>
     * Call handler. Its return value indicates whether the exception-causing
     * instruction should be re-issued. The code that called us,
     * alt_eceptions_entry.S, will look at this value and adjust the ea
     * register as necessary
     */
    return alt_instruction_exception_handler(cause, exception_pc, badaddr);
   201f0:	d0a73017 	ldw	r2,-25408(gp)
   201f4:	e0ffff17 	ldw	r3,-4(fp)
   201f8:	e1bffe17 	ldw	r6,-8(fp)
   201fc:	e17ffd17 	ldw	r5,-12(fp)
   20200:	1809883a 	mov	r4,r3
   20204:	103ee83a 	callr	r2
   20208:	00000206 	br	20214 <alt_instruction_exception_entry+0x4c>
   *    (a peripheral which negates its interrupt output before its
   *    interrupt handler has been executed will cause spurious interrupts)
   */
  else {
#ifdef NIOS2_HAS_DEBUG_STUB
    NIOS2_BREAK();
   2020c:	003da03a 	break	0
      ;
#endif /* NIOS2_HAS_DEBUG_STUB */
  }

  /* We should not get here. Remove compiler warning. */
  return NIOS2_EXCEPTION_RETURN_REISSUE_INST;
   20210:	0005883a 	mov	r2,zero
}
   20214:	e037883a 	mov	sp,fp
   20218:	dfc00117 	ldw	ra,4(sp)
   2021c:	df000017 	ldw	fp,0(sp)
   20220:	dec00204 	addi	sp,sp,8
   20224:	f800283a 	ret

Disassembly of section .text:

00020228 <_start>:

    /*
     * Now that the caches are initialized, set up the stack pointer and global pointer.
     * The values provided by the linker are assumed to be correctly aligned.
     */
    movhi sp, %hi(__alt_stack_pointer)
   20228:	06c00134 	movhi	sp,4
    ori sp, sp, %lo(__alt_stack_pointer)
   2022c:	dec00014 	ori	sp,sp,0
    movhi gp, %hi(_gp)
   20230:	068000f4 	movhi	gp,3
    ori gp, gp, %lo(_gp)
   20234:	d6a8a514 	ori	gp,gp,41620
 */
#ifndef ALT_SIM_OPTIMIZE
    /* Log that the BSS is about to be cleared. */
    ALT_LOG_PUTS(alt_log_msg_bss)

    movhi r2, %hi(__bss_start)
   20238:	008000f4 	movhi	r2,3
    ori r2, r2, %lo(__bss_start)
   2023c:	108fc714 	ori	r2,r2,16156

    movhi r3, %hi(__bss_end)
   20240:	00c000f4 	movhi	r3,3
    ori r3, r3, %lo(__bss_end)
   20244:	18d02614 	ori	r3,r3,16536

    beq r2, r3, 1f
   20248:	10c00326 	beq	r2,r3,20258 <_start+0x30>

0:
    stw zero, (r2)
   2024c:	10000015 	stw	zero,0(r2)
    addi r2, r2, 4
   20250:	10800104 	addi	r2,r2,4
    bltu r2, r3, 0b
   20254:	10fffd36 	bltu	r2,r3,2024c <_start+0x24>
     * section aren't defined until alt_load() has been called).
     */
    mov   et, zero
#endif

    call alt_load
   20258:	002d6800 	call	2d680 <alt_load>

    /* Log that alt_main is about to be called. */
    ALT_LOG_PUTS(alt_log_msg_alt_main)

    /* Call the C entry point. It should never return. */
    call alt_main
   2025c:	002d8200 	call	2d820 <alt_main>

00020260 <alt_after_alt_main>:

    /* Wait in infinite loop in case alt_main does return. */
alt_after_alt_main:
    br alt_after_alt_main
   20260:	003fff06 	br	20260 <alt_after_alt_main>

00020264 <timer_init>:
int inact_counter = 0;
int nox = 1; //flag to exclude F/B from detection
alt_up_accelerometer_spi_dev * acc_dev;

//Timer is used to regulate the maximum rate of data input to the game.
void timer_init(void * isr) { //initialises timer and specifies interrupt service routine
   20264:	defffd04 	addi	sp,sp,-12
   20268:	dfc00215 	stw	ra,8(sp)
   2026c:	df000115 	stw	fp,4(sp)
   20270:	df000104 	addi	fp,sp,4
   20274:	e13fff15 	stw	r4,-4(fp)
    IOWR_ALTERA_AVALON_TIMER_CONTROL(TIMER_BASE, 0x0003);
   20278:	00c000c4 	movi	r3,3
   2027c:	00800134 	movhi	r2,4
   20280:	10c40135 	stwio	r3,4100(r2)
    IOWR_ALTERA_AVALON_TIMER_STATUS(TIMER_BASE, 0);
   20284:	0007883a 	mov	r3,zero
   20288:	00800134 	movhi	r2,4
   2028c:	10c40035 	stwio	r3,4096(r2)
    IOWR_ALTERA_AVALON_TIMER_PERIODL(TIMER_BASE, 0x0000); //change period of timer with these two registers
   20290:	0007883a 	mov	r3,zero
   20294:	00800134 	movhi	r2,4
   20298:	10c40235 	stwio	r3,4104(r2)
    IOWR_ALTERA_AVALON_TIMER_PERIODH(TIMER_BASE, 0x0008); // PERIOD = {PERIODH,PERIODL} (concatenated)
   2029c:	00c00204 	movi	r3,8
   202a0:	00800134 	movhi	r2,4
   202a4:	10c40335 	stwio	r3,4108(r2)
    alt_irq_register(TIMER_IRQ, 0, isr);
   202a8:	e0bfff17 	ldw	r2,-4(fp)
   202ac:	100d883a 	mov	r6,r2
   202b0:	000b883a 	mov	r5,zero
   202b4:	0009883a 	mov	r4,zero
   202b8:	002d2440 	call	2d244 <alt_irq_register>
    IOWR_ALTERA_AVALON_TIMER_CONTROL(TIMER_BASE, 0x0007);
   202bc:	00c001c4 	movi	r3,7
   202c0:	00800134 	movhi	r2,4
   202c4:	10c40135 	stwio	r3,4100(r2)
}
   202c8:	0001883a 	nop
   202cc:	e037883a 	mov	sp,fp
   202d0:	dfc00117 	ldw	ra,4(sp)
   202d4:	df000017 	ldw	fp,0(sp)
   202d8:	dec00204 	addi	sp,sp,8
   202dc:	f800283a 	ret

000202e0 <sys_timer_isr>:

void sys_timer_isr() { //interrupt service routine
   202e0:	deffff04 	addi	sp,sp,-4
   202e4:	df000015 	stw	fp,0(sp)
   202e8:	d839883a 	mov	fp,sp
	IOWR_ALTERA_AVALON_TIMER_STATUS(TIMER_BASE, 0);
   202ec:	0007883a 	mov	r3,zero
   202f0:	00800134 	movhi	r2,4
   202f4:	10c40035 	stwio	r3,4096(r2)
	timer_f = 1;
   202f8:	00800044 	movi	r2,1
   202fc:	d0a72215 	stw	r2,-25464(gp)
}
   20300:	0001883a 	nop
   20304:	e037883a 	mov	sp,fp
   20308:	df000017 	ldw	fp,0(sp)
   2030c:	dec00104 	addi	sp,sp,4
   20310:	f800283a 	ret

00020314 <shift_xyz>:

void shift_xyz() {
   20314:	defffe04 	addi	sp,sp,-8
   20318:	df000115 	stw	fp,4(sp)
   2031c:	df000104 	addi	fp,sp,4
	//SHIFT SAMPLE
	for (int i=0; i<3; i++) {
   20320:	e03fff15 	stw	zero,-4(fp)
   20324:	00000d06 	br	2035c <shift_xyz+0x48>
		xyz_prev[i] = xyz[i];
   20328:	e0bfff17 	ldw	r2,-4(fp)
   2032c:	100690ba 	slli	r3,r2,2
   20330:	008000f4 	movhi	r2,3
   20334:	1885883a 	add	r2,r3,r2
   20338:	10cfd617 	ldw	r3,16216(r2)
   2033c:	e0bfff17 	ldw	r2,-4(fp)
   20340:	100890ba 	slli	r4,r2,2
   20344:	008000f4 	movhi	r2,3
   20348:	2085883a 	add	r2,r4,r2
   2034c:	10cfd915 	stw	r3,16228(r2)
	for (int i=0; i<3; i++) {
   20350:	e0bfff17 	ldw	r2,-4(fp)
   20354:	10800044 	addi	r2,r2,1
   20358:	e0bfff15 	stw	r2,-4(fp)
   2035c:	e0bfff17 	ldw	r2,-4(fp)
   20360:	108000d0 	cmplti	r2,r2,3
   20364:	103ff01e 	bne	r2,zero,20328 <shift_xyz+0x14>
	}
}
   20368:	0001883a 	nop
   2036c:	0001883a 	nop
   20370:	e037883a 	mov	sp,fp
   20374:	df000017 	ldw	fp,0(sp)
   20378:	dec00104 	addi	sp,sp,4
   2037c:	f800283a 	ret

00020380 <read_accelerometer>:

void read_accelerometer(alt_32* xyz) {
   20380:	defffd04 	addi	sp,sp,-12
   20384:	dfc00215 	stw	ra,8(sp)
   20388:	df000115 	stw	fp,4(sp)
   2038c:	df000104 	addi	fp,sp,4
   20390:	e13fff15 	stw	r4,-4(fp)
	//readings for all axes
	alt_up_accelerometer_spi_read_x_axis(acc_dev, xyz);
   20394:	d0a72417 	ldw	r2,-25456(gp)
   20398:	e17fff17 	ldw	r5,-4(fp)
   2039c:	1009883a 	mov	r4,r2
   203a0:	002eefc0 	call	2eefc <alt_up_accelerometer_spi_read_x_axis>
	alt_up_accelerometer_spi_read_y_axis(acc_dev, xyz+1);
   203a4:	d0e72417 	ldw	r3,-25456(gp)
   203a8:	e0bfff17 	ldw	r2,-4(fp)
   203ac:	10800104 	addi	r2,r2,4
   203b0:	100b883a 	mov	r5,r2
   203b4:	1809883a 	mov	r4,r3
   203b8:	002efd00 	call	2efd0 <alt_up_accelerometer_spi_read_y_axis>
	alt_up_accelerometer_spi_read_z_axis(acc_dev, xyz+2);
   203bc:	d0e72417 	ldw	r3,-25456(gp)
   203c0:	e0bfff17 	ldw	r2,-4(fp)
   203c4:	10800204 	addi	r2,r2,8
   203c8:	100b883a 	mov	r5,r2
   203cc:	1809883a 	mov	r4,r3
   203d0:	002f0a40 	call	2f0a4 <alt_up_accelerometer_spi_read_z_axis>
}
   203d4:	0001883a 	nop
   203d8:	e037883a 	mov	sp,fp
   203dc:	dfc00117 	ldw	ra,4(sp)
   203e0:	df000017 	ldw	fp,0(sp)
   203e4:	dec00204 	addi	sp,sp,8
   203e8:	f800283a 	ret

000203ec <max>:

int max() { //returns index of the maximum reading out of the 3 axes (current sample)
   203ec:	defffc04 	addi	sp,sp,-16
   203f0:	df000315 	stw	fp,12(sp)
   203f4:	df000304 	addi	fp,sp,12
	int max = abs(xyz[nox]);
   203f8:	d0a00317 	ldw	r2,-32756(gp)
   203fc:	100690ba 	slli	r3,r2,2
   20400:	008000f4 	movhi	r2,3
   20404:	1885883a 	add	r2,r3,r2
   20408:	108fd617 	ldw	r2,16216(r2)
   2040c:	1000010e 	bge	r2,zero,20414 <max+0x28>
   20410:	0085c83a 	sub	r2,zero,r2
   20414:	e0bfff15 	stw	r2,-4(fp)
	int index = nox;
   20418:	d0a00317 	ldw	r2,-32756(gp)
   2041c:	e0bffe15 	stw	r2,-8(fp)
	for (int i=1; i<3; i++) {
   20420:	00800044 	movi	r2,1
   20424:	e0bffd15 	stw	r2,-12(fp)
   20428:	00001706 	br	20488 <max+0x9c>
		if (abs(xyz[i]) > max) {
   2042c:	e0bffd17 	ldw	r2,-12(fp)
   20430:	100690ba 	slli	r3,r2,2
   20434:	008000f4 	movhi	r2,3
   20438:	1885883a 	add	r2,r3,r2
   2043c:	108fd617 	ldw	r2,16216(r2)
   20440:	1000010e 	bge	r2,zero,20448 <max+0x5c>
   20444:	0085c83a 	sub	r2,zero,r2
   20448:	1007883a 	mov	r3,r2
   2044c:	e0bfff17 	ldw	r2,-4(fp)
   20450:	10c00a0e 	bge	r2,r3,2047c <max+0x90>
			max = abs(xyz[i]);
   20454:	e0bffd17 	ldw	r2,-12(fp)
   20458:	100690ba 	slli	r3,r2,2
   2045c:	008000f4 	movhi	r2,3
   20460:	1885883a 	add	r2,r3,r2
   20464:	108fd617 	ldw	r2,16216(r2)
   20468:	1000010e 	bge	r2,zero,20470 <max+0x84>
   2046c:	0085c83a 	sub	r2,zero,r2
   20470:	e0bfff15 	stw	r2,-4(fp)
			index = i;
   20474:	e0bffd17 	ldw	r2,-12(fp)
   20478:	e0bffe15 	stw	r2,-8(fp)
	for (int i=1; i<3; i++) {
   2047c:	e0bffd17 	ldw	r2,-12(fp)
   20480:	10800044 	addi	r2,r2,1
   20484:	e0bffd15 	stw	r2,-12(fp)
   20488:	e0bffd17 	ldw	r2,-12(fp)
   2048c:	108000d0 	cmplti	r2,r2,3
   20490:	103fe61e 	bne	r2,zero,2042c <max+0x40>
		}
	}
	return index;
   20494:	e0bffe17 	ldw	r2,-8(fp)
}
   20498:	e037883a 	mov	sp,fp
   2049c:	df000017 	ldw	fp,0(sp)
   204a0:	dec00104 	addi	sp,sp,4
   204a4:	f800283a 	ret

000204a8 <min>:

int min() { //returns index of the maximum reading out of the 3 axes (current sample)
   204a8:	defffc04 	addi	sp,sp,-16
   204ac:	df000315 	stw	fp,12(sp)
   204b0:	df000304 	addi	fp,sp,12
	int min = abs(xyz[nox]);
   204b4:	d0a00317 	ldw	r2,-32756(gp)
   204b8:	100690ba 	slli	r3,r2,2
   204bc:	008000f4 	movhi	r2,3
   204c0:	1885883a 	add	r2,r3,r2
   204c4:	108fd617 	ldw	r2,16216(r2)
   204c8:	1000010e 	bge	r2,zero,204d0 <min+0x28>
   204cc:	0085c83a 	sub	r2,zero,r2
   204d0:	e0bfff15 	stw	r2,-4(fp)
	int index = nox;
   204d4:	d0a00317 	ldw	r2,-32756(gp)
   204d8:	e0bffe15 	stw	r2,-8(fp)
	for (int i=1; i<3; i++) {
   204dc:	00800044 	movi	r2,1
   204e0:	e0bffd15 	stw	r2,-12(fp)
   204e4:	00001706 	br	20544 <min+0x9c>
		if (abs(xyz[i]) < min) {
   204e8:	e0bffd17 	ldw	r2,-12(fp)
   204ec:	100690ba 	slli	r3,r2,2
   204f0:	008000f4 	movhi	r2,3
   204f4:	1885883a 	add	r2,r3,r2
   204f8:	108fd617 	ldw	r2,16216(r2)
   204fc:	1000010e 	bge	r2,zero,20504 <min+0x5c>
   20500:	0085c83a 	sub	r2,zero,r2
   20504:	1007883a 	mov	r3,r2
   20508:	e0bfff17 	ldw	r2,-4(fp)
   2050c:	18800a0e 	bge	r3,r2,20538 <min+0x90>
			min = abs(xyz[i]);
   20510:	e0bffd17 	ldw	r2,-12(fp)
   20514:	100690ba 	slli	r3,r2,2
   20518:	008000f4 	movhi	r2,3
   2051c:	1885883a 	add	r2,r3,r2
   20520:	108fd617 	ldw	r2,16216(r2)
   20524:	1000010e 	bge	r2,zero,2052c <min+0x84>
   20528:	0085c83a 	sub	r2,zero,r2
   2052c:	e0bfff15 	stw	r2,-4(fp)
			index = i;
   20530:	e0bffd17 	ldw	r2,-12(fp)
   20534:	e0bffe15 	stw	r2,-8(fp)
	for (int i=1; i<3; i++) {
   20538:	e0bffd17 	ldw	r2,-12(fp)
   2053c:	10800044 	addi	r2,r2,1
   20540:	e0bffd15 	stw	r2,-12(fp)
   20544:	e0bffd17 	ldw	r2,-12(fp)
   20548:	108000d0 	cmplti	r2,r2,3
   2054c:	103fe61e 	bne	r2,zero,204e8 <min+0x40>
		}
	}
	return index;
   20550:	e0bffe17 	ldw	r2,-8(fp)
}
   20554:	e037883a 	mov	sp,fp
   20558:	df000017 	ldw	fp,0(sp)
   2055c:	dec00104 	addi	sp,sp,4
   20560:	f800283a 	ret

00020564 <detect_ACT>:

int detect_ACT(FILE* uart) {
   20564:	defffc04 	addi	sp,sp,-16
   20568:	dfc00315 	stw	ra,12(sp)
   2056c:	df000215 	stw	fp,8(sp)
   20570:	df000204 	addi	fp,sp,8
   20574:	e13ffe15 	stw	r4,-8(fp)
	int i = max();
   20578:	00203ec0 	call	203ec <max>
   2057c:	e0bfff15 	stw	r2,-4(fp)

	//output char if the |acceleration|>threshold and gradient has same polarity
	if (xyz[i]*10 > (act_thresh_coef[i][0]*THRESHOLD_1G)) { //multiplied by 10 to fine-tune threshold
   20580:	e0bfff17 	ldw	r2,-4(fp)
   20584:	100690ba 	slli	r3,r2,2
   20588:	008000f4 	movhi	r2,3
   2058c:	1885883a 	add	r2,r3,r2
   20590:	10cfd617 	ldw	r3,16216(r2)
   20594:	1805883a 	mov	r2,r3
   20598:	100490ba 	slli	r2,r2,2
   2059c:	10c5883a 	add	r2,r2,r3
   205a0:	1085883a 	add	r2,r2,r2
   205a4:	1009883a 	mov	r4,r2
   205a8:	e0bfff17 	ldw	r2,-4(fp)
   205ac:	100690fa 	slli	r3,r2,3
   205b0:	008000f4 	movhi	r2,3
   205b4:	1885883a 	add	r2,r3,r2
   205b8:	10c1a917 	ldw	r3,1700(r2)
   205bc:	1805883a 	mov	r2,r3
   205c0:	1004923a 	slli	r2,r2,8
   205c4:	10c5c83a 	sub	r2,r2,r3
   205c8:	1100130e 	bge	r2,r4,20618 <detect_ACT+0xb4>
		if (uart) { alt_printf("%c\n", output[i][0]); }
   205cc:	e0bffe17 	ldw	r2,-8(fp)
   205d0:	10000c26 	beq	r2,zero,20604 <detect_ACT+0xa0>
   205d4:	e0bfff17 	ldw	r2,-4(fp)
   205d8:	1087883a 	add	r3,r2,r2
   205dc:	d0a00004 	addi	r2,gp,-32768
   205e0:	1885883a 	add	r2,r3,r2
   205e4:	10800003 	ldbu	r2,0(r2)
   205e8:	10803fcc 	andi	r2,r2,255
   205ec:	1080201c 	xori	r2,r2,128
   205f0:	10bfe004 	addi	r2,r2,-128
   205f4:	100b883a 	mov	r5,r2
   205f8:	010000f4 	movhi	r4,3
   205fc:	213fb704 	addi	r4,r4,-292
   20600:	002db5c0 	call	2db5c <alt_printf>
		led++;
   20604:	d0a00183 	ldbu	r2,-32762(gp)
   20608:	10800044 	addi	r2,r2,1
   2060c:	d0a00185 	stb	r2,-32762(gp)
		return 1;
   20610:	00800044 	movi	r2,1
   20614:	00002a06 	br	206c0 <detect_ACT+0x15c>
	} else if ((xyz[i]*10 < -(act_thresh_coef[i][1]*THRESHOLD_1G))) { //Threshold cannot be below 255 as tilting the controller can cause reading abs(255) in any axis
   20618:	e0bfff17 	ldw	r2,-4(fp)
   2061c:	100690ba 	slli	r3,r2,2
   20620:	008000f4 	movhi	r2,3
   20624:	1885883a 	add	r2,r3,r2
   20628:	10cfd617 	ldw	r3,16216(r2)
   2062c:	1805883a 	mov	r2,r3
   20630:	100490ba 	slli	r2,r2,2
   20634:	10c5883a 	add	r2,r2,r3
   20638:	1085883a 	add	r2,r2,r2
   2063c:	1009883a 	mov	r4,r2
   20640:	e0bfff17 	ldw	r2,-4(fp)
   20644:	100690fa 	slli	r3,r2,3
   20648:	008000f4 	movhi	r2,3
   2064c:	1885883a 	add	r2,r3,r2
   20650:	1081aa17 	ldw	r2,1704(r2)
   20654:	1007883a 	mov	r3,r2
   20658:	1004923a 	slli	r2,r2,8
   2065c:	1885c83a 	sub	r2,r3,r2
   20660:	2080130e 	bge	r4,r2,206b0 <detect_ACT+0x14c>
		if (uart) { alt_printf("%c\n", output[i][1]); }
   20664:	e0bffe17 	ldw	r2,-8(fp)
   20668:	10000c26 	beq	r2,zero,2069c <detect_ACT+0x138>
   2066c:	e0bfff17 	ldw	r2,-4(fp)
   20670:	1087883a 	add	r3,r2,r2
   20674:	d0a00044 	addi	r2,gp,-32767
   20678:	1885883a 	add	r2,r3,r2
   2067c:	10800003 	ldbu	r2,0(r2)
   20680:	10803fcc 	andi	r2,r2,255
   20684:	1080201c 	xori	r2,r2,128
   20688:	10bfe004 	addi	r2,r2,-128
   2068c:	100b883a 	mov	r5,r2
   20690:	010000f4 	movhi	r4,3
   20694:	213fb704 	addi	r4,r4,-292
   20698:	002db5c0 	call	2db5c <alt_printf>
		led++;
   2069c:	d0a00183 	ldbu	r2,-32762(gp)
   206a0:	10800044 	addi	r2,r2,1
   206a4:	d0a00185 	stb	r2,-32762(gp)
		return 1;
   206a8:	00800044 	movi	r2,1
   206ac:	00000406 	br	206c0 <detect_ACT+0x15c>
	} else {
//		putchar('0');
		alt_printf("0");
   206b0:	010000f4 	movhi	r4,3
   206b4:	213fb804 	addi	r4,r4,-288
   206b8:	002db5c0 	call	2db5c <alt_printf>
		return 0; //return 0 if reading magnitude too small
   206bc:	0005883a 	mov	r2,zero
	}
}
   206c0:	e037883a 	mov	sp,fp
   206c4:	dfc00117 	ldw	ra,4(sp)
   206c8:	df000017 	ldw	fp,0(sp)
   206cc:	dec00204 	addi	sp,sp,8
   206d0:	f800283a 	ret

000206d4 <detect_INACT>:

int detect_INACT(int i){
   206d4:	defffe04 	addi	sp,sp,-8
   206d8:	df000115 	stw	fp,4(sp)
   206dc:	df000104 	addi	fp,sp,4
   206e0:	e13fff15 	stw	r4,-4(fp)
	if ((abs(xyz[i])*10) < (inact_thresh_coef[i]*THRESHOLD_1G)) { //multiplied by 10 to fine-tune threshold
   206e4:	e0bfff17 	ldw	r2,-4(fp)
   206e8:	100690ba 	slli	r3,r2,2
   206ec:	008000f4 	movhi	r2,3
   206f0:	1885883a 	add	r2,r3,r2
   206f4:	108fd617 	ldw	r2,16216(r2)
   206f8:	1000010e 	bge	r2,zero,20700 <detect_INACT+0x2c>
   206fc:	0085c83a 	sub	r2,zero,r2
   20700:	1007883a 	mov	r3,r2
   20704:	1805883a 	mov	r2,r3
   20708:	100490ba 	slli	r2,r2,2
   2070c:	10c5883a 	add	r2,r2,r3
   20710:	1085883a 	add	r2,r2,r2
   20714:	1009883a 	mov	r4,r2
   20718:	e0bfff17 	ldw	r2,-4(fp)
   2071c:	100690ba 	slli	r3,r2,2
   20720:	008000f4 	movhi	r2,3
   20724:	1885883a 	add	r2,r3,r2
   20728:	10c1af17 	ldw	r3,1724(r2)
   2072c:	1805883a 	mov	r2,r3
   20730:	1004923a 	slli	r2,r2,8
   20734:	10c5c83a 	sub	r2,r2,r3
   20738:	2080020e 	bge	r4,r2,20744 <detect_INACT+0x70>
		return 1;
   2073c:	00800044 	movi	r2,1
   20740:	00000106 	br	20748 <detect_INACT+0x74>
	} else {
		return 0; //return 0 if reading magnitude too large
   20744:	0005883a 	mov	r2,zero
	}
}
   20748:	e037883a 	mov	sp,fp
   2074c:	df000017 	ldw	fp,0(sp)
   20750:	dec00104 	addi	sp,sp,4
   20754:	f800283a 	ret

00020758 <wait_INACT>:

int wait_INACT() {
   20758:	defffd04 	addi	sp,sp,-12
   2075c:	dfc00215 	stw	ra,8(sp)
   20760:	df000115 	stw	fp,4(sp)
   20764:	df000104 	addi	fp,sp,4
	int i = min();
   20768:	00204a80 	call	204a8 <min>
   2076c:	e0bfff15 	stw	r2,-4(fp)
	if (inact_counter < INACT_SAMPLES) {
   20770:	d0a72317 	ldw	r2,-25460(gp)
   20774:	10800288 	cmpgei	r2,r2,10
   20778:	10000a1e 	bne	r2,zero,207a4 <wait_INACT+0x4c>
		if (detect_INACT(i)) {
   2077c:	e13fff17 	ldw	r4,-4(fp)
   20780:	00206d40 	call	206d4 <detect_INACT>
   20784:	10000426 	beq	r2,zero,20798 <wait_INACT+0x40>
			inact_counter++;
   20788:	d0a72317 	ldw	r2,-25460(gp)
   2078c:	10800044 	addi	r2,r2,1
   20790:	d0a72315 	stw	r2,-25460(gp)
   20794:	00000106 	br	2079c <wait_INACT+0x44>
		} else {
			inact_counter = 0;
   20798:	d0272315 	stw	zero,-25460(gp)
		}
		return 0;
   2079c:	0005883a 	mov	r2,zero
   207a0:	00000206 	br	207ac <wait_INACT+0x54>
	} else {
		inact_counter = 0;
   207a4:	d0272315 	stw	zero,-25460(gp)
		return 1;
   207a8:	00800044 	movi	r2,1
	}

}
   207ac:	e037883a 	mov	sp,fp
   207b0:	dfc00117 	ldw	ra,4(sp)
   207b4:	df000017 	ldw	fp,0(sp)
   207b8:	dec00204 	addi	sp,sp,8
   207bc:	f800283a 	ret

000207c0 <main>:

int main(){
   207c0:	defff604 	addi	sp,sp,-40
   207c4:	dfc00915 	stw	ra,36(sp)
   207c8:	df000815 	stw	fp,32(sp)
   207cc:	df000804 	addi	fp,sp,32
	//INITIATING FILE FOR SENDING
	FILE* fp;
	char prompt;
	char* score = malloc(4);
   207d0:	01000104 	movi	r4,4
   207d4:	00213440 	call	21344 <malloc>
   207d8:	e0bffd15 	stw	r2,-12(fp)
	strcpy(score, "0000");
   207dc:	e0bffd17 	ldw	r2,-12(fp)
   207e0:	00c00c04 	movi	r3,48
   207e4:	10c00005 	stb	r3,0(r2)
   207e8:	00c00c04 	movi	r3,48
   207ec:	10c00045 	stb	r3,1(r2)
   207f0:	00c00c04 	movi	r3,48
   207f4:	10c00085 	stb	r3,2(r2)
   207f8:	00c00c04 	movi	r3,48
   207fc:	10c000c5 	stb	r3,3(r2)
   20800:	10000105 	stb	zero,4(r2)
	fp = fopen ("/dev/jtag_uart", "r+");
   20804:	014000f4 	movhi	r5,3
   20808:	297fb904 	addi	r5,r5,-284
   2080c:	010000f4 	movhi	r4,3
   20810:	213fba04 	addi	r4,r4,-280
   20814:	0020b580 	call	20b58 <fopen>
   20818:	e0bffc15 	stw	r2,-16(fp)

	acc_dev = alt_up_accelerometer_spi_open_dev("/dev/accelerometer_spi");
   2081c:	010000f4 	movhi	r4,3
   20820:	213fbe04 	addi	r4,r4,-264
   20824:	002edac0 	call	2edac <alt_up_accelerometer_spi_open_dev>
   20828:	d0a72415 	stw	r2,-25456(gp)
	if (acc_dev == NULL) { // if return 1, check if the spi ip name is "accelerometer_spi"
   2082c:	d0a72417 	ldw	r2,-25456(gp)
   20830:	1000021e 	bne	r2,zero,2083c <main+0x7c>
		return 1;
   20834:	00800044 	movi	r2,1
   20838:	00006406 	br	209cc <main+0x20c>
	}
	alt_up_accelerometer_spi_write(acc_dev, 0x1F, -63);
   2083c:	d0a72417 	ldw	r2,-25456(gp)
   20840:	01803044 	movi	r6,193
   20844:	014007c4 	movi	r5,31
   20848:	1009883a 	mov	r4,r2
   2084c:	002ee940 	call	2ee94 <alt_up_accelerometer_spi_write>
	//By default accelerometer reads 0g,0g,1g
	//writing to Z OFFSET register on accelerometer, accounting for 1g caused by gravity.
	//The offset is scaled by a factor of 2 so (127 - 2*-63=0)(127=1G according to datasheet)
	//The output is scaled to 8 bits (255=1G), difference is confusing but worked.

	timer_init(sys_timer_isr); //initialising timer with isr
   20850:	010000b4 	movhi	r4,2
   20854:	2100b804 	addi	r4,r4,736
   20858:	00202640 	call	20264 <timer_init>

	while(1){
		//READ DATA

		for (int j = 0; j < 1000; j++) {
   2085c:	e03fff15 	stw	zero,-4(fp)
   20860:	00003e06 	br	2095c <main+0x19c>
			alt_32 xyz_raw[] = {0,0,0};
   20864:	e03ff815 	stw	zero,-32(fp)
   20868:	e03ff915 	stw	zero,-28(fp)
   2086c:	e03ffa15 	stw	zero,-24(fp)
			read_accelerometer(xyz_raw);
   20870:	e0bff804 	addi	r2,fp,-32
   20874:	1009883a 	mov	r4,r2
   20878:	00203800 	call	20380 <read_accelerometer>

			//FILTER DATA
			IOWR_ALTERA_AVALON_PIO_DATA(FILTER_X_IN_BASE, xyz_raw[0]);
   2087c:	e0fff817 	ldw	r3,-32(fp)
   20880:	00800134 	movhi	r2,4
   20884:	10c41835 	stwio	r3,4192(r2)
			IOWR_ALTERA_AVALON_PIO_DATA(FILTER_Y_IN_BASE, xyz_raw[1]);
   20888:	e0fff917 	ldw	r3,-28(fp)
   2088c:	00800134 	movhi	r2,4
   20890:	10c41435 	stwio	r3,4176(r2)
			IOWR_ALTERA_AVALON_PIO_DATA(FILTER_Z_IN_BASE, xyz_raw[2]);
   20894:	e0fffa17 	ldw	r3,-24(fp)
   20898:	00800134 	movhi	r2,4
   2089c:	10c40c35 	stwio	r3,4144(r2)

			xyz[0] = IORD_ALTERA_AVALON_PIO_DATA(FILTER_X_OUT_BASE);
   208a0:	00800134 	movhi	r2,4
   208a4:	10c41c37 	ldwio	r3,4208(r2)
   208a8:	008000f4 	movhi	r2,3
   208ac:	10cfd615 	stw	r3,16216(r2)
			xyz[1] = IORD_ALTERA_AVALON_PIO_DATA(FILTER_Y_OUT_BASE);
   208b0:	00800134 	movhi	r2,4
   208b4:	10c41037 	ldwio	r3,4160(r2)
   208b8:	008000f4 	movhi	r2,3
   208bc:	10cfd715 	stw	r3,16220(r2)
			xyz[2] = IORD_ALTERA_AVALON_PIO_DATA(FILTER_Z_OUT_BASE);
   208c0:	00800134 	movhi	r2,4
   208c4:	10c40837 	ldwio	r3,4128(r2)
   208c8:	008000f4 	movhi	r2,3
   208cc:	10cfd815 	stw	r3,16224(r2)

			//SUBROUTINE TRIGGERED BY TIMER
			if (timer_f & en_f) {
   208d0:	d0e72217 	ldw	r3,-25464(gp)
   208d4:	d0a00217 	ldw	r2,-32760(gp)
   208d8:	1884703a 	and	r2,r3,r2
   208dc:	10000826 	beq	r2,zero,20900 <main+0x140>
				en_f = !detect_ACT(fp);
   208e0:	e13ffc17 	ldw	r4,-16(fp)
   208e4:	00205640 	call	20564 <detect_ACT>
   208e8:	1005003a 	cmpeq	r2,r2,zero
   208ec:	10803fcc 	andi	r2,r2,255
   208f0:	d0a00215 	stw	r2,-32760(gp)
				shift_xyz();
   208f4:	00203140 	call	20314 <shift_xyz>
				timer_f = 0;
   208f8:	d0272215 	stw	zero,-25464(gp)
   208fc:	00000406 	br	20910 <main+0x150>
			} else if (!en_f) {
   20900:	d0a00217 	ldw	r2,-32760(gp)
   20904:	1000021e 	bne	r2,zero,20910 <main+0x150>
				en_f = wait_INACT();
   20908:	00207580 	call	20758 <wait_INACT>
   2090c:	d0a00215 	stw	r2,-32760(gp)
			}

			//TESTING HEX OUTPUTS
			IOWR_ALTERA_AVALON_PIO_DATA(HEX_DISPLAY_BASE, abs(atof(score)));
   20910:	e13ffd17 	ldw	r4,-12(fp)
   20914:	0020a600 	call	20a60 <atof>
   20918:	100d883a 	mov	r6,r2
   2091c:	180f883a 	mov	r7,r3
   20920:	3009883a 	mov	r4,r6
   20924:	380b883a 	mov	r5,r7
   20928:	00209e00 	call	209e0 <__fixdfsi>
   2092c:	1000010e 	bge	r2,zero,20934 <main+0x174>
   20930:	0085c83a 	sub	r2,zero,r2
   20934:	1007883a 	mov	r3,r2
   20938:	00800134 	movhi	r2,4
   2093c:	10c42035 	stwio	r3,4224(r2)
			IOWR_ALTERA_AVALON_PIO_DATA(LED_BASE, led);
   20940:	d0a00183 	ldbu	r2,-32762(gp)
   20944:	10c03fcc 	andi	r3,r2,255
   20948:	00800134 	movhi	r2,4
   2094c:	10c42435 	stwio	r3,4240(r2)
		for (int j = 0; j < 1000; j++) {
   20950:	e0bfff17 	ldw	r2,-4(fp)
   20954:	10800044 	addi	r2,r2,1
   20958:	e0bfff15 	stw	r2,-4(fp)
   2095c:	e0bfff17 	ldw	r2,-4(fp)
   20960:	1080fa10 	cmplti	r2,r2,1000
   20964:	103fbf1e 	bne	r2,zero,20864 <main+0xa4>
		}

		if (fp) {
   20968:	e0bffc17 	ldw	r2,-16(fp)
   2096c:	103fbb26 	beq	r2,zero,2085c <main+0x9c>
			prompt = getc(fp);
   20970:	e13ffc17 	ldw	r4,-16(fp)
   20974:	00210dc0 	call	210dc <getc>
   20978:	e0bffbc5 	stb	r2,-17(fp)
			if (prompt == 's') {
   2097c:	e0bffbc7 	ldb	r2,-17(fp)
   20980:	10801cd8 	cmpnei	r2,r2,115
   20984:	103fb51e 	bne	r2,zero,2085c <main+0x9c>
			// ASSIGN NEXT 4 CHARACTERS TO SCORE
				for(int s = 0; s < 4; s++){
   20988:	e03ffe15 	stw	zero,-8(fp)
   2098c:	00000b06 	br	209bc <main+0x1fc>
					prompt = getc(fp);
   20990:	e13ffc17 	ldw	r4,-16(fp)
   20994:	00210dc0 	call	210dc <getc>
   20998:	e0bffbc5 	stb	r2,-17(fp)
				    // fprintf(fp, "FPGA: %c\n", prompt);
				    score[s] = prompt;
   2099c:	e0bffe17 	ldw	r2,-8(fp)
   209a0:	e0fffd17 	ldw	r3,-12(fp)
   209a4:	1885883a 	add	r2,r3,r2
   209a8:	e0fffbc3 	ldbu	r3,-17(fp)
   209ac:	10c00005 	stb	r3,0(r2)
				for(int s = 0; s < 4; s++){
   209b0:	e0bffe17 	ldw	r2,-8(fp)
   209b4:	10800044 	addi	r2,r2,1
   209b8:	e0bffe15 	stw	r2,-8(fp)
   209bc:	e0bffe17 	ldw	r2,-8(fp)
   209c0:	10800110 	cmplti	r2,r2,4
   209c4:	103ff21e 	bne	r2,zero,20990 <main+0x1d0>
		for (int j = 0; j < 1000; j++) {
   209c8:	003fa406 	br	2085c <main+0x9c>
		// fprintf(fp, "score: %s\n", score);

	}

	return 0;
}
   209cc:	e037883a 	mov	sp,fp
   209d0:	dfc00117 	ldw	ra,4(sp)
   209d4:	df000017 	ldw	fp,0(sp)
   209d8:	dec00204 	addi	sp,sp,8
   209dc:	f800283a 	ret

000209e0 <__fixdfsi>:
   209e0:	2806d53a 	srli	r3,r5,20
   209e4:	01800434 	movhi	r6,16
   209e8:	31bfffc4 	addi	r6,r6,-1
   209ec:	18c1ffcc 	andi	r3,r3,2047
   209f0:	19c0ffd0 	cmplti	r7,r3,1023
   209f4:	2810d7fa 	srli	r8,r5,31
   209f8:	298a703a 	and	r5,r5,r6
   209fc:	3800061e 	bne	r7,zero,20a18 <__fixdfsi+0x38>
   20a00:	18810790 	cmplti	r2,r3,1054
   20a04:	1000061e 	bne	r2,zero,20a20 <__fixdfsi+0x40>
   20a08:	00a00034 	movhi	r2,32768
   20a0c:	10bfffc4 	addi	r2,r2,-1
   20a10:	4085883a 	add	r2,r8,r2
   20a14:	f800283a 	ret
   20a18:	0005883a 	mov	r2,zero
   20a1c:	f800283a 	ret
   20a20:	01810cc4 	movi	r6,1075
   20a24:	30cdc83a 	sub	r6,r6,r3
   20a28:	30800808 	cmpgei	r2,r6,32
   20a2c:	29400434 	orhi	r5,r5,16
   20a30:	1000071e 	bne	r2,zero,20a50 <__fixdfsi+0x70>
   20a34:	18befb44 	addi	r2,r3,-1043
   20a38:	2884983a 	sll	r2,r5,r2
   20a3c:	2188d83a 	srl	r4,r4,r6
   20a40:	1104b03a 	or	r2,r2,r4
   20a44:	403ff526 	beq	r8,zero,20a1c <__fixdfsi+0x3c>
   20a48:	0085c83a 	sub	r2,zero,r2
   20a4c:	f800283a 	ret
   20a50:	008104c4 	movi	r2,1043
   20a54:	10c5c83a 	sub	r2,r2,r3
   20a58:	2884d83a 	srl	r2,r5,r2
   20a5c:	003ff906 	br	20a44 <__fixdfsi+0x64>

00020a60 <atof>:
   20a60:	000b883a 	mov	r5,zero
   20a64:	00235c41 	jmpi	235c4 <strtod>

00020a68 <_fopen_r>:
   20a68:	defffa04 	addi	sp,sp,-24
   20a6c:	3007883a 	mov	r3,r6
   20a70:	dcc00415 	stw	r19,16(sp)
   20a74:	d80d883a 	mov	r6,sp
   20a78:	2827883a 	mov	r19,r5
   20a7c:	180b883a 	mov	r5,r3
   20a80:	dc800315 	stw	r18,12(sp)
   20a84:	dfc00515 	stw	ra,20(sp)
   20a88:	dc400215 	stw	r17,8(sp)
   20a8c:	dc000115 	stw	r16,4(sp)
   20a90:	2025883a 	mov	r18,r4
   20a94:	0023f200 	call	23f20 <__sflags>
   20a98:	10002726 	beq	r2,zero,20b38 <_fopen_r+0xd0>
   20a9c:	9009883a 	mov	r4,r18
   20aa0:	1023883a 	mov	r17,r2
   20aa4:	0023dc80 	call	23dc8 <__sfp>
   20aa8:	1021883a 	mov	r16,r2
   20aac:	10002226 	beq	r2,zero,20b38 <_fopen_r+0xd0>
   20ab0:	d9800017 	ldw	r6,0(sp)
   20ab4:	01c06d84 	movi	r7,438
   20ab8:	980b883a 	mov	r5,r19
   20abc:	9009883a 	mov	r4,r18
   20ac0:	0021b440 	call	21b44 <_open_r>
   20ac4:	10001916 	blt	r2,zero,20b2c <_fopen_r+0xc4>
   20ac8:	018000b4 	movhi	r6,2
   20acc:	014000b4 	movhi	r5,2
   20ad0:	010000b4 	movhi	r4,2
   20ad4:	00c000b4 	movhi	r3,2
   20ad8:	31879b04 	addi	r6,r6,7788
   20adc:	2947b204 	addi	r5,r5,7880
   20ae0:	2107d204 	addi	r4,r4,8008
   20ae4:	18c7e904 	addi	r3,r3,8100
   20ae8:	8440030d 	sth	r17,12(r16)
   20aec:	8080038d 	sth	r2,14(r16)
   20af0:	84000715 	stw	r16,28(r16)
   20af4:	81800815 	stw	r6,32(r16)
   20af8:	81400915 	stw	r5,36(r16)
   20afc:	81000a15 	stw	r4,40(r16)
   20b00:	80c00b15 	stw	r3,44(r16)
   20b04:	8c40400c 	andi	r17,r17,256
   20b08:	88000d1e 	bne	r17,zero,20b40 <_fopen_r+0xd8>
   20b0c:	8005883a 	mov	r2,r16
   20b10:	dfc00517 	ldw	ra,20(sp)
   20b14:	dcc00417 	ldw	r19,16(sp)
   20b18:	dc800317 	ldw	r18,12(sp)
   20b1c:	dc400217 	ldw	r17,8(sp)
   20b20:	dc000117 	ldw	r16,4(sp)
   20b24:	dec00604 	addi	sp,sp,24
   20b28:	f800283a 	ret
   20b2c:	0023ee80 	call	23ee8 <__sfp_lock_acquire>
   20b30:	8000030d 	sth	zero,12(r16)
   20b34:	0023eec0 	call	23eec <__sfp_lock_release>
   20b38:	0021883a 	mov	r16,zero
   20b3c:	003ff306 	br	20b0c <_fopen_r+0xa4>
   20b40:	01c00084 	movi	r7,2
   20b44:	000d883a 	mov	r6,zero
   20b48:	800b883a 	mov	r5,r16
   20b4c:	9009883a 	mov	r4,r18
   20b50:	0020b700 	call	20b70 <_fseek_r>
   20b54:	003fed06 	br	20b0c <_fopen_r+0xa4>

00020b58 <fopen>:
   20b58:	00c000f4 	movhi	r3,3
   20b5c:	2005883a 	mov	r2,r4
   20b60:	1908aa17 	ldw	r4,8872(r3)
   20b64:	280d883a 	mov	r6,r5
   20b68:	100b883a 	mov	r5,r2
   20b6c:	0020a681 	jmpi	20a68 <_fopen_r>

00020b70 <_fseek_r>:
   20b70:	0020b901 	jmpi	20b90 <_fseeko_r>

00020b74 <fseek>:
   20b74:	00c000f4 	movhi	r3,3
   20b78:	2005883a 	mov	r2,r4
   20b7c:	1908aa17 	ldw	r4,8872(r3)
   20b80:	300f883a 	mov	r7,r6
   20b84:	280d883a 	mov	r6,r5
   20b88:	100b883a 	mov	r5,r2
   20b8c:	0020b901 	jmpi	20b90 <_fseeko_r>

00020b90 <_fseeko_r>:
   20b90:	deffe504 	addi	sp,sp,-108
   20b94:	dd401715 	stw	r21,92(sp)
   20b98:	dcc01515 	stw	r19,84(sp)
   20b9c:	dc401315 	stw	r17,76(sp)
   20ba0:	dc001215 	stw	r16,72(sp)
   20ba4:	dfc01a15 	stw	ra,104(sp)
   20ba8:	ddc01915 	stw	r23,100(sp)
   20bac:	dd801815 	stw	r22,96(sp)
   20bb0:	dd001615 	stw	r20,88(sp)
   20bb4:	dc801415 	stw	r18,80(sp)
   20bb8:	2023883a 	mov	r17,r4
   20bbc:	2821883a 	mov	r16,r5
   20bc0:	3027883a 	mov	r19,r6
   20bc4:	382b883a 	mov	r21,r7
   20bc8:	20000226 	beq	r4,zero,20bd4 <_fseeko_r+0x44>
   20bcc:	20800e17 	ldw	r2,56(r4)
   20bd0:	10001a26 	beq	r2,zero,20c3c <_fseeko_r+0xac>
   20bd4:	8080030b 	ldhu	r2,12(r16)
   20bd8:	1080420c 	andi	r2,r2,264
   20bdc:	10804218 	cmpnei	r2,r2,264
   20be0:	10001b26 	beq	r2,zero,20c50 <_fseeko_r+0xc0>
   20be4:	85000a17 	ldw	r20,40(r16)
   20be8:	a000fa26 	beq	r20,zero,20fd4 <_fseeko_r+0x444>
   20bec:	a8800060 	cmpeqi	r2,r21,1
   20bf0:	10004a1e 	bne	r2,zero,20d1c <_fseeko_r+0x18c>
   20bf4:	04bfff44 	movi	r18,-3
   20bf8:	aca4703a 	and	r18,r21,r18
   20bfc:	90001826 	beq	r18,zero,20c60 <_fseeko_r+0xd0>
   20c00:	00800584 	movi	r2,22
   20c04:	88800015 	stw	r2,0(r17)
   20c08:	04bfffc4 	movi	r18,-1
   20c0c:	9005883a 	mov	r2,r18
   20c10:	dfc01a17 	ldw	ra,104(sp)
   20c14:	ddc01917 	ldw	r23,100(sp)
   20c18:	dd801817 	ldw	r22,96(sp)
   20c1c:	dd401717 	ldw	r21,92(sp)
   20c20:	dd001617 	ldw	r20,88(sp)
   20c24:	dcc01517 	ldw	r19,84(sp)
   20c28:	dc801417 	ldw	r18,80(sp)
   20c2c:	dc401317 	ldw	r17,76(sp)
   20c30:	dc001217 	ldw	r16,72(sp)
   20c34:	dec01b04 	addi	sp,sp,108
   20c38:	f800283a 	ret
   20c3c:	0023ed80 	call	23ed8 <__sinit>
   20c40:	8080030b 	ldhu	r2,12(r16)
   20c44:	1080420c 	andi	r2,r2,264
   20c48:	10804218 	cmpnei	r2,r2,264
   20c4c:	103fe51e 	bne	r2,zero,20be4 <_fseeko_r+0x54>
   20c50:	800b883a 	mov	r5,r16
   20c54:	8809883a 	mov	r4,r17
   20c58:	0023b440 	call	23b44 <_fflush_r>
   20c5c:	003fe106 	br	20be4 <_fseeko_r+0x54>
   20c60:	81000417 	ldw	r4,16(r16)
   20c64:	002f883a 	mov	r23,zero
   20c68:	20004826 	beq	r4,zero,20d8c <_fseeko_r+0x1fc>
   20c6c:	8080030b 	ldhu	r2,12(r16)
   20c70:	10c2068c 	andi	r3,r2,2074
   20c74:	1800071e 	bne	r3,zero,20c94 <_fseeko_r+0x104>
   20c78:	10c1000c 	andi	r3,r2,1024
   20c7c:	1800561e 	bne	r3,zero,20dd8 <_fseeko_r+0x248>
   20c80:	00c000b4 	movhi	r3,2
   20c84:	18c7d204 	addi	r3,r3,8008
   20c88:	a0c04426 	beq	r20,r3,20d9c <_fseeko_r+0x20c>
   20c8c:	10820014 	ori	r2,r2,2048
   20c90:	8080030d 	sth	r2,12(r16)
   20c94:	800b883a 	mov	r5,r16
   20c98:	8809883a 	mov	r4,r17
   20c9c:	0023b440 	call	23b44 <_fflush_r>
   20ca0:	1025883a 	mov	r18,r2
   20ca4:	103fd81e 	bne	r2,zero,20c08 <_fseeko_r+0x78>
   20ca8:	81400717 	ldw	r5,28(r16)
   20cac:	a80f883a 	mov	r7,r21
   20cb0:	980d883a 	mov	r6,r19
   20cb4:	8809883a 	mov	r4,r17
   20cb8:	a03ee83a 	callr	r20
   20cbc:	10bfffe0 	cmpeqi	r2,r2,-1
   20cc0:	103fd11e 	bne	r2,zero,20c08 <_fseeko_r+0x78>
   20cc4:	81400c17 	ldw	r5,48(r16)
   20cc8:	28000526 	beq	r5,zero,20ce0 <_fseeko_r+0x150>
   20ccc:	80801004 	addi	r2,r16,64
   20cd0:	28800226 	beq	r5,r2,20cdc <_fseeko_r+0x14c>
   20cd4:	8809883a 	mov	r4,r17
   20cd8:	00240f40 	call	240f4 <_free_r>
   20cdc:	80000c15 	stw	zero,48(r16)
   20ce0:	8080030b 	ldhu	r2,12(r16)
   20ce4:	80c00417 	ldw	r3,16(r16)
   20ce8:	80000115 	stw	zero,4(r16)
   20cec:	10bdf7cc 	andi	r2,r2,63455
   20cf0:	80c00015 	stw	r3,0(r16)
   20cf4:	8080030d 	sth	r2,12(r16)
   20cf8:	80001705 	stb	zero,92(r16)
   20cfc:	80001745 	stb	zero,93(r16)
   20d00:	80001785 	stb	zero,94(r16)
   20d04:	800017c5 	stb	zero,95(r16)
   20d08:	80001805 	stb	zero,96(r16)
   20d0c:	80001845 	stb	zero,97(r16)
   20d10:	80001885 	stb	zero,98(r16)
   20d14:	800018c5 	stb	zero,99(r16)
   20d18:	003fbc06 	br	20c0c <_fseeko_r+0x7c>
   20d1c:	800b883a 	mov	r5,r16
   20d20:	8809883a 	mov	r4,r17
   20d24:	0023b440 	call	23b44 <_fflush_r>
   20d28:	8080030b 	ldhu	r2,12(r16)
   20d2c:	10c4000c 	andi	r3,r2,4096
   20d30:	18006e1e 	bne	r3,zero,20eec <_fseeko_r+0x35c>
   20d34:	81400717 	ldw	r5,28(r16)
   20d38:	01c00044 	movi	r7,1
   20d3c:	000d883a 	mov	r6,zero
   20d40:	8809883a 	mov	r4,r17
   20d44:	a03ee83a 	callr	r20
   20d48:	1025883a 	mov	r18,r2
   20d4c:	10bfffd8 	cmpnei	r2,r2,-1
   20d50:	103fad26 	beq	r2,zero,20c08 <_fseeko_r+0x78>
   20d54:	8080030b 	ldhu	r2,12(r16)
   20d58:	81000417 	ldw	r4,16(r16)
   20d5c:	10c0010c 	andi	r3,r2,4
   20d60:	18006626 	beq	r3,zero,20efc <_fseeko_r+0x36c>
   20d64:	80c00117 	ldw	r3,4(r16)
   20d68:	80800c17 	ldw	r2,48(r16)
   20d6c:	90e5c83a 	sub	r18,r18,r3
   20d70:	10000226 	beq	r2,zero,20d7c <_fseeko_r+0x1ec>
   20d74:	81800f17 	ldw	r6,60(r16)
   20d78:	91a5c83a 	sub	r18,r18,r6
   20d7c:	9ca7883a 	add	r19,r19,r18
   20d80:	05c00044 	movi	r23,1
   20d84:	002b883a 	mov	r21,zero
   20d88:	203fb81e 	bne	r4,zero,20c6c <_fseeko_r+0xdc>
   20d8c:	800b883a 	mov	r5,r16
   20d90:	8809883a 	mov	r4,r17
   20d94:	00212040 	call	21204 <__smakebuf_r>
   20d98:	003fb406 	br	20c6c <_fseeko_r+0xdc>
   20d9c:	8140038f 	ldh	r5,14(r16)
   20da0:	283fba16 	blt	r5,zero,20c8c <_fseeko_r+0xfc>
   20da4:	d80d883a 	mov	r6,sp
   20da8:	8809883a 	mov	r4,r17
   20dac:	00210000 	call	21000 <_fstat_r>
   20db0:	1000761e 	bne	r2,zero,20f8c <_fseeko_r+0x3fc>
   20db4:	d8c00117 	ldw	r3,4(sp)
   20db8:	01200014 	movui	r4,32768
   20dbc:	8080030b 	ldhu	r2,12(r16)
   20dc0:	18fc000c 	andi	r3,r3,61440
   20dc4:	193fb11e 	bne	r3,r4,20c8c <_fseeko_r+0xfc>
   20dc8:	10810014 	ori	r2,r2,1024
   20dcc:	00c10004 	movi	r3,1024
   20dd0:	80c01315 	stw	r3,76(r16)
   20dd4:	8080030d 	sth	r2,12(r16)
   20dd8:	a8004f1e 	bne	r21,zero,20f18 <_fseeko_r+0x388>
   20ddc:	982d883a 	mov	r22,r19
   20de0:	b800551e 	bne	r23,zero,20f38 <_fseeko_r+0x3a8>
   20de4:	8080030b 	ldhu	r2,12(r16)
   20de8:	1084000c 	andi	r2,r2,4096
   20dec:	10005f26 	beq	r2,zero,20f6c <_fseeko_r+0x3dc>
   20df0:	80801417 	ldw	r2,80(r16)
   20df4:	80c00117 	ldw	r3,4(r16)
   20df8:	81400c17 	ldw	r5,48(r16)
   20dfc:	1809883a 	mov	r4,r3
   20e00:	10e5c83a 	sub	r18,r2,r3
   20e04:	28005226 	beq	r5,zero,20f50 <_fseeko_r+0x3c0>
   20e08:	81800f17 	ldw	r6,60(r16)
   20e0c:	91a5c83a 	sub	r18,r18,r6
   20e10:	80800e17 	ldw	r2,56(r16)
   20e14:	81c00417 	ldw	r7,16(r16)
   20e18:	90e5883a 	add	r18,r18,r3
   20e1c:	11c5c83a 	sub	r2,r2,r7
   20e20:	90a5c83a 	sub	r18,r18,r2
   20e24:	1185883a 	add	r2,r2,r6
   20e28:	b4800216 	blt	r22,r18,20e34 <_fseeko_r+0x2a4>
   20e2c:	9087883a 	add	r3,r18,r2
   20e30:	b0c05836 	bltu	r22,r3,20f94 <_fseeko_r+0x404>
   20e34:	84801317 	ldw	r18,76(r16)
   20e38:	81400717 	ldw	r5,28(r16)
   20e3c:	000f883a 	mov	r7,zero
   20e40:	04a5c83a 	sub	r18,zero,r18
   20e44:	95a4703a 	and	r18,r18,r22
   20e48:	900d883a 	mov	r6,r18
   20e4c:	8809883a 	mov	r4,r17
   20e50:	a03ee83a 	callr	r20
   20e54:	10bfffe0 	cmpeqi	r2,r2,-1
   20e58:	103f8e1e 	bne	r2,zero,20c94 <_fseeko_r+0x104>
   20e5c:	80800417 	ldw	r2,16(r16)
   20e60:	81400c17 	ldw	r5,48(r16)
   20e64:	80000115 	stw	zero,4(r16)
   20e68:	80800015 	stw	r2,0(r16)
   20e6c:	28000526 	beq	r5,zero,20e84 <_fseeko_r+0x2f4>
   20e70:	80801004 	addi	r2,r16,64
   20e74:	28800226 	beq	r5,r2,20e80 <_fseeko_r+0x2f0>
   20e78:	8809883a 	mov	r4,r17
   20e7c:	00240f40 	call	240f4 <_free_r>
   20e80:	80000c15 	stw	zero,48(r16)
   20e84:	8080030b 	ldhu	r2,12(r16)
   20e88:	b4afc83a 	sub	r23,r22,r18
   20e8c:	10bff7cc 	andi	r2,r2,65503
   20e90:	8080030d 	sth	r2,12(r16)
   20e94:	b4800b26 	beq	r22,r18,20ec4 <_fseeko_r+0x334>
   20e98:	800b883a 	mov	r5,r16
   20e9c:	8809883a 	mov	r4,r17
   20ea0:	0021bc40 	call	21bc4 <__srefill_r>
   20ea4:	103f7b1e 	bne	r2,zero,20c94 <_fseeko_r+0x104>
   20ea8:	80800117 	ldw	r2,4(r16)
   20eac:	15ff7936 	bltu	r2,r23,20c94 <_fseeko_r+0x104>
   20eb0:	80c00017 	ldw	r3,0(r16)
   20eb4:	15c5c83a 	sub	r2,r2,r23
   20eb8:	80800115 	stw	r2,4(r16)
   20ebc:	1def883a 	add	r23,r3,r23
   20ec0:	85c00015 	stw	r23,0(r16)
   20ec4:	80001705 	stb	zero,92(r16)
   20ec8:	80001745 	stb	zero,93(r16)
   20ecc:	80001785 	stb	zero,94(r16)
   20ed0:	800017c5 	stb	zero,95(r16)
   20ed4:	80001805 	stb	zero,96(r16)
   20ed8:	80001845 	stb	zero,97(r16)
   20edc:	80001885 	stb	zero,98(r16)
   20ee0:	800018c5 	stb	zero,99(r16)
   20ee4:	0025883a 	mov	r18,zero
   20ee8:	003f4806 	br	20c0c <_fseeko_r+0x7c>
   20eec:	10c0010c 	andi	r3,r2,4
   20ef0:	84801417 	ldw	r18,80(r16)
   20ef4:	81000417 	ldw	r4,16(r16)
   20ef8:	183f9a1e 	bne	r3,zero,20d64 <_fseeko_r+0x1d4>
   20efc:	1080020c 	andi	r2,r2,8
   20f00:	103f9e26 	beq	r2,zero,20d7c <_fseeko_r+0x1ec>
   20f04:	80800017 	ldw	r2,0(r16)
   20f08:	103f9c26 	beq	r2,zero,20d7c <_fseeko_r+0x1ec>
   20f0c:	1105c83a 	sub	r2,r2,r4
   20f10:	90a5883a 	add	r18,r18,r2
   20f14:	003f9906 	br	20d7c <_fseeko_r+0x1ec>
   20f18:	8140038f 	ldh	r5,14(r16)
   20f1c:	d80d883a 	mov	r6,sp
   20f20:	8809883a 	mov	r4,r17
   20f24:	00210000 	call	21000 <_fstat_r>
   20f28:	103f5a1e 	bne	r2,zero,20c94 <_fseeko_r+0x104>
   20f2c:	dd800417 	ldw	r22,16(sp)
   20f30:	9dad883a 	add	r22,r19,r22
   20f34:	b83fab26 	beq	r23,zero,20de4 <_fseeko_r+0x254>
   20f38:	81400c17 	ldw	r5,48(r16)
   20f3c:	28000326 	beq	r5,zero,20f4c <_fseeko_r+0x3bc>
   20f40:	80c00117 	ldw	r3,4(r16)
   20f44:	81800f17 	ldw	r6,60(r16)
   20f48:	003fb106 	br	20e10 <_fseeko_r+0x280>
   20f4c:	81000117 	ldw	r4,4(r16)
   20f50:	80800017 	ldw	r2,0(r16)
   20f54:	81c00417 	ldw	r7,16(r16)
   20f58:	000b883a 	mov	r5,zero
   20f5c:	11c5c83a 	sub	r2,r2,r7
   20f60:	90a5c83a 	sub	r18,r18,r2
   20f64:	2085883a 	add	r2,r4,r2
   20f68:	003faf06 	br	20e28 <_fseeko_r+0x298>
   20f6c:	81400717 	ldw	r5,28(r16)
   20f70:	01c00044 	movi	r7,1
   20f74:	000d883a 	mov	r6,zero
   20f78:	8809883a 	mov	r4,r17
   20f7c:	a03ee83a 	callr	r20
   20f80:	10ffffe0 	cmpeqi	r3,r2,-1
   20f84:	183f9b26 	beq	r3,zero,20df4 <_fseeko_r+0x264>
   20f88:	003f4206 	br	20c94 <_fseeko_r+0x104>
   20f8c:	8080030b 	ldhu	r2,12(r16)
   20f90:	003f3e06 	br	20c8c <_fseeko_r+0xfc>
   20f94:	b4a5c83a 	sub	r18,r22,r18
   20f98:	3c8f883a 	add	r7,r7,r18
   20f9c:	14a5c83a 	sub	r18,r2,r18
   20fa0:	81c00015 	stw	r7,0(r16)
   20fa4:	84800115 	stw	r18,4(r16)
   20fa8:	28000526 	beq	r5,zero,20fc0 <_fseeko_r+0x430>
   20fac:	80801004 	addi	r2,r16,64
   20fb0:	28800226 	beq	r5,r2,20fbc <_fseeko_r+0x42c>
   20fb4:	8809883a 	mov	r4,r17
   20fb8:	00240f40 	call	240f4 <_free_r>
   20fbc:	80000c15 	stw	zero,48(r16)
   20fc0:	80c0030b 	ldhu	r3,12(r16)
   20fc4:	80001705 	stb	zero,92(r16)
   20fc8:	18fff7cc 	andi	r3,r3,65503
   20fcc:	80c0030d 	sth	r3,12(r16)
   20fd0:	003fbd06 	br	20ec8 <_fseeko_r+0x338>
   20fd4:	00800744 	movi	r2,29
   20fd8:	88800015 	stw	r2,0(r17)
   20fdc:	04bfffc4 	movi	r18,-1
   20fe0:	003f0a06 	br	20c0c <_fseeko_r+0x7c>

00020fe4 <fseeko>:
   20fe4:	00c000f4 	movhi	r3,3
   20fe8:	2005883a 	mov	r2,r4
   20fec:	1908aa17 	ldw	r4,8872(r3)
   20ff0:	300f883a 	mov	r7,r6
   20ff4:	280d883a 	mov	r6,r5
   20ff8:	100b883a 	mov	r5,r2
   20ffc:	0020b901 	jmpi	20b90 <_fseeko_r>

00021000 <_fstat_r>:
   21000:	2807883a 	mov	r3,r5
   21004:	defffe04 	addi	sp,sp,-8
   21008:	dc000015 	stw	r16,0(sp)
   2100c:	008000f4 	movhi	r2,3
   21010:	300b883a 	mov	r5,r6
   21014:	2021883a 	mov	r16,r4
   21018:	1809883a 	mov	r4,r3
   2101c:	dfc00115 	stw	ra,4(sp)
   21020:	100fca15 	stw	zero,16168(r2)
   21024:	002d1680 	call	2d168 <fstat>
   21028:	10ffffd8 	cmpnei	r3,r2,-1
   2102c:	18000426 	beq	r3,zero,21040 <_fstat_r+0x40>
   21030:	dfc00117 	ldw	ra,4(sp)
   21034:	dc000017 	ldw	r16,0(sp)
   21038:	dec00204 	addi	sp,sp,8
   2103c:	f800283a 	ret
   21040:	00c000f4 	movhi	r3,3
   21044:	18cfca17 	ldw	r3,16168(r3)
   21048:	183ff926 	beq	r3,zero,21030 <_fstat_r+0x30>
   2104c:	80c00015 	stw	r3,0(r16)
   21050:	dfc00117 	ldw	ra,4(sp)
   21054:	dc000017 	ldw	r16,0(sp)
   21058:	dec00204 	addi	sp,sp,8
   2105c:	f800283a 	ret

00021060 <_getc_r>:
   21060:	defffd04 	addi	sp,sp,-12
   21064:	dc000115 	stw	r16,4(sp)
   21068:	dfc00215 	stw	ra,8(sp)
   2106c:	2021883a 	mov	r16,r4
   21070:	20000226 	beq	r4,zero,2107c <_getc_r+0x1c>
   21074:	20800e17 	ldw	r2,56(r4)
   21078:	10000c26 	beq	r2,zero,210ac <_getc_r+0x4c>
   2107c:	28800117 	ldw	r2,4(r5)
   21080:	10bfffc4 	addi	r2,r2,-1
   21084:	28800115 	stw	r2,4(r5)
   21088:	10000f16 	blt	r2,zero,210c8 <_getc_r+0x68>
   2108c:	28800017 	ldw	r2,0(r5)
   21090:	10c00044 	addi	r3,r2,1
   21094:	28c00015 	stw	r3,0(r5)
   21098:	10800003 	ldbu	r2,0(r2)
   2109c:	dfc00217 	ldw	ra,8(sp)
   210a0:	dc000117 	ldw	r16,4(sp)
   210a4:	dec00304 	addi	sp,sp,12
   210a8:	f800283a 	ret
   210ac:	d9400015 	stw	r5,0(sp)
   210b0:	0023ed80 	call	23ed8 <__sinit>
   210b4:	d9400017 	ldw	r5,0(sp)
   210b8:	28800117 	ldw	r2,4(r5)
   210bc:	10bfffc4 	addi	r2,r2,-1
   210c0:	28800115 	stw	r2,4(r5)
   210c4:	103ff10e 	bge	r2,zero,2108c <_getc_r+0x2c>
   210c8:	8009883a 	mov	r4,r16
   210cc:	dfc00217 	ldw	ra,8(sp)
   210d0:	dc000117 	ldw	r16,4(sp)
   210d4:	dec00304 	addi	sp,sp,12
   210d8:	0021d901 	jmpi	21d90 <__srget_r>

000210dc <getc>:
   210dc:	defffd04 	addi	sp,sp,-12
   210e0:	008000f4 	movhi	r2,3
   210e4:	dc400115 	stw	r17,4(sp)
   210e8:	1448aa17 	ldw	r17,8872(r2)
   210ec:	dc000015 	stw	r16,0(sp)
   210f0:	dfc00215 	stw	ra,8(sp)
   210f4:	2021883a 	mov	r16,r4
   210f8:	88000226 	beq	r17,zero,21104 <getc+0x28>
   210fc:	88800e17 	ldw	r2,56(r17)
   21100:	10000d26 	beq	r2,zero,21138 <getc+0x5c>
   21104:	80800117 	ldw	r2,4(r16)
   21108:	10bfffc4 	addi	r2,r2,-1
   2110c:	80800115 	stw	r2,4(r16)
   21110:	10000f16 	blt	r2,zero,21150 <getc+0x74>
   21114:	80800017 	ldw	r2,0(r16)
   21118:	10c00044 	addi	r3,r2,1
   2111c:	80c00015 	stw	r3,0(r16)
   21120:	10800003 	ldbu	r2,0(r2)
   21124:	dfc00217 	ldw	ra,8(sp)
   21128:	dc400117 	ldw	r17,4(sp)
   2112c:	dc000017 	ldw	r16,0(sp)
   21130:	dec00304 	addi	sp,sp,12
   21134:	f800283a 	ret
   21138:	8809883a 	mov	r4,r17
   2113c:	0023ed80 	call	23ed8 <__sinit>
   21140:	80800117 	ldw	r2,4(r16)
   21144:	10bfffc4 	addi	r2,r2,-1
   21148:	80800115 	stw	r2,4(r16)
   2114c:	103ff10e 	bge	r2,zero,21114 <getc+0x38>
   21150:	800b883a 	mov	r5,r16
   21154:	8809883a 	mov	r4,r17
   21158:	dfc00217 	ldw	ra,8(sp)
   2115c:	dc400117 	ldw	r17,4(sp)
   21160:	dc000017 	ldw	r16,0(sp)
   21164:	dec00304 	addi	sp,sp,12
   21168:	0021d901 	jmpi	21d90 <__srget_r>

0002116c <__swhatbuf_r>:
   2116c:	deffea04 	addi	sp,sp,-88
   21170:	dc001215 	stw	r16,72(sp)
   21174:	2821883a 	mov	r16,r5
   21178:	2940038f 	ldh	r5,14(r5)
   2117c:	dc801415 	stw	r18,80(sp)
   21180:	dc401315 	stw	r17,76(sp)
   21184:	dfc01515 	stw	ra,84(sp)
   21188:	3023883a 	mov	r17,r6
   2118c:	3825883a 	mov	r18,r7
   21190:	28001016 	blt	r5,zero,211d4 <__swhatbuf_r+0x68>
   21194:	d80d883a 	mov	r6,sp
   21198:	00210000 	call	21000 <_fstat_r>
   2119c:	10000d16 	blt	r2,zero,211d4 <__swhatbuf_r+0x68>
   211a0:	d8c00117 	ldw	r3,4(sp)
   211a4:	00820004 	movi	r2,2048
   211a8:	18fc000c 	andi	r3,r3,61440
   211ac:	18c80020 	cmpeqi	r3,r3,8192
   211b0:	90c00015 	stw	r3,0(r18)
   211b4:	00c10004 	movi	r3,1024
   211b8:	88c00015 	stw	r3,0(r17)
   211bc:	dfc01517 	ldw	ra,84(sp)
   211c0:	dc801417 	ldw	r18,80(sp)
   211c4:	dc401317 	ldw	r17,76(sp)
   211c8:	dc001217 	ldw	r16,72(sp)
   211cc:	dec01604 	addi	sp,sp,88
   211d0:	f800283a 	ret
   211d4:	8080030b 	ldhu	r2,12(r16)
   211d8:	90000015 	stw	zero,0(r18)
   211dc:	1080200c 	andi	r2,r2,128
   211e0:	10000426 	beq	r2,zero,211f4 <__swhatbuf_r+0x88>
   211e4:	00801004 	movi	r2,64
   211e8:	88800015 	stw	r2,0(r17)
   211ec:	0005883a 	mov	r2,zero
   211f0:	003ff206 	br	211bc <__swhatbuf_r+0x50>
   211f4:	00810004 	movi	r2,1024
   211f8:	88800015 	stw	r2,0(r17)
   211fc:	0005883a 	mov	r2,zero
   21200:	003fee06 	br	211bc <__swhatbuf_r+0x50>

00021204 <__smakebuf_r>:
   21204:	2880030b 	ldhu	r2,12(r5)
   21208:	defffa04 	addi	sp,sp,-24
   2120c:	dc000215 	stw	r16,8(sp)
   21210:	dfc00515 	stw	ra,20(sp)
   21214:	dc800415 	stw	r18,16(sp)
   21218:	dc400315 	stw	r17,12(sp)
   2121c:	1080008c 	andi	r2,r2,2
   21220:	2821883a 	mov	r16,r5
   21224:	10000b26 	beq	r2,zero,21254 <__smakebuf_r+0x50>
   21228:	288010c4 	addi	r2,r5,67
   2122c:	28800015 	stw	r2,0(r5)
   21230:	28800415 	stw	r2,16(r5)
   21234:	00800044 	movi	r2,1
   21238:	28800515 	stw	r2,20(r5)
   2123c:	dfc00517 	ldw	ra,20(sp)
   21240:	dc800417 	ldw	r18,16(sp)
   21244:	dc400317 	ldw	r17,12(sp)
   21248:	dc000217 	ldw	r16,8(sp)
   2124c:	dec00604 	addi	sp,sp,24
   21250:	f800283a 	ret
   21254:	d9c00104 	addi	r7,sp,4
   21258:	d80d883a 	mov	r6,sp
   2125c:	2023883a 	mov	r17,r4
   21260:	002116c0 	call	2116c <__swhatbuf_r>
   21264:	d9000117 	ldw	r4,4(sp)
   21268:	1025883a 	mov	r18,r2
   2126c:	2000131e 	bne	r4,zero,212bc <__smakebuf_r+0xb8>
   21270:	d9400017 	ldw	r5,0(sp)
   21274:	8809883a 	mov	r4,r17
   21278:	00213640 	call	21364 <_malloc_r>
   2127c:	10001c26 	beq	r2,zero,212f0 <__smakebuf_r+0xec>
   21280:	010000b4 	movhi	r4,2
   21284:	210ef504 	addi	r4,r4,15316
   21288:	80c0030b 	ldhu	r3,12(r16)
   2128c:	89000f15 	stw	r4,60(r17)
   21290:	80800015 	stw	r2,0(r16)
   21294:	80800415 	stw	r2,16(r16)
   21298:	d8800017 	ldw	r2,0(sp)
   2129c:	d9400117 	ldw	r5,4(sp)
   212a0:	18c02014 	ori	r3,r3,128
   212a4:	80c0030d 	sth	r3,12(r16)
   212a8:	80800515 	stw	r2,20(r16)
   212ac:	28001d1e 	bne	r5,zero,21324 <__smakebuf_r+0x120>
   212b0:	90c6b03a 	or	r3,r18,r3
   212b4:	80c0030d 	sth	r3,12(r16)
   212b8:	003fe006 	br	2123c <__smakebuf_r+0x38>
   212bc:	8140038f 	ldh	r5,14(r16)
   212c0:	8809883a 	mov	r4,r17
   212c4:	00251080 	call	25108 <_isatty_r>
   212c8:	103fe926 	beq	r2,zero,21270 <__smakebuf_r+0x6c>
   212cc:	8080030b 	ldhu	r2,12(r16)
   212d0:	80c010c4 	addi	r3,r16,67
   212d4:	80c00015 	stw	r3,0(r16)
   212d8:	10800054 	ori	r2,r2,1
   212dc:	8080030d 	sth	r2,12(r16)
   212e0:	00800044 	movi	r2,1
   212e4:	80c00415 	stw	r3,16(r16)
   212e8:	80800515 	stw	r2,20(r16)
   212ec:	003fe006 	br	21270 <__smakebuf_r+0x6c>
   212f0:	8080030b 	ldhu	r2,12(r16)
   212f4:	10c0800c 	andi	r3,r2,512
   212f8:	183fd01e 	bne	r3,zero,2123c <__smakebuf_r+0x38>
   212fc:	00ffff04 	movi	r3,-4
   21300:	10c4703a 	and	r2,r2,r3
   21304:	10800094 	ori	r2,r2,2
   21308:	80c010c4 	addi	r3,r16,67
   2130c:	8080030d 	sth	r2,12(r16)
   21310:	00800044 	movi	r2,1
   21314:	80c00015 	stw	r3,0(r16)
   21318:	80c00415 	stw	r3,16(r16)
   2131c:	80800515 	stw	r2,20(r16)
   21320:	003fc606 	br	2123c <__smakebuf_r+0x38>
   21324:	8140038f 	ldh	r5,14(r16)
   21328:	8809883a 	mov	r4,r17
   2132c:	00251080 	call	25108 <_isatty_r>
   21330:	80c0030b 	ldhu	r3,12(r16)
   21334:	103fde26 	beq	r2,zero,212b0 <__smakebuf_r+0xac>
   21338:	18ffff0c 	andi	r3,r3,65532
   2133c:	18c00054 	ori	r3,r3,1
   21340:	003fdb06 	br	212b0 <__smakebuf_r+0xac>

00021344 <malloc>:
   21344:	008000f4 	movhi	r2,3
   21348:	200b883a 	mov	r5,r4
   2134c:	1108aa17 	ldw	r4,8872(r2)
   21350:	00213641 	jmpi	21364 <_malloc_r>

00021354 <free>:
   21354:	008000f4 	movhi	r2,3
   21358:	200b883a 	mov	r5,r4
   2135c:	1108aa17 	ldw	r4,8872(r2)
   21360:	00240f41 	jmpi	240f4 <_free_r>

00021364 <_malloc_r>:
   21364:	defff604 	addi	sp,sp,-40
   21368:	dc400115 	stw	r17,4(sp)
   2136c:	2c4002c4 	addi	r17,r5,11
   21370:	dc800215 	stw	r18,8(sp)
   21374:	dfc00915 	stw	ra,36(sp)
   21378:	df000815 	stw	fp,32(sp)
   2137c:	ddc00715 	stw	r23,28(sp)
   21380:	dd800615 	stw	r22,24(sp)
   21384:	dd400515 	stw	r21,20(sp)
   21388:	dd000415 	stw	r20,16(sp)
   2138c:	dcc00315 	stw	r19,12(sp)
   21390:	dc000015 	stw	r16,0(sp)
   21394:	888005e8 	cmpgeui	r2,r17,23
   21398:	2025883a 	mov	r18,r4
   2139c:	10001b1e 	bne	r2,zero,2140c <_malloc_r+0xa8>
   213a0:	29400468 	cmpgeui	r5,r5,17
   213a4:	2800821e 	bne	r5,zero,215b0 <_malloc_r+0x24c>
   213a8:	002d89c0 	call	2d89c <__malloc_lock>
   213ac:	04400404 	movi	r17,16
   213b0:	01c00084 	movi	r7,2
   213b4:	00800604 	movi	r2,24
   213b8:	04c000f4 	movhi	r19,3
   213bc:	9cc2bb04 	addi	r19,r19,2796
   213c0:	9885883a 	add	r2,r19,r2
   213c4:	14000117 	ldw	r16,4(r2)
   213c8:	10fffe04 	addi	r3,r2,-8
   213cc:	80c08b26 	beq	r16,r3,215fc <_malloc_r+0x298>
   213d0:	80800117 	ldw	r2,4(r16)
   213d4:	81000317 	ldw	r4,12(r16)
   213d8:	00ffff04 	movi	r3,-4
   213dc:	10c4703a 	and	r2,r2,r3
   213e0:	81400217 	ldw	r5,8(r16)
   213e4:	8085883a 	add	r2,r16,r2
   213e8:	10c00117 	ldw	r3,4(r2)
   213ec:	29000315 	stw	r4,12(r5)
   213f0:	21400215 	stw	r5,8(r4)
   213f4:	18c00054 	ori	r3,r3,1
   213f8:	10c00115 	stw	r3,4(r2)
   213fc:	9009883a 	mov	r4,r18
   21400:	002d8c00 	call	2d8c0 <__malloc_unlock>
   21404:	80800204 	addi	r2,r16,8
   21408:	00006c06 	br	215bc <_malloc_r+0x258>
   2140c:	00bffe04 	movi	r2,-8
   21410:	88a2703a 	and	r17,r17,r2
   21414:	88006616 	blt	r17,zero,215b0 <_malloc_r+0x24c>
   21418:	89406536 	bltu	r17,r5,215b0 <_malloc_r+0x24c>
   2141c:	002d89c0 	call	2d89c <__malloc_lock>
   21420:	88807e28 	cmpgeui	r2,r17,504
   21424:	10012226 	beq	r2,zero,218b0 <_malloc_r+0x54c>
   21428:	8804d27a 	srli	r2,r17,9
   2142c:	10006f26 	beq	r2,zero,215ec <_malloc_r+0x288>
   21430:	10c00168 	cmpgeui	r3,r2,5
   21434:	1800fe1e 	bne	r3,zero,21830 <_malloc_r+0x4cc>
   21438:	8804d1ba 	srli	r2,r17,6
   2143c:	11c00e44 	addi	r7,r2,57
   21440:	380890fa 	slli	r4,r7,3
   21444:	12000e04 	addi	r8,r2,56
   21448:	04c000f4 	movhi	r19,3
   2144c:	9cc2bb04 	addi	r19,r19,2796
   21450:	9909883a 	add	r4,r19,r4
   21454:	24000117 	ldw	r16,4(r4)
   21458:	213ffe04 	addi	r4,r4,-8
   2145c:	24000b26 	beq	r4,r16,2148c <_malloc_r+0x128>
   21460:	01bfff04 	movi	r6,-4
   21464:	00000306 	br	21474 <_malloc_r+0x110>
   21468:	1800d60e 	bge	r3,zero,217c4 <_malloc_r+0x460>
   2146c:	84000317 	ldw	r16,12(r16)
   21470:	24000626 	beq	r4,r16,2148c <_malloc_r+0x128>
   21474:	80800117 	ldw	r2,4(r16)
   21478:	1184703a 	and	r2,r2,r6
   2147c:	1447c83a 	sub	r3,r2,r17
   21480:	19400408 	cmpgei	r5,r3,16
   21484:	283ff826 	beq	r5,zero,21468 <_malloc_r+0x104>
   21488:	400f883a 	mov	r7,r8
   2148c:	9c000417 	ldw	r16,16(r19)
   21490:	024000f4 	movhi	r9,3
   21494:	4a42bd04 	addi	r9,r9,2804
   21498:	82405f26 	beq	r16,r9,21618 <_malloc_r+0x2b4>
   2149c:	80c00117 	ldw	r3,4(r16)
   214a0:	00bfff04 	movi	r2,-4
   214a4:	1884703a 	and	r2,r3,r2
   214a8:	1447c83a 	sub	r3,r2,r17
   214ac:	19000410 	cmplti	r4,r3,16
   214b0:	20010a26 	beq	r4,zero,218dc <_malloc_r+0x578>
   214b4:	9a400515 	stw	r9,20(r19)
   214b8:	9a400415 	stw	r9,16(r19)
   214bc:	1800ff0e 	bge	r3,zero,218bc <_malloc_r+0x558>
   214c0:	10c08028 	cmpgeui	r3,r2,512
   214c4:	1800c11e 	bne	r3,zero,217cc <_malloc_r+0x468>
   214c8:	1006d0fa 	srli	r3,r2,3
   214cc:	1008d17a 	srli	r4,r2,5
   214d0:	00800044 	movi	r2,1
   214d4:	18c00044 	addi	r3,r3,1
   214d8:	180690fa 	slli	r3,r3,3
   214dc:	99400117 	ldw	r5,4(r19)
   214e0:	1104983a 	sll	r2,r2,r4
   214e4:	98c7883a 	add	r3,r19,r3
   214e8:	19000017 	ldw	r4,0(r3)
   214ec:	1144b03a 	or	r2,r2,r5
   214f0:	197ffe04 	addi	r5,r3,-8
   214f4:	81400315 	stw	r5,12(r16)
   214f8:	81000215 	stw	r4,8(r16)
   214fc:	98800115 	stw	r2,4(r19)
   21500:	1c000015 	stw	r16,0(r3)
   21504:	24000315 	stw	r16,12(r4)
   21508:	3807d0ba 	srai	r3,r7,2
   2150c:	01000044 	movi	r4,1
   21510:	20c8983a 	sll	r4,r4,r3
   21514:	11004536 	bltu	r2,r4,2162c <_malloc_r+0x2c8>
   21518:	2086703a 	and	r3,r4,r2
   2151c:	18000a1e 	bne	r3,zero,21548 <_malloc_r+0x1e4>
   21520:	00ffff04 	movi	r3,-4
   21524:	2109883a 	add	r4,r4,r4
   21528:	38ce703a 	and	r7,r7,r3
   2152c:	2086703a 	and	r3,r4,r2
   21530:	39c00104 	addi	r7,r7,4
   21534:	1800041e 	bne	r3,zero,21548 <_malloc_r+0x1e4>
   21538:	2109883a 	add	r4,r4,r4
   2153c:	2086703a 	and	r3,r4,r2
   21540:	39c00104 	addi	r7,r7,4
   21544:	183ffc26 	beq	r3,zero,21538 <_malloc_r+0x1d4>
   21548:	02bfff04 	movi	r10,-4
   2154c:	381690fa 	slli	r11,r7,3
   21550:	3819883a 	mov	r12,r7
   21554:	9ad7883a 	add	r11,r19,r11
   21558:	5811883a 	mov	r8,r11
   2155c:	40800317 	ldw	r2,12(r8)
   21560:	4080bc26 	beq	r8,r2,21854 <_malloc_r+0x4f0>
   21564:	10c00117 	ldw	r3,4(r2)
   21568:	1021883a 	mov	r16,r2
   2156c:	10800317 	ldw	r2,12(r2)
   21570:	1a86703a 	and	r3,r3,r10
   21574:	1c4bc83a 	sub	r5,r3,r17
   21578:	29800410 	cmplti	r6,r5,16
   2157c:	3000ba26 	beq	r6,zero,21868 <_malloc_r+0x504>
   21580:	283ff716 	blt	r5,zero,21560 <_malloc_r+0x1fc>
   21584:	80c7883a 	add	r3,r16,r3
   21588:	19400117 	ldw	r5,4(r3)
   2158c:	81800217 	ldw	r6,8(r16)
   21590:	9009883a 	mov	r4,r18
   21594:	29400054 	ori	r5,r5,1
   21598:	19400115 	stw	r5,4(r3)
   2159c:	30800315 	stw	r2,12(r6)
   215a0:	11800215 	stw	r6,8(r2)
   215a4:	002d8c00 	call	2d8c0 <__malloc_unlock>
   215a8:	80800204 	addi	r2,r16,8
   215ac:	00000306 	br	215bc <_malloc_r+0x258>
   215b0:	00800304 	movi	r2,12
   215b4:	90800015 	stw	r2,0(r18)
   215b8:	0005883a 	mov	r2,zero
   215bc:	dfc00917 	ldw	ra,36(sp)
   215c0:	df000817 	ldw	fp,32(sp)
   215c4:	ddc00717 	ldw	r23,28(sp)
   215c8:	dd800617 	ldw	r22,24(sp)
   215cc:	dd400517 	ldw	r21,20(sp)
   215d0:	dd000417 	ldw	r20,16(sp)
   215d4:	dcc00317 	ldw	r19,12(sp)
   215d8:	dc800217 	ldw	r18,8(sp)
   215dc:	dc400117 	ldw	r17,4(sp)
   215e0:	dc000017 	ldw	r16,0(sp)
   215e4:	dec00a04 	addi	sp,sp,40
   215e8:	f800283a 	ret
   215ec:	01008004 	movi	r4,512
   215f0:	01c01004 	movi	r7,64
   215f4:	02000fc4 	movi	r8,63
   215f8:	003f9306 	br	21448 <_malloc_r+0xe4>
   215fc:	14000317 	ldw	r16,12(r2)
   21600:	39c00084 	addi	r7,r7,2
   21604:	143f721e 	bne	r2,r16,213d0 <_malloc_r+0x6c>
   21608:	9c000417 	ldw	r16,16(r19)
   2160c:	024000f4 	movhi	r9,3
   21610:	4a42bd04 	addi	r9,r9,2804
   21614:	827fa11e 	bne	r16,r9,2149c <_malloc_r+0x138>
   21618:	3807d0ba 	srai	r3,r7,2
   2161c:	01000044 	movi	r4,1
   21620:	98800117 	ldw	r2,4(r19)
   21624:	20c8983a 	sll	r4,r4,r3
   21628:	113fbb2e 	bgeu	r2,r4,21518 <_malloc_r+0x1b4>
   2162c:	9c000217 	ldw	r16,8(r19)
   21630:	00bfff04 	movi	r2,-4
   21634:	85400117 	ldw	r21,4(r16)
   21638:	a8ac703a 	and	r22,r21,r2
   2163c:	b4400336 	bltu	r22,r17,2164c <_malloc_r+0x2e8>
   21640:	b445c83a 	sub	r2,r22,r17
   21644:	10c00408 	cmpgei	r3,r2,16
   21648:	1800541e 	bne	r3,zero,2179c <_malloc_r+0x438>
   2164c:	008000f4 	movhi	r2,3
   21650:	1088ab17 	ldw	r2,8876(r2)
   21654:	00c000f4 	movhi	r3,3
   21658:	1d4fcd17 	ldw	r21,16180(r3)
   2165c:	10bfffd8 	cmpnei	r2,r2,-1
   21660:	85b9883a 	add	fp,r16,r22
   21664:	8d6b883a 	add	r21,r17,r21
   21668:	1000d626 	beq	r2,zero,219c4 <_malloc_r+0x660>
   2166c:	ad4403c4 	addi	r21,r21,4111
   21670:	00bc0004 	movi	r2,-4096
   21674:	a8aa703a 	and	r21,r21,r2
   21678:	a80b883a 	mov	r5,r21
   2167c:	9009883a 	mov	r4,r18
   21680:	0021e140 	call	21e14 <_sbrk_r>
   21684:	102f883a 	mov	r23,r2
   21688:	10bfffd8 	cmpnei	r2,r2,-1
   2168c:	1000a826 	beq	r2,zero,21930 <_malloc_r+0x5cc>
   21690:	bf00a636 	bltu	r23,fp,2192c <_malloc_r+0x5c8>
   21694:	008000f4 	movhi	r2,3
   21698:	150fdc17 	ldw	r20,16240(r2)
   2169c:	ad29883a 	add	r20,r21,r20
   216a0:	150fdc15 	stw	r20,16240(r2)
   216a4:	a007883a 	mov	r3,r20
   216a8:	e5c0ec26 	beq	fp,r23,21a5c <_malloc_r+0x6f8>
   216ac:	008000f4 	movhi	r2,3
   216b0:	1088ab17 	ldw	r2,8876(r2)
   216b4:	10bfffd8 	cmpnei	r2,r2,-1
   216b8:	1000ef26 	beq	r2,zero,21a78 <_malloc_r+0x714>
   216bc:	bf39c83a 	sub	fp,r23,fp
   216c0:	e0c7883a 	add	r3,fp,r3
   216c4:	008000f4 	movhi	r2,3
   216c8:	10cfdc15 	stw	r3,16240(r2)
   216cc:	bf0001cc 	andi	fp,r23,7
   216d0:	e000c526 	beq	fp,zero,219e8 <_malloc_r+0x684>
   216d4:	bf2fc83a 	sub	r23,r23,fp
   216d8:	bdc00204 	addi	r23,r23,8
   216dc:	05040204 	movi	r20,4104
   216e0:	a729c83a 	sub	r20,r20,fp
   216e4:	bd6b883a 	add	r21,r23,r21
   216e8:	a569c83a 	sub	r20,r20,r21
   216ec:	a503ffcc 	andi	r20,r20,4095
   216f0:	a00b883a 	mov	r5,r20
   216f4:	9009883a 	mov	r4,r18
   216f8:	0021e140 	call	21e14 <_sbrk_r>
   216fc:	10ffffe0 	cmpeqi	r3,r2,-1
   21700:	1800f31e 	bne	r3,zero,21ad0 <_malloc_r+0x76c>
   21704:	15c5c83a 	sub	r2,r2,r23
   21708:	152b883a 	add	r21,r2,r20
   2170c:	008000f4 	movhi	r2,3
   21710:	114fdc17 	ldw	r5,16240(r2)
   21714:	9dc00215 	stw	r23,8(r19)
   21718:	ad400054 	ori	r21,r21,1
   2171c:	a169883a 	add	r20,r20,r5
   21720:	150fdc15 	stw	r20,16240(r2)
   21724:	bd400115 	stw	r21,4(r23)
   21728:	84c0d626 	beq	r16,r19,21a84 <_malloc_r+0x720>
   2172c:	b0800428 	cmpgeui	r2,r22,16
   21730:	1000d626 	beq	r2,zero,21a8c <_malloc_r+0x728>
   21734:	80c00117 	ldw	r3,4(r16)
   21738:	013ffe04 	movi	r4,-8
   2173c:	b0bffd04 	addi	r2,r22,-12
   21740:	1104703a 	and	r2,r2,r4
   21744:	18c0004c 	andi	r3,r3,1
   21748:	1886b03a 	or	r3,r3,r2
   2174c:	80c00115 	stw	r3,4(r16)
   21750:	01000144 	movi	r4,5
   21754:	8087883a 	add	r3,r16,r2
   21758:	19000115 	stw	r4,4(r3)
   2175c:	19000215 	stw	r4,8(r3)
   21760:	10800428 	cmpgeui	r2,r2,16
   21764:	1000df1e 	bne	r2,zero,21ae4 <_malloc_r+0x780>
   21768:	bd400117 	ldw	r21,4(r23)
   2176c:	b821883a 	mov	r16,r23
   21770:	008000f4 	movhi	r2,3
   21774:	108fcc17 	ldw	r2,16176(r2)
   21778:	1500022e 	bgeu	r2,r20,21784 <_malloc_r+0x420>
   2177c:	008000f4 	movhi	r2,3
   21780:	150fcc15 	stw	r20,16176(r2)
   21784:	008000f4 	movhi	r2,3
   21788:	108fcb17 	ldw	r2,16172(r2)
   2178c:	15006a2e 	bgeu	r2,r20,21938 <_malloc_r+0x5d4>
   21790:	008000f4 	movhi	r2,3
   21794:	150fcb15 	stw	r20,16172(r2)
   21798:	00006706 	br	21938 <_malloc_r+0x5d4>
   2179c:	88c00054 	ori	r3,r17,1
   217a0:	80c00115 	stw	r3,4(r16)
   217a4:	8463883a 	add	r17,r16,r17
   217a8:	10800054 	ori	r2,r2,1
   217ac:	9c400215 	stw	r17,8(r19)
   217b0:	88800115 	stw	r2,4(r17)
   217b4:	9009883a 	mov	r4,r18
   217b8:	002d8c00 	call	2d8c0 <__malloc_unlock>
   217bc:	80800204 	addi	r2,r16,8
   217c0:	003f7e06 	br	215bc <_malloc_r+0x258>
   217c4:	81000317 	ldw	r4,12(r16)
   217c8:	003f0506 	br	213e0 <_malloc_r+0x7c>
   217cc:	1006d27a 	srli	r3,r2,9
   217d0:	19000168 	cmpgeui	r4,r3,5
   217d4:	20005026 	beq	r4,zero,21918 <_malloc_r+0x5b4>
   217d8:	19000568 	cmpgeui	r4,r3,21
   217dc:	20008c1e 	bne	r4,zero,21a10 <_malloc_r+0x6ac>
   217e0:	19401704 	addi	r5,r3,92
   217e4:	280a90fa 	slli	r5,r5,3
   217e8:	190016c4 	addi	r4,r3,91
   217ec:	994b883a 	add	r5,r19,r5
   217f0:	28c00017 	ldw	r3,0(r5)
   217f4:	297ffe04 	addi	r5,r5,-8
   217f8:	28c07426 	beq	r5,r3,219cc <_malloc_r+0x668>
   217fc:	01bfff04 	movi	r6,-4
   21800:	19000117 	ldw	r4,4(r3)
   21804:	2188703a 	and	r4,r4,r6
   21808:	1100022e 	bgeu	r2,r4,21814 <_malloc_r+0x4b0>
   2180c:	18c00217 	ldw	r3,8(r3)
   21810:	28fffb1e 	bne	r5,r3,21800 <_malloc_r+0x49c>
   21814:	19400317 	ldw	r5,12(r3)
   21818:	98800117 	ldw	r2,4(r19)
   2181c:	81400315 	stw	r5,12(r16)
   21820:	80c00215 	stw	r3,8(r16)
   21824:	2c000215 	stw	r16,8(r5)
   21828:	1c000315 	stw	r16,12(r3)
   2182c:	003f3606 	br	21508 <_malloc_r+0x1a4>
   21830:	10c00568 	cmpgeui	r3,r2,21
   21834:	18004a26 	beq	r3,zero,21960 <_malloc_r+0x5fc>
   21838:	10c01568 	cmpgeui	r3,r2,85
   2183c:	18007b1e 	bne	r3,zero,21a2c <_malloc_r+0x6c8>
   21840:	8804d33a 	srli	r2,r17,12
   21844:	11c01bc4 	addi	r7,r2,111
   21848:	380890fa 	slli	r4,r7,3
   2184c:	12001b84 	addi	r8,r2,110
   21850:	003efd06 	br	21448 <_malloc_r+0xe4>
   21854:	63000044 	addi	r12,r12,1
   21858:	608000cc 	andi	r2,r12,3
   2185c:	42000204 	addi	r8,r8,8
   21860:	103f3e1e 	bne	r2,zero,2155c <_malloc_r+0x1f8>
   21864:	00004506 	br	2197c <_malloc_r+0x618>
   21868:	81000217 	ldw	r4,8(r16)
   2186c:	89800054 	ori	r6,r17,1
   21870:	81800115 	stw	r6,4(r16)
   21874:	20800315 	stw	r2,12(r4)
   21878:	11000215 	stw	r4,8(r2)
   2187c:	8463883a 	add	r17,r16,r17
   21880:	9c400515 	stw	r17,20(r19)
   21884:	9c400415 	stw	r17,16(r19)
   21888:	28800054 	ori	r2,r5,1
   2188c:	88800115 	stw	r2,4(r17)
   21890:	8a400315 	stw	r9,12(r17)
   21894:	8a400215 	stw	r9,8(r17)
   21898:	80c7883a 	add	r3,r16,r3
   2189c:	19400015 	stw	r5,0(r3)
   218a0:	9009883a 	mov	r4,r18
   218a4:	002d8c00 	call	2d8c0 <__malloc_unlock>
   218a8:	80800204 	addi	r2,r16,8
   218ac:	003f4306 	br	215bc <_malloc_r+0x258>
   218b0:	880ed0fa 	srli	r7,r17,3
   218b4:	88800204 	addi	r2,r17,8
   218b8:	003ebf06 	br	213b8 <_malloc_r+0x54>
   218bc:	8085883a 	add	r2,r16,r2
   218c0:	10c00117 	ldw	r3,4(r2)
   218c4:	9009883a 	mov	r4,r18
   218c8:	18c00054 	ori	r3,r3,1
   218cc:	10c00115 	stw	r3,4(r2)
   218d0:	002d8c00 	call	2d8c0 <__malloc_unlock>
   218d4:	80800204 	addi	r2,r16,8
   218d8:	003f3806 	br	215bc <_malloc_r+0x258>
   218dc:	89000054 	ori	r4,r17,1
   218e0:	81000115 	stw	r4,4(r16)
   218e4:	8463883a 	add	r17,r16,r17
   218e8:	9c400515 	stw	r17,20(r19)
   218ec:	9c400415 	stw	r17,16(r19)
   218f0:	19000054 	ori	r4,r3,1
   218f4:	89000115 	stw	r4,4(r17)
   218f8:	8085883a 	add	r2,r16,r2
   218fc:	8a400315 	stw	r9,12(r17)
   21900:	8a400215 	stw	r9,8(r17)
   21904:	10c00015 	stw	r3,0(r2)
   21908:	9009883a 	mov	r4,r18
   2190c:	002d8c00 	call	2d8c0 <__malloc_unlock>
   21910:	80800204 	addi	r2,r16,8
   21914:	003f2906 	br	215bc <_malloc_r+0x258>
   21918:	1006d1ba 	srli	r3,r2,6
   2191c:	19400e44 	addi	r5,r3,57
   21920:	280a90fa 	slli	r5,r5,3
   21924:	19000e04 	addi	r4,r3,56
   21928:	003fb006 	br	217ec <_malloc_r+0x488>
   2192c:	84c04626 	beq	r16,r19,21a48 <_malloc_r+0x6e4>
   21930:	9c000217 	ldw	r16,8(r19)
   21934:	85400117 	ldw	r21,4(r16)
   21938:	00bfff04 	movi	r2,-4
   2193c:	a8aa703a 	and	r21,r21,r2
   21940:	ac45c83a 	sub	r2,r21,r17
   21944:	ac400236 	bltu	r21,r17,21950 <_malloc_r+0x5ec>
   21948:	10c00408 	cmpgei	r3,r2,16
   2194c:	183f931e 	bne	r3,zero,2179c <_malloc_r+0x438>
   21950:	9009883a 	mov	r4,r18
   21954:	002d8c00 	call	2d8c0 <__malloc_unlock>
   21958:	0005883a 	mov	r2,zero
   2195c:	003f1706 	br	215bc <_malloc_r+0x258>
   21960:	11c01704 	addi	r7,r2,92
   21964:	380890fa 	slli	r4,r7,3
   21968:	120016c4 	addi	r8,r2,91
   2196c:	003eb606 	br	21448 <_malloc_r+0xe4>
   21970:	58800217 	ldw	r2,8(r11)
   21974:	39ffffc4 	addi	r7,r7,-1
   21978:	12c0701e 	bne	r2,r11,21b3c <_malloc_r+0x7d8>
   2197c:	388000cc 	andi	r2,r7,3
   21980:	5afffe04 	addi	r11,r11,-8
   21984:	103ffa1e 	bne	r2,zero,21970 <_malloc_r+0x60c>
   21988:	98c00117 	ldw	r3,4(r19)
   2198c:	0104303a 	nor	r2,zero,r4
   21990:	10c4703a 	and	r2,r2,r3
   21994:	98800115 	stw	r2,4(r19)
   21998:	2109883a 	add	r4,r4,r4
   2199c:	113f2336 	bltu	r2,r4,2162c <_malloc_r+0x2c8>
   219a0:	203f2226 	beq	r4,zero,2162c <_malloc_r+0x2c8>
   219a4:	2086703a 	and	r3,r4,r2
   219a8:	1800041e 	bne	r3,zero,219bc <_malloc_r+0x658>
   219ac:	2109883a 	add	r4,r4,r4
   219b0:	2086703a 	and	r3,r4,r2
   219b4:	63000104 	addi	r12,r12,4
   219b8:	183ffc26 	beq	r3,zero,219ac <_malloc_r+0x648>
   219bc:	600f883a 	mov	r7,r12
   219c0:	003ee206 	br	2154c <_malloc_r+0x1e8>
   219c4:	ad400404 	addi	r21,r21,16
   219c8:	003f2b06 	br	21678 <_malloc_r+0x314>
   219cc:	2009d0ba 	srai	r4,r4,2
   219d0:	00800044 	movi	r2,1
   219d4:	99800117 	ldw	r6,4(r19)
   219d8:	1104983a 	sll	r2,r2,r4
   219dc:	1184b03a 	or	r2,r2,r6
   219e0:	98800115 	stw	r2,4(r19)
   219e4:	003f8d06 	br	2181c <_malloc_r+0x4b8>
   219e8:	bd69883a 	add	r20,r23,r21
   219ec:	0529c83a 	sub	r20,zero,r20
   219f0:	a503ffcc 	andi	r20,r20,4095
   219f4:	a00b883a 	mov	r5,r20
   219f8:	9009883a 	mov	r4,r18
   219fc:	0021e140 	call	21e14 <_sbrk_r>
   21a00:	10ffffe0 	cmpeqi	r3,r2,-1
   21a04:	183f3f26 	beq	r3,zero,21704 <_malloc_r+0x3a0>
   21a08:	0029883a 	mov	r20,zero
   21a0c:	003f3f06 	br	2170c <_malloc_r+0x3a8>
   21a10:	19001568 	cmpgeui	r4,r3,85
   21a14:	2000201e 	bne	r4,zero,21a98 <_malloc_r+0x734>
   21a18:	1006d33a 	srli	r3,r2,12
   21a1c:	19401bc4 	addi	r5,r3,111
   21a20:	280a90fa 	slli	r5,r5,3
   21a24:	19001b84 	addi	r4,r3,110
   21a28:	003f7006 	br	217ec <_malloc_r+0x488>
   21a2c:	10c05568 	cmpgeui	r3,r2,341
   21a30:	1800201e 	bne	r3,zero,21ab4 <_malloc_r+0x750>
   21a34:	8804d3fa 	srli	r2,r17,15
   21a38:	11c01e04 	addi	r7,r2,120
   21a3c:	380890fa 	slli	r4,r7,3
   21a40:	12001dc4 	addi	r8,r2,119
   21a44:	003e8006 	br	21448 <_malloc_r+0xe4>
   21a48:	008000f4 	movhi	r2,3
   21a4c:	10cfdc17 	ldw	r3,16240(r2)
   21a50:	a8c7883a 	add	r3,r21,r3
   21a54:	10cfdc15 	stw	r3,16240(r2)
   21a58:	003f1406 	br	216ac <_malloc_r+0x348>
   21a5c:	e083ffcc 	andi	r2,fp,4095
   21a60:	103f121e 	bne	r2,zero,216ac <_malloc_r+0x348>
   21a64:	9c000217 	ldw	r16,8(r19)
   21a68:	b56b883a 	add	r21,r22,r21
   21a6c:	ad400054 	ori	r21,r21,1
   21a70:	85400115 	stw	r21,4(r16)
   21a74:	003f3e06 	br	21770 <_malloc_r+0x40c>
   21a78:	008000f4 	movhi	r2,3
   21a7c:	15c8ab15 	stw	r23,8876(r2)
   21a80:	003f1206 	br	216cc <_malloc_r+0x368>
   21a84:	b821883a 	mov	r16,r23
   21a88:	003f3906 	br	21770 <_malloc_r+0x40c>
   21a8c:	00800044 	movi	r2,1
   21a90:	b8800115 	stw	r2,4(r23)
   21a94:	003fae06 	br	21950 <_malloc_r+0x5ec>
   21a98:	19005568 	cmpgeui	r4,r3,341
   21a9c:	2000191e 	bne	r4,zero,21b04 <_malloc_r+0x7a0>
   21aa0:	1006d3fa 	srli	r3,r2,15
   21aa4:	19401e04 	addi	r5,r3,120
   21aa8:	280a90fa 	slli	r5,r5,3
   21aac:	19001dc4 	addi	r4,r3,119
   21ab0:	003f4e06 	br	217ec <_malloc_r+0x488>
   21ab4:	10815568 	cmpgeui	r2,r2,1365
   21ab8:	1000191e 	bne	r2,zero,21b20 <_malloc_r+0x7bc>
   21abc:	8804d4ba 	srli	r2,r17,18
   21ac0:	11c01f44 	addi	r7,r2,125
   21ac4:	380890fa 	slli	r4,r7,3
   21ac8:	12001f04 	addi	r8,r2,124
   21acc:	003e5e06 	br	21448 <_malloc_r+0xe4>
   21ad0:	e73ffe04 	addi	fp,fp,-8
   21ad4:	af2b883a 	add	r21,r21,fp
   21ad8:	adebc83a 	sub	r21,r21,r23
   21adc:	0029883a 	mov	r20,zero
   21ae0:	003f0a06 	br	2170c <_malloc_r+0x3a8>
   21ae4:	81400204 	addi	r5,r16,8
   21ae8:	9009883a 	mov	r4,r18
   21aec:	00240f40 	call	240f4 <_free_r>
   21af0:	9c000217 	ldw	r16,8(r19)
   21af4:	008000f4 	movhi	r2,3
   21af8:	150fdc17 	ldw	r20,16240(r2)
   21afc:	85400117 	ldw	r21,4(r16)
   21b00:	003f1b06 	br	21770 <_malloc_r+0x40c>
   21b04:	18c15568 	cmpgeui	r3,r3,1365
   21b08:	1800091e 	bne	r3,zero,21b30 <_malloc_r+0x7cc>
   21b0c:	1006d4ba 	srli	r3,r2,18
   21b10:	19401f44 	addi	r5,r3,125
   21b14:	280a90fa 	slli	r5,r5,3
   21b18:	19001f04 	addi	r4,r3,124
   21b1c:	003f3306 	br	217ec <_malloc_r+0x488>
   21b20:	0100fe04 	movi	r4,1016
   21b24:	01c01fc4 	movi	r7,127
   21b28:	02001f84 	movi	r8,126
   21b2c:	003e4606 	br	21448 <_malloc_r+0xe4>
   21b30:	0140fe04 	movi	r5,1016
   21b34:	01001f84 	movi	r4,126
   21b38:	003f2c06 	br	217ec <_malloc_r+0x488>
   21b3c:	98800117 	ldw	r2,4(r19)
   21b40:	003f9506 	br	21998 <_malloc_r+0x634>

00021b44 <_open_r>:
   21b44:	2807883a 	mov	r3,r5
   21b48:	defffe04 	addi	sp,sp,-8
   21b4c:	dc000015 	stw	r16,0(sp)
   21b50:	300b883a 	mov	r5,r6
   21b54:	008000f4 	movhi	r2,3
   21b58:	380d883a 	mov	r6,r7
   21b5c:	2021883a 	mov	r16,r4
   21b60:	1809883a 	mov	r4,r3
   21b64:	dfc00115 	stw	ra,4(sp)
   21b68:	100fca15 	stw	zero,16168(r2)
   21b6c:	002d9fc0 	call	2d9fc <open>
   21b70:	10ffffd8 	cmpnei	r3,r2,-1
   21b74:	18000426 	beq	r3,zero,21b88 <_open_r+0x44>
   21b78:	dfc00117 	ldw	ra,4(sp)
   21b7c:	dc000017 	ldw	r16,0(sp)
   21b80:	dec00204 	addi	sp,sp,8
   21b84:	f800283a 	ret
   21b88:	00c000f4 	movhi	r3,3
   21b8c:	18cfca17 	ldw	r3,16168(r3)
   21b90:	183ff926 	beq	r3,zero,21b78 <_open_r+0x34>
   21b94:	80c00015 	stw	r3,0(r16)
   21b98:	dfc00117 	ldw	ra,4(sp)
   21b9c:	dc000017 	ldw	r16,0(sp)
   21ba0:	dec00204 	addi	sp,sp,8
   21ba4:	f800283a 	ret

00021ba8 <lflush>:
   21ba8:	2080030b 	ldhu	r2,12(r4)
   21bac:	1080024c 	andi	r2,r2,9
   21bb0:	10800258 	cmpnei	r2,r2,9
   21bb4:	10000226 	beq	r2,zero,21bc0 <lflush+0x18>
   21bb8:	0005883a 	mov	r2,zero
   21bbc:	f800283a 	ret
   21bc0:	0023ba41 	jmpi	23ba4 <fflush>

00021bc4 <__srefill_r>:
   21bc4:	defffc04 	addi	sp,sp,-16
   21bc8:	dc400115 	stw	r17,4(sp)
   21bcc:	dc000015 	stw	r16,0(sp)
   21bd0:	dfc00315 	stw	ra,12(sp)
   21bd4:	dc800215 	stw	r18,8(sp)
   21bd8:	2023883a 	mov	r17,r4
   21bdc:	2821883a 	mov	r16,r5
   21be0:	20000226 	beq	r4,zero,21bec <__srefill_r+0x28>
   21be4:	20800e17 	ldw	r2,56(r4)
   21be8:	10003a26 	beq	r2,zero,21cd4 <__srefill_r+0x110>
   21bec:	80c0030b 	ldhu	r3,12(r16)
   21bf0:	1908000c 	andi	r4,r3,8192
   21bf4:	1805883a 	mov	r2,r3
   21bf8:	2000071e 	bne	r4,zero,21c18 <__srefill_r+0x54>
   21bfc:	81001917 	ldw	r4,100(r16)
   21c00:	18880014 	ori	r2,r3,8192
   21c04:	00f7ffc4 	movi	r3,-8193
   21c08:	20c8703a 	and	r4,r4,r3
   21c0c:	8080030d 	sth	r2,12(r16)
   21c10:	1007883a 	mov	r3,r2
   21c14:	81001915 	stw	r4,100(r16)
   21c18:	80000115 	stw	zero,4(r16)
   21c1c:	1100080c 	andi	r4,r2,32
   21c20:	20004d1e 	bne	r4,zero,21d58 <__srefill_r+0x194>
   21c24:	1100010c 	andi	r4,r2,4
   21c28:	20001c1e 	bne	r4,zero,21c9c <__srefill_r+0xd8>
   21c2c:	1100040c 	andi	r4,r2,16
   21c30:	20005126 	beq	r4,zero,21d78 <__srefill_r+0x1b4>
   21c34:	1080020c 	andi	r2,r2,8
   21c38:	1000371e 	bne	r2,zero,21d18 <__srefill_r+0x154>
   21c3c:	18c00114 	ori	r3,r3,4
   21c40:	80c0030d 	sth	r3,12(r16)
   21c44:	80800417 	ldw	r2,16(r16)
   21c48:	10003c26 	beq	r2,zero,21d3c <__srefill_r+0x178>
   21c4c:	8480030b 	ldhu	r18,12(r16)
   21c50:	908000cc 	andi	r2,r18,3
   21c54:	1000211e 	bne	r2,zero,21cdc <__srefill_r+0x118>
   21c58:	81800417 	ldw	r6,16(r16)
   21c5c:	80800817 	ldw	r2,32(r16)
   21c60:	81c00517 	ldw	r7,20(r16)
   21c64:	81400717 	ldw	r5,28(r16)
   21c68:	81800015 	stw	r6,0(r16)
   21c6c:	8809883a 	mov	r4,r17
   21c70:	103ee83a 	callr	r2
   21c74:	1007883a 	mov	r3,r2
   21c78:	80800115 	stw	r2,4(r16)
   21c7c:	0005883a 	mov	r2,zero
   21c80:	00c0370e 	bge	zero,r3,21d60 <__srefill_r+0x19c>
   21c84:	dfc00317 	ldw	ra,12(sp)
   21c88:	dc800217 	ldw	r18,8(sp)
   21c8c:	dc400117 	ldw	r17,4(sp)
   21c90:	dc000017 	ldw	r16,0(sp)
   21c94:	dec00404 	addi	sp,sp,16
   21c98:	f800283a 	ret
   21c9c:	81400c17 	ldw	r5,48(r16)
   21ca0:	283fe826 	beq	r5,zero,21c44 <__srefill_r+0x80>
   21ca4:	80801004 	addi	r2,r16,64
   21ca8:	28800226 	beq	r5,r2,21cb4 <__srefill_r+0xf0>
   21cac:	8809883a 	mov	r4,r17
   21cb0:	00240f40 	call	240f4 <_free_r>
   21cb4:	80800f17 	ldw	r2,60(r16)
   21cb8:	80000c15 	stw	zero,48(r16)
   21cbc:	80800115 	stw	r2,4(r16)
   21cc0:	103fe026 	beq	r2,zero,21c44 <__srefill_r+0x80>
   21cc4:	80c00e17 	ldw	r3,56(r16)
   21cc8:	0005883a 	mov	r2,zero
   21ccc:	80c00015 	stw	r3,0(r16)
   21cd0:	003fec06 	br	21c84 <__srefill_r+0xc0>
   21cd4:	0023ed80 	call	23ed8 <__sinit>
   21cd8:	003fc406 	br	21bec <__srefill_r+0x28>
   21cdc:	008000f4 	movhi	r2,3
   21ce0:	1108a917 	ldw	r4,8868(r2)
   21ce4:	014000b4 	movhi	r5,2
   21ce8:	00800044 	movi	r2,1
   21cec:	8080030d 	sth	r2,12(r16)
   21cf0:	2946ea04 	addi	r5,r5,7080
   21cf4:	00243f00 	call	243f0 <_fwalk>
   21cf8:	9080024c 	andi	r2,r18,9
   21cfc:	8480030d 	sth	r18,12(r16)
   21d00:	10800258 	cmpnei	r2,r2,9
   21d04:	103fd41e 	bne	r2,zero,21c58 <__srefill_r+0x94>
   21d08:	800b883a 	mov	r5,r16
   21d0c:	8809883a 	mov	r4,r17
   21d10:	002391c0 	call	2391c <__sflush_r>
   21d14:	003fd006 	br	21c58 <__srefill_r+0x94>
   21d18:	800b883a 	mov	r5,r16
   21d1c:	8809883a 	mov	r4,r17
   21d20:	0023b440 	call	23b44 <_fflush_r>
   21d24:	10000c1e 	bne	r2,zero,21d58 <__srefill_r+0x194>
   21d28:	80c0030b 	ldhu	r3,12(r16)
   21d2c:	80000215 	stw	zero,8(r16)
   21d30:	80000615 	stw	zero,24(r16)
   21d34:	18fffdcc 	andi	r3,r3,65527
   21d38:	003fc006 	br	21c3c <__srefill_r+0x78>
   21d3c:	800b883a 	mov	r5,r16
   21d40:	8809883a 	mov	r4,r17
   21d44:	00212040 	call	21204 <__smakebuf_r>
   21d48:	003fc006 	br	21c4c <__srefill_r+0x88>
   21d4c:	10801014 	ori	r2,r2,64
   21d50:	80000115 	stw	zero,4(r16)
   21d54:	8080030d 	sth	r2,12(r16)
   21d58:	00bfffc4 	movi	r2,-1
   21d5c:	003fc906 	br	21c84 <__srefill_r+0xc0>
   21d60:	8080030b 	ldhu	r2,12(r16)
   21d64:	183ff91e 	bne	r3,zero,21d4c <__srefill_r+0x188>
   21d68:	10800814 	ori	r2,r2,32
   21d6c:	8080030d 	sth	r2,12(r16)
   21d70:	00bfffc4 	movi	r2,-1
   21d74:	003fc306 	br	21c84 <__srefill_r+0xc0>
   21d78:	00800244 	movi	r2,9
   21d7c:	88800015 	stw	r2,0(r17)
   21d80:	18c01014 	ori	r3,r3,64
   21d84:	80c0030d 	sth	r3,12(r16)
   21d88:	00bfffc4 	movi	r2,-1
   21d8c:	003fbd06 	br	21c84 <__srefill_r+0xc0>

00021d90 <__srget_r>:
   21d90:	defffd04 	addi	sp,sp,-12
   21d94:	dc400115 	stw	r17,4(sp)
   21d98:	dc000015 	stw	r16,0(sp)
   21d9c:	dfc00215 	stw	ra,8(sp)
   21da0:	2023883a 	mov	r17,r4
   21da4:	2821883a 	mov	r16,r5
   21da8:	20000226 	beq	r4,zero,21db4 <__srget_r+0x24>
   21dac:	20800e17 	ldw	r2,56(r4)
   21db0:	10001026 	beq	r2,zero,21df4 <__srget_r+0x64>
   21db4:	800b883a 	mov	r5,r16
   21db8:	8809883a 	mov	r4,r17
   21dbc:	0021bc40 	call	21bc4 <__srefill_r>
   21dc0:	10000e1e 	bne	r2,zero,21dfc <__srget_r+0x6c>
   21dc4:	80c00017 	ldw	r3,0(r16)
   21dc8:	80800117 	ldw	r2,4(r16)
   21dcc:	19000044 	addi	r4,r3,1
   21dd0:	10bfffc4 	addi	r2,r2,-1
   21dd4:	80800115 	stw	r2,4(r16)
   21dd8:	81000015 	stw	r4,0(r16)
   21ddc:	18800003 	ldbu	r2,0(r3)
   21de0:	dfc00217 	ldw	ra,8(sp)
   21de4:	dc400117 	ldw	r17,4(sp)
   21de8:	dc000017 	ldw	r16,0(sp)
   21dec:	dec00304 	addi	sp,sp,12
   21df0:	f800283a 	ret
   21df4:	0023ed80 	call	23ed8 <__sinit>
   21df8:	003fee06 	br	21db4 <__srget_r+0x24>
   21dfc:	00bfffc4 	movi	r2,-1
   21e00:	003ff706 	br	21de0 <__srget_r+0x50>

00021e04 <__srget>:
   21e04:	008000f4 	movhi	r2,3
   21e08:	200b883a 	mov	r5,r4
   21e0c:	1108aa17 	ldw	r4,8872(r2)
   21e10:	0021d901 	jmpi	21d90 <__srget_r>

00021e14 <_sbrk_r>:
   21e14:	defffe04 	addi	sp,sp,-8
   21e18:	dc000015 	stw	r16,0(sp)
   21e1c:	008000f4 	movhi	r2,3
   21e20:	2021883a 	mov	r16,r4
   21e24:	2809883a 	mov	r4,r5
   21e28:	dfc00115 	stw	ra,4(sp)
   21e2c:	100fca15 	stw	zero,16168(r2)
   21e30:	002df6c0 	call	2df6c <sbrk>
   21e34:	10ffffd8 	cmpnei	r3,r2,-1
   21e38:	18000426 	beq	r3,zero,21e4c <_sbrk_r+0x38>
   21e3c:	dfc00117 	ldw	ra,4(sp)
   21e40:	dc000017 	ldw	r16,0(sp)
   21e44:	dec00204 	addi	sp,sp,8
   21e48:	f800283a 	ret
   21e4c:	00c000f4 	movhi	r3,3
   21e50:	18cfca17 	ldw	r3,16168(r3)
   21e54:	183ff926 	beq	r3,zero,21e3c <_sbrk_r+0x28>
   21e58:	80c00015 	stw	r3,0(r16)
   21e5c:	dfc00117 	ldw	ra,4(sp)
   21e60:	dc000017 	ldw	r16,0(sp)
   21e64:	dec00204 	addi	sp,sp,8
   21e68:	f800283a 	ret

00021e6c <__sread>:
   21e6c:	defffe04 	addi	sp,sp,-8
   21e70:	dc000015 	stw	r16,0(sp)
   21e74:	2821883a 	mov	r16,r5
   21e78:	2940038f 	ldh	r5,14(r5)
   21e7c:	dfc00115 	stw	ra,4(sp)
   21e80:	00265dc0 	call	265dc <_read_r>
   21e84:	10000716 	blt	r2,zero,21ea4 <__sread+0x38>
   21e88:	80c01417 	ldw	r3,80(r16)
   21e8c:	1887883a 	add	r3,r3,r2
   21e90:	80c01415 	stw	r3,80(r16)
   21e94:	dfc00117 	ldw	ra,4(sp)
   21e98:	dc000017 	ldw	r16,0(sp)
   21e9c:	dec00204 	addi	sp,sp,8
   21ea0:	f800283a 	ret
   21ea4:	80c0030b 	ldhu	r3,12(r16)
   21ea8:	18fbffcc 	andi	r3,r3,61439
   21eac:	80c0030d 	sth	r3,12(r16)
   21eb0:	dfc00117 	ldw	ra,4(sp)
   21eb4:	dc000017 	ldw	r16,0(sp)
   21eb8:	dec00204 	addi	sp,sp,8
   21ebc:	f800283a 	ret

00021ec0 <__seofread>:
   21ec0:	0005883a 	mov	r2,zero
   21ec4:	f800283a 	ret

00021ec8 <__swrite>:
   21ec8:	2880030b 	ldhu	r2,12(r5)
   21ecc:	defffb04 	addi	sp,sp,-20
   21ed0:	dcc00315 	stw	r19,12(sp)
   21ed4:	dc800215 	stw	r18,8(sp)
   21ed8:	dc400115 	stw	r17,4(sp)
   21edc:	dc000015 	stw	r16,0(sp)
   21ee0:	dfc00415 	stw	ra,16(sp)
   21ee4:	10c0400c 	andi	r3,r2,256
   21ee8:	2821883a 	mov	r16,r5
   21eec:	2023883a 	mov	r17,r4
   21ef0:	2940038f 	ldh	r5,14(r5)
   21ef4:	3025883a 	mov	r18,r6
   21ef8:	3827883a 	mov	r19,r7
   21efc:	18000c1e 	bne	r3,zero,21f30 <__swrite+0x68>
   21f00:	10bbffcc 	andi	r2,r2,61439
   21f04:	980f883a 	mov	r7,r19
   21f08:	900d883a 	mov	r6,r18
   21f0c:	8809883a 	mov	r4,r17
   21f10:	8080030d 	sth	r2,12(r16)
   21f14:	dfc00417 	ldw	ra,16(sp)
   21f18:	dcc00317 	ldw	r19,12(sp)
   21f1c:	dc800217 	ldw	r18,8(sp)
   21f20:	dc400117 	ldw	r17,4(sp)
   21f24:	dc000017 	ldw	r16,0(sp)
   21f28:	dec00504 	addi	sp,sp,20
   21f2c:	00238601 	jmpi	23860 <_write_r>
   21f30:	01c00084 	movi	r7,2
   21f34:	000d883a 	mov	r6,zero
   21f38:	00252000 	call	25200 <_lseek_r>
   21f3c:	8080030b 	ldhu	r2,12(r16)
   21f40:	8140038f 	ldh	r5,14(r16)
   21f44:	003fee06 	br	21f00 <__swrite+0x38>

00021f48 <__sseek>:
   21f48:	defffe04 	addi	sp,sp,-8
   21f4c:	dc000015 	stw	r16,0(sp)
   21f50:	2821883a 	mov	r16,r5
   21f54:	2940038f 	ldh	r5,14(r5)
   21f58:	dfc00115 	stw	ra,4(sp)
   21f5c:	00252000 	call	25200 <_lseek_r>
   21f60:	10ffffd8 	cmpnei	r3,r2,-1
   21f64:	18000826 	beq	r3,zero,21f88 <__sseek+0x40>
   21f68:	80c0030b 	ldhu	r3,12(r16)
   21f6c:	80801415 	stw	r2,80(r16)
   21f70:	18c40014 	ori	r3,r3,4096
   21f74:	80c0030d 	sth	r3,12(r16)
   21f78:	dfc00117 	ldw	ra,4(sp)
   21f7c:	dc000017 	ldw	r16,0(sp)
   21f80:	dec00204 	addi	sp,sp,8
   21f84:	f800283a 	ret
   21f88:	80c0030b 	ldhu	r3,12(r16)
   21f8c:	18fbffcc 	andi	r3,r3,61439
   21f90:	80c0030d 	sth	r3,12(r16)
   21f94:	dfc00117 	ldw	ra,4(sp)
   21f98:	dc000017 	ldw	r16,0(sp)
   21f9c:	dec00204 	addi	sp,sp,8
   21fa0:	f800283a 	ret

00021fa4 <__sclose>:
   21fa4:	2940038f 	ldh	r5,14(r5)
   21fa8:	00238c41 	jmpi	238c4 <_close_r>

00021fac <sulp>:
   21fac:	defffd04 	addi	sp,sp,-12
   21fb0:	dc400115 	stw	r17,4(sp)
   21fb4:	3023883a 	mov	r17,r6
   21fb8:	dc000015 	stw	r16,0(sp)
   21fbc:	dfc00215 	stw	ra,8(sp)
   21fc0:	2821883a 	mov	r16,r5
   21fc4:	00261380 	call	26138 <__ulp>
   21fc8:	88000c26 	beq	r17,zero,21ffc <sulp+0x50>
   21fcc:	8020d53a 	srli	r16,r16,20
   21fd0:	01c01ac4 	movi	r7,107
   21fd4:	8401ffcc 	andi	r16,r16,2047
   21fd8:	3c21c83a 	sub	r16,r7,r16
   21fdc:	0400070e 	bge	zero,r16,21ffc <sulp+0x50>
   21fe0:	8020953a 	slli	r16,r16,20
   21fe4:	01cffc34 	movhi	r7,16368
   21fe8:	1009883a 	mov	r4,r2
   21fec:	180b883a 	mov	r5,r3
   21ff0:	000d883a 	mov	r6,zero
   21ff4:	81cf883a 	add	r7,r16,r7
   21ff8:	002bb700 	call	2bb70 <__muldf3>
   21ffc:	dfc00217 	ldw	ra,8(sp)
   22000:	dc400117 	ldw	r17,4(sp)
   22004:	dc000017 	ldw	r16,0(sp)
   22008:	dec00304 	addi	sp,sp,12
   2200c:	f800283a 	ret

00022010 <_strtod_l>:
   22010:	deffdf04 	addi	sp,sp,-132
   22014:	008000f4 	movhi	r2,3
   22018:	dd401c15 	stw	r21,112(sp)
   2201c:	15403417 	ldw	r21,208(r2)
   22020:	dc001715 	stw	r16,92(sp)
   22024:	2021883a 	mov	r16,r4
   22028:	a809883a 	mov	r4,r21
   2202c:	dd801d15 	stw	r22,116(sp)
   22030:	dd001b15 	stw	r20,108(sp)
   22034:	282d883a 	mov	r22,r5
   22038:	dc801915 	stw	r18,100(sp)
   2203c:	dc401815 	stw	r17,96(sp)
   22040:	d9800315 	stw	r6,12(sp)
   22044:	dfc02015 	stw	ra,128(sp)
   22048:	df001f15 	stw	fp,124(sp)
   2204c:	ddc01e15 	stw	r23,120(sp)
   22050:	dcc01a15 	stw	r19,104(sp)
   22054:	3829883a 	mov	r20,r7
   22058:	d8001315 	stw	zero,76(sp)
   2205c:	00266f80 	call	266f8 <strlen>
   22060:	100d883a 	mov	r6,r2
   22064:	0025883a 	mov	r18,zero
   22068:	0023883a 	mov	r17,zero
   2206c:	dd801215 	stw	r22,72(sp)
   22070:	b007883a 	mov	r3,r22
   22074:	1cc00003 	ldbu	r19,0(r3)
   22078:	010000b4 	movhi	r4,2
   2207c:	1813883a 	mov	r9,r3
   22080:	98803fcc 	andi	r2,r19,255
   22084:	100a90ba 	slli	r5,r2,2
   22088:	10800ba8 	cmpgeui	r2,r2,46
   2208c:	1000311e 	bne	r2,zero,22154 <_strtod_l+0x144>
   22090:	2909883a 	add	r4,r5,r4
   22094:	20882717 	ldw	r2,8348(r4)
   22098:	1000683a 	jmp	r2
   2209c:	00022208 	cmpgei	zero,zero,2184
   220a0:	00022154 	movui	zero,2181
   220a4:	00022154 	movui	zero,2181
   220a8:	00022154 	movui	zero,2181
   220ac:	00022154 	movui	zero,2181
   220b0:	00022154 	movui	zero,2181
   220b4:	00022154 	movui	zero,2181
   220b8:	00022154 	movui	zero,2181
   220bc:	00022154 	movui	zero,2181
   220c0:	00022258 	cmpnei	zero,zero,2185
   220c4:	00022258 	cmpnei	zero,zero,2185
   220c8:	00022258 	cmpnei	zero,zero,2185
   220cc:	00022258 	cmpnei	zero,zero,2185
   220d0:	00022258 	cmpnei	zero,zero,2185
   220d4:	00022154 	movui	zero,2181
   220d8:	00022154 	movui	zero,2181
   220dc:	00022154 	movui	zero,2181
   220e0:	00022154 	movui	zero,2181
   220e4:	00022154 	movui	zero,2181
   220e8:	00022154 	movui	zero,2181
   220ec:	00022154 	movui	zero,2181
   220f0:	00022154 	movui	zero,2181
   220f4:	00022154 	movui	zero,2181
   220f8:	00022154 	movui	zero,2181
   220fc:	00022154 	movui	zero,2181
   22100:	00022154 	movui	zero,2181
   22104:	00022154 	movui	zero,2181
   22108:	00022154 	movui	zero,2181
   2210c:	00022154 	movui	zero,2181
   22110:	00022154 	movui	zero,2181
   22114:	00022154 	movui	zero,2181
   22118:	00022154 	movui	zero,2181
   2211c:	00022258 	cmpnei	zero,zero,2185
   22120:	00022154 	movui	zero,2181
   22124:	00022154 	movui	zero,2181
   22128:	00022154 	movui	zero,2181
   2212c:	00022154 	movui	zero,2181
   22130:	00022154 	movui	zero,2181
   22134:	00022154 	movui	zero,2181
   22138:	00022154 	movui	zero,2181
   2213c:	00022154 	movui	zero,2181
   22140:	00022154 	movui	zero,2181
   22144:	00022154 	movui	zero,2181
   22148:	00022e60 	cmpeqi	zero,zero,2233
   2214c:	00022154 	movui	zero,2181
   22150:	00022e3c 	xorhi	zero,zero,2232
   22154:	9cc03fcc 	andi	r19,r19,255
   22158:	9cc0201c 	xori	r19,r19,128
   2215c:	d8000415 	stw	zero,16(sp)
   22160:	9cffe004 	addi	r19,r19,-128
   22164:	98800c18 	cmpnei	r2,r19,48
   22168:	10008426 	beq	r2,zero,2237c <_strtod_l+0x36c>
   2216c:	0023883a 	mov	r17,zero
   22170:	98800c08 	cmpgei	r2,r19,48
   22174:	9825883a 	mov	r18,r19
   22178:	1003d526 	beq	r2,zero,230d0 <_strtod_l+0x10c0>
   2217c:	4829883a 	mov	r20,r9
   22180:	0011883a 	mov	r8,zero
   22184:	0039883a 	mov	fp,zero
   22188:	002f883a 	mov	r23,zero
   2218c:	00000806 	br	221b0 <_strtod_l+0x1a0>
   22190:	1f3ff404 	addi	fp,r3,-48
   22194:	a5000044 	addi	r20,r20,1
   22198:	dd001215 	stw	r20,72(sp)
   2219c:	a4800007 	ldb	r18,0(r20)
   221a0:	bdc00044 	addi	r23,r23,1
   221a4:	90800c10 	cmplti	r2,r18,48
   221a8:	9027883a 	mov	r19,r18
   221ac:	1000881e 	bne	r2,zero,223d0 <_strtod_l+0x3c0>
   221b0:	e00690ba 	slli	r3,fp,2
   221b4:	400490ba 	slli	r2,r8,2
   221b8:	99000e90 	cmplti	r4,r19,58
   221bc:	1f07883a 	add	r3,r3,fp
   221c0:	1205883a 	add	r2,r2,r8
   221c4:	18c7883a 	add	r3,r3,r3
   221c8:	1085883a 	add	r2,r2,r2
   221cc:	b9400248 	cmpgei	r5,r23,9
   221d0:	1cc7883a 	add	r3,r3,r19
   221d4:	14c5883a 	add	r2,r2,r19
   221d8:	20002226 	beq	r4,zero,22264 <_strtod_l+0x254>
   221dc:	283fec26 	beq	r5,zero,22190 <_strtod_l+0x180>
   221e0:	123ff404 	addi	r8,r2,-48
   221e4:	003feb06 	br	22194 <_strtod_l+0x184>
   221e8:	90c01960 	cmpeqi	r3,r18,101
   221ec:	01c00044 	movi	r7,1
   221f0:	1800c01e 	bne	r3,zero,224f4 <_strtod_l+0x4e4>
   221f4:	90c01160 	cmpeqi	r3,r18,69
   221f8:	18008326 	beq	r3,zero,22408 <_strtod_l+0x3f8>
   221fc:	b800bd1e 	bne	r23,zero,224f4 <_strtod_l+0x4e4>
   22200:	8886b03a 	or	r3,r17,r2
   22204:	1800ba1e 	bne	r3,zero,224f0 <_strtod_l+0x4e0>
   22208:	d8800317 	ldw	r2,12(sp)
   2220c:	10000226 	beq	r2,zero,22218 <_strtod_l+0x208>
   22210:	d8800317 	ldw	r2,12(sp)
   22214:	15800015 	stw	r22,0(r2)
   22218:	002d883a 	mov	r22,zero
   2221c:	002b883a 	mov	r21,zero
   22220:	b005883a 	mov	r2,r22
   22224:	a807883a 	mov	r3,r21
   22228:	dfc02017 	ldw	ra,128(sp)
   2222c:	df001f17 	ldw	fp,124(sp)
   22230:	ddc01e17 	ldw	r23,120(sp)
   22234:	dd801d17 	ldw	r22,116(sp)
   22238:	dd401c17 	ldw	r21,112(sp)
   2223c:	dd001b17 	ldw	r20,108(sp)
   22240:	dcc01a17 	ldw	r19,104(sp)
   22244:	dc801917 	ldw	r18,100(sp)
   22248:	dc401817 	ldw	r17,96(sp)
   2224c:	dc001717 	ldw	r16,92(sp)
   22250:	dec02104 	addi	sp,sp,132
   22254:	f800283a 	ret
   22258:	18c00044 	addi	r3,r3,1
   2225c:	d8c01215 	stw	r3,72(sp)
   22260:	003f8406 	br	22074 <_strtod_l+0x64>
   22264:	a80b883a 	mov	r5,r21
   22268:	a009883a 	mov	r4,r20
   2226c:	da000615 	stw	r8,24(sp)
   22270:	da400515 	stw	r9,20(sp)
   22274:	d9800715 	stw	r6,28(sp)
   22278:	00267900 	call	26790 <strncmp>
   2227c:	da400517 	ldw	r9,20(sp)
   22280:	da000617 	ldw	r8,24(sp)
   22284:	10004b1e 	bne	r2,zero,223b4 <_strtod_l+0x3a4>
   22288:	d9800717 	ldw	r6,28(sp)
   2228c:	a18d883a 	add	r6,r20,r6
   22290:	d9801215 	stw	r6,72(sp)
   22294:	34800007 	ldb	r18,0(r6)
   22298:	b803f81e 	bne	r23,zero,2327c <_strtod_l+0x126c>
   2229c:	90800c18 	cmpnei	r2,r18,48
   222a0:	1003ae1e 	bne	r2,zero,2315c <_strtod_l+0x114c>
   222a4:	d8c01217 	ldw	r3,72(sp)
   222a8:	01400044 	movi	r5,1
   222ac:	28cbc83a 	sub	r5,r5,r3
   222b0:	1945883a 	add	r2,r3,r5
   222b4:	18c00044 	addi	r3,r3,1
   222b8:	d8c01215 	stw	r3,72(sp)
   222bc:	1c800007 	ldb	r18,0(r3)
   222c0:	91000c20 	cmpeqi	r4,r18,48
   222c4:	203ffa1e 	bne	r4,zero,222b0 <_strtod_l+0x2a0>
   222c8:	90fff3c4 	addi	r3,r18,-49
   222cc:	18c00268 	cmpgeui	r3,r3,9
   222d0:	1802851e 	bne	r3,zero,22ce8 <_strtod_l+0xcd8>
   222d4:	da401217 	ldw	r9,72(sp)
   222d8:	94bff404 	addi	r18,r18,-48
   222dc:	15000044 	addi	r20,r2,1
   222e0:	480f883a 	mov	r7,r9
   222e4:	002b883a 	mov	r21,zero
   222e8:	05c00044 	movi	r23,1
   222ec:	e00690ba 	slli	r3,fp,2
   222f0:	0005883a 	mov	r2,zero
   222f4:	1f39883a 	add	fp,r3,fp
   222f8:	e739883a 	add	fp,fp,fp
   222fc:	9739883a 	add	fp,r18,fp
   22300:	38c00044 	addi	r3,r7,1
   22304:	d8c01215 	stw	r3,72(sp)
   22308:	3c800047 	ldb	r18,1(r7)
   2230c:	91bff404 	addi	r6,r18,-48
   22310:	30c002b0 	cmpltui	r3,r6,10
   22314:	183fb426 	beq	r3,zero,221e8 <_strtod_l+0x1d8>
   22318:	d9c01217 	ldw	r7,72(sp)
   2231c:	10800044 	addi	r2,r2,1
   22320:	3025883a 	mov	r18,r6
   22324:	303ff626 	beq	r6,zero,22300 <_strtod_l+0x2f0>
   22328:	10c00060 	cmpeqi	r3,r2,1
   2232c:	b9000044 	addi	r4,r23,1
   22330:	a0a9883a 	add	r20,r20,r2
   22334:	1804961e 	bne	r3,zero,23590 <_strtod_l+0x1580>
   22338:	15c5883a 	add	r2,r2,r23
   2233c:	12ffffc4 	addi	r11,r2,-1
   22340:	00000306 	br	22350 <_strtod_l+0x340>
   22344:	18f9883a 	add	fp,r3,r3
   22348:	282f883a 	mov	r23,r5
   2234c:	2ac35426 	beq	r5,r11,230a0 <_strtod_l+0x1090>
   22350:	e00690ba 	slli	r3,fp,2
   22354:	b9400044 	addi	r5,r23,1
   22358:	b9000248 	cmpgei	r4,r23,9
   2235c:	1f07883a 	add	r3,r3,fp
   22360:	2a800448 	cmpgei	r10,r5,17
   22364:	203ff726 	beq	r4,zero,22344 <_strtod_l+0x334>
   22368:	400690ba 	slli	r3,r8,2
   2236c:	503ff61e 	bne	r10,zero,22348 <_strtod_l+0x338>
   22370:	1a11883a 	add	r8,r3,r8
   22374:	4211883a 	add	r8,r8,r8
   22378:	003ff306 	br	22348 <_strtod_l+0x338>
   2237c:	48800043 	ldbu	r2,1(r9)
   22380:	4dc00044 	addi	r23,r9,1
   22384:	108037cc 	andi	r2,r2,223
   22388:	10801618 	cmpnei	r2,r2,88
   2238c:	10032c26 	beq	r2,zero,23040 <_strtod_l+0x1030>
   22390:	ddc01215 	stw	r23,72(sp)
   22394:	bcc00007 	ldb	r19,0(r23)
   22398:	b813883a 	mov	r9,r23
   2239c:	bdc00044 	addi	r23,r23,1
   223a0:	98800c20 	cmpeqi	r2,r19,48
   223a4:	103ffa1e 	bne	r2,zero,22390 <_strtod_l+0x380>
   223a8:	98009d26 	beq	r19,zero,22620 <_strtod_l+0x610>
   223ac:	04400044 	movi	r17,1
   223b0:	003f6f06 	br	22170 <_strtod_l+0x160>
   223b4:	9cc01960 	cmpeqi	r19,r19,101
   223b8:	b82b883a 	mov	r21,r23
   223bc:	0005883a 	mov	r2,zero
   223c0:	0029883a 	mov	r20,zero
   223c4:	000f883a 	mov	r7,zero
   223c8:	983f8c1e 	bne	r19,zero,221fc <_strtod_l+0x1ec>
   223cc:	003f8906 	br	221f4 <_strtod_l+0x1e4>
   223d0:	a80b883a 	mov	r5,r21
   223d4:	a009883a 	mov	r4,r20
   223d8:	da400715 	stw	r9,28(sp)
   223dc:	da000615 	stw	r8,24(sp)
   223e0:	d9800515 	stw	r6,20(sp)
   223e4:	00267900 	call	26790 <strncmp>
   223e8:	d9800517 	ldw	r6,20(sp)
   223ec:	da000617 	ldw	r8,24(sp)
   223f0:	da400717 	ldw	r9,28(sp)
   223f4:	10009426 	beq	r2,zero,22648 <_strtod_l+0x638>
   223f8:	b82b883a 	mov	r21,r23
   223fc:	000f883a 	mov	r7,zero
   22400:	0029883a 	mov	r20,zero
   22404:	0005883a 	mov	r2,zero
   22408:	0027883a 	mov	r19,zero
   2240c:	b8006d26 	beq	r23,zero,225c4 <_strtod_l+0x5b4>
   22410:	9d05c83a 	sub	r2,r19,r20
   22414:	d8800915 	stw	r2,36(sp)
   22418:	a800011e 	bne	r21,zero,22420 <_strtod_l+0x410>
   2241c:	b82b883a 	mov	r21,r23
   22420:	b8800450 	cmplti	r2,r23,17
   22424:	b82d883a 	mov	r22,r23
   22428:	1000011e 	bne	r2,zero,22430 <_strtod_l+0x420>
   2242c:	05800404 	movi	r22,16
   22430:	e009883a 	mov	r4,fp
   22434:	da400515 	stw	r9,20(sp)
   22438:	da000615 	stw	r8,24(sp)
   2243c:	002cd5c0 	call	2cd5c <__floatunsidf>
   22440:	b9000290 	cmplti	r4,r23,10
   22444:	da400517 	ldw	r9,20(sp)
   22448:	1025883a 	mov	r18,r2
   2244c:	1823883a 	mov	r17,r3
   22450:	2000171e 	bne	r4,zero,224b0 <_strtod_l+0x4a0>
   22454:	b0bffdc4 	addi	r2,r22,-9
   22458:	100690fa 	slli	r3,r2,3
   2245c:	008000f4 	movhi	r2,3
   22460:	10806104 	addi	r2,r2,388
   22464:	10c5883a 	add	r2,r2,r3
   22468:	11800017 	ldw	r6,0(r2)
   2246c:	11c00117 	ldw	r7,4(r2)
   22470:	880b883a 	mov	r5,r17
   22474:	9009883a 	mov	r4,r18
   22478:	002bb700 	call	2bb70 <__muldf3>
   2247c:	da000617 	ldw	r8,24(sp)
   22480:	1025883a 	mov	r18,r2
   22484:	1823883a 	mov	r17,r3
   22488:	4009883a 	mov	r4,r8
   2248c:	002cd5c0 	call	2cd5c <__floatunsidf>
   22490:	9009883a 	mov	r4,r18
   22494:	880b883a 	mov	r5,r17
   22498:	100d883a 	mov	r6,r2
   2249c:	180f883a 	mov	r7,r3
   224a0:	002a6640 	call	2a664 <__adddf3>
   224a4:	da400517 	ldw	r9,20(sp)
   224a8:	1025883a 	mov	r18,r2
   224ac:	1823883a 	mov	r17,r3
   224b0:	b8800408 	cmpgei	r2,r23,16
   224b4:	10006a1e 	bne	r2,zero,22660 <_strtod_l+0x650>
   224b8:	9d05c83a 	sub	r2,r19,r20
   224bc:	1002f526 	beq	r2,zero,23094 <_strtod_l+0x1084>
   224c0:	9d05c83a 	sub	r2,r19,r20
   224c4:	0082720e 	bge	zero,r2,22e90 <_strtod_l+0xe80>
   224c8:	108005c8 	cmpgei	r2,r2,23
   224cc:	10035e26 	beq	r2,zero,23248 <_strtod_l+0x1238>
   224d0:	00800944 	movi	r2,37
   224d4:	15c5c83a 	sub	r2,r2,r23
   224d8:	9d07c83a 	sub	r3,r19,r20
   224dc:	10c36f0e 	bge	r2,r3,2329c <_strtod_l+0x128c>
   224e0:	bdadc83a 	sub	r22,r23,r22
   224e4:	9d05c83a 	sub	r2,r19,r20
   224e8:	b0ad883a 	add	r22,r22,r2
   224ec:	00006006 	br	22670 <_strtod_l+0x660>
   224f0:	002f883a 	mov	r23,zero
   224f4:	dd801217 	ldw	r22,72(sp)
   224f8:	b0c00044 	addi	r3,r22,1
   224fc:	d8c01215 	stw	r3,72(sp)
   22500:	b4800047 	ldb	r18,1(r22)
   22504:	90c00ae0 	cmpeqi	r3,r18,43
   22508:	1801f51e 	bne	r3,zero,22ce0 <_strtod_l+0xcd0>
   2250c:	90c00b60 	cmpeqi	r3,r18,45
   22510:	1801c11e 	bne	r3,zero,22c18 <_strtod_l+0xc08>
   22514:	0015883a 	mov	r10,zero
   22518:	90fff404 	addi	r3,r18,-48
   2251c:	18c002a8 	cmpgeui	r3,r3,10
   22520:	1801ba1e 	bne	r3,zero,22c0c <_strtod_l+0xbfc>
   22524:	90c00c18 	cmpnei	r3,r18,48
   22528:	1800071e 	bne	r3,zero,22548 <_strtod_l+0x538>
   2252c:	d8c01217 	ldw	r3,72(sp)
   22530:	18c00044 	addi	r3,r3,1
   22534:	d8c01215 	stw	r3,72(sp)
   22538:	1c800007 	ldb	r18,0(r3)
   2253c:	18c00044 	addi	r3,r3,1
   22540:	91000c20 	cmpeqi	r4,r18,48
   22544:	203ffb1e 	bne	r4,zero,22534 <_strtod_l+0x524>
   22548:	90fff3c4 	addi	r3,r18,-49
   2254c:	18c00268 	cmpgeui	r3,r3,9
   22550:	183fad1e 	bne	r3,zero,22408 <_strtod_l+0x3f8>
   22554:	dac01217 	ldw	r11,72(sp)
   22558:	94fff404 	addi	r19,r18,-48
   2255c:	59000044 	addi	r4,r11,1
   22560:	d9001215 	stw	r4,72(sp)
   22564:	5c800047 	ldb	r18,1(r11)
   22568:	90c00c08 	cmpgei	r3,r18,48
   2256c:	1800071e 	bne	r3,zero,2258c <_strtod_l+0x57c>
   22570:	0002e406 	br	23104 <_strtod_l+0x10f4>
   22574:	21000044 	addi	r4,r4,1
   22578:	d9001215 	stw	r4,72(sp)
   2257c:	34800047 	ldb	r18,1(r6)
   22580:	1cfff404 	addi	r19,r3,-48
   22584:	90c00c08 	cmpgei	r3,r18,48
   22588:	18000726 	beq	r3,zero,225a8 <_strtod_l+0x598>
   2258c:	980690ba 	slli	r3,r19,2
   22590:	91400e90 	cmplti	r5,r18,58
   22594:	200d883a 	mov	r6,r4
   22598:	1cc7883a 	add	r3,r3,r19
   2259c:	18c7883a 	add	r3,r3,r3
   225a0:	1c87883a 	add	r3,r3,r18
   225a4:	283ff31e 	bne	r5,zero,22574 <_strtod_l+0x564>
   225a8:	22c9c83a 	sub	r4,r4,r11
   225ac:	20c00248 	cmpgei	r3,r4,9
   225b0:	1802d426 	beq	r3,zero,23104 <_strtod_l+0x10f4>
   225b4:	04d387c4 	movi	r19,19999
   225b8:	503f9426 	beq	r10,zero,2240c <_strtod_l+0x3fc>
   225bc:	04e7c83a 	sub	r19,zero,r19
   225c0:	b83f931e 	bne	r23,zero,22410 <_strtod_l+0x400>
   225c4:	8884b03a 	or	r2,r17,r2
   225c8:	1000151e 	bne	r2,zero,22620 <_strtod_l+0x610>
   225cc:	383f0e1e 	bne	r7,zero,22208 <_strtod_l+0x1f8>
   225d0:	90801a60 	cmpeqi	r2,r18,105
   225d4:	1002d01e 	bne	r2,zero,23118 <_strtod_l+0x1108>
   225d8:	90801a88 	cmpgei	r2,r18,106
   225dc:	1002401e 	bne	r2,zero,22ee0 <_strtod_l+0xed0>
   225e0:	90801260 	cmpeqi	r2,r18,73
   225e4:	1002cc1e 	bne	r2,zero,23118 <_strtod_l+0x1108>
   225e8:	948013a0 	cmpeqi	r18,r18,78
   225ec:	903f0626 	beq	r18,zero,22208 <_strtod_l+0x1f8>
   225f0:	014000f4 	movhi	r5,3
   225f4:	297fc704 	addi	r5,r5,-228
   225f8:	d9001204 	addi	r4,sp,72
   225fc:	0024e500 	call	24e50 <__match>
   22600:	103f0126 	beq	r2,zero,22208 <_strtod_l+0x1f8>
   22604:	d8801217 	ldw	r2,72(sp)
   22608:	10800007 	ldb	r2,0(r2)
   2260c:	10800a18 	cmpnei	r2,r2,40
   22610:	10039826 	beq	r2,zero,23474 <_strtod_l+0x1464>
   22614:	002d883a 	mov	r22,zero
   22618:	055ffe34 	movhi	r21,32760
   2261c:	00000206 	br	22628 <_strtod_l+0x618>
   22620:	002d883a 	mov	r22,zero
   22624:	002b883a 	mov	r21,zero
   22628:	d8c00317 	ldw	r3,12(sp)
   2262c:	18000226 	beq	r3,zero,22638 <_strtod_l+0x628>
   22630:	d8801217 	ldw	r2,72(sp)
   22634:	18800015 	stw	r2,0(r3)
   22638:	d8800417 	ldw	r2,16(sp)
   2263c:	103ef826 	beq	r2,zero,22220 <_strtod_l+0x210>
   22640:	ad60003c 	xorhi	r21,r21,32768
   22644:	003ef606 	br	22220 <_strtod_l+0x210>
   22648:	a18d883a 	add	r6,r20,r6
   2264c:	d9801215 	stw	r6,72(sp)
   22650:	34800007 	ldb	r18,0(r6)
   22654:	b82b883a 	mov	r21,r23
   22658:	0029883a 	mov	r20,zero
   2265c:	003f2b06 	br	2230c <_strtod_l+0x2fc>
   22660:	bdadc83a 	sub	r22,r23,r22
   22664:	9d05c83a 	sub	r2,r19,r20
   22668:	b0ad883a 	add	r22,r22,r2
   2266c:	05821f0e 	bge	zero,r22,22eec <_strtod_l+0xedc>
   22670:	b08003cc 	andi	r2,r22,15
   22674:	10000d26 	beq	r2,zero,226ac <_strtod_l+0x69c>
   22678:	100690fa 	slli	r3,r2,3
   2267c:	008000f4 	movhi	r2,3
   22680:	10806104 	addi	r2,r2,388
   22684:	10c5883a 	add	r2,r2,r3
   22688:	11000017 	ldw	r4,0(r2)
   2268c:	11400117 	ldw	r5,4(r2)
   22690:	900d883a 	mov	r6,r18
   22694:	880f883a 	mov	r7,r17
   22698:	da400515 	stw	r9,20(sp)
   2269c:	002bb700 	call	2bb70 <__muldf3>
   226a0:	da400517 	ldw	r9,20(sp)
   226a4:	1025883a 	mov	r18,r2
   226a8:	1823883a 	mov	r17,r3
   226ac:	023ffc04 	movi	r8,-16
   226b0:	b210703a 	and	r8,r22,r8
   226b4:	40003f26 	beq	r8,zero,227b4 <_strtod_l+0x7a4>
   226b8:	40804d50 	cmplti	r2,r8,309
   226bc:	10025b26 	beq	r2,zero,2302c <_strtod_l+0x101c>
   226c0:	4011d13a 	srai	r8,r8,4
   226c4:	40800090 	cmplti	r2,r8,2
   226c8:	1003651e 	bne	r2,zero,23460 <_strtod_l+0x1450>
   226cc:	008000f4 	movhi	r2,3
   226d0:	10805704 	addi	r2,r2,348
   226d4:	002d883a 	mov	r22,zero
   226d8:	9009883a 	mov	r4,r18
   226dc:	880b883a 	mov	r5,r17
   226e0:	dc000715 	stw	r16,28(sp)
   226e4:	dc800815 	stw	r18,32(sp)
   226e8:	d8800515 	stw	r2,20(sp)
   226ec:	b025883a 	mov	r18,r22
   226f0:	0007883a 	mov	r3,zero
   226f4:	882d883a 	mov	r22,r17
   226f8:	da400615 	stw	r9,24(sp)
   226fc:	4021883a 	mov	r16,r8
   22700:	1023883a 	mov	r17,r2
   22704:	8080004c 	andi	r2,r16,1
   22708:	8021d07a 	srai	r16,r16,1
   2270c:	10000626 	beq	r2,zero,22728 <_strtod_l+0x718>
   22710:	89800017 	ldw	r6,0(r17)
   22714:	89c00117 	ldw	r7,4(r17)
   22718:	002bb700 	call	2bb70 <__muldf3>
   2271c:	180b883a 	mov	r5,r3
   22720:	1009883a 	mov	r4,r2
   22724:	00c00044 	movi	r3,1
   22728:	81800058 	cmpnei	r6,r16,1
   2272c:	94800044 	addi	r18,r18,1
   22730:	8c400204 	addi	r17,r17,8
   22734:	303ff31e 	bne	r6,zero,22704 <_strtod_l+0x6f4>
   22738:	18c03fcc 	andi	r3,r3,255
   2273c:	b023883a 	mov	r17,r22
   22740:	da400617 	ldw	r9,24(sp)
   22744:	902d883a 	mov	r22,r18
   22748:	dc000717 	ldw	r16,28(sp)
   2274c:	dc800817 	ldw	r18,32(sp)
   22750:	18000226 	beq	r3,zero,2275c <_strtod_l+0x74c>
   22754:	2025883a 	mov	r18,r4
   22758:	2823883a 	mov	r17,r5
   2275c:	d8800517 	ldw	r2,20(sp)
   22760:	b01690fa 	slli	r11,r22,3
   22764:	01ff2c34 	movhi	r7,64688
   22768:	900d883a 	mov	r6,r18
   2276c:	12d7883a 	add	r11,r2,r11
   22770:	59000017 	ldw	r4,0(r11)
   22774:	59400117 	ldw	r5,4(r11)
   22778:	89cf883a 	add	r7,r17,r7
   2277c:	da400615 	stw	r9,24(sp)
   22780:	002bb700 	call	2bb70 <__muldf3>
   22784:	191ffc2c 	andhi	r4,r3,32752
   22788:	015f2834 	movhi	r5,31904
   2278c:	1025883a 	mov	r18,r2
   22790:	29022636 	bltu	r5,r4,2302c <_strtod_l+0x101c>
   22794:	009f2434 	movhi	r2,31888
   22798:	da400617 	ldw	r9,24(sp)
   2279c:	1103022e 	bgeu	r2,r4,233a8 <_strtod_l+0x1398>
   227a0:	045ffc34 	movhi	r17,32752
   227a4:	8c7fffc4 	addi	r17,r17,-1
   227a8:	04bfffc4 	movi	r18,-1
   227ac:	d8001015 	stw	zero,64(sp)
   227b0:	00000106 	br	227b8 <_strtod_l+0x7a8>
   227b4:	d8001015 	stw	zero,64(sp)
   227b8:	df000015 	stw	fp,0(sp)
   227bc:	b80f883a 	mov	r7,r23
   227c0:	a80d883a 	mov	r6,r21
   227c4:	480b883a 	mov	r5,r9
   227c8:	8009883a 	mov	r4,r16
   227cc:	00256c80 	call	256c8 <__s2b>
   227d0:	d8800715 	stw	r2,28(sp)
   227d4:	10021526 	beq	r2,zero,2302c <_strtod_l+0x101c>
   227d8:	d8c00917 	ldw	r3,36(sp)
   227dc:	a4e7c83a 	sub	r19,r20,r19
   227e0:	1805d7fa 	srai	r2,r3,31
   227e4:	d8c00815 	stw	r3,32(sp)
   227e8:	9884703a 	and	r2,r19,r2
   227ec:	d8800515 	stw	r2,20(sp)
   227f0:	18019d16 	blt	r3,zero,22e68 <_strtod_l+0xe58>
   227f4:	d8c00717 	ldw	r3,28(sp)
   227f8:	00800434 	movhi	r2,16
   227fc:	dd401017 	ldw	r21,64(sp)
   22800:	18c00304 	addi	r3,r3,12
   22804:	10bfffc4 	addi	r2,r2,-1
   22808:	002f883a 	mov	r23,zero
   2280c:	0027883a 	mov	r19,zero
   22810:	d8c00d15 	stw	r3,52(sp)
   22814:	d8801115 	stw	r2,68(sp)
   22818:	dd800717 	ldw	r22,28(sp)
   2281c:	8009883a 	mov	r4,r16
   22820:	b1400117 	ldw	r5,4(r22)
   22824:	00254a40 	call	254a4 <_Balloc>
   22828:	1029883a 	mov	r20,r2
   2282c:	1000ce26 	beq	r2,zero,22b68 <_strtod_l+0xb58>
   22830:	b1800417 	ldw	r6,16(r22)
   22834:	d9400d17 	ldw	r5,52(sp)
   22838:	11000304 	addi	r4,r2,12
   2283c:	31800084 	addi	r6,r6,2
   22840:	300c90ba 	slli	r6,r6,2
   22844:	dc800b15 	stw	r18,44(sp)
   22848:	dc400a15 	stw	r17,40(sp)
   2284c:	00252b40 	call	252b4 <memcpy>
   22850:	d8801504 	addi	r2,sp,84
   22854:	d9c01404 	addi	r7,sp,80
   22858:	d8800015 	stw	r2,0(sp)
   2285c:	900b883a 	mov	r5,r18
   22860:	880d883a 	mov	r6,r17
   22864:	8009883a 	mov	r4,r16
   22868:	00262980 	call	26298 <__d2b>
   2286c:	d8801315 	stw	r2,76(sp)
   22870:	1000b526 	beq	r2,zero,22b48 <_strtod_l+0xb38>
   22874:	01400044 	movi	r5,1
   22878:	8009883a 	mov	r4,r16
   2287c:	00259140 	call	25914 <__i2b>
   22880:	1027883a 	mov	r19,r2
   22884:	1000b826 	beq	r2,zero,22b68 <_strtod_l+0xb58>
   22888:	d8801417 	ldw	r2,80(sp)
   2288c:	1000d316 	blt	r2,zero,22bdc <_strtod_l+0xbcc>
   22890:	d8c00517 	ldw	r3,20(sp)
   22894:	d9c00817 	ldw	r7,32(sp)
   22898:	10f9883a 	add	fp,r2,r3
   2289c:	d9001517 	ldw	r4,84(sp)
   228a0:	1545c83a 	sub	r2,r2,r21
   228a4:	00c00d84 	movi	r3,54
   228a8:	1105883a 	add	r2,r2,r4
   228ac:	10bfffc4 	addi	r2,r2,-1
   228b0:	117f0088 	cmpgei	r5,r2,-1022
   228b4:	1907c83a 	sub	r3,r3,r4
   228b8:	2800b81e 	bne	r5,zero,22b9c <_strtod_l+0xb8c>
   228bc:	05bf0084 	movi	r22,-1022
   228c0:	b089c83a 	sub	r4,r22,r2
   228c4:	21400808 	cmpgei	r5,r4,32
   228c8:	1907c83a 	sub	r3,r3,r4
   228cc:	2800c71e 	bne	r5,zero,22bec <_strtod_l+0xbdc>
   228d0:	05800044 	movi	r22,1
   228d4:	b104983a 	sll	r2,r22,r4
   228d8:	d8000e15 	stw	zero,56(sp)
   228dc:	d8800c15 	stw	r2,48(sp)
   228e0:	38cf883a 	add	r7,r7,r3
   228e4:	e0c7883a 	add	r3,fp,r3
   228e8:	a9ed883a 	add	r22,r21,r7
   228ec:	e005883a 	mov	r2,fp
   228f0:	1f00010e 	bge	r3,fp,228f8 <_strtod_l+0x8e8>
   228f4:	1805883a 	mov	r2,r3
   228f8:	b080010e 	bge	r22,r2,22900 <_strtod_l+0x8f0>
   228fc:	b005883a 	mov	r2,r22
   22900:	0080030e 	bge	zero,r2,22910 <_strtod_l+0x900>
   22904:	1887c83a 	sub	r3,r3,r2
   22908:	b0adc83a 	sub	r22,r22,r2
   2290c:	e0b9c83a 	sub	fp,fp,r2
   22910:	d9800517 	ldw	r6,20(sp)
   22914:	01806f16 	blt	zero,r6,22ad4 <_strtod_l+0xac4>
   22918:	00c08516 	blt	zero,r3,22b30 <_strtod_l+0xb20>
   2291c:	d8800917 	ldw	r2,36(sp)
   22920:	00808b16 	blt	zero,r2,22b50 <_strtod_l+0xb40>
   22924:	05809616 	blt	zero,r22,22b80 <_strtod_l+0xb70>
   22928:	0700060e 	bge	zero,fp,22944 <_strtod_l+0x934>
   2292c:	980b883a 	mov	r5,r19
   22930:	e00d883a 	mov	r6,fp
   22934:	8009883a 	mov	r4,r16
   22938:	0025d2c0 	call	25d2c <__lshift>
   2293c:	1027883a 	mov	r19,r2
   22940:	10008926 	beq	r2,zero,22b68 <_strtod_l+0xb58>
   22944:	d9401317 	ldw	r5,76(sp)
   22948:	a00d883a 	mov	r6,r20
   2294c:	8009883a 	mov	r4,r16
   22950:	0025f0c0 	call	25f0c <__mdiff>
   22954:	102f883a 	mov	r23,r2
   22958:	10008326 	beq	r2,zero,22b68 <_strtod_l+0xb58>
   2295c:	10800317 	ldw	r2,12(r2)
   22960:	980b883a 	mov	r5,r19
   22964:	b8000315 	stw	zero,12(r23)
   22968:	b809883a 	mov	r4,r23
   2296c:	d8800615 	stw	r2,24(sp)
   22970:	0025eb40 	call	25eb4 <__mcmp>
   22974:	10029016 	blt	r2,zero,233b8 <_strtod_l+0x13a8>
   22978:	10026126 	beq	r2,zero,23300 <_strtod_l+0x12f0>
   2297c:	980b883a 	mov	r5,r19
   22980:	b809883a 	mov	r4,r23
   22984:	00263fc0 	call	263fc <__ratio>
   22988:	000d883a 	mov	r6,zero
   2298c:	01d00034 	movhi	r7,16384
   22990:	1009883a 	mov	r4,r2
   22994:	180b883a 	mov	r5,r3
   22998:	1039883a 	mov	fp,r2
   2299c:	182d883a 	mov	r22,r3
   229a0:	002ba800 	call	2ba80 <__ledf2>
   229a4:	00808116 	blt	zero,r2,22bac <_strtod_l+0xb9c>
   229a8:	d8800617 	ldw	r2,24(sp)
   229ac:	10009f26 	beq	r2,zero,22c2c <_strtod_l+0xc1c>
   229b0:	0011883a 	mov	r8,zero
   229b4:	024ffc34 	movhi	r9,16368
   229b8:	d8000c15 	stw	zero,48(sp)
   229bc:	058ffc34 	movhi	r22,16368
   229c0:	8f1ffc2c 	andhi	fp,r17,32752
   229c4:	009ff834 	movhi	r2,32736
   229c8:	e080a326 	beq	fp,r2,22c58 <_strtod_l+0xc48>
   229cc:	a8001d26 	beq	r21,zero,22a44 <_strtod_l+0xa34>
   229d0:	0081a834 	movhi	r2,1696
   229d4:	17001b36 	bltu	r2,fp,22a44 <_strtod_l+0xa34>
   229d8:	d9000c17 	ldw	r4,48(sp)
   229dc:	01d07834 	movhi	r7,16864
   229e0:	01bff034 	movhi	r6,65472
   229e4:	39ffffc4 	addi	r7,r7,-1
   229e8:	b00b883a 	mov	r5,r22
   229ec:	da400b15 	stw	r9,44(sp)
   229f0:	da000a15 	stw	r8,40(sp)
   229f4:	002ba800 	call	2ba80 <__ledf2>
   229f8:	da000a17 	ldw	r8,40(sp)
   229fc:	da400b17 	ldw	r9,44(sp)
   22a00:	00800d16 	blt	zero,r2,22a38 <_strtod_l+0xa28>
   22a04:	d9000c17 	ldw	r4,48(sp)
   22a08:	b00b883a 	mov	r5,r22
   22a0c:	002953c0 	call	2953c <__fixunsdfsi>
   22a10:	1009883a 	mov	r4,r2
   22a14:	1000011e 	bne	r2,zero,22a1c <_strtod_l+0xa0c>
   22a18:	01000044 	movi	r4,1
   22a1c:	002cd5c0 	call	2cd5c <__floatunsidf>
   22a20:	1011883a 	mov	r8,r2
   22a24:	d8800c15 	stw	r2,48(sp)
   22a28:	d8800617 	ldw	r2,24(sp)
   22a2c:	182d883a 	mov	r22,r3
   22a30:	1001b71e 	bne	r2,zero,23110 <_strtod_l+0x1100>
   22a34:	1a60003c 	xorhi	r9,r3,32768
   22a38:	0081ac34 	movhi	r2,1712
   22a3c:	4893883a 	add	r9,r9,r2
   22a40:	4f13c83a 	sub	r9,r9,fp
   22a44:	9009883a 	mov	r4,r18
   22a48:	880b883a 	mov	r5,r17
   22a4c:	da400b15 	stw	r9,44(sp)
   22a50:	da000a15 	stw	r8,40(sp)
   22a54:	00261380 	call	26138 <__ulp>
   22a58:	da000a17 	ldw	r8,40(sp)
   22a5c:	da400b17 	ldw	r9,44(sp)
   22a60:	100d883a 	mov	r6,r2
   22a64:	4009883a 	mov	r4,r8
   22a68:	480b883a 	mov	r5,r9
   22a6c:	180f883a 	mov	r7,r3
   22a70:	002bb700 	call	2bb70 <__muldf3>
   22a74:	900d883a 	mov	r6,r18
   22a78:	880f883a 	mov	r7,r17
   22a7c:	1009883a 	mov	r4,r2
   22a80:	180b883a 	mov	r5,r3
   22a84:	002a6640 	call	2a664 <__adddf3>
   22a88:	1823883a 	mov	r17,r3
   22a8c:	1025883a 	mov	r18,r2
   22a90:	1811883a 	mov	r8,r3
   22a94:	a800021e 	bne	r21,zero,22aa0 <_strtod_l+0xa90>
   22a98:	409ffc2c 	andhi	r2,r8,32752
   22a9c:	e0809826 	beq	fp,r2,22d00 <_strtod_l+0xcf0>
   22aa0:	d9401317 	ldw	r5,76(sp)
   22aa4:	8009883a 	mov	r4,r16
   22aa8:	00255480 	call	25548 <_Bfree>
   22aac:	a00b883a 	mov	r5,r20
   22ab0:	8009883a 	mov	r4,r16
   22ab4:	00255480 	call	25548 <_Bfree>
   22ab8:	980b883a 	mov	r5,r19
   22abc:	8009883a 	mov	r4,r16
   22ac0:	00255480 	call	25548 <_Bfree>
   22ac4:	b80b883a 	mov	r5,r23
   22ac8:	8009883a 	mov	r4,r16
   22acc:	00255480 	call	25548 <_Bfree>
   22ad0:	003f5106 	br	22818 <_strtod_l+0x808>
   22ad4:	980b883a 	mov	r5,r19
   22ad8:	8009883a 	mov	r4,r16
   22adc:	d8c00615 	stw	r3,24(sp)
   22ae0:	0025c140 	call	25c14 <__pow5mult>
   22ae4:	d8c00617 	ldw	r3,24(sp)
   22ae8:	1027883a 	mov	r19,r2
   22aec:	10001e26 	beq	r2,zero,22b68 <_strtod_l+0xb58>
   22af0:	d9801317 	ldw	r6,76(sp)
   22af4:	100b883a 	mov	r5,r2
   22af8:	8009883a 	mov	r4,r16
   22afc:	d8c00615 	stw	r3,24(sp)
   22b00:	00259680 	call	25968 <__multiply>
   22b04:	d8c00617 	ldw	r3,24(sp)
   22b08:	10001726 	beq	r2,zero,22b68 <_strtod_l+0xb58>
   22b0c:	d9401317 	ldw	r5,76(sp)
   22b10:	8009883a 	mov	r4,r16
   22b14:	d8800f15 	stw	r2,60(sp)
   22b18:	d8c00615 	stw	r3,24(sp)
   22b1c:	00255480 	call	25548 <_Bfree>
   22b20:	d8800f17 	ldw	r2,60(sp)
   22b24:	d8c00617 	ldw	r3,24(sp)
   22b28:	d8801315 	stw	r2,76(sp)
   22b2c:	00ff7b0e 	bge	zero,r3,2291c <_strtod_l+0x90c>
   22b30:	d9401317 	ldw	r5,76(sp)
   22b34:	180d883a 	mov	r6,r3
   22b38:	8009883a 	mov	r4,r16
   22b3c:	0025d2c0 	call	25d2c <__lshift>
   22b40:	d8801315 	stw	r2,76(sp)
   22b44:	103f751e 	bne	r2,zero,2291c <_strtod_l+0x90c>
   22b48:	1013883a 	mov	r9,r2
   22b4c:	00000706 	br	22b6c <_strtod_l+0xb5c>
   22b50:	d9800817 	ldw	r6,32(sp)
   22b54:	a00b883a 	mov	r5,r20
   22b58:	8009883a 	mov	r4,r16
   22b5c:	0025c140 	call	25c14 <__pow5mult>
   22b60:	1029883a 	mov	r20,r2
   22b64:	103f6f1e 	bne	r2,zero,22924 <_strtod_l+0x914>
   22b68:	da401317 	ldw	r9,76(sp)
   22b6c:	00800884 	movi	r2,34
   22b70:	80800015 	stw	r2,0(r16)
   22b74:	002d883a 	mov	r22,zero
   22b78:	055ffc34 	movhi	r21,32752
   22b7c:	00008806 	br	22da0 <_strtod_l+0xd90>
   22b80:	a00b883a 	mov	r5,r20
   22b84:	b00d883a 	mov	r6,r22
   22b88:	8009883a 	mov	r4,r16
   22b8c:	0025d2c0 	call	25d2c <__lshift>
   22b90:	1029883a 	mov	r20,r2
   22b94:	103f641e 	bne	r2,zero,22928 <_strtod_l+0x918>
   22b98:	003ff306 	br	22b68 <_strtod_l+0xb58>
   22b9c:	00800044 	movi	r2,1
   22ba0:	d8000e15 	stw	zero,56(sp)
   22ba4:	d8800c15 	stw	r2,48(sp)
   22ba8:	003f4d06 	br	228e0 <_strtod_l+0x8d0>
   22bac:	b00b883a 	mov	r5,r22
   22bb0:	000d883a 	mov	r6,zero
   22bb4:	01cff834 	movhi	r7,16352
   22bb8:	e009883a 	mov	r4,fp
   22bbc:	002bb700 	call	2bb70 <__muldf3>
   22bc0:	1011883a 	mov	r8,r2
   22bc4:	d8800c15 	stw	r2,48(sp)
   22bc8:	d8800617 	ldw	r2,24(sp)
   22bcc:	182d883a 	mov	r22,r3
   22bd0:	10001f1e 	bne	r2,zero,22c50 <_strtod_l+0xc40>
   22bd4:	1a60003c 	xorhi	r9,r3,32768
   22bd8:	003f7906 	br	229c0 <_strtod_l+0x9b0>
   22bdc:	d8c00817 	ldw	r3,32(sp)
   22be0:	df000517 	ldw	fp,20(sp)
   22be4:	188fc83a 	sub	r7,r3,r2
   22be8:	003f2c06 	br	2289c <_strtod_l+0x88c>
   22bec:	013ef884 	movi	r4,-1054
   22bf0:	2085c83a 	sub	r2,r4,r2
   22bf4:	01000044 	movi	r4,1
   22bf8:	2084983a 	sll	r2,r4,r2
   22bfc:	d8800e15 	stw	r2,56(sp)
   22c00:	00800044 	movi	r2,1
   22c04:	d8800c15 	stw	r2,48(sp)
   22c08:	003f3506 	br	228e0 <_strtod_l+0x8d0>
   22c0c:	dd801215 	stw	r22,72(sp)
   22c10:	0027883a 	mov	r19,zero
   22c14:	003dfd06 	br	2240c <_strtod_l+0x3fc>
   22c18:	02800044 	movi	r10,1
   22c1c:	b0c00084 	addi	r3,r22,2
   22c20:	d8c01215 	stw	r3,72(sp)
   22c24:	b4800087 	ldb	r18,2(r22)
   22c28:	003e3b06 	br	22518 <_strtod_l+0x508>
   22c2c:	90006c26 	beq	r18,zero,22de0 <_strtod_l+0xdd0>
   22c30:	90800058 	cmpnei	r2,r18,1
   22c34:	1000011e 	bne	r2,zero,22c3c <_strtod_l+0xc2c>
   22c38:	88022726 	beq	r17,zero,234d8 <_strtod_l+0x14c8>
   22c3c:	0011883a 	mov	r8,zero
   22c40:	026ffc34 	movhi	r9,49136
   22c44:	d8000c15 	stw	zero,48(sp)
   22c48:	058ffc34 	movhi	r22,16368
   22c4c:	003f5c06 	br	229c0 <_strtod_l+0x9b0>
   22c50:	1813883a 	mov	r9,r3
   22c54:	003f5a06 	br	229c0 <_strtod_l+0x9b0>
   22c58:	00bf2c34 	movhi	r2,64688
   22c5c:	88a3883a 	add	r17,r17,r2
   22c60:	9009883a 	mov	r4,r18
   22c64:	880b883a 	mov	r5,r17
   22c68:	da400f15 	stw	r9,60(sp)
   22c6c:	da000e15 	stw	r8,56(sp)
   22c70:	00261380 	call	26138 <__ulp>
   22c74:	da000e17 	ldw	r8,56(sp)
   22c78:	da400f17 	ldw	r9,60(sp)
   22c7c:	100d883a 	mov	r6,r2
   22c80:	4009883a 	mov	r4,r8
   22c84:	480b883a 	mov	r5,r9
   22c88:	180f883a 	mov	r7,r3
   22c8c:	002bb700 	call	2bb70 <__muldf3>
   22c90:	900d883a 	mov	r6,r18
   22c94:	1009883a 	mov	r4,r2
   22c98:	180b883a 	mov	r5,r3
   22c9c:	880f883a 	mov	r7,r17
   22ca0:	002a6640 	call	2a664 <__adddf3>
   22ca4:	195ffc2c 	andhi	r5,r3,32752
   22ca8:	011f2834 	movhi	r4,31904
   22cac:	1025883a 	mov	r18,r2
   22cb0:	29005e36 	bltu	r5,r4,22e2c <_strtod_l+0xe1c>
   22cb4:	d8c00a17 	ldw	r3,40(sp)
   22cb8:	009ffc34 	movhi	r2,32752
   22cbc:	10bfffc4 	addi	r2,r2,-1
   22cc0:	1880031e 	bne	r3,r2,22cd0 <_strtod_l+0xcc0>
   22cc4:	d8800b17 	ldw	r2,44(sp)
   22cc8:	10bfffd8 	cmpnei	r2,r2,-1
   22ccc:	103fa626 	beq	r2,zero,22b68 <_strtod_l+0xb58>
   22cd0:	045ffc34 	movhi	r17,32752
   22cd4:	8c7fffc4 	addi	r17,r17,-1
   22cd8:	04bfffc4 	movi	r18,-1
   22cdc:	003f7006 	br	22aa0 <_strtod_l+0xa90>
   22ce0:	0015883a 	mov	r10,zero
   22ce4:	003fcd06 	br	22c1c <_strtod_l+0xc0c>
   22ce8:	90c01960 	cmpeqi	r3,r18,101
   22cec:	1800781e 	bne	r3,zero,22ed0 <_strtod_l+0xec0>
   22cf0:	90c01160 	cmpeqi	r3,r18,69
   22cf4:	1800761e 	bne	r3,zero,22ed0 <_strtod_l+0xec0>
   22cf8:	01c00044 	movi	r7,1
   22cfc:	003e3106 	br	225c4 <_strtod_l+0x5b4>
   22d00:	df000c17 	ldw	fp,48(sp)
   22d04:	b00b883a 	mov	r5,r22
   22d08:	da000a15 	stw	r8,40(sp)
   22d0c:	e009883a 	mov	r4,fp
   22d10:	00295b00 	call	295b0 <__fixdfdi>
   22d14:	1009883a 	mov	r4,r2
   22d18:	180b883a 	mov	r5,r3
   22d1c:	00296b40 	call	296b4 <__floatdidf>
   22d20:	e009883a 	mov	r4,fp
   22d24:	b00b883a 	mov	r5,r22
   22d28:	100d883a 	mov	r6,r2
   22d2c:	180f883a 	mov	r7,r3
   22d30:	002c3180 	call	2c318 <__subdf3>
   22d34:	d9000617 	ldw	r4,24(sp)
   22d38:	d9401117 	ldw	r5,68(sp)
   22d3c:	da000a17 	ldw	r8,40(sp)
   22d40:	2488b03a 	or	r4,r4,r18
   22d44:	1039883a 	mov	fp,r2
   22d48:	4150703a 	and	r8,r8,r5
   22d4c:	2210b03a 	or	r8,r4,r8
   22d50:	182d883a 	mov	r22,r3
   22d54:	01a52834 	movhi	r6,38048
   22d58:	40004526 	beq	r8,zero,22e70 <_strtod_l+0xe60>
   22d5c:	01cff834 	movhi	r7,16352
   22d60:	318d6544 	addi	r6,r6,13717
   22d64:	39ffffc4 	addi	r7,r7,-1
   22d68:	1009883a 	mov	r4,r2
   22d6c:	180b883a 	mov	r5,r3
   22d70:	002ba800 	call	2ba80 <__ledf2>
   22d74:	10000716 	blt	r2,zero,22d94 <_strtod_l+0xd84>
   22d78:	018d6c34 	movhi	r6,13744
   22d7c:	31b94d44 	addi	r6,r6,-6859
   22d80:	01cff834 	movhi	r7,16352
   22d84:	e009883a 	mov	r4,fp
   22d88:	b00b883a 	mov	r5,r22
   22d8c:	002b9900 	call	2b990 <__gedf2>
   22d90:	00bf430e 	bge	zero,r2,22aa0 <_strtod_l+0xa90>
   22d94:	da401317 	ldw	r9,76(sp)
   22d98:	902d883a 	mov	r22,r18
   22d9c:	882b883a 	mov	r21,r17
   22da0:	480b883a 	mov	r5,r9
   22da4:	8009883a 	mov	r4,r16
   22da8:	00255480 	call	25548 <_Bfree>
   22dac:	a00b883a 	mov	r5,r20
   22db0:	8009883a 	mov	r4,r16
   22db4:	00255480 	call	25548 <_Bfree>
   22db8:	980b883a 	mov	r5,r19
   22dbc:	8009883a 	mov	r4,r16
   22dc0:	00255480 	call	25548 <_Bfree>
   22dc4:	d9400717 	ldw	r5,28(sp)
   22dc8:	8009883a 	mov	r4,r16
   22dcc:	00255480 	call	25548 <_Bfree>
   22dd0:	b80b883a 	mov	r5,r23
   22dd4:	8009883a 	mov	r4,r16
   22dd8:	00255480 	call	25548 <_Bfree>
   22ddc:	003e1206 	br	22628 <_strtod_l+0x618>
   22de0:	d8801117 	ldw	r2,68(sp)
   22de4:	8884703a 	and	r2,r17,r2
   22de8:	103f941e 	bne	r2,zero,22c3c <_strtod_l+0xc2c>
   22dec:	000d883a 	mov	r6,zero
   22df0:	01cffc34 	movhi	r7,16368
   22df4:	e009883a 	mov	r4,fp
   22df8:	b00b883a 	mov	r5,r22
   22dfc:	002ba800 	call	2ba80 <__ledf2>
   22e00:	10012116 	blt	r2,zero,23288 <_strtod_l+0x1278>
   22e04:	b00b883a 	mov	r5,r22
   22e08:	000d883a 	mov	r6,zero
   22e0c:	01cff834 	movhi	r7,16352
   22e10:	e009883a 	mov	r4,fp
   22e14:	002bb700 	call	2bb70 <__muldf3>
   22e18:	d8800c15 	stw	r2,48(sp)
   22e1c:	182d883a 	mov	r22,r3
   22e20:	1011883a 	mov	r8,r2
   22e24:	1a60003c 	xorhi	r9,r3,32768
   22e28:	003ee506 	br	229c0 <_strtod_l+0x9b0>
   22e2c:	0440d434 	movhi	r17,848
   22e30:	1c63883a 	add	r17,r3,r17
   22e34:	8811883a 	mov	r8,r17
   22e38:	003f1606 	br	22a94 <_strtod_l+0xa84>
   22e3c:	00800044 	movi	r2,1
   22e40:	d8800415 	stw	r2,16(sp)
   22e44:	1a400044 	addi	r9,r3,1
   22e48:	da401215 	stw	r9,72(sp)
   22e4c:	1cc00047 	ldb	r19,1(r3)
   22e50:	983cc41e 	bne	r19,zero,22164 <_strtod_l+0x154>
   22e54:	d8800317 	ldw	r2,12(sp)
   22e58:	103ced1e 	bne	r2,zero,22210 <_strtod_l+0x200>
   22e5c:	003cee06 	br	22218 <_strtod_l+0x208>
   22e60:	d8000415 	stw	zero,16(sp)
   22e64:	003ff706 	br	22e44 <_strtod_l+0xe34>
   22e68:	d8000815 	stw	zero,32(sp)
   22e6c:	003e6106 	br	227f4 <_strtod_l+0x7e4>
   22e70:	01cff434 	movhi	r7,16336
   22e74:	318d6544 	addi	r6,r6,13717
   22e78:	39ffffc4 	addi	r7,r7,-1
   22e7c:	1009883a 	mov	r4,r2
   22e80:	180b883a 	mov	r5,r3
   22e84:	002ba800 	call	2ba80 <__ledf2>
   22e88:	103f050e 	bge	r2,zero,22aa0 <_strtod_l+0xa90>
   22e8c:	003fc106 	br	22d94 <_strtod_l+0xd84>
   22e90:	9d05c83a 	sub	r2,r19,r20
   22e94:	10bffa90 	cmplti	r2,r2,-22
   22e98:	103df11e 	bne	r2,zero,22660 <_strtod_l+0x650>
   22e9c:	a4c5c83a 	sub	r2,r20,r19
   22ea0:	100690fa 	slli	r3,r2,3
   22ea4:	008000f4 	movhi	r2,3
   22ea8:	10806104 	addi	r2,r2,388
   22eac:	10c5883a 	add	r2,r2,r3
   22eb0:	11800017 	ldw	r6,0(r2)
   22eb4:	11c00117 	ldw	r7,4(r2)
   22eb8:	9009883a 	mov	r4,r18
   22ebc:	880b883a 	mov	r5,r17
   22ec0:	002afdc0 	call	2afdc <__divdf3>
   22ec4:	102d883a 	mov	r22,r2
   22ec8:	182b883a 	mov	r21,r3
   22ecc:	003dd606 	br	22628 <_strtod_l+0x618>
   22ed0:	002b883a 	mov	r21,zero
   22ed4:	0029883a 	mov	r20,zero
   22ed8:	01c00044 	movi	r7,1
   22edc:	003cc806 	br	22200 <_strtod_l+0x1f0>
   22ee0:	94801ba0 	cmpeqi	r18,r18,110
   22ee4:	903dc21e 	bne	r18,zero,225f0 <_strtod_l+0x5e0>
   22ee8:	003cc706 	br	22208 <_strtod_l+0x1f8>
   22eec:	b03e3126 	beq	r22,zero,227b4 <_strtod_l+0x7a4>
   22ef0:	05adc83a 	sub	r22,zero,r22
   22ef4:	b08003cc 	andi	r2,r22,15
   22ef8:	10000d26 	beq	r2,zero,22f30 <_strtod_l+0xf20>
   22efc:	100490fa 	slli	r2,r2,3
   22f00:	00c000f4 	movhi	r3,3
   22f04:	18c06104 	addi	r3,r3,388
   22f08:	1885883a 	add	r2,r3,r2
   22f0c:	11800017 	ldw	r6,0(r2)
   22f10:	11c00117 	ldw	r7,4(r2)
   22f14:	9009883a 	mov	r4,r18
   22f18:	880b883a 	mov	r5,r17
   22f1c:	da400515 	stw	r9,20(sp)
   22f20:	002afdc0 	call	2afdc <__divdf3>
   22f24:	da400517 	ldw	r9,20(sp)
   22f28:	1025883a 	mov	r18,r2
   22f2c:	1823883a 	mov	r17,r3
   22f30:	b02dd13a 	srai	r22,r22,4
   22f34:	b03e1f26 	beq	r22,zero,227b4 <_strtod_l+0x7a4>
   22f38:	b0800808 	cmpgei	r2,r22,32
   22f3c:	1000361e 	bne	r2,zero,23018 <_strtod_l+0x1008>
   22f40:	b080040c 	andi	r2,r22,16
   22f44:	d8801015 	stw	r2,64(sp)
   22f48:	10000226 	beq	r2,zero,22f54 <_strtod_l+0xf44>
   22f4c:	00801a84 	movi	r2,106
   22f50:	d8801015 	stw	r2,64(sp)
   22f54:	020000f4 	movhi	r8,3
   22f58:	423fd204 	addi	r8,r8,-184
   22f5c:	880b883a 	mov	r5,r17
   22f60:	dc000615 	stw	r16,24(sp)
   22f64:	9009883a 	mov	r4,r18
   22f68:	b021883a 	mov	r16,r22
   22f6c:	0007883a 	mov	r3,zero
   22f70:	882d883a 	mov	r22,r17
   22f74:	da400515 	stw	r9,20(sp)
   22f78:	4023883a 	mov	r17,r8
   22f7c:	8080004c 	andi	r2,r16,1
   22f80:	8021d07a 	srai	r16,r16,1
   22f84:	10000626 	beq	r2,zero,22fa0 <_strtod_l+0xf90>
   22f88:	89800017 	ldw	r6,0(r17)
   22f8c:	89c00117 	ldw	r7,4(r17)
   22f90:	002bb700 	call	2bb70 <__muldf3>
   22f94:	180b883a 	mov	r5,r3
   22f98:	1009883a 	mov	r4,r2
   22f9c:	00c00044 	movi	r3,1
   22fa0:	8c400204 	addi	r17,r17,8
   22fa4:	803ff51e 	bne	r16,zero,22f7c <_strtod_l+0xf6c>
   22fa8:	18c03fcc 	andi	r3,r3,255
   22fac:	da400517 	ldw	r9,20(sp)
   22fb0:	dc000617 	ldw	r16,24(sp)
   22fb4:	b023883a 	mov	r17,r22
   22fb8:	18000226 	beq	r3,zero,22fc4 <_strtod_l+0xfb4>
   22fbc:	2025883a 	mov	r18,r4
   22fc0:	2823883a 	mov	r17,r5
   22fc4:	d8801017 	ldw	r2,64(sp)
   22fc8:	10000b26 	beq	r2,zero,22ff8 <_strtod_l+0xfe8>
   22fcc:	8804d53a 	srli	r2,r17,20
   22fd0:	10c1ffcc 	andi	r3,r2,2047
   22fd4:	00801ac4 	movi	r2,107
   22fd8:	10c5c83a 	sub	r2,r2,r3
   22fdc:	0080060e 	bge	zero,r2,22ff8 <_strtod_l+0xfe8>
   22fe0:	10c00810 	cmplti	r3,r2,32
   22fe4:	1801421e 	bne	r3,zero,234f0 <_strtod_l+0x14e0>
   22fe8:	10c00d50 	cmplti	r3,r2,53
   22fec:	0025883a 	mov	r18,zero
   22ff0:	18015f1e 	bne	r3,zero,23570 <_strtod_l+0x1560>
   22ff4:	0440dc34 	movhi	r17,880
   22ff8:	000d883a 	mov	r6,zero
   22ffc:	000f883a 	mov	r7,zero
   23000:	9009883a 	mov	r4,r18
   23004:	880b883a 	mov	r5,r17
   23008:	da400515 	stw	r9,20(sp)
   2300c:	002b9100 	call	2b910 <__eqdf2>
   23010:	da400517 	ldw	r9,20(sp)
   23014:	103de81e 	bne	r2,zero,227b8 <_strtod_l+0x7a8>
   23018:	00800884 	movi	r2,34
   2301c:	80800015 	stw	r2,0(r16)
   23020:	002d883a 	mov	r22,zero
   23024:	002b883a 	mov	r21,zero
   23028:	003d7f06 	br	22628 <_strtod_l+0x618>
   2302c:	00800884 	movi	r2,34
   23030:	80800015 	stw	r2,0(r16)
   23034:	002d883a 	mov	r22,zero
   23038:	055ffc34 	movhi	r21,32752
   2303c:	003d7a06 	br	22628 <_strtod_l+0x618>
   23040:	d8800417 	ldw	r2,16(sp)
   23044:	018000f4 	movhi	r6,3
   23048:	dd000215 	stw	r20,8(sp)
   2304c:	d8800115 	stw	r2,4(sp)
   23050:	d8801304 	addi	r2,sp,76
   23054:	d8800015 	stw	r2,0(sp)
   23058:	d9c01404 	addi	r7,sp,80
   2305c:	31bfcd04 	addi	r6,r6,-204
   23060:	d9401204 	addi	r5,sp,72
   23064:	8009883a 	mov	r4,r16
   23068:	002460c0 	call	2460c <__gethex>
   2306c:	14c001cc 	andi	r19,r2,7
   23070:	983d6b26 	beq	r19,zero,22620 <_strtod_l+0x610>
   23074:	98c00198 	cmpnei	r3,r19,6
   23078:	18003a1e 	bne	r3,zero,23164 <_strtod_l+0x1154>
   2307c:	d8800317 	ldw	r2,12(sp)
   23080:	103c6526 	beq	r2,zero,22218 <_strtod_l+0x208>
   23084:	15c00015 	stw	r23,0(r2)
   23088:	002d883a 	mov	r22,zero
   2308c:	002b883a 	mov	r21,zero
   23090:	003c6306 	br	22220 <_strtod_l+0x210>
   23094:	902d883a 	mov	r22,r18
   23098:	882b883a 	mov	r21,r17
   2309c:	003d6206 	br	22628 <_strtod_l+0x618>
   230a0:	2807883a 	mov	r3,r5
   230a4:	102f883a 	mov	r23,r2
   230a8:	18c00248 	cmpgei	r3,r3,9
   230ac:	183c8f26 	beq	r3,zero,222ec <_strtod_l+0x2dc>
   230b0:	b8800448 	cmpgei	r2,r23,17
   230b4:	1000901e 	bne	r2,zero,232f8 <_strtod_l+0x12e8>
   230b8:	400690ba 	slli	r3,r8,2
   230bc:	0005883a 	mov	r2,zero
   230c0:	1a11883a 	add	r8,r3,r8
   230c4:	4211883a 	add	r8,r8,r8
   230c8:	3211883a 	add	r8,r6,r8
   230cc:	003c8c06 	br	22300 <_strtod_l+0x2f0>
   230d0:	4809883a 	mov	r4,r9
   230d4:	a80b883a 	mov	r5,r21
   230d8:	d9800615 	stw	r6,24(sp)
   230dc:	da400515 	stw	r9,20(sp)
   230e0:	00267900 	call	26790 <strncmp>
   230e4:	da400517 	ldw	r9,20(sp)
   230e8:	d9800617 	ldw	r6,24(sp)
   230ec:	10005026 	beq	r2,zero,23230 <_strtod_l+0x1220>
   230f0:	002b883a 	mov	r21,zero
   230f4:	0011883a 	mov	r8,zero
   230f8:	0039883a 	mov	fp,zero
   230fc:	002f883a 	mov	r23,zero
   23100:	003cbe06 	br	223fc <_strtod_l+0x3ec>
   23104:	98d38810 	cmplti	r3,r19,20000
   23108:	183d2b1e 	bne	r3,zero,225b8 <_strtod_l+0x5a8>
   2310c:	003d2906 	br	225b4 <_strtod_l+0x5a4>
   23110:	1813883a 	mov	r9,r3
   23114:	003e4806 	br	22a38 <_strtod_l+0xa28>
   23118:	014000f4 	movhi	r5,3
   2311c:	297fc404 	addi	r5,r5,-240
   23120:	d9001204 	addi	r4,sp,72
   23124:	0024e500 	call	24e50 <__match>
   23128:	103c3726 	beq	r2,zero,22208 <_strtod_l+0x1f8>
   2312c:	d8801217 	ldw	r2,72(sp)
   23130:	014000f4 	movhi	r5,3
   23134:	297fc504 	addi	r5,r5,-236
   23138:	10bfffc4 	addi	r2,r2,-1
   2313c:	d9001204 	addi	r4,sp,72
   23140:	d8801215 	stw	r2,72(sp)
   23144:	0024e500 	call	24e50 <__match>
   23148:	103fba1e 	bne	r2,zero,23034 <_strtod_l+0x1024>
   2314c:	d8801217 	ldw	r2,72(sp)
   23150:	10800044 	addi	r2,r2,1
   23154:	d8801215 	stw	r2,72(sp)
   23158:	003fb606 	br	23034 <_strtod_l+0x1024>
   2315c:	0005883a 	mov	r2,zero
   23160:	003c5906 	br	222c8 <_strtod_l+0x2b8>
   23164:	d9801317 	ldw	r6,76(sp)
   23168:	30000826 	beq	r6,zero,2318c <_strtod_l+0x117c>
   2316c:	01400d44 	movi	r5,53
   23170:	d9001504 	addi	r4,sp,84
   23174:	d8800515 	stw	r2,20(sp)
   23178:	00265100 	call	26510 <__copybits>
   2317c:	d9401317 	ldw	r5,76(sp)
   23180:	8009883a 	mov	r4,r16
   23184:	00255480 	call	25548 <_Bfree>
   23188:	d8800517 	ldw	r2,20(sp)
   2318c:	98c001e8 	cmpgeui	r3,r19,7
   23190:	1800151e 	bne	r3,zero,231e8 <_strtod_l+0x11d8>
   23194:	982690ba 	slli	r19,r19,2
   23198:	00c000b4 	movhi	r3,2
   2319c:	98c7883a 	add	r3,r19,r3
   231a0:	18cc6a17 	ldw	r3,12712(r3)
   231a4:	1800683a 	jmp	r3
   231a8:	000231e8 	cmpgeui	zero,zero,2247
   231ac:	000231c4 	movi	zero,2247
   231b0:	00023224 	muli	zero,zero,2248
   231b4:	00023218 	cmpnei	zero,zero,2248
   231b8:	00023208 	cmpgei	zero,zero,2248
   231bc:	000231c4 	movi	zero,2247
   231c0:	000231fc 	xorhi	zero,zero,2247
   231c4:	d8c01417 	ldw	r3,80(sp)
   231c8:	dc401617 	ldw	r17,88(sp)
   231cc:	013ffc34 	movhi	r4,65520
   231d0:	18c10cc4 	addi	r3,r3,1075
   231d4:	1806953a 	slli	r3,r3,20
   231d8:	213fffc4 	addi	r4,r4,-1
   231dc:	dc801517 	ldw	r18,84(sp)
   231e0:	8922703a 	and	r17,r17,r4
   231e4:	88e2b03a 	or	r17,r17,r3
   231e8:	1080020c 	andi	r2,r2,8
   231ec:	902d883a 	mov	r22,r18
   231f0:	103fa926 	beq	r2,zero,23098 <_strtod_l+0x1088>
   231f4:	8d600034 	orhi	r21,r17,32768
   231f8:	003d0b06 	br	22628 <_strtod_l+0x618>
   231fc:	0023883a 	mov	r17,zero
   23200:	0025883a 	mov	r18,zero
   23204:	003ff806 	br	231e8 <_strtod_l+0x11d8>
   23208:	04600034 	movhi	r17,32768
   2320c:	8c7fffc4 	addi	r17,r17,-1
   23210:	04bfffc4 	movi	r18,-1
   23214:	003ff406 	br	231e8 <_strtod_l+0x11d8>
   23218:	045ffc34 	movhi	r17,32752
   2321c:	0025883a 	mov	r18,zero
   23220:	003ff106 	br	231e8 <_strtod_l+0x11d8>
   23224:	dc801517 	ldw	r18,84(sp)
   23228:	dc401617 	ldw	r17,88(sp)
   2322c:	003fee06 	br	231e8 <_strtod_l+0x11d8>
   23230:	498d883a 	add	r6,r9,r6
   23234:	d9801215 	stw	r6,72(sp)
   23238:	34800007 	ldb	r18,0(r6)
   2323c:	0039883a 	mov	fp,zero
   23240:	0011883a 	mov	r8,zero
   23244:	003c1506 	br	2229c <_strtod_l+0x28c>
   23248:	d8800917 	ldw	r2,36(sp)
   2324c:	900d883a 	mov	r6,r18
   23250:	880f883a 	mov	r7,r17
   23254:	100690fa 	slli	r3,r2,3
   23258:	008000f4 	movhi	r2,3
   2325c:	10806104 	addi	r2,r2,388
   23260:	10c5883a 	add	r2,r2,r3
   23264:	11000017 	ldw	r4,0(r2)
   23268:	11400117 	ldw	r5,4(r2)
   2326c:	002bb700 	call	2bb70 <__muldf3>
   23270:	102d883a 	mov	r22,r2
   23274:	182b883a 	mov	r21,r3
   23278:	003ceb06 	br	22628 <_strtod_l+0x618>
   2327c:	b82b883a 	mov	r21,r23
   23280:	0029883a 	mov	r20,zero
   23284:	003c2106 	br	2230c <_strtod_l+0x2fc>
   23288:	0011883a 	mov	r8,zero
   2328c:	026ff834 	movhi	r9,49120
   23290:	d8000c15 	stw	zero,48(sp)
   23294:	058ff834 	movhi	r22,16352
   23298:	003dc906 	br	229c0 <_strtod_l+0x9b0>
   2329c:	008003c4 	movi	r2,15
   232a0:	15efc83a 	sub	r23,r2,r23
   232a4:	b80490fa 	slli	r2,r23,3
   232a8:	040000f4 	movhi	r16,3
   232ac:	84006104 	addi	r16,r16,388
   232b0:	8085883a 	add	r2,r16,r2
   232b4:	11000017 	ldw	r4,0(r2)
   232b8:	11400117 	ldw	r5,4(r2)
   232bc:	900d883a 	mov	r6,r18
   232c0:	880f883a 	mov	r7,r17
   232c4:	002bb700 	call	2bb70 <__muldf3>
   232c8:	d9000917 	ldw	r4,36(sp)
   232cc:	180b883a 	mov	r5,r3
   232d0:	25efc83a 	sub	r23,r4,r23
   232d4:	b80c90fa 	slli	r6,r23,3
   232d8:	1009883a 	mov	r4,r2
   232dc:	81a1883a 	add	r16,r16,r6
   232e0:	81800017 	ldw	r6,0(r16)
   232e4:	81c00117 	ldw	r7,4(r16)
   232e8:	002bb700 	call	2bb70 <__muldf3>
   232ec:	102d883a 	mov	r22,r2
   232f0:	182b883a 	mov	r21,r3
   232f4:	003ccc06 	br	22628 <_strtod_l+0x618>
   232f8:	0005883a 	mov	r2,zero
   232fc:	003c0006 	br	22300 <_strtod_l+0x2f0>
   23300:	d9000617 	ldw	r4,24(sp)
   23304:	00c00434 	movhi	r3,16
   23308:	18ffffc4 	addi	r3,r3,-1
   2330c:	dd800b17 	ldw	r22,44(sp)
   23310:	dd400a17 	ldw	r21,40(sp)
   23314:	88c4703a 	and	r2,r17,r3
   23318:	20004926 	beq	r4,zero,23440 <_strtod_l+0x1430>
   2331c:	10c07826 	beq	r2,r3,23500 <_strtod_l+0x14f0>
   23320:	d8800e17 	ldw	r2,56(sp)
   23324:	10004a26 	beq	r2,zero,23450 <_strtod_l+0x1440>
   23328:	1444703a 	and	r2,r2,r17
   2332c:	10000d26 	beq	r2,zero,23364 <_strtod_l+0x1354>
   23330:	d8800617 	ldw	r2,24(sp)
   23334:	d9801017 	ldw	r6,64(sp)
   23338:	9009883a 	mov	r4,r18
   2333c:	880b883a 	mov	r5,r17
   23340:	10005726 	beq	r2,zero,234a0 <_strtod_l+0x1490>
   23344:	0021fac0 	call	21fac <sulp>
   23348:	100d883a 	mov	r6,r2
   2334c:	180f883a 	mov	r7,r3
   23350:	9009883a 	mov	r4,r18
   23354:	880b883a 	mov	r5,r17
   23358:	002a6640 	call	2a664 <__adddf3>
   2335c:	102d883a 	mov	r22,r2
   23360:	182b883a 	mov	r21,r3
   23364:	d8801017 	ldw	r2,64(sp)
   23368:	da401317 	ldw	r9,76(sp)
   2336c:	103e8c26 	beq	r2,zero,22da0 <_strtod_l+0xd90>
   23370:	b009883a 	mov	r4,r22
   23374:	a80b883a 	mov	r5,r21
   23378:	000d883a 	mov	r6,zero
   2337c:	01ce5434 	movhi	r7,14672
   23380:	da400515 	stw	r9,20(sp)
   23384:	002bb700 	call	2bb70 <__muldf3>
   23388:	102d883a 	mov	r22,r2
   2338c:	1884b03a 	or	r2,r3,r2
   23390:	da400517 	ldw	r9,20(sp)
   23394:	182b883a 	mov	r21,r3
   23398:	103e811e 	bne	r2,zero,22da0 <_strtod_l+0xd90>
   2339c:	00800884 	movi	r2,34
   233a0:	80800015 	stw	r2,0(r16)
   233a4:	003e7e06 	br	22da0 <_strtod_l+0xd90>
   233a8:	0440d434 	movhi	r17,848
   233ac:	1c63883a 	add	r17,r3,r17
   233b0:	d8001015 	stw	zero,64(sp)
   233b4:	003d0006 	br	227b8 <_strtod_l+0x7a8>
   233b8:	d8800617 	ldw	r2,24(sp)
   233bc:	dd800b17 	ldw	r22,44(sp)
   233c0:	dd400a17 	ldw	r21,40(sp)
   233c4:	14a4b03a 	or	r18,r2,r18
   233c8:	903fe61e 	bne	r18,zero,23364 <_strtod_l+0x1354>
   233cc:	00800434 	movhi	r2,16
   233d0:	10bfffc4 	addi	r2,r2,-1
   233d4:	8884703a 	and	r2,r17,r2
   233d8:	103fe21e 	bne	r2,zero,23364 <_strtod_l+0x1354>
   233dc:	8c5ffc2c 	andhi	r17,r17,32752
   233e0:	0081ac34 	movhi	r2,1712
   233e4:	147fdf2e 	bgeu	r2,r17,23364 <_strtod_l+0x1354>
   233e8:	b8800517 	ldw	r2,20(r23)
   233ec:	1000031e 	bne	r2,zero,233fc <_strtod_l+0x13ec>
   233f0:	b8800417 	ldw	r2,16(r23)
   233f4:	10800090 	cmplti	r2,r2,2
   233f8:	103fda1e 	bne	r2,zero,23364 <_strtod_l+0x1354>
   233fc:	b80b883a 	mov	r5,r23
   23400:	8009883a 	mov	r4,r16
   23404:	01800044 	movi	r6,1
   23408:	0025d2c0 	call	25d2c <__lshift>
   2340c:	980b883a 	mov	r5,r19
   23410:	1009883a 	mov	r4,r2
   23414:	102f883a 	mov	r23,r2
   23418:	0025eb40 	call	25eb4 <__mcmp>
   2341c:	00bfd10e 	bge	zero,r2,23364 <_strtod_l+0x1354>
   23420:	d8801017 	ldw	r2,64(sp)
   23424:	10004b26 	beq	r2,zero,23554 <_strtod_l+0x1544>
   23428:	0081ac34 	movhi	r2,1712
   2342c:	14404916 	blt	r2,r17,23554 <_strtod_l+0x1544>
   23430:	0080dc34 	movhi	r2,880
   23434:	1440280e 	bge	r2,r17,234d8 <_strtod_l+0x14c8>
   23438:	da401317 	ldw	r9,76(sp)
   2343c:	003fcc06 	br	23370 <_strtod_l+0x1360>
   23440:	1484b03a 	or	r2,r2,r18
   23444:	103fb61e 	bne	r2,zero,23320 <_strtod_l+0x1310>
   23448:	8c5ffc2c 	andhi	r17,r17,32752
   2344c:	003ff406 	br	23420 <_strtod_l+0x1410>
   23450:	d8800c17 	ldw	r2,48(sp)
   23454:	14b8703a 	and	fp,r2,r18
   23458:	e03fc226 	beq	fp,zero,23364 <_strtod_l+0x1354>
   2345c:	003fb406 	br	23330 <_strtod_l+0x1320>
   23460:	008000f4 	movhi	r2,3
   23464:	10805704 	addi	r2,r2,348
   23468:	002d883a 	mov	r22,zero
   2346c:	d8800515 	stw	r2,20(sp)
   23470:	003cba06 	br	2275c <_strtod_l+0x74c>
   23474:	014000f4 	movhi	r5,3
   23478:	d9801504 	addi	r6,sp,84
   2347c:	297fc804 	addi	r5,r5,-224
   23480:	d9001204 	addi	r4,sp,72
   23484:	0024ea00 	call	24ea0 <__hexnan>
   23488:	10800158 	cmpnei	r2,r2,5
   2348c:	103c611e 	bne	r2,zero,22614 <_strtod_l+0x604>
   23490:	dd401617 	ldw	r21,88(sp)
   23494:	dd801517 	ldw	r22,84(sp)
   23498:	ad5ffc34 	orhi	r21,r21,32752
   2349c:	003c6206 	br	22628 <_strtod_l+0x618>
   234a0:	0021fac0 	call	21fac <sulp>
   234a4:	100d883a 	mov	r6,r2
   234a8:	180f883a 	mov	r7,r3
   234ac:	9009883a 	mov	r4,r18
   234b0:	880b883a 	mov	r5,r17
   234b4:	002c3180 	call	2c318 <__subdf3>
   234b8:	000d883a 	mov	r6,zero
   234bc:	000f883a 	mov	r7,zero
   234c0:	1009883a 	mov	r4,r2
   234c4:	180b883a 	mov	r5,r3
   234c8:	102d883a 	mov	r22,r2
   234cc:	182b883a 	mov	r21,r3
   234d0:	002b9100 	call	2b910 <__eqdf2>
   234d4:	103fa31e 	bne	r2,zero,23364 <_strtod_l+0x1354>
   234d8:	00800884 	movi	r2,34
   234dc:	da401317 	ldw	r9,76(sp)
   234e0:	80800015 	stw	r2,0(r16)
   234e4:	002d883a 	mov	r22,zero
   234e8:	002b883a 	mov	r21,zero
   234ec:	003e2c06 	br	22da0 <_strtod_l+0xd90>
   234f0:	00ffffc4 	movi	r3,-1
   234f4:	1884983a 	sll	r2,r3,r2
   234f8:	14a4703a 	and	r18,r2,r18
   234fc:	003ebe06 	br	22ff8 <_strtod_l+0xfe8>
   23500:	d8801017 	ldw	r2,64(sp)
   23504:	10001126 	beq	r2,zero,2354c <_strtod_l+0x153c>
   23508:	889ffc2c 	andhi	r2,r17,32752
   2350c:	00c1a834 	movhi	r3,1696
   23510:	18800e36 	bltu	r3,r2,2354c <_strtod_l+0x153c>
   23514:	1004d53a 	srli	r2,r2,20
   23518:	00c01ac4 	movi	r3,107
   2351c:	1887c83a 	sub	r3,r3,r2
   23520:	00bfffc4 	movi	r2,-1
   23524:	10c4983a 	sll	r2,r2,r3
   23528:	90bf7d1e 	bne	r18,r2,23320 <_strtod_l+0x1310>
   2352c:	009ffc34 	movhi	r2,32752
   23530:	10bfffc4 	addi	r2,r2,-1
   23534:	88801326 	beq	r17,r2,23584 <_strtod_l+0x1574>
   23538:	8c5ffc2c 	andhi	r17,r17,32752
   2353c:	00800434 	movhi	r2,16
   23540:	002d883a 	mov	r22,zero
   23544:	88ab883a 	add	r21,r17,r2
   23548:	003f8606 	br	23364 <_strtod_l+0x1354>
   2354c:	00bfffc4 	movi	r2,-1
   23550:	003ff506 	br	23528 <_strtod_l+0x1518>
   23554:	05400434 	movhi	r21,16
   23558:	00bffc34 	movhi	r2,65520
   2355c:	88a3883a 	add	r17,r17,r2
   23560:	ad7fffc4 	addi	r21,r21,-1
   23564:	05bfffc4 	movi	r22,-1
   23568:	8d6ab03a 	or	r21,r17,r21
   2356c:	003f7d06 	br	23364 <_strtod_l+0x1354>
   23570:	10bff804 	addi	r2,r2,-32
   23574:	00ffffc4 	movi	r3,-1
   23578:	1884983a 	sll	r2,r3,r2
   2357c:	1462703a 	and	r17,r2,r17
   23580:	003e9d06 	br	22ff8 <_strtod_l+0xfe8>
   23584:	94bfffd8 	cmpnei	r18,r18,-1
   23588:	903feb1e 	bne	r18,zero,23538 <_strtod_l+0x1528>
   2358c:	003d7606 	br	22b68 <_strtod_l+0xb58>
   23590:	b807883a 	mov	r3,r23
   23594:	202f883a 	mov	r23,r4
   23598:	003ec306 	br	230a8 <_strtod_l+0x1098>

0002359c <_strtod_r>:
   2359c:	01c000f4 	movhi	r7,3
   235a0:	39c3bd04 	addi	r7,r7,3828
   235a4:	00220101 	jmpi	22010 <_strtod_l>

000235a8 <strtod_l>:
   235a8:	00c000f4 	movhi	r3,3
   235ac:	2005883a 	mov	r2,r4
   235b0:	1908aa17 	ldw	r4,8872(r3)
   235b4:	300f883a 	mov	r7,r6
   235b8:	280d883a 	mov	r6,r5
   235bc:	100b883a 	mov	r5,r2
   235c0:	00220101 	jmpi	22010 <_strtod_l>

000235c4 <strtod>:
   235c4:	00c000f4 	movhi	r3,3
   235c8:	2005883a 	mov	r2,r4
   235cc:	1908aa17 	ldw	r4,8872(r3)
   235d0:	01c000f4 	movhi	r7,3
   235d4:	280d883a 	mov	r6,r5
   235d8:	39c3bd04 	addi	r7,r7,3828
   235dc:	100b883a 	mov	r5,r2
   235e0:	00220101 	jmpi	22010 <_strtod_l>

000235e4 <strtof_l>:
   235e4:	00c000f4 	movhi	r3,3
   235e8:	2005883a 	mov	r2,r4
   235ec:	1908aa17 	ldw	r4,8872(r3)
   235f0:	defffa04 	addi	sp,sp,-24
   235f4:	300f883a 	mov	r7,r6
   235f8:	280d883a 	mov	r6,r5
   235fc:	100b883a 	mov	r5,r2
   23600:	dc400115 	stw	r17,4(sp)
   23604:	dc000015 	stw	r16,0(sp)
   23608:	dfc00515 	stw	ra,20(sp)
   2360c:	dd000415 	stw	r20,16(sp)
   23610:	dcc00315 	stw	r19,12(sp)
   23614:	dc800215 	stw	r18,8(sp)
   23618:	00220100 	call	22010 <_strtod_l>
   2361c:	100d883a 	mov	r6,r2
   23620:	180f883a 	mov	r7,r3
   23624:	1009883a 	mov	r4,r2
   23628:	180b883a 	mov	r5,r3
   2362c:	1023883a 	mov	r17,r2
   23630:	1821883a 	mov	r16,r3
   23634:	002cc4c0 	call	2cc4c <__unorddf2>
   23638:	10002d1e 	bne	r2,zero,236f0 <strtof_l+0x10c>
   2363c:	8809883a 	mov	r4,r17
   23640:	800b883a 	mov	r5,r16
   23644:	04a00034 	movhi	r18,32768
   23648:	002cdec0 	call	2cdec <__truncdfsf2>
   2364c:	94bfffc4 	addi	r18,r18,-1
   23650:	90a8703a 	and	r20,r18,r2
   23654:	015fe034 	movhi	r5,32640
   23658:	297fffc4 	addi	r5,r5,-1
   2365c:	a009883a 	mov	r4,r20
   23660:	1027883a 	mov	r19,r2
   23664:	002a6180 	call	2a618 <__unordsf2>
   23668:	1000181e 	bne	r2,zero,236cc <strtof_l+0xe8>
   2366c:	015fe034 	movhi	r5,32640
   23670:	297fffc4 	addi	r5,r5,-1
   23674:	a009883a 	mov	r4,r20
   23678:	002a5580 	call	2a558 <__lesf2>
   2367c:	0080130e 	bge	zero,r2,236cc <strtof_l+0xe8>
   23680:	84a0703a 	and	r16,r16,r18
   23684:	01dffc34 	movhi	r7,32752
   23688:	01bfffc4 	movi	r6,-1
   2368c:	39ffffc4 	addi	r7,r7,-1
   23690:	8809883a 	mov	r4,r17
   23694:	800b883a 	mov	r5,r16
   23698:	002cc4c0 	call	2cc4c <__unorddf2>
   2369c:	1000071e 	bne	r2,zero,236bc <strtof_l+0xd8>
   236a0:	01dffc34 	movhi	r7,32752
   236a4:	01bfffc4 	movi	r6,-1
   236a8:	39ffffc4 	addi	r7,r7,-1
   236ac:	8809883a 	mov	r4,r17
   236b0:	800b883a 	mov	r5,r16
   236b4:	002ba800 	call	2ba80 <__ledf2>
   236b8:	00800416 	blt	zero,r2,236cc <strtof_l+0xe8>
   236bc:	008000f4 	movhi	r2,3
   236c0:	1088aa17 	ldw	r2,8872(r2)
   236c4:	00c00884 	movi	r3,34
   236c8:	10c00015 	stw	r3,0(r2)
   236cc:	9805883a 	mov	r2,r19
   236d0:	dfc00517 	ldw	ra,20(sp)
   236d4:	dd000417 	ldw	r20,16(sp)
   236d8:	dcc00317 	ldw	r19,12(sp)
   236dc:	dc800217 	ldw	r18,8(sp)
   236e0:	dc400117 	ldw	r17,4(sp)
   236e4:	dc000017 	ldw	r16,0(sp)
   236e8:	dec00604 	addi	sp,sp,24
   236ec:	f800283a 	ret
   236f0:	8000020e 	bge	r16,zero,236fc <strtof_l+0x118>
   236f4:	04fff034 	movhi	r19,65472
   236f8:	003ff406 	br	236cc <strtof_l+0xe8>
   236fc:	04dff034 	movhi	r19,32704
   23700:	003ff206 	br	236cc <strtof_l+0xe8>

00023704 <strtof>:
   23704:	00c000f4 	movhi	r3,3
   23708:	2005883a 	mov	r2,r4
   2370c:	1908aa17 	ldw	r4,8872(r3)
   23710:	01c000f4 	movhi	r7,3
   23714:	defff904 	addi	sp,sp,-28
   23718:	280d883a 	mov	r6,r5
   2371c:	39c3bd04 	addi	r7,r7,3828
   23720:	100b883a 	mov	r5,r2
   23724:	dc400115 	stw	r17,4(sp)
   23728:	dc000015 	stw	r16,0(sp)
   2372c:	dfc00615 	stw	ra,24(sp)
   23730:	dd400515 	stw	r21,20(sp)
   23734:	dd000415 	stw	r20,16(sp)
   23738:	dcc00315 	stw	r19,12(sp)
   2373c:	dc800215 	stw	r18,8(sp)
   23740:	00220100 	call	22010 <_strtod_l>
   23744:	100d883a 	mov	r6,r2
   23748:	180f883a 	mov	r7,r3
   2374c:	1009883a 	mov	r4,r2
   23750:	180b883a 	mov	r5,r3
   23754:	1021883a 	mov	r16,r2
   23758:	1823883a 	mov	r17,r3
   2375c:	002cc4c0 	call	2cc4c <__unorddf2>
   23760:	10003a1e 	bne	r2,zero,2384c <strtof+0x148>
   23764:	8009883a 	mov	r4,r16
   23768:	880b883a 	mov	r5,r17
   2376c:	04a00034 	movhi	r18,32768
   23770:	002cdec0 	call	2cdec <__truncdfsf2>
   23774:	94bfffc4 	addi	r18,r18,-1
   23778:	90a8703a 	and	r20,r18,r2
   2377c:	015fe034 	movhi	r5,32640
   23780:	297fffc4 	addi	r5,r5,-1
   23784:	a009883a 	mov	r4,r20
   23788:	1027883a 	mov	r19,r2
   2378c:	002a6180 	call	2a618 <__unordsf2>
   23790:	982b883a 	mov	r21,r19
   23794:	1000221e 	bne	r2,zero,23820 <strtof+0x11c>
   23798:	015fe034 	movhi	r5,32640
   2379c:	297fffc4 	addi	r5,r5,-1
   237a0:	a009883a 	mov	r4,r20
   237a4:	002a5580 	call	2a558 <__lesf2>
   237a8:	00801d0e 	bge	zero,r2,23820 <strtof+0x11c>
   237ac:	8ca4703a 	and	r18,r17,r18
   237b0:	01dffc34 	movhi	r7,32752
   237b4:	01bfffc4 	movi	r6,-1
   237b8:	39ffffc4 	addi	r7,r7,-1
   237bc:	8009883a 	mov	r4,r16
   237c0:	900b883a 	mov	r5,r18
   237c4:	002cc4c0 	call	2cc4c <__unorddf2>
   237c8:	1000071e 	bne	r2,zero,237e8 <strtof+0xe4>
   237cc:	01dffc34 	movhi	r7,32752
   237d0:	01bfffc4 	movi	r6,-1
   237d4:	39ffffc4 	addi	r7,r7,-1
   237d8:	8009883a 	mov	r4,r16
   237dc:	900b883a 	mov	r5,r18
   237e0:	002ba800 	call	2ba80 <__ledf2>
   237e4:	00800e16 	blt	zero,r2,23820 <strtof+0x11c>
   237e8:	008000f4 	movhi	r2,3
   237ec:	1088aa17 	ldw	r2,8872(r2)
   237f0:	00c00884 	movi	r3,34
   237f4:	10c00015 	stw	r3,0(r2)
   237f8:	a805883a 	mov	r2,r21
   237fc:	dfc00617 	ldw	ra,24(sp)
   23800:	dd400517 	ldw	r21,20(sp)
   23804:	dd000417 	ldw	r20,16(sp)
   23808:	dcc00317 	ldw	r19,12(sp)
   2380c:	dc800217 	ldw	r18,8(sp)
   23810:	dc400117 	ldw	r17,4(sp)
   23814:	dc000017 	ldw	r16,0(sp)
   23818:	dec00704 	addi	sp,sp,28
   2381c:	f800283a 	ret
   23820:	000b883a 	mov	r5,zero
   23824:	9809883a 	mov	r4,r19
   23828:	002a4e00 	call	2a4e0 <__eqsf2>
   2382c:	103ff21e 	bne	r2,zero,237f8 <strtof+0xf4>
   23830:	000d883a 	mov	r6,zero
   23834:	000f883a 	mov	r7,zero
   23838:	8009883a 	mov	r4,r16
   2383c:	880b883a 	mov	r5,r17
   23840:	002b9100 	call	2b910 <__eqdf2>
   23844:	103fec26 	beq	r2,zero,237f8 <strtof+0xf4>
   23848:	003fe706 	br	237e8 <strtof+0xe4>
   2384c:	8800020e 	bge	r17,zero,23858 <strtof+0x154>
   23850:	057ff034 	movhi	r21,65472
   23854:	003fe806 	br	237f8 <strtof+0xf4>
   23858:	055ff034 	movhi	r21,32704
   2385c:	003fe606 	br	237f8 <strtof+0xf4>

00023860 <_write_r>:
   23860:	2807883a 	mov	r3,r5
   23864:	defffe04 	addi	sp,sp,-8
   23868:	dc000015 	stw	r16,0(sp)
   2386c:	300b883a 	mov	r5,r6
   23870:	008000f4 	movhi	r2,3
   23874:	380d883a 	mov	r6,r7
   23878:	2021883a 	mov	r16,r4
   2387c:	1809883a 	mov	r4,r3
   23880:	dfc00115 	stw	ra,4(sp)
   23884:	100fca15 	stw	zero,16168(r2)
   23888:	002e0600 	call	2e060 <write>
   2388c:	10ffffd8 	cmpnei	r3,r2,-1
   23890:	18000426 	beq	r3,zero,238a4 <_write_r+0x44>
   23894:	dfc00117 	ldw	ra,4(sp)
   23898:	dc000017 	ldw	r16,0(sp)
   2389c:	dec00204 	addi	sp,sp,8
   238a0:	f800283a 	ret
   238a4:	00c000f4 	movhi	r3,3
   238a8:	18cfca17 	ldw	r3,16168(r3)
   238ac:	183ff926 	beq	r3,zero,23894 <_write_r+0x34>
   238b0:	80c00015 	stw	r3,0(r16)
   238b4:	dfc00117 	ldw	ra,4(sp)
   238b8:	dc000017 	ldw	r16,0(sp)
   238bc:	dec00204 	addi	sp,sp,8
   238c0:	f800283a 	ret

000238c4 <_close_r>:
   238c4:	defffe04 	addi	sp,sp,-8
   238c8:	dc000015 	stw	r16,0(sp)
   238cc:	008000f4 	movhi	r2,3
   238d0:	2021883a 	mov	r16,r4
   238d4:	2809883a 	mov	r4,r5
   238d8:	dfc00115 	stw	ra,4(sp)
   238dc:	100fca15 	stw	zero,16168(r2)
   238e0:	002cfec0 	call	2cfec <close>
   238e4:	10ffffd8 	cmpnei	r3,r2,-1
   238e8:	18000426 	beq	r3,zero,238fc <_close_r+0x38>
   238ec:	dfc00117 	ldw	ra,4(sp)
   238f0:	dc000017 	ldw	r16,0(sp)
   238f4:	dec00204 	addi	sp,sp,8
   238f8:	f800283a 	ret
   238fc:	00c000f4 	movhi	r3,3
   23900:	18cfca17 	ldw	r3,16168(r3)
   23904:	183ff926 	beq	r3,zero,238ec <_close_r+0x28>
   23908:	80c00015 	stw	r3,0(r16)
   2390c:	dfc00117 	ldw	ra,4(sp)
   23910:	dc000017 	ldw	r16,0(sp)
   23914:	dec00204 	addi	sp,sp,8
   23918:	f800283a 	ret

0002391c <__sflush_r>:
   2391c:	2880030b 	ldhu	r2,12(r5)
   23920:	defffb04 	addi	sp,sp,-20
   23924:	dcc00315 	stw	r19,12(sp)
   23928:	dc000015 	stw	r16,0(sp)
   2392c:	dfc00415 	stw	ra,16(sp)
   23930:	dc800215 	stw	r18,8(sp)
   23934:	dc400115 	stw	r17,4(sp)
   23938:	10c0020c 	andi	r3,r2,8
   2393c:	2821883a 	mov	r16,r5
   23940:	2027883a 	mov	r19,r4
   23944:	18003f1e 	bne	r3,zero,23a44 <__sflush_r+0x128>
   23948:	28c00117 	ldw	r3,4(r5)
   2394c:	10820014 	ori	r2,r2,2048
   23950:	2880030d 	sth	r2,12(r5)
   23954:	00c0550e 	bge	zero,r3,23aac <__sflush_r+0x190>
   23958:	82000a17 	ldw	r8,40(r16)
   2395c:	40003126 	beq	r8,zero,23a24 <__sflush_r+0x108>
   23960:	9c400017 	ldw	r17,0(r19)
   23964:	1104000c 	andi	r4,r2,4096
   23968:	98000015 	stw	zero,0(r19)
   2396c:	81400717 	ldw	r5,28(r16)
   23970:	1007883a 	mov	r3,r2
   23974:	2000521e 	bne	r4,zero,23ac0 <__sflush_r+0x1a4>
   23978:	01c00044 	movi	r7,1
   2397c:	000d883a 	mov	r6,zero
   23980:	9809883a 	mov	r4,r19
   23984:	403ee83a 	callr	r8
   23988:	10ffffd8 	cmpnei	r3,r2,-1
   2398c:	18005826 	beq	r3,zero,23af0 <__sflush_r+0x1d4>
   23990:	80c0030b 	ldhu	r3,12(r16)
   23994:	82000a17 	ldw	r8,40(r16)
   23998:	81400717 	ldw	r5,28(r16)
   2399c:	18c0010c 	andi	r3,r3,4
   239a0:	18000626 	beq	r3,zero,239bc <__sflush_r+0xa0>
   239a4:	81000117 	ldw	r4,4(r16)
   239a8:	80c00c17 	ldw	r3,48(r16)
   239ac:	1105c83a 	sub	r2,r2,r4
   239b0:	18000226 	beq	r3,zero,239bc <__sflush_r+0xa0>
   239b4:	80c00f17 	ldw	r3,60(r16)
   239b8:	10c5c83a 	sub	r2,r2,r3
   239bc:	100d883a 	mov	r6,r2
   239c0:	000f883a 	mov	r7,zero
   239c4:	9809883a 	mov	r4,r19
   239c8:	403ee83a 	callr	r8
   239cc:	10ffffd8 	cmpnei	r3,r2,-1
   239d0:	18003d1e 	bne	r3,zero,23ac8 <__sflush_r+0x1ac>
   239d4:	99000017 	ldw	r4,0(r19)
   239d8:	80c0030b 	ldhu	r3,12(r16)
   239dc:	20004e26 	beq	r4,zero,23b18 <__sflush_r+0x1fc>
   239e0:	21400760 	cmpeqi	r5,r4,29
   239e4:	2800021e 	bne	r5,zero,239f0 <__sflush_r+0xd4>
   239e8:	210005a0 	cmpeqi	r4,r4,22
   239ec:	20002c26 	beq	r4,zero,23aa0 <__sflush_r+0x184>
   239f0:	80800417 	ldw	r2,16(r16)
   239f4:	18fdffcc 	andi	r3,r3,63487
   239f8:	80c0030d 	sth	r3,12(r16)
   239fc:	80000115 	stw	zero,4(r16)
   23a00:	80800015 	stw	r2,0(r16)
   23a04:	81400c17 	ldw	r5,48(r16)
   23a08:	9c400015 	stw	r17,0(r19)
   23a0c:	28000526 	beq	r5,zero,23a24 <__sflush_r+0x108>
   23a10:	80801004 	addi	r2,r16,64
   23a14:	28800226 	beq	r5,r2,23a20 <__sflush_r+0x104>
   23a18:	9809883a 	mov	r4,r19
   23a1c:	00240f40 	call	240f4 <_free_r>
   23a20:	80000c15 	stw	zero,48(r16)
   23a24:	0005883a 	mov	r2,zero
   23a28:	dfc00417 	ldw	ra,16(sp)
   23a2c:	dcc00317 	ldw	r19,12(sp)
   23a30:	dc800217 	ldw	r18,8(sp)
   23a34:	dc400117 	ldw	r17,4(sp)
   23a38:	dc000017 	ldw	r16,0(sp)
   23a3c:	dec00504 	addi	sp,sp,20
   23a40:	f800283a 	ret
   23a44:	2c800417 	ldw	r18,16(r5)
   23a48:	903ff626 	beq	r18,zero,23a24 <__sflush_r+0x108>
   23a4c:	2c400017 	ldw	r17,0(r5)
   23a50:	108000cc 	andi	r2,r2,3
   23a54:	2c800015 	stw	r18,0(r5)
   23a58:	8ca3c83a 	sub	r17,r17,r18
   23a5c:	1000161e 	bne	r2,zero,23ab8 <__sflush_r+0x19c>
   23a60:	28800517 	ldw	r2,20(r5)
   23a64:	80800215 	stw	r2,8(r16)
   23a68:	04400316 	blt	zero,r17,23a78 <__sflush_r+0x15c>
   23a6c:	003fed06 	br	23a24 <__sflush_r+0x108>
   23a70:	90a5883a 	add	r18,r18,r2
   23a74:	047feb0e 	bge	zero,r17,23a24 <__sflush_r+0x108>
   23a78:	80800917 	ldw	r2,36(r16)
   23a7c:	81400717 	ldw	r5,28(r16)
   23a80:	880f883a 	mov	r7,r17
   23a84:	900d883a 	mov	r6,r18
   23a88:	9809883a 	mov	r4,r19
   23a8c:	103ee83a 	callr	r2
   23a90:	88a3c83a 	sub	r17,r17,r2
   23a94:	00bff616 	blt	zero,r2,23a70 <__sflush_r+0x154>
   23a98:	80c0030b 	ldhu	r3,12(r16)
   23a9c:	00bfffc4 	movi	r2,-1
   23aa0:	18c01014 	ori	r3,r3,64
   23aa4:	80c0030d 	sth	r3,12(r16)
   23aa8:	003fdf06 	br	23a28 <__sflush_r+0x10c>
   23aac:	28c00f17 	ldw	r3,60(r5)
   23ab0:	00ffa916 	blt	zero,r3,23958 <__sflush_r+0x3c>
   23ab4:	003fdb06 	br	23a24 <__sflush_r+0x108>
   23ab8:	0005883a 	mov	r2,zero
   23abc:	003fe906 	br	23a64 <__sflush_r+0x148>
   23ac0:	80801417 	ldw	r2,80(r16)
   23ac4:	003fb506 	br	2399c <__sflush_r+0x80>
   23ac8:	80c0030b 	ldhu	r3,12(r16)
   23acc:	81000417 	ldw	r4,16(r16)
   23ad0:	80000115 	stw	zero,4(r16)
   23ad4:	197dffcc 	andi	r5,r3,63487
   23ad8:	8140030d 	sth	r5,12(r16)
   23adc:	81000015 	stw	r4,0(r16)
   23ae0:	18c4000c 	andi	r3,r3,4096
   23ae4:	183fc726 	beq	r3,zero,23a04 <__sflush_r+0xe8>
   23ae8:	80801415 	stw	r2,80(r16)
   23aec:	003fc506 	br	23a04 <__sflush_r+0xe8>
   23af0:	98c00017 	ldw	r3,0(r19)
   23af4:	183fa626 	beq	r3,zero,23990 <__sflush_r+0x74>
   23af8:	19000760 	cmpeqi	r4,r3,29
   23afc:	20000e1e 	bne	r4,zero,23b38 <__sflush_r+0x21c>
   23b00:	18c00598 	cmpnei	r3,r3,22
   23b04:	18000c26 	beq	r3,zero,23b38 <__sflush_r+0x21c>
   23b08:	80c0030b 	ldhu	r3,12(r16)
   23b0c:	18c01014 	ori	r3,r3,64
   23b10:	80c0030d 	sth	r3,12(r16)
   23b14:	003fc406 	br	23a28 <__sflush_r+0x10c>
   23b18:	81000417 	ldw	r4,16(r16)
   23b1c:	197dffcc 	andi	r5,r3,63487
   23b20:	8140030d 	sth	r5,12(r16)
   23b24:	80000115 	stw	zero,4(r16)
   23b28:	81000015 	stw	r4,0(r16)
   23b2c:	18c4000c 	andi	r3,r3,4096
   23b30:	183fb426 	beq	r3,zero,23a04 <__sflush_r+0xe8>
   23b34:	003fec06 	br	23ae8 <__sflush_r+0x1cc>
   23b38:	9c400015 	stw	r17,0(r19)
   23b3c:	0005883a 	mov	r2,zero
   23b40:	003fb906 	br	23a28 <__sflush_r+0x10c>

00023b44 <_fflush_r>:
   23b44:	defffd04 	addi	sp,sp,-12
   23b48:	dc000115 	stw	r16,4(sp)
   23b4c:	dfc00215 	stw	ra,8(sp)
   23b50:	2021883a 	mov	r16,r4
   23b54:	20000226 	beq	r4,zero,23b60 <_fflush_r+0x1c>
   23b58:	20800e17 	ldw	r2,56(r4)
   23b5c:	10000726 	beq	r2,zero,23b7c <_fflush_r+0x38>
   23b60:	2880030f 	ldh	r2,12(r5)
   23b64:	10000a1e 	bne	r2,zero,23b90 <_fflush_r+0x4c>
   23b68:	0005883a 	mov	r2,zero
   23b6c:	dfc00217 	ldw	ra,8(sp)
   23b70:	dc000117 	ldw	r16,4(sp)
   23b74:	dec00304 	addi	sp,sp,12
   23b78:	f800283a 	ret
   23b7c:	d9400015 	stw	r5,0(sp)
   23b80:	0023ed80 	call	23ed8 <__sinit>
   23b84:	d9400017 	ldw	r5,0(sp)
   23b88:	2880030f 	ldh	r2,12(r5)
   23b8c:	103ff626 	beq	r2,zero,23b68 <_fflush_r+0x24>
   23b90:	8009883a 	mov	r4,r16
   23b94:	dfc00217 	ldw	ra,8(sp)
   23b98:	dc000117 	ldw	r16,4(sp)
   23b9c:	dec00304 	addi	sp,sp,12
   23ba0:	002391c1 	jmpi	2391c <__sflush_r>

00023ba4 <fflush>:
   23ba4:	200b883a 	mov	r5,r4
   23ba8:	20000326 	beq	r4,zero,23bb8 <fflush+0x14>
   23bac:	008000f4 	movhi	r2,3
   23bb0:	1108aa17 	ldw	r4,8872(r2)
   23bb4:	0023b441 	jmpi	23b44 <_fflush_r>
   23bb8:	008000f4 	movhi	r2,3
   23bbc:	1108a917 	ldw	r4,8868(r2)
   23bc0:	014000b4 	movhi	r5,2
   23bc4:	294ed104 	addi	r5,r5,15172
   23bc8:	00244881 	jmpi	24488 <_fwalk_reent>

00023bcc <__fp_lock>:
   23bcc:	0005883a 	mov	r2,zero
   23bd0:	f800283a 	ret

00023bd4 <_cleanup_r>:
   23bd4:	014000b4 	movhi	r5,2
   23bd8:	295a7304 	addi	r5,r5,27084
   23bdc:	00244881 	jmpi	24488 <_fwalk_reent>

00023be0 <__sinit.part.0>:
   23be0:	00c000b4 	movhi	r3,2
   23be4:	20800117 	ldw	r2,4(r4)
   23be8:	18cef504 	addi	r3,r3,15316
   23bec:	20c00f15 	stw	r3,60(r4)
   23bf0:	2140bb04 	addi	r5,r4,748
   23bf4:	00c000c4 	movi	r3,3
   23bf8:	20c0b915 	stw	r3,740(r4)
   23bfc:	2140ba15 	stw	r5,744(r4)
   23c00:	2000b815 	stw	zero,736(r4)
   23c04:	10001705 	stb	zero,92(r2)
   23c08:	10001745 	stb	zero,93(r2)
   23c0c:	10001785 	stb	zero,94(r2)
   23c10:	100017c5 	stb	zero,95(r2)
   23c14:	10001805 	stb	zero,96(r2)
   23c18:	10001845 	stb	zero,97(r2)
   23c1c:	10001885 	stb	zero,98(r2)
   23c20:	100018c5 	stb	zero,99(r2)
   23c24:	00c00104 	movi	r3,4
   23c28:	10c00315 	stw	r3,12(r2)
   23c2c:	020000b4 	movhi	r8,2
   23c30:	20c00217 	ldw	r3,8(r4)
   23c34:	01c000b4 	movhi	r7,2
   23c38:	018000b4 	movhi	r6,2
   23c3c:	014000b4 	movhi	r5,2
   23c40:	42079b04 	addi	r8,r8,7788
   23c44:	39c7b204 	addi	r7,r7,7880
   23c48:	3187d204 	addi	r6,r6,8008
   23c4c:	2947e904 	addi	r5,r5,8100
   23c50:	02400074 	movhi	r9,1
   23c54:	10001915 	stw	zero,100(r2)
   23c58:	10000015 	stw	zero,0(r2)
   23c5c:	10000115 	stw	zero,4(r2)
   23c60:	10000215 	stw	zero,8(r2)
   23c64:	10000415 	stw	zero,16(r2)
   23c68:	10000515 	stw	zero,20(r2)
   23c6c:	10000615 	stw	zero,24(r2)
   23c70:	10800715 	stw	r2,28(r2)
   23c74:	12000815 	stw	r8,32(r2)
   23c78:	11c00915 	stw	r7,36(r2)
   23c7c:	11800a15 	stw	r6,40(r2)
   23c80:	11400b15 	stw	r5,44(r2)
   23c84:	4a400284 	addi	r9,r9,10
   23c88:	1a400315 	stw	r9,12(r3)
   23c8c:	18001915 	stw	zero,100(r3)
   23c90:	18000015 	stw	zero,0(r3)
   23c94:	18000115 	stw	zero,4(r3)
   23c98:	18000215 	stw	zero,8(r3)
   23c9c:	18000415 	stw	zero,16(r3)
   23ca0:	18001705 	stb	zero,92(r3)
   23ca4:	18001745 	stb	zero,93(r3)
   23ca8:	18001785 	stb	zero,94(r3)
   23cac:	180017c5 	stb	zero,95(r3)
   23cb0:	18001805 	stb	zero,96(r3)
   23cb4:	18001845 	stb	zero,97(r3)
   23cb8:	18001885 	stb	zero,98(r3)
   23cbc:	180018c5 	stb	zero,99(r3)
   23cc0:	20800317 	ldw	r2,12(r4)
   23cc4:	024000b4 	movhi	r9,2
   23cc8:	18000515 	stw	zero,20(r3)
   23ccc:	18000615 	stw	zero,24(r3)
   23cd0:	18c00715 	stw	r3,28(r3)
   23cd4:	1a000815 	stw	r8,32(r3)
   23cd8:	19c00915 	stw	r7,36(r3)
   23cdc:	19800a15 	stw	r6,40(r3)
   23ce0:	19400b15 	stw	r5,44(r3)
   23ce4:	4a400484 	addi	r9,r9,18
   23ce8:	10001915 	stw	zero,100(r2)
   23cec:	10000015 	stw	zero,0(r2)
   23cf0:	10000115 	stw	zero,4(r2)
   23cf4:	10000215 	stw	zero,8(r2)
   23cf8:	12400315 	stw	r9,12(r2)
   23cfc:	10000415 	stw	zero,16(r2)
   23d00:	10000515 	stw	zero,20(r2)
   23d04:	10000615 	stw	zero,24(r2)
   23d08:	10001705 	stb	zero,92(r2)
   23d0c:	10001745 	stb	zero,93(r2)
   23d10:	10001785 	stb	zero,94(r2)
   23d14:	100017c5 	stb	zero,95(r2)
   23d18:	10001805 	stb	zero,96(r2)
   23d1c:	10001845 	stb	zero,97(r2)
   23d20:	10001885 	stb	zero,98(r2)
   23d24:	100018c5 	stb	zero,99(r2)
   23d28:	10800715 	stw	r2,28(r2)
   23d2c:	12000815 	stw	r8,32(r2)
   23d30:	11c00915 	stw	r7,36(r2)
   23d34:	11800a15 	stw	r6,40(r2)
   23d38:	11400b15 	stw	r5,44(r2)
   23d3c:	00800044 	movi	r2,1
   23d40:	20800e15 	stw	r2,56(r4)
   23d44:	f800283a 	ret

00023d48 <__fp_unlock>:
   23d48:	0005883a 	mov	r2,zero
   23d4c:	f800283a 	ret

00023d50 <__sfmoreglue>:
   23d50:	defffc04 	addi	sp,sp,-16
   23d54:	dc800215 	stw	r18,8(sp)
   23d58:	2825883a 	mov	r18,r5
   23d5c:	dc000015 	stw	r16,0(sp)
   23d60:	01401a04 	movi	r5,104
   23d64:	2021883a 	mov	r16,r4
   23d68:	913fffc4 	addi	r4,r18,-1
   23d6c:	dfc00315 	stw	ra,12(sp)
   23d70:	dc400115 	stw	r17,4(sp)
   23d74:	002a4b80 	call	2a4b8 <__mulsi3>
   23d78:	8009883a 	mov	r4,r16
   23d7c:	11401d04 	addi	r5,r2,116
   23d80:	1023883a 	mov	r17,r2
   23d84:	00213640 	call	21364 <_malloc_r>
   23d88:	1021883a 	mov	r16,r2
   23d8c:	10000726 	beq	r2,zero,23dac <__sfmoreglue+0x5c>
   23d90:	11000304 	addi	r4,r2,12
   23d94:	10000015 	stw	zero,0(r2)
   23d98:	14800115 	stw	r18,4(r2)
   23d9c:	11000215 	stw	r4,8(r2)
   23da0:	89801a04 	addi	r6,r17,104
   23da4:	000b883a 	mov	r5,zero
   23da8:	00253b40 	call	253b4 <memset>
   23dac:	8005883a 	mov	r2,r16
   23db0:	dfc00317 	ldw	ra,12(sp)
   23db4:	dc800217 	ldw	r18,8(sp)
   23db8:	dc400117 	ldw	r17,4(sp)
   23dbc:	dc000017 	ldw	r16,0(sp)
   23dc0:	dec00404 	addi	sp,sp,16
   23dc4:	f800283a 	ret

00023dc8 <__sfp>:
   23dc8:	defffd04 	addi	sp,sp,-12
   23dcc:	008000f4 	movhi	r2,3
   23dd0:	dc000015 	stw	r16,0(sp)
   23dd4:	1408a917 	ldw	r16,8868(r2)
   23dd8:	dc400115 	stw	r17,4(sp)
   23ddc:	dfc00215 	stw	ra,8(sp)
   23de0:	80800e17 	ldw	r2,56(r16)
   23de4:	2023883a 	mov	r17,r4
   23de8:	10002b26 	beq	r2,zero,23e98 <__sfp+0xd0>
   23dec:	8400b804 	addi	r16,r16,736
   23df0:	80c00117 	ldw	r3,4(r16)
   23df4:	80800217 	ldw	r2,8(r16)
   23df8:	18ffffc4 	addi	r3,r3,-1
   23dfc:	1800030e 	bge	r3,zero,23e0c <__sfp+0x44>
   23e00:	00002106 	br	23e88 <__sfp+0xc0>
   23e04:	10801a04 	addi	r2,r2,104
   23e08:	30001f26 	beq	r6,zero,23e88 <__sfp+0xc0>
   23e0c:	1140030f 	ldh	r5,12(r2)
   23e10:	18ffffc4 	addi	r3,r3,-1
   23e14:	19bfffd8 	cmpnei	r6,r3,-1
   23e18:	283ffa1e 	bne	r5,zero,23e04 <__sfp+0x3c>
   23e1c:	00fffff4 	movhi	r3,65535
   23e20:	18c00044 	addi	r3,r3,1
   23e24:	10001915 	stw	zero,100(r2)
   23e28:	10000015 	stw	zero,0(r2)
   23e2c:	10000115 	stw	zero,4(r2)
   23e30:	10000215 	stw	zero,8(r2)
   23e34:	10c00315 	stw	r3,12(r2)
   23e38:	10000415 	stw	zero,16(r2)
   23e3c:	10000515 	stw	zero,20(r2)
   23e40:	10000615 	stw	zero,24(r2)
   23e44:	10001705 	stb	zero,92(r2)
   23e48:	10001745 	stb	zero,93(r2)
   23e4c:	10001785 	stb	zero,94(r2)
   23e50:	100017c5 	stb	zero,95(r2)
   23e54:	10001805 	stb	zero,96(r2)
   23e58:	10001845 	stb	zero,97(r2)
   23e5c:	10001885 	stb	zero,98(r2)
   23e60:	100018c5 	stb	zero,99(r2)
   23e64:	10000c15 	stw	zero,48(r2)
   23e68:	10000d15 	stw	zero,52(r2)
   23e6c:	10001115 	stw	zero,68(r2)
   23e70:	10001215 	stw	zero,72(r2)
   23e74:	dfc00217 	ldw	ra,8(sp)
   23e78:	dc400117 	ldw	r17,4(sp)
   23e7c:	dc000017 	ldw	r16,0(sp)
   23e80:	dec00304 	addi	sp,sp,12
   23e84:	f800283a 	ret
   23e88:	80800017 	ldw	r2,0(r16)
   23e8c:	10000526 	beq	r2,zero,23ea4 <__sfp+0xdc>
   23e90:	1021883a 	mov	r16,r2
   23e94:	003fd606 	br	23df0 <__sfp+0x28>
   23e98:	8009883a 	mov	r4,r16
   23e9c:	0023be00 	call	23be0 <__sinit.part.0>
   23ea0:	003fd206 	br	23dec <__sfp+0x24>
   23ea4:	01400104 	movi	r5,4
   23ea8:	8809883a 	mov	r4,r17
   23eac:	0023d500 	call	23d50 <__sfmoreglue>
   23eb0:	80800015 	stw	r2,0(r16)
   23eb4:	103ff61e 	bne	r2,zero,23e90 <__sfp+0xc8>
   23eb8:	00c00304 	movi	r3,12
   23ebc:	88c00015 	stw	r3,0(r17)
   23ec0:	003fec06 	br	23e74 <__sfp+0xac>

00023ec4 <_cleanup>:
   23ec4:	008000f4 	movhi	r2,3
   23ec8:	1108a917 	ldw	r4,8868(r2)
   23ecc:	014000b4 	movhi	r5,2
   23ed0:	295a7304 	addi	r5,r5,27084
   23ed4:	00244881 	jmpi	24488 <_fwalk_reent>

00023ed8 <__sinit>:
   23ed8:	20800e17 	ldw	r2,56(r4)
   23edc:	10000126 	beq	r2,zero,23ee4 <__sinit+0xc>
   23ee0:	f800283a 	ret
   23ee4:	0023be01 	jmpi	23be0 <__sinit.part.0>

00023ee8 <__sfp_lock_acquire>:
   23ee8:	f800283a 	ret

00023eec <__sfp_lock_release>:
   23eec:	f800283a 	ret

00023ef0 <__sinit_lock_acquire>:
   23ef0:	f800283a 	ret

00023ef4 <__sinit_lock_release>:
   23ef4:	f800283a 	ret

00023ef8 <__fp_lock_all>:
   23ef8:	008000f4 	movhi	r2,3
   23efc:	1108aa17 	ldw	r4,8872(r2)
   23f00:	014000b4 	movhi	r5,2
   23f04:	294ef304 	addi	r5,r5,15308
   23f08:	00243f01 	jmpi	243f0 <_fwalk>

00023f0c <__fp_unlock_all>:
   23f0c:	008000f4 	movhi	r2,3
   23f10:	1108aa17 	ldw	r4,8872(r2)
   23f14:	014000b4 	movhi	r5,2
   23f18:	294f5204 	addi	r5,r5,15688
   23f1c:	00243f01 	jmpi	243f0 <_fwalk>

00023f20 <__sflags>:
   23f20:	28800007 	ldb	r2,0(r5)
   23f24:	10c01ca0 	cmpeqi	r3,r2,114
   23f28:	1800271e 	bne	r3,zero,23fc8 <__sflags+0xa8>
   23f2c:	10c01de0 	cmpeqi	r3,r2,119
   23f30:	1800061e 	bne	r3,zero,23f4c <__sflags+0x2c>
   23f34:	10801860 	cmpeqi	r2,r2,97
   23f38:	10001f1e 	bne	r2,zero,23fb8 <__sflags+0x98>
   23f3c:	00800584 	movi	r2,22
   23f40:	20800015 	stw	r2,0(r4)
   23f44:	0005883a 	mov	r2,zero
   23f48:	f800283a 	ret
   23f4c:	02018004 	movi	r8,1536
   23f50:	01000044 	movi	r4,1
   23f54:	00800204 	movi	r2,8
   23f58:	28c00047 	ldb	r3,1(r5)
   23f5c:	29400044 	addi	r5,r5,1
   23f60:	18001226 	beq	r3,zero,23fac <__sflags+0x8c>
   23f64:	02bff8c4 	movi	r10,-29
   23f68:	027fff04 	movi	r9,-4
   23f6c:	00000506 	br	23f84 <__sflags+0x64>
   23f70:	18000126 	beq	r3,zero,23f78 <__sflags+0x58>
   23f74:	21020014 	ori	r4,r4,2048
   23f78:	28c00047 	ldb	r3,1(r5)
   23f7c:	29400044 	addi	r5,r5,1
   23f80:	18000a26 	beq	r3,zero,23fac <__sflags+0x8c>
   23f84:	19c00ae0 	cmpeqi	r7,r3,43
   23f88:	18c01e20 	cmpeqi	r3,r3,120
   23f8c:	383ff826 	beq	r7,zero,23f70 <__sflags+0x50>
   23f90:	28c00047 	ldb	r3,1(r5)
   23f94:	1284703a 	and	r2,r2,r10
   23f98:	2248703a 	and	r4,r4,r9
   23f9c:	10800414 	ori	r2,r2,16
   23fa0:	21000094 	ori	r4,r4,2
   23fa4:	29400044 	addi	r5,r5,1
   23fa8:	183ff61e 	bne	r3,zero,23f84 <__sflags+0x64>
   23fac:	4108b03a 	or	r4,r8,r4
   23fb0:	31000015 	stw	r4,0(r6)
   23fb4:	f800283a 	ret
   23fb8:	02008204 	movi	r8,520
   23fbc:	01000044 	movi	r4,1
   23fc0:	00804204 	movi	r2,264
   23fc4:	003fe406 	br	23f58 <__sflags+0x38>
   23fc8:	0011883a 	mov	r8,zero
   23fcc:	0009883a 	mov	r4,zero
   23fd0:	00800104 	movi	r2,4
   23fd4:	003fe006 	br	23f58 <__sflags+0x38>

00023fd8 <_malloc_trim_r>:
   23fd8:	defffb04 	addi	sp,sp,-20
   23fdc:	dcc00315 	stw	r19,12(sp)
   23fe0:	04c000f4 	movhi	r19,3
   23fe4:	dc800215 	stw	r18,8(sp)
   23fe8:	dc400115 	stw	r17,4(sp)
   23fec:	dc000015 	stw	r16,0(sp)
   23ff0:	dfc00415 	stw	ra,16(sp)
   23ff4:	2821883a 	mov	r16,r5
   23ff8:	9cc2bb04 	addi	r19,r19,2796
   23ffc:	2025883a 	mov	r18,r4
   24000:	002d89c0 	call	2d89c <__malloc_lock>
   24004:	98800217 	ldw	r2,8(r19)
   24008:	14400117 	ldw	r17,4(r2)
   2400c:	00bfff04 	movi	r2,-4
   24010:	88a2703a 	and	r17,r17,r2
   24014:	8c21c83a 	sub	r16,r17,r16
   24018:	8403fbc4 	addi	r16,r16,4079
   2401c:	8020d33a 	srli	r16,r16,12
   24020:	843fffc4 	addi	r16,r16,-1
   24024:	8020933a 	slli	r16,r16,12
   24028:	80840008 	cmpgei	r2,r16,4096
   2402c:	10000626 	beq	r2,zero,24048 <_malloc_trim_r+0x70>
   24030:	000b883a 	mov	r5,zero
   24034:	9009883a 	mov	r4,r18
   24038:	0021e140 	call	21e14 <_sbrk_r>
   2403c:	98c00217 	ldw	r3,8(r19)
   24040:	1c47883a 	add	r3,r3,r17
   24044:	10c00a26 	beq	r2,r3,24070 <_malloc_trim_r+0x98>
   24048:	9009883a 	mov	r4,r18
   2404c:	002d8c00 	call	2d8c0 <__malloc_unlock>
   24050:	0005883a 	mov	r2,zero
   24054:	dfc00417 	ldw	ra,16(sp)
   24058:	dcc00317 	ldw	r19,12(sp)
   2405c:	dc800217 	ldw	r18,8(sp)
   24060:	dc400117 	ldw	r17,4(sp)
   24064:	dc000017 	ldw	r16,0(sp)
   24068:	dec00504 	addi	sp,sp,20
   2406c:	f800283a 	ret
   24070:	040bc83a 	sub	r5,zero,r16
   24074:	9009883a 	mov	r4,r18
   24078:	0021e140 	call	21e14 <_sbrk_r>
   2407c:	10bfffd8 	cmpnei	r2,r2,-1
   24080:	10000d26 	beq	r2,zero,240b8 <_malloc_trim_r+0xe0>
   24084:	008000f4 	movhi	r2,3
   24088:	108fdc17 	ldw	r2,16240(r2)
   2408c:	98c00217 	ldw	r3,8(r19)
   24090:	8c23c83a 	sub	r17,r17,r16
   24094:	8c400054 	ori	r17,r17,1
   24098:	1421c83a 	sub	r16,r2,r16
   2409c:	1c400115 	stw	r17,4(r3)
   240a0:	008000f4 	movhi	r2,3
   240a4:	9009883a 	mov	r4,r18
   240a8:	140fdc15 	stw	r16,16240(r2)
   240ac:	002d8c00 	call	2d8c0 <__malloc_unlock>
   240b0:	00800044 	movi	r2,1
   240b4:	003fe706 	br	24054 <_malloc_trim_r+0x7c>
   240b8:	000b883a 	mov	r5,zero
   240bc:	9009883a 	mov	r4,r18
   240c0:	0021e140 	call	21e14 <_sbrk_r>
   240c4:	99000217 	ldw	r4,8(r19)
   240c8:	1107c83a 	sub	r3,r2,r4
   240cc:	19400410 	cmplti	r5,r3,16
   240d0:	283fdd1e 	bne	r5,zero,24048 <_malloc_trim_r+0x70>
   240d4:	014000f4 	movhi	r5,3
   240d8:	2948ab17 	ldw	r5,8876(r5)
   240dc:	18c00054 	ori	r3,r3,1
   240e0:	20c00115 	stw	r3,4(r4)
   240e4:	1145c83a 	sub	r2,r2,r5
   240e8:	014000f4 	movhi	r5,3
   240ec:	288fdc15 	stw	r2,16240(r5)
   240f0:	003fd506 	br	24048 <_malloc_trim_r+0x70>

000240f4 <_free_r>:
   240f4:	28004f26 	beq	r5,zero,24234 <_free_r+0x140>
   240f8:	defffd04 	addi	sp,sp,-12
   240fc:	dc400115 	stw	r17,4(sp)
   24100:	dc000015 	stw	r16,0(sp)
   24104:	2023883a 	mov	r17,r4
   24108:	2821883a 	mov	r16,r5
   2410c:	dfc00215 	stw	ra,8(sp)
   24110:	002d89c0 	call	2d89c <__malloc_lock>
   24114:	81ffff17 	ldw	r7,-4(r16)
   24118:	00bfff84 	movi	r2,-2
   2411c:	80fffe04 	addi	r3,r16,-8
   24120:	3884703a 	and	r2,r7,r2
   24124:	010000f4 	movhi	r4,3
   24128:	188d883a 	add	r6,r3,r2
   2412c:	2102bb04 	addi	r4,r4,2796
   24130:	31400117 	ldw	r5,4(r6)
   24134:	22000217 	ldw	r8,8(r4)
   24138:	027fff04 	movi	r9,-4
   2413c:	2a4a703a 	and	r5,r5,r9
   24140:	41806426 	beq	r8,r6,242d4 <_free_r+0x1e0>
   24144:	31400115 	stw	r5,4(r6)
   24148:	39c0004c 	andi	r7,r7,1
   2414c:	3151883a 	add	r8,r6,r5
   24150:	3800281e 	bne	r7,zero,241f4 <_free_r+0x100>
   24154:	82bffe17 	ldw	r10,-8(r16)
   24158:	42000117 	ldw	r8,4(r8)
   2415c:	01c000f4 	movhi	r7,3
   24160:	1a87c83a 	sub	r3,r3,r10
   24164:	1a400217 	ldw	r9,8(r3)
   24168:	39c2bd04 	addi	r7,r7,2804
   2416c:	1285883a 	add	r2,r2,r10
   24170:	4200004c 	andi	r8,r8,1
   24174:	49c04c26 	beq	r9,r7,242a8 <_free_r+0x1b4>
   24178:	1a800317 	ldw	r10,12(r3)
   2417c:	4a800315 	stw	r10,12(r9)
   24180:	52400215 	stw	r9,8(r10)
   24184:	40007126 	beq	r8,zero,2434c <_free_r+0x258>
   24188:	11400054 	ori	r5,r2,1
   2418c:	19400115 	stw	r5,4(r3)
   24190:	30800015 	stw	r2,0(r6)
   24194:	11408028 	cmpgeui	r5,r2,512
   24198:	28002c1e 	bne	r5,zero,2424c <_free_r+0x158>
   2419c:	100ad0fa 	srli	r5,r2,3
   241a0:	100cd17a 	srli	r6,r2,5
   241a4:	00800044 	movi	r2,1
   241a8:	29400044 	addi	r5,r5,1
   241ac:	280a90fa 	slli	r5,r5,3
   241b0:	21c00117 	ldw	r7,4(r4)
   241b4:	1184983a 	sll	r2,r2,r6
   241b8:	214b883a 	add	r5,r4,r5
   241bc:	29800017 	ldw	r6,0(r5)
   241c0:	11c4b03a 	or	r2,r2,r7
   241c4:	29fffe04 	addi	r7,r5,-8
   241c8:	19c00315 	stw	r7,12(r3)
   241cc:	19800215 	stw	r6,8(r3)
   241d0:	20800115 	stw	r2,4(r4)
   241d4:	28c00015 	stw	r3,0(r5)
   241d8:	30c00315 	stw	r3,12(r6)
   241dc:	8809883a 	mov	r4,r17
   241e0:	dfc00217 	ldw	ra,8(sp)
   241e4:	dc400117 	ldw	r17,4(sp)
   241e8:	dc000017 	ldw	r16,0(sp)
   241ec:	dec00304 	addi	sp,sp,12
   241f0:	002d8c01 	jmpi	2d8c0 <__malloc_unlock>
   241f4:	41c00117 	ldw	r7,4(r8)
   241f8:	39c0004c 	andi	r7,r7,1
   241fc:	38000e1e 	bne	r7,zero,24238 <_free_r+0x144>
   24200:	01c000f4 	movhi	r7,3
   24204:	1145883a 	add	r2,r2,r5
   24208:	39c2bd04 	addi	r7,r7,2804
   2420c:	31400217 	ldw	r5,8(r6)
   24210:	12400054 	ori	r9,r2,1
   24214:	1891883a 	add	r8,r3,r2
   24218:	29c05226 	beq	r5,r7,24364 <_free_r+0x270>
   2421c:	31800317 	ldw	r6,12(r6)
   24220:	29800315 	stw	r6,12(r5)
   24224:	31400215 	stw	r5,8(r6)
   24228:	1a400115 	stw	r9,4(r3)
   2422c:	40800015 	stw	r2,0(r8)
   24230:	003fd806 	br	24194 <_free_r+0xa0>
   24234:	f800283a 	ret
   24238:	11400054 	ori	r5,r2,1
   2423c:	817fff15 	stw	r5,-4(r16)
   24240:	30800015 	stw	r2,0(r6)
   24244:	11408028 	cmpgeui	r5,r2,512
   24248:	283fd426 	beq	r5,zero,2419c <_free_r+0xa8>
   2424c:	100ad27a 	srli	r5,r2,9
   24250:	29800168 	cmpgeui	r6,r5,5
   24254:	3000341e 	bne	r6,zero,24328 <_free_r+0x234>
   24258:	100ad1ba 	srli	r5,r2,6
   2425c:	29800e44 	addi	r6,r5,57
   24260:	300c90fa 	slli	r6,r6,3
   24264:	29c00e04 	addi	r7,r5,56
   24268:	218d883a 	add	r6,r4,r6
   2426c:	31400017 	ldw	r5,0(r6)
   24270:	31bffe04 	addi	r6,r6,-8
   24274:	31404226 	beq	r6,r5,24380 <_free_r+0x28c>
   24278:	01ffff04 	movi	r7,-4
   2427c:	29000117 	ldw	r4,4(r5)
   24280:	21c8703a 	and	r4,r4,r7
   24284:	1100022e 	bgeu	r2,r4,24290 <_free_r+0x19c>
   24288:	29400217 	ldw	r5,8(r5)
   2428c:	317ffb1e 	bne	r6,r5,2427c <_free_r+0x188>
   24290:	29800317 	ldw	r6,12(r5)
   24294:	19800315 	stw	r6,12(r3)
   24298:	19400215 	stw	r5,8(r3)
   2429c:	30c00215 	stw	r3,8(r6)
   242a0:	28c00315 	stw	r3,12(r5)
   242a4:	003fcd06 	br	241dc <_free_r+0xe8>
   242a8:	40004d1e 	bne	r8,zero,243e0 <_free_r+0x2ec>
   242ac:	31000317 	ldw	r4,12(r6)
   242b0:	31800217 	ldw	r6,8(r6)
   242b4:	2885883a 	add	r2,r5,r2
   242b8:	11400054 	ori	r5,r2,1
   242bc:	31000315 	stw	r4,12(r6)
   242c0:	21800215 	stw	r6,8(r4)
   242c4:	19400115 	stw	r5,4(r3)
   242c8:	1887883a 	add	r3,r3,r2
   242cc:	18800015 	stw	r2,0(r3)
   242d0:	003fc206 	br	241dc <_free_r+0xe8>
   242d4:	39c0004c 	andi	r7,r7,1
   242d8:	1145883a 	add	r2,r2,r5
   242dc:	3800071e 	bne	r7,zero,242fc <_free_r+0x208>
   242e0:	81fffe17 	ldw	r7,-8(r16)
   242e4:	19c7c83a 	sub	r3,r3,r7
   242e8:	19400317 	ldw	r5,12(r3)
   242ec:	19800217 	ldw	r6,8(r3)
   242f0:	11c5883a 	add	r2,r2,r7
   242f4:	31400315 	stw	r5,12(r6)
   242f8:	29800215 	stw	r6,8(r5)
   242fc:	014000f4 	movhi	r5,3
   24300:	11800054 	ori	r6,r2,1
   24304:	2948ac17 	ldw	r5,8880(r5)
   24308:	19800115 	stw	r6,4(r3)
   2430c:	20c00215 	stw	r3,8(r4)
   24310:	117fb236 	bltu	r2,r5,241dc <_free_r+0xe8>
   24314:	008000f4 	movhi	r2,3
   24318:	114fcd17 	ldw	r5,16180(r2)
   2431c:	8809883a 	mov	r4,r17
   24320:	0023fd80 	call	23fd8 <_malloc_trim_r>
   24324:	003fad06 	br	241dc <_free_r+0xe8>
   24328:	29800568 	cmpgeui	r6,r5,21
   2432c:	30000926 	beq	r6,zero,24354 <_free_r+0x260>
   24330:	29801568 	cmpgeui	r6,r5,85
   24334:	3000191e 	bne	r6,zero,2439c <_free_r+0x2a8>
   24338:	100ad33a 	srli	r5,r2,12
   2433c:	29801bc4 	addi	r6,r5,111
   24340:	300c90fa 	slli	r6,r6,3
   24344:	29c01b84 	addi	r7,r5,110
   24348:	003fc706 	br	24268 <_free_r+0x174>
   2434c:	1145883a 	add	r2,r2,r5
   24350:	003fae06 	br	2420c <_free_r+0x118>
   24354:	29801704 	addi	r6,r5,92
   24358:	300c90fa 	slli	r6,r6,3
   2435c:	29c016c4 	addi	r7,r5,91
   24360:	003fc106 	br	24268 <_free_r+0x174>
   24364:	20c00515 	stw	r3,20(r4)
   24368:	20c00415 	stw	r3,16(r4)
   2436c:	19c00315 	stw	r7,12(r3)
   24370:	19c00215 	stw	r7,8(r3)
   24374:	1a400115 	stw	r9,4(r3)
   24378:	40800015 	stw	r2,0(r8)
   2437c:	003f9706 	br	241dc <_free_r+0xe8>
   24380:	380fd0ba 	srai	r7,r7,2
   24384:	00800044 	movi	r2,1
   24388:	22000117 	ldw	r8,4(r4)
   2438c:	11ce983a 	sll	r7,r2,r7
   24390:	3a0eb03a 	or	r7,r7,r8
   24394:	21c00115 	stw	r7,4(r4)
   24398:	003fbe06 	br	24294 <_free_r+0x1a0>
   2439c:	29805568 	cmpgeui	r6,r5,341
   243a0:	3000051e 	bne	r6,zero,243b8 <_free_r+0x2c4>
   243a4:	100ad3fa 	srli	r5,r2,15
   243a8:	29801e04 	addi	r6,r5,120
   243ac:	300c90fa 	slli	r6,r6,3
   243b0:	29c01dc4 	addi	r7,r5,119
   243b4:	003fac06 	br	24268 <_free_r+0x174>
   243b8:	29415568 	cmpgeui	r5,r5,1365
   243bc:	2800051e 	bne	r5,zero,243d4 <_free_r+0x2e0>
   243c0:	100ad4ba 	srli	r5,r2,18
   243c4:	29801f44 	addi	r6,r5,125
   243c8:	300c90fa 	slli	r6,r6,3
   243cc:	29c01f04 	addi	r7,r5,124
   243d0:	003fa506 	br	24268 <_free_r+0x174>
   243d4:	0180fe04 	movi	r6,1016
   243d8:	01c01f84 	movi	r7,126
   243dc:	003fa206 	br	24268 <_free_r+0x174>
   243e0:	11000054 	ori	r4,r2,1
   243e4:	19000115 	stw	r4,4(r3)
   243e8:	30800015 	stw	r2,0(r6)
   243ec:	003f7b06 	br	241dc <_free_r+0xe8>

000243f0 <_fwalk>:
   243f0:	defffa04 	addi	sp,sp,-24
   243f4:	dd000415 	stw	r20,16(sp)
   243f8:	dcc00315 	stw	r19,12(sp)
   243fc:	dc800215 	stw	r18,8(sp)
   24400:	dfc00515 	stw	ra,20(sp)
   24404:	dc400115 	stw	r17,4(sp)
   24408:	dc000015 	stw	r16,0(sp)
   2440c:	2827883a 	mov	r19,r5
   24410:	2480b804 	addi	r18,r4,736
   24414:	0029883a 	mov	r20,zero
   24418:	94400117 	ldw	r17,4(r18)
   2441c:	94000217 	ldw	r16,8(r18)
   24420:	8c7fffc4 	addi	r17,r17,-1
   24424:	88000d16 	blt	r17,zero,2445c <_fwalk+0x6c>
   24428:	8080030b 	ldhu	r2,12(r16)
   2442c:	8c7fffc4 	addi	r17,r17,-1
   24430:	108000b0 	cmpltui	r2,r2,2
   24434:	1000061e 	bne	r2,zero,24450 <_fwalk+0x60>
   24438:	8080038f 	ldh	r2,14(r16)
   2443c:	8009883a 	mov	r4,r16
   24440:	10bfffe0 	cmpeqi	r2,r2,-1
   24444:	1000021e 	bne	r2,zero,24450 <_fwalk+0x60>
   24448:	983ee83a 	callr	r19
   2444c:	a0a8b03a 	or	r20,r20,r2
   24450:	88bfffd8 	cmpnei	r2,r17,-1
   24454:	84001a04 	addi	r16,r16,104
   24458:	103ff31e 	bne	r2,zero,24428 <_fwalk+0x38>
   2445c:	94800017 	ldw	r18,0(r18)
   24460:	903fed1e 	bne	r18,zero,24418 <_fwalk+0x28>
   24464:	a005883a 	mov	r2,r20
   24468:	dfc00517 	ldw	ra,20(sp)
   2446c:	dd000417 	ldw	r20,16(sp)
   24470:	dcc00317 	ldw	r19,12(sp)
   24474:	dc800217 	ldw	r18,8(sp)
   24478:	dc400117 	ldw	r17,4(sp)
   2447c:	dc000017 	ldw	r16,0(sp)
   24480:	dec00604 	addi	sp,sp,24
   24484:	f800283a 	ret

00024488 <_fwalk_reent>:
   24488:	defff904 	addi	sp,sp,-28
   2448c:	dd400515 	stw	r21,20(sp)
   24490:	dd000415 	stw	r20,16(sp)
   24494:	dcc00315 	stw	r19,12(sp)
   24498:	dc800215 	stw	r18,8(sp)
   2449c:	dfc00615 	stw	ra,24(sp)
   244a0:	dc400115 	stw	r17,4(sp)
   244a4:	dc000015 	stw	r16,0(sp)
   244a8:	202b883a 	mov	r21,r4
   244ac:	2827883a 	mov	r19,r5
   244b0:	2480b804 	addi	r18,r4,736
   244b4:	0029883a 	mov	r20,zero
   244b8:	94400117 	ldw	r17,4(r18)
   244bc:	94000217 	ldw	r16,8(r18)
   244c0:	8c7fffc4 	addi	r17,r17,-1
   244c4:	88000e16 	blt	r17,zero,24500 <_fwalk_reent+0x78>
   244c8:	8080030b 	ldhu	r2,12(r16)
   244cc:	8c7fffc4 	addi	r17,r17,-1
   244d0:	108000b0 	cmpltui	r2,r2,2
   244d4:	1000071e 	bne	r2,zero,244f4 <_fwalk_reent+0x6c>
   244d8:	8080038f 	ldh	r2,14(r16)
   244dc:	800b883a 	mov	r5,r16
   244e0:	a809883a 	mov	r4,r21
   244e4:	10bfffe0 	cmpeqi	r2,r2,-1
   244e8:	1000021e 	bne	r2,zero,244f4 <_fwalk_reent+0x6c>
   244ec:	983ee83a 	callr	r19
   244f0:	a0a8b03a 	or	r20,r20,r2
   244f4:	88bfffd8 	cmpnei	r2,r17,-1
   244f8:	84001a04 	addi	r16,r16,104
   244fc:	103ff21e 	bne	r2,zero,244c8 <_fwalk_reent+0x40>
   24500:	94800017 	ldw	r18,0(r18)
   24504:	903fec1e 	bne	r18,zero,244b8 <_fwalk_reent+0x30>
   24508:	a005883a 	mov	r2,r20
   2450c:	dfc00617 	ldw	ra,24(sp)
   24510:	dd400517 	ldw	r21,20(sp)
   24514:	dd000417 	ldw	r20,16(sp)
   24518:	dcc00317 	ldw	r19,12(sp)
   2451c:	dc800217 	ldw	r18,8(sp)
   24520:	dc400117 	ldw	r17,4(sp)
   24524:	dc000017 	ldw	r16,0(sp)
   24528:	dec00704 	addi	sp,sp,28
   2452c:	f800283a 	ret

00024530 <rshift>:
   24530:	2817d17a 	srai	r11,r5,5
   24534:	21c00417 	ldw	r7,16(r4)
   24538:	59c0220e 	bge	r11,r7,245c4 <rshift+0x94>
   2453c:	381090ba 	slli	r8,r7,2
   24540:	580490ba 	slli	r2,r11,2
   24544:	22400504 	addi	r9,r4,20
   24548:	298007cc 	andi	r6,r5,31
   2454c:	4a11883a 	add	r8,r9,r8
   24550:	4885883a 	add	r2,r9,r2
   24554:	30001e26 	beq	r6,zero,245d0 <rshift+0xa0>
   24558:	10c00017 	ldw	r3,0(r2)
   2455c:	03000804 	movi	r12,32
   24560:	10800104 	addi	r2,r2,4
   24564:	198ad83a 	srl	r5,r3,r6
   24568:	6199c83a 	sub	r12,r12,r6
   2456c:	1200122e 	bgeu	r2,r8,245b8 <rshift+0x88>
   24570:	4815883a 	mov	r10,r9
   24574:	10c00017 	ldw	r3,0(r2)
   24578:	52800104 	addi	r10,r10,4
   2457c:	10800104 	addi	r2,r2,4
   24580:	1b06983a 	sll	r3,r3,r12
   24584:	1946b03a 	or	r3,r3,r5
   24588:	50ffff15 	stw	r3,-4(r10)
   2458c:	10ffff17 	ldw	r3,-4(r2)
   24590:	198ad83a 	srl	r5,r3,r6
   24594:	123ff736 	bltu	r2,r8,24574 <rshift+0x44>
   24598:	3acfc83a 	sub	r7,r7,r11
   2459c:	380e90ba 	slli	r7,r7,2
   245a0:	39ffff04 	addi	r7,r7,-4
   245a4:	49cf883a 	add	r7,r9,r7
   245a8:	39400015 	stw	r5,0(r7)
   245ac:	28001226 	beq	r5,zero,245f8 <rshift+0xc8>
   245b0:	39c00104 	addi	r7,r7,4
   245b4:	00001006 	br	245f8 <rshift+0xc8>
   245b8:	21400515 	stw	r5,20(r4)
   245bc:	480f883a 	mov	r7,r9
   245c0:	283ffb1e 	bne	r5,zero,245b0 <rshift+0x80>
   245c4:	20000415 	stw	zero,16(r4)
   245c8:	20000515 	stw	zero,20(r4)
   245cc:	f800283a 	ret
   245d0:	4807883a 	mov	r3,r9
   245d4:	123ffb2e 	bgeu	r2,r8,245c4 <rshift+0x94>
   245d8:	11400017 	ldw	r5,0(r2)
   245dc:	10800104 	addi	r2,r2,4
   245e0:	18c00104 	addi	r3,r3,4
   245e4:	197fff15 	stw	r5,-4(r3)
   245e8:	123ffb36 	bltu	r2,r8,245d8 <rshift+0xa8>
   245ec:	3acfc83a 	sub	r7,r7,r11
   245f0:	380e90ba 	slli	r7,r7,2
   245f4:	49cf883a 	add	r7,r9,r7
   245f8:	3a45c83a 	sub	r2,r7,r9
   245fc:	1005d0ba 	srai	r2,r2,2
   24600:	20800415 	stw	r2,16(r4)
   24604:	3a7ff026 	beq	r7,r9,245c8 <rshift+0x98>
   24608:	f800283a 	ret

0002460c <__gethex>:
   2460c:	deffec04 	addi	sp,sp,-80
   24610:	008000f4 	movhi	r2,3
   24614:	dc800c15 	stw	r18,48(sp)
   24618:	14803417 	ldw	r18,208(r2)
   2461c:	dd000e15 	stw	r20,56(sp)
   24620:	2029883a 	mov	r20,r4
   24624:	9009883a 	mov	r4,r18
   24628:	dd801015 	stw	r22,64(sp)
   2462c:	dd400f15 	stw	r21,60(sp)
   24630:	dc400b15 	stw	r17,44(sp)
   24634:	282d883a 	mov	r22,r5
   24638:	d9c00915 	stw	r7,36(sp)
   2463c:	dfc01315 	stw	ra,76(sp)
   24640:	df001215 	stw	fp,72(sp)
   24644:	ddc01115 	stw	r23,68(sp)
   24648:	dcc00d15 	stw	r19,52(sp)
   2464c:	dc000a15 	stw	r16,40(sp)
   24650:	dd000015 	stw	r20,0(sp)
   24654:	3023883a 	mov	r17,r6
   24658:	00266f80 	call	266f8 <strlen>
   2465c:	b1c00017 	ldw	r7,0(r22)
   24660:	9089883a 	add	r4,r18,r2
   24664:	213fffc3 	ldbu	r4,-1(r4)
   24668:	102b883a 	mov	r21,r2
   2466c:	38800083 	ldbu	r2,2(r7)
   24670:	d9000205 	stb	r4,8(sp)
   24674:	10c00c18 	cmpnei	r3,r2,48
   24678:	1801661e 	bne	r3,zero,24c14 <__gethex+0x608>
   2467c:	017fff84 	movi	r5,-2
   24680:	38c000c4 	addi	r3,r7,3
   24684:	29cbc83a 	sub	r5,r5,r7
   24688:	18800003 	ldbu	r2,0(r3)
   2468c:	28ef883a 	add	r23,r5,r3
   24690:	1829883a 	mov	r20,r3
   24694:	11000c20 	cmpeqi	r4,r2,48
   24698:	18c00044 	addi	r3,r3,1
   2469c:	203ffa1e 	bne	r4,zero,24688 <__gethex+0x7c>
   246a0:	00c000f4 	movhi	r3,3
   246a4:	10c7883a 	add	r3,r2,r3
   246a8:	18bff303 	ldbu	r2,-52(r3)
   246ac:	1000191e 	bne	r2,zero,24714 <__gethex+0x108>
   246b0:	a80d883a 	mov	r6,r21
   246b4:	900b883a 	mov	r5,r18
   246b8:	a009883a 	mov	r4,r20
   246bc:	00267900 	call	26790 <strncmp>
   246c0:	1000e51e 	bne	r2,zero,24a58 <__gethex+0x44c>
   246c4:	a561883a 	add	r16,r20,r21
   246c8:	80c00003 	ldbu	r3,0(r16)
   246cc:	008000f4 	movhi	r2,3
   246d0:	19003fcc 	andi	r4,r3,255
   246d4:	2085883a 	add	r2,r4,r2
   246d8:	10bff303 	ldbu	r2,-52(r2)
   246dc:	1000e026 	beq	r2,zero,24a60 <__gethex+0x454>
   246e0:	21000c18 	cmpnei	r4,r4,48
   246e4:	8029883a 	mov	r20,r16
   246e8:	2000071e 	bne	r4,zero,24708 <__gethex+0xfc>
   246ec:	a0800043 	ldbu	r2,1(r20)
   246f0:	a5000044 	addi	r20,r20,1
   246f4:	10c00c20 	cmpeqi	r3,r2,48
   246f8:	183ffc1e 	bne	r3,zero,246ec <__gethex+0xe0>
   246fc:	00c000f4 	movhi	r3,3
   24700:	10c7883a 	add	r3,r2,r3
   24704:	18bff303 	ldbu	r2,-52(r3)
   24708:	1013003a 	cmpeq	r9,r2,zero
   2470c:	05c00044 	movi	r23,1
   24710:	00000606 	br	2472c <__gethex+0x120>
   24714:	a0c00003 	ldbu	r3,0(r20)
   24718:	008000f4 	movhi	r2,3
   2471c:	0013883a 	mov	r9,zero
   24720:	1885883a 	add	r2,r3,r2
   24724:	10bff303 	ldbu	r2,-52(r2)
   24728:	0021883a 	mov	r16,zero
   2472c:	a039883a 	mov	fp,r20
   24730:	10000626 	beq	r2,zero,2474c <__gethex+0x140>
   24734:	e0800043 	ldbu	r2,1(fp)
   24738:	00c000f4 	movhi	r3,3
   2473c:	e7000044 	addi	fp,fp,1
   24740:	10c7883a 	add	r3,r2,r3
   24744:	18bff303 	ldbu	r2,-52(r3)
   24748:	103ffa1e 	bne	r2,zero,24734 <__gethex+0x128>
   2474c:	a80d883a 	mov	r6,r21
   24750:	900b883a 	mov	r5,r18
   24754:	e009883a 	mov	r4,fp
   24758:	da400115 	stw	r9,4(sp)
   2475c:	00267900 	call	26790 <strncmp>
   24760:	da400117 	ldw	r9,4(sp)
   24764:	1000031e 	bne	r2,zero,24774 <__gethex+0x168>
   24768:	80012d26 	beq	r16,zero,24c20 <__gethex+0x614>
   2476c:	e0800003 	ldbu	r2,0(fp)
   24770:	00000206 	br	2477c <__gethex+0x170>
   24774:	e0800003 	ldbu	r2,0(fp)
   24778:	8000de26 	beq	r16,zero,24af4 <__gethex+0x4e8>
   2477c:	8721c83a 	sub	r16,r16,fp
   24780:	802690ba 	slli	r19,r16,2
   24784:	108037cc 	andi	r2,r2,223
   24788:	10801418 	cmpnei	r2,r2,80
   2478c:	e021883a 	mov	r16,fp
   24790:	10006a26 	beq	r2,zero,2493c <__gethex+0x330>
   24794:	b7000015 	stw	fp,0(r22)
   24798:	4800831e 	bne	r9,zero,249a8 <__gethex+0x39c>
   2479c:	8505c83a 	sub	r2,r16,r20
   247a0:	10bfffc4 	addi	r2,r2,-1
   247a4:	10c00210 	cmplti	r3,r2,8
   247a8:	000b883a 	mov	r5,zero
   247ac:	1800041e 	bne	r3,zero,247c0 <__gethex+0x1b4>
   247b0:	1005d07a 	srai	r2,r2,1
   247b4:	29400044 	addi	r5,r5,1
   247b8:	10c00208 	cmpgei	r3,r2,8
   247bc:	183ffc1e 	bne	r3,zero,247b0 <__gethex+0x1a4>
   247c0:	d9000017 	ldw	r4,0(sp)
   247c4:	00254a40 	call	254a4 <_Balloc>
   247c8:	102d883a 	mov	r22,r2
   247cc:	10019226 	beq	r2,zero,24e18 <__gethex+0x80c>
   247d0:	12400504 	addi	r9,r2,20
   247d4:	da400115 	stw	r9,4(sp)
   247d8:	a4013d2e 	bgeu	r20,r16,24cd0 <__gethex+0x6c4>
   247dc:	dac00203 	ldbu	r11,8(sp)
   247e0:	03000044 	movi	r12,1
   247e4:	0039883a 	mov	fp,zero
   247e8:	0011883a 	mov	r8,zero
   247ec:	6559c83a 	sub	r12,r12,r21
   247f0:	83bfffc3 	ldbu	r14,-1(r16)
   247f4:	837fffc4 	addi	r13,r16,-1
   247f8:	4dc00104 	addi	r23,r9,4
   247fc:	72c02d26 	beq	r14,r11,248b4 <__gethex+0x2a8>
   24800:	e0800820 	cmpeqi	r2,fp,32
   24804:	1000421e 	bne	r2,zero,24910 <__gethex+0x304>
   24808:	e009883a 	mov	r4,fp
   2480c:	e7000104 	addi	fp,fp,4
   24810:	008000f4 	movhi	r2,3
   24814:	7085883a 	add	r2,r14,r2
   24818:	10fff303 	ldbu	r3,-52(r2)
   2481c:	6821883a 	mov	r16,r13
   24820:	18c003cc 	andi	r3,r3,15
   24824:	1906983a 	sll	r3,r3,r4
   24828:	40d0b03a 	or	r8,r8,r3
   2482c:	a43ff036 	bltu	r20,r16,247f0 <__gethex+0x1e4>
   24830:	d8800117 	ldw	r2,4(sp)
   24834:	4a000015 	stw	r8,0(r9)
   24838:	4009883a 	mov	r4,r8
   2483c:	b8afc83a 	sub	r23,r23,r2
   24840:	b82fd0ba 	srai	r23,r23,2
   24844:	b820917a 	slli	r16,r23,5
   24848:	b5c00415 	stw	r23,16(r22)
   2484c:	00258000 	call	25800 <__hi0bits>
   24850:	8c800017 	ldw	r18,0(r17)
   24854:	8085c83a 	sub	r2,r16,r2
   24858:	90808d16 	blt	r18,r2,24a90 <__gethex+0x484>
   2485c:	1480e216 	blt	r2,r18,24be8 <__gethex+0x5dc>
   24860:	002f883a 	mov	r23,zero
   24864:	88800217 	ldw	r2,8(r17)
   24868:	14c11016 	blt	r2,r19,24cac <__gethex+0x6a0>
   2486c:	88800117 	ldw	r2,4(r17)
   24870:	98805e0e 	bge	r19,r2,249ec <__gethex+0x3e0>
   24874:	14e7c83a 	sub	r19,r2,r19
   24878:	9c80a216 	blt	r19,r18,24b04 <__gethex+0x4f8>
   2487c:	88c00317 	ldw	r3,12(r17)
   24880:	190000a0 	cmpeqi	r4,r3,2
   24884:	2001381e 	bne	r4,zero,24d68 <__gethex+0x75c>
   24888:	190000e0 	cmpeqi	r4,r3,3
   2488c:	2001331e 	bne	r4,zero,24d5c <__gethex+0x750>
   24890:	18c00058 	cmpnei	r3,r3,1
   24894:	18011f26 	beq	r3,zero,24d14 <__gethex+0x708>
   24898:	d9000017 	ldw	r4,0(sp)
   2489c:	b00b883a 	mov	r5,r22
   248a0:	04001404 	movi	r16,80
   248a4:	00255480 	call	25548 <_Bfree>
   248a8:	d8801417 	ldw	r2,80(sp)
   248ac:	10000015 	stw	zero,0(r2)
   248b0:	00005c06 	br	24a24 <__gethex+0x418>
   248b4:	6b09883a 	add	r4,r13,r12
   248b8:	253fd136 	bltu	r4,r20,24800 <__gethex+0x1f4>
   248bc:	a80d883a 	mov	r6,r21
   248c0:	900b883a 	mov	r5,r18
   248c4:	db000815 	stw	r12,32(sp)
   248c8:	db800715 	stw	r14,28(sp)
   248cc:	dac00615 	stw	r11,24(sp)
   248d0:	db400515 	stw	r13,20(sp)
   248d4:	da000415 	stw	r8,16(sp)
   248d8:	da400315 	stw	r9,12(sp)
   248dc:	d9000215 	stw	r4,8(sp)
   248e0:	00267900 	call	26790 <strncmp>
   248e4:	d9000217 	ldw	r4,8(sp)
   248e8:	da400317 	ldw	r9,12(sp)
   248ec:	da000417 	ldw	r8,16(sp)
   248f0:	db400517 	ldw	r13,20(sp)
   248f4:	dac00617 	ldw	r11,24(sp)
   248f8:	db800717 	ldw	r14,28(sp)
   248fc:	db000817 	ldw	r12,32(sp)
   24900:	103fbf1e 	bne	r2,zero,24800 <__gethex+0x1f4>
   24904:	2021883a 	mov	r16,r4
   24908:	a43fb936 	bltu	r20,r16,247f0 <__gethex+0x1e4>
   2490c:	003fc806 	br	24830 <__gethex+0x224>
   24910:	4a000015 	stw	r8,0(r9)
   24914:	48800204 	addi	r2,r9,8
   24918:	83bfffc3 	ldbu	r14,-1(r16)
   2491c:	b813883a 	mov	r9,r23
   24920:	0009883a 	mov	r4,zero
   24924:	07000104 	movi	fp,4
   24928:	102f883a 	mov	r23,r2
   2492c:	0011883a 	mov	r8,zero
   24930:	003fb706 	br	24810 <__gethex+0x204>
   24934:	0027883a 	mov	r19,zero
   24938:	02400044 	movi	r9,1
   2493c:	80800043 	ldbu	r2,1(r16)
   24940:	10c00ae0 	cmpeqi	r3,r2,43
   24944:	1800a61e 	bne	r3,zero,24be0 <__gethex+0x5d4>
   24948:	10c00b60 	cmpeqi	r3,r2,45
   2494c:	18004c1e 	bne	r3,zero,24a80 <__gethex+0x474>
   24950:	87000044 	addi	fp,r16,1
   24954:	0015883a 	mov	r10,zero
   24958:	00c000f4 	movhi	r3,3
   2495c:	10c7883a 	add	r3,r2,r3
   24960:	18bff303 	ldbu	r2,-52(r3)
   24964:	10ffffc4 	addi	r3,r2,-1
   24968:	18c03fcc 	andi	r3,r3,255
   2496c:	18c00668 	cmpgeui	r3,r3,25
   24970:	1800411e 	bne	r3,zero,24a78 <__gethex+0x46c>
   24974:	e1000043 	ldbu	r4,1(fp)
   24978:	00c000f4 	movhi	r3,3
   2497c:	10803fcc 	andi	r2,r2,255
   24980:	20c7883a 	add	r3,r4,r3
   24984:	193ff303 	ldbu	r4,-52(r3)
   24988:	e7000044 	addi	fp,fp,1
   2498c:	10fffc04 	addi	r3,r2,-16
   24990:	2000131e 	bne	r4,zero,249e0 <__gethex+0x3d4>
   24994:	50000126 	beq	r10,zero,2499c <__gethex+0x390>
   24998:	00c7c83a 	sub	r3,zero,r3
   2499c:	b7000015 	stw	fp,0(r22)
   249a0:	98e7883a 	add	r19,r19,r3
   249a4:	483f7d26 	beq	r9,zero,2479c <__gethex+0x190>
   249a8:	b8005426 	beq	r23,zero,24afc <__gethex+0x4f0>
   249ac:	0021883a 	mov	r16,zero
   249b0:	00001c06 	br	24a24 <__gethex+0x418>
   249b4:	180490ba 	slli	r2,r3,2
   249b8:	e2c00043 	ldbu	r11,1(fp)
   249bc:	014000f4 	movhi	r5,3
   249c0:	10c5883a 	add	r2,r2,r3
   249c4:	1085883a 	add	r2,r2,r2
   249c8:	594b883a 	add	r5,r11,r5
   249cc:	1105883a 	add	r2,r2,r4
   249d0:	293ff303 	ldbu	r4,-52(r5)
   249d4:	e7000044 	addi	fp,fp,1
   249d8:	10fffc04 	addi	r3,r2,-16
   249dc:	203fed26 	beq	r4,zero,24994 <__gethex+0x388>
   249e0:	20800690 	cmplti	r2,r4,26
   249e4:	103ff31e 	bne	r2,zero,249b4 <__gethex+0x3a8>
   249e8:	003fea06 	br	24994 <__gethex+0x388>
   249ec:	04000044 	movi	r16,1
   249f0:	b8000826 	beq	r23,zero,24a14 <__gethex+0x408>
   249f4:	88800317 	ldw	r2,12(r17)
   249f8:	10c000a0 	cmpeqi	r3,r2,2
   249fc:	1800561e 	bne	r3,zero,24b58 <__gethex+0x54c>
   24a00:	10c000e0 	cmpeqi	r3,r2,3
   24a04:	1800581e 	bne	r3,zero,24b68 <__gethex+0x55c>
   24a08:	10800058 	cmpnei	r2,r2,1
   24a0c:	10006c26 	beq	r2,zero,24bc0 <__gethex+0x5b4>
   24a10:	84000414 	ori	r16,r16,16
   24a14:	d8801417 	ldw	r2,80(sp)
   24a18:	15800015 	stw	r22,0(r2)
   24a1c:	d8800917 	ldw	r2,36(sp)
   24a20:	14c00015 	stw	r19,0(r2)
   24a24:	8005883a 	mov	r2,r16
   24a28:	dfc01317 	ldw	ra,76(sp)
   24a2c:	df001217 	ldw	fp,72(sp)
   24a30:	ddc01117 	ldw	r23,68(sp)
   24a34:	dd801017 	ldw	r22,64(sp)
   24a38:	dd400f17 	ldw	r21,60(sp)
   24a3c:	dd000e17 	ldw	r20,56(sp)
   24a40:	dcc00d17 	ldw	r19,52(sp)
   24a44:	dc800c17 	ldw	r18,48(sp)
   24a48:	dc400b17 	ldw	r17,44(sp)
   24a4c:	dc000a17 	ldw	r16,40(sp)
   24a50:	dec01404 	addi	sp,sp,80
   24a54:	f800283a 	ret
   24a58:	a0c00003 	ldbu	r3,0(r20)
   24a5c:	a021883a 	mov	r16,r20
   24a60:	18c037cc 	andi	r3,r3,223
   24a64:	18c01420 	cmpeqi	r3,r3,80
   24a68:	183fb21e 	bne	r3,zero,24934 <__gethex+0x328>
   24a6c:	b4000015 	stw	r16,0(r22)
   24a70:	b83fce1e 	bne	r23,zero,249ac <__gethex+0x3a0>
   24a74:	00002106 	br	24afc <__gethex+0x4f0>
   24a78:	8039883a 	mov	fp,r16
   24a7c:	003f4506 	br	24794 <__gethex+0x188>
   24a80:	02800044 	movi	r10,1
   24a84:	80800083 	ldbu	r2,2(r16)
   24a88:	87000084 	addi	fp,r16,2
   24a8c:	003fb206 	br	24958 <__gethex+0x34c>
   24a90:	14a1c83a 	sub	r16,r2,r18
   24a94:	800b883a 	mov	r5,r16
   24a98:	b009883a 	mov	r4,r22
   24a9c:	002657c0 	call	2657c <__any_on>
   24aa0:	102f883a 	mov	r23,r2
   24aa4:	10000e26 	beq	r2,zero,24ae0 <__gethex+0x4d4>
   24aa8:	813fffc4 	addi	r4,r16,-1
   24aac:	2007d17a 	srai	r3,r4,5
   24ab0:	214007cc 	andi	r5,r4,31
   24ab4:	00800044 	movi	r2,1
   24ab8:	1144983a 	sll	r2,r2,r5
   24abc:	180690ba 	slli	r3,r3,2
   24ac0:	d9400117 	ldw	r5,4(sp)
   24ac4:	28c7883a 	add	r3,r5,r3
   24ac8:	18c00017 	ldw	r3,0(r3)
   24acc:	10c4703a 	and	r2,r2,r3
   24ad0:	10008326 	beq	r2,zero,24ce0 <__gethex+0x6d4>
   24ad4:	21000090 	cmplti	r4,r4,2
   24ad8:	20008826 	beq	r4,zero,24cfc <__gethex+0x6f0>
   24adc:	05c00084 	movi	r23,2
   24ae0:	800b883a 	mov	r5,r16
   24ae4:	b009883a 	mov	r4,r22
   24ae8:	00245300 	call	24530 <rshift>
   24aec:	9c27883a 	add	r19,r19,r16
   24af0:	003f5c06 	br	24864 <__gethex+0x258>
   24af4:	0027883a 	mov	r19,zero
   24af8:	003f2206 	br	24784 <__gethex+0x178>
   24afc:	04000184 	movi	r16,6
   24b00:	003fc806 	br	24a24 <__gethex+0x418>
   24b04:	9c3fffc4 	addi	r16,r19,-1
   24b08:	b8006f1e 	bne	r23,zero,24cc8 <__gethex+0x6bc>
   24b0c:	8000761e 	bne	r16,zero,24ce8 <__gethex+0x6dc>
   24b10:	8007d17a 	srai	r3,r16,5
   24b14:	d9000117 	ldw	r4,4(sp)
   24b18:	840007cc 	andi	r16,r16,31
   24b1c:	180690ba 	slli	r3,r3,2
   24b20:	00800044 	movi	r2,1
   24b24:	1404983a 	sll	r2,r2,r16
   24b28:	20c7883a 	add	r3,r4,r3
   24b2c:	18c00017 	ldw	r3,0(r3)
   24b30:	10c4703a 	and	r2,r2,r3
   24b34:	10000126 	beq	r2,zero,24b3c <__gethex+0x530>
   24b38:	bdc00094 	ori	r23,r23,2
   24b3c:	980b883a 	mov	r5,r19
   24b40:	b009883a 	mov	r4,r22
   24b44:	00245300 	call	24530 <rshift>
   24b48:	94e5c83a 	sub	r18,r18,r19
   24b4c:	04000084 	movi	r16,2
   24b50:	8cc00117 	ldw	r19,4(r17)
   24b54:	003fa606 	br	249f0 <__gethex+0x3e4>
   24b58:	d8c01517 	ldw	r3,84(sp)
   24b5c:	00800044 	movi	r2,1
   24b60:	10c5c83a 	sub	r2,r2,r3
   24b64:	d8801515 	stw	r2,84(sp)
   24b68:	d8801517 	ldw	r2,84(sp)
   24b6c:	103fa826 	beq	r2,zero,24a10 <__gethex+0x404>
   24b70:	b5c00417 	ldw	r23,16(r22)
   24b74:	d9800117 	ldw	r6,4(sp)
   24b78:	b83890ba 	slli	fp,r23,2
   24b7c:	3005883a 	mov	r2,r6
   24b80:	370b883a 	add	r5,r6,fp
   24b84:	00000306 	br	24b94 <__gethex+0x588>
   24b88:	10800104 	addi	r2,r2,4
   24b8c:	103fff15 	stw	zero,-4(r2)
   24b90:	1140332e 	bgeu	r2,r5,24c60 <__gethex+0x654>
   24b94:	10c00017 	ldw	r3,0(r2)
   24b98:	193fffe0 	cmpeqi	r4,r3,-1
   24b9c:	203ffa1e 	bne	r4,zero,24b88 <__gethex+0x57c>
   24ba0:	18c00044 	addi	r3,r3,1
   24ba4:	10c00015 	stw	r3,0(r2)
   24ba8:	840000a0 	cmpeqi	r16,r16,2
   24bac:	8000711e 	bne	r16,zero,24d74 <__gethex+0x768>
   24bb0:	948007cc 	andi	r18,r18,31
   24bb4:	9000871e 	bne	r18,zero,24dd4 <__gethex+0x7c8>
   24bb8:	04000844 	movi	r16,33
   24bbc:	003f9506 	br	24a14 <__gethex+0x408>
   24bc0:	b880008c 	andi	r2,r23,2
   24bc4:	103f9226 	beq	r2,zero,24a10 <__gethex+0x404>
   24bc8:	d8800117 	ldw	r2,4(sp)
   24bcc:	10800017 	ldw	r2,0(r2)
   24bd0:	b884b03a 	or	r2,r23,r2
   24bd4:	1080004c 	andi	r2,r2,1
   24bd8:	103fe51e 	bne	r2,zero,24b70 <__gethex+0x564>
   24bdc:	003f8c06 	br	24a10 <__gethex+0x404>
   24be0:	0015883a 	mov	r10,zero
   24be4:	003fa706 	br	24a84 <__gethex+0x478>
   24be8:	d9000017 	ldw	r4,0(sp)
   24bec:	90a1c83a 	sub	r16,r18,r2
   24bf0:	b00b883a 	mov	r5,r22
   24bf4:	800d883a 	mov	r6,r16
   24bf8:	0025d2c0 	call	25d2c <__lshift>
   24bfc:	102d883a 	mov	r22,r2
   24c00:	10800504 	addi	r2,r2,20
   24c04:	9c27c83a 	sub	r19,r19,r16
   24c08:	d8800115 	stw	r2,4(sp)
   24c0c:	002f883a 	mov	r23,zero
   24c10:	003f1406 	br	24864 <__gethex+0x258>
   24c14:	3d000084 	addi	r20,r7,2
   24c18:	002f883a 	mov	r23,zero
   24c1c:	003ea006 	br	246a0 <__gethex+0x94>
   24c20:	e561883a 	add	r16,fp,r21
   24c24:	80800003 	ldbu	r2,0(r16)
   24c28:	00c000f4 	movhi	r3,3
   24c2c:	8039883a 	mov	fp,r16
   24c30:	11003fcc 	andi	r4,r2,255
   24c34:	20c7883a 	add	r3,r4,r3
   24c38:	18fff303 	ldbu	r3,-52(r3)
   24c3c:	183ece26 	beq	r3,zero,24778 <__gethex+0x16c>
   24c40:	e0800043 	ldbu	r2,1(fp)
   24c44:	00c000f4 	movhi	r3,3
   24c48:	e7000044 	addi	fp,fp,1
   24c4c:	11003fcc 	andi	r4,r2,255
   24c50:	20c7883a 	add	r3,r4,r3
   24c54:	18fff303 	ldbu	r3,-52(r3)
   24c58:	183ff91e 	bne	r3,zero,24c40 <__gethex+0x634>
   24c5c:	003ec606 	br	24778 <__gethex+0x16c>
   24c60:	b0800217 	ldw	r2,8(r22)
   24c64:	b880480e 	bge	r23,r2,24d88 <__gethex+0x77c>
   24c68:	b807883a 	mov	r3,r23
   24c6c:	18800144 	addi	r2,r3,5
   24c70:	100490ba 	slli	r2,r2,2
   24c74:	18c00044 	addi	r3,r3,1
   24c78:	b0c00415 	stw	r3,16(r22)
   24c7c:	b085883a 	add	r2,r22,r2
   24c80:	01000044 	movi	r4,1
   24c84:	11000015 	stw	r4,0(r2)
   24c88:	84000098 	cmpnei	r16,r16,2
   24c8c:	80003926 	beq	r16,zero,24d74 <__gethex+0x768>
   24c90:	b8ffc70e 	bge	r23,r3,24bb0 <__gethex+0x5a4>
   24c94:	01400044 	movi	r5,1
   24c98:	b009883a 	mov	r4,r22
   24c9c:	00245300 	call	24530 <rshift>
   24ca0:	88800217 	ldw	r2,8(r17)
   24ca4:	9cc00044 	addi	r19,r19,1
   24ca8:	14ffc30e 	bge	r2,r19,24bb8 <__gethex+0x5ac>
   24cac:	d9000017 	ldw	r4,0(sp)
   24cb0:	b00b883a 	mov	r5,r22
   24cb4:	040028c4 	movi	r16,163
   24cb8:	00255480 	call	25548 <_Bfree>
   24cbc:	d8801417 	ldw	r2,80(sp)
   24cc0:	10000015 	stw	zero,0(r2)
   24cc4:	003f5706 	br	24a24 <__gethex+0x418>
   24cc8:	05c00044 	movi	r23,1
   24ccc:	003f9006 	br	24b10 <__gethex+0x504>
   24cd0:	da400117 	ldw	r9,4(sp)
   24cd4:	15c00604 	addi	r23,r2,24
   24cd8:	0011883a 	mov	r8,zero
   24cdc:	003ed406 	br	24830 <__gethex+0x224>
   24ce0:	05c00044 	movi	r23,1
   24ce4:	003f7e06 	br	24ae0 <__gethex+0x4d4>
   24ce8:	800b883a 	mov	r5,r16
   24cec:	b009883a 	mov	r4,r22
   24cf0:	002657c0 	call	2657c <__any_on>
   24cf4:	102f883a 	mov	r23,r2
   24cf8:	003f8506 	br	24b10 <__gethex+0x504>
   24cfc:	817fff84 	addi	r5,r16,-2
   24d00:	b009883a 	mov	r4,r22
   24d04:	002657c0 	call	2657c <__any_on>
   24d08:	103f7426 	beq	r2,zero,24adc <__gethex+0x4d0>
   24d0c:	05c000c4 	movi	r23,3
   24d10:	003f7306 	br	24ae0 <__gethex+0x4d4>
   24d14:	94fee01e 	bne	r18,r19,24898 <__gethex+0x28c>
   24d18:	90c00060 	cmpeqi	r3,r18,1
   24d1c:	1800051e 	bne	r3,zero,24d34 <__gethex+0x728>
   24d20:	917fffc4 	addi	r5,r18,-1
   24d24:	b009883a 	mov	r4,r22
   24d28:	002657c0 	call	2657c <__any_on>
   24d2c:	103eda26 	beq	r2,zero,24898 <__gethex+0x28c>
   24d30:	88800117 	ldw	r2,4(r17)
   24d34:	d8c00917 	ldw	r3,36(sp)
   24d38:	04001884 	movi	r16,98
   24d3c:	18800015 	stw	r2,0(r3)
   24d40:	d8c00117 	ldw	r3,4(sp)
   24d44:	00800044 	movi	r2,1
   24d48:	b0800415 	stw	r2,16(r22)
   24d4c:	18800015 	stw	r2,0(r3)
   24d50:	d8801417 	ldw	r2,80(sp)
   24d54:	15800015 	stw	r22,0(r2)
   24d58:	003f3206 	br	24a24 <__gethex+0x418>
   24d5c:	d8c01517 	ldw	r3,84(sp)
   24d60:	183ecd26 	beq	r3,zero,24898 <__gethex+0x28c>
   24d64:	003ff306 	br	24d34 <__gethex+0x728>
   24d68:	d8c01517 	ldw	r3,84(sp)
   24d6c:	183eca1e 	bne	r3,zero,24898 <__gethex+0x28c>
   24d70:	003ff006 	br	24d34 <__gethex+0x728>
   24d74:	88800017 	ldw	r2,0(r17)
   24d78:	10bfffc4 	addi	r2,r2,-1
   24d7c:	14801c26 	beq	r2,r18,24df0 <__gethex+0x7e4>
   24d80:	04000884 	movi	r16,34
   24d84:	003f2306 	br	24a14 <__gethex+0x408>
   24d88:	b1400117 	ldw	r5,4(r22)
   24d8c:	d9000017 	ldw	r4,0(sp)
   24d90:	29400044 	addi	r5,r5,1
   24d94:	00254a40 	call	254a4 <_Balloc>
   24d98:	1029883a 	mov	r20,r2
   24d9c:	10002526 	beq	r2,zero,24e34 <__gethex+0x828>
   24da0:	b1800417 	ldw	r6,16(r22)
   24da4:	b1400304 	addi	r5,r22,12
   24da8:	11000304 	addi	r4,r2,12
   24dac:	31800084 	addi	r6,r6,2
   24db0:	300c90ba 	slli	r6,r6,2
   24db4:	00252b40 	call	252b4 <memcpy>
   24db8:	d9000017 	ldw	r4,0(sp)
   24dbc:	b00b883a 	mov	r5,r22
   24dc0:	a02d883a 	mov	r22,r20
   24dc4:	00255480 	call	25548 <_Bfree>
   24dc8:	a0c00417 	ldw	r3,16(r20)
   24dcc:	a1800504 	addi	r6,r20,20
   24dd0:	003fa606 	br	24c6c <__gethex+0x660>
   24dd4:	3705883a 	add	r2,r6,fp
   24dd8:	113fff17 	ldw	r4,-4(r2)
   24ddc:	00258000 	call	25800 <__hi0bits>
   24de0:	00c00804 	movi	r3,32
   24de4:	1ca5c83a 	sub	r18,r3,r18
   24de8:	14bf730e 	bge	r2,r18,24bb8 <__gethex+0x5ac>
   24dec:	003fa906 	br	24c94 <__gethex+0x688>
   24df0:	9007d17a 	srai	r3,r18,5
   24df4:	00800044 	movi	r2,1
   24df8:	948007cc 	andi	r18,r18,31
   24dfc:	180690ba 	slli	r3,r3,2
   24e00:	1484983a 	sll	r2,r2,r18
   24e04:	30c7883a 	add	r3,r6,r3
   24e08:	18c00017 	ldw	r3,0(r3)
   24e0c:	10c4703a 	and	r2,r2,r3
   24e10:	103fdb26 	beq	r2,zero,24d80 <__gethex+0x774>
   24e14:	003f6806 	br	24bb8 <__gethex+0x5ac>
   24e18:	01c000f4 	movhi	r7,3
   24e1c:	010000f4 	movhi	r4,3
   24e20:	39ffdc04 	addi	r7,r7,-144
   24e24:	000d883a 	mov	r6,zero
   24e28:	01403784 	movi	r5,222
   24e2c:	213fe104 	addi	r4,r4,-124
   24e30:	00268900 	call	26890 <__assert_func>
   24e34:	01c000f4 	movhi	r7,3
   24e38:	010000f4 	movhi	r4,3
   24e3c:	39ffdc04 	addi	r7,r7,-144
   24e40:	000d883a 	mov	r6,zero
   24e44:	01402104 	movi	r5,132
   24e48:	213fe104 	addi	r4,r4,-124
   24e4c:	00268900 	call	26890 <__assert_func>

00024e50 <__match>:
   24e50:	21800017 	ldw	r6,0(r4)
   24e54:	29c00007 	ldb	r7,0(r5)
   24e58:	31800044 	addi	r6,r6,1
   24e5c:	29400044 	addi	r5,r5,1
   24e60:	38000c26 	beq	r7,zero,24e94 <__match+0x44>
   24e64:	30c00003 	ldbu	r3,0(r6)
   24e68:	18bfefc4 	addi	r2,r3,-65
   24e6c:	10803fcc 	andi	r2,r2,255
   24e70:	18c03fcc 	andi	r3,r3,255
   24e74:	18c0201c 	xori	r3,r3,128
   24e78:	108006a8 	cmpgeui	r2,r2,26
   24e7c:	18ffe004 	addi	r3,r3,-128
   24e80:	1000011e 	bne	r2,zero,24e88 <__match+0x38>
   24e84:	18c00804 	addi	r3,r3,32
   24e88:	19fff226 	beq	r3,r7,24e54 <__match+0x4>
   24e8c:	0005883a 	mov	r2,zero
   24e90:	f800283a 	ret
   24e94:	21800015 	stw	r6,0(r4)
   24e98:	00800044 	movi	r2,1
   24e9c:	f800283a 	ret

00024ea0 <__hexnan>:
   24ea0:	2bc00017 	ldw	r15,0(r5)
   24ea4:	7805d17a 	srai	r2,r15,5
   24ea8:	7bc007cc 	andi	r15,r15,31
   24eac:	100490ba 	slli	r2,r2,2
   24eb0:	3085883a 	add	r2,r6,r2
   24eb4:	7800661e 	bne	r15,zero,25050 <__hexnan+0x1b0>
   24eb8:	127fff04 	addi	r9,r2,-4
   24ebc:	1019883a 	mov	r12,r2
   24ec0:	21c00017 	ldw	r7,0(r4)
   24ec4:	603fff15 	stw	zero,-4(r12)
   24ec8:	39400043 	ldbu	r5,1(r7)
   24ecc:	28008c26 	beq	r5,zero,25100 <__hexnan+0x260>
   24ed0:	defffc04 	addi	sp,sp,-16
   24ed4:	dfc00315 	stw	ra,12(sp)
   24ed8:	dc000015 	stw	r16,0(sp)
   24edc:	dc800215 	stw	r18,8(sp)
   24ee0:	dc400115 	stw	r17,4(sp)
   24ee4:	481b883a 	mov	r13,r9
   24ee8:	4807883a 	mov	r3,r9
   24eec:	0011883a 	mov	r8,zero
   24ef0:	001d883a 	mov	r14,zero
   24ef4:	0017883a 	mov	r11,zero
   24ef8:	04000204 	movi	r16,8
   24efc:	07c00804 	movi	ra,32
   24f00:	008000f4 	movhi	r2,3
   24f04:	2885883a 	add	r2,r5,r2
   24f08:	10bff303 	ldbu	r2,-52(r2)
   24f0c:	12803fcc 	andi	r10,r2,255
   24f10:	5000391e 	bne	r10,zero,24ff8 <__hexnan+0x158>
   24f14:	28800868 	cmpgeui	r2,r5,33
   24f18:	1000671e 	bne	r2,zero,250b8 <__hexnan+0x218>
   24f1c:	72c0050e 	bge	r14,r11,24f34 <__hexnan+0x94>
   24f20:	1b40022e 	bgeu	r3,r13,24f2c <__hexnan+0x8c>
   24f24:	40800208 	cmpgei	r2,r8,8
   24f28:	10004c26 	beq	r2,zero,2505c <__hexnan+0x1bc>
   24f2c:	30c04236 	bltu	r6,r3,25038 <__hexnan+0x198>
   24f30:	02000204 	movi	r8,8
   24f34:	39400083 	ldbu	r5,2(r7)
   24f38:	39c00044 	addi	r7,r7,1
   24f3c:	283ff01e 	bne	r5,zero,24f00 <__hexnan+0x60>
   24f40:	58005f26 	beq	r11,zero,250c0 <__hexnan+0x220>
   24f44:	1b40112e 	bgeu	r3,r13,24f8c <__hexnan+0xec>
   24f48:	40800208 	cmpgei	r2,r8,8
   24f4c:	10000f1e 	bne	r2,zero,24f8c <__hexnan+0xec>
   24f50:	00800204 	movi	r2,8
   24f54:	1211c83a 	sub	r8,r2,r8
   24f58:	401090ba 	slli	r8,r8,2
   24f5c:	19400017 	ldw	r5,0(r3)
   24f60:	02800804 	movi	r10,32
   24f64:	5215c83a 	sub	r10,r10,r8
   24f68:	1805883a 	mov	r2,r3
   24f6c:	11c00117 	ldw	r7,4(r2)
   24f70:	10800104 	addi	r2,r2,4
   24f74:	3a88983a 	sll	r4,r7,r10
   24f78:	2148b03a 	or	r4,r4,r5
   24f7c:	3a0ad83a 	srl	r5,r7,r8
   24f80:	113fff15 	stw	r4,-4(r2)
   24f84:	11400015 	stw	r5,0(r2)
   24f88:	137ff836 	bltu	r2,r13,24f6c <__hexnan+0xcc>
   24f8c:	30c0412e 	bgeu	r6,r3,25094 <__hexnan+0x1f4>
   24f90:	3009883a 	mov	r4,r6
   24f94:	1805883a 	mov	r2,r3
   24f98:	11400017 	ldw	r5,0(r2)
   24f9c:	10800104 	addi	r2,r2,4
   24fa0:	21000104 	addi	r4,r4,4
   24fa4:	217fff15 	stw	r5,-4(r4)
   24fa8:	48bffb2e 	bgeu	r9,r2,24f98 <__hexnan+0xf8>
   24fac:	48800044 	addi	r2,r9,1
   24fb0:	19000044 	addi	r4,r3,1
   24fb4:	11005036 	bltu	r2,r4,250f8 <__hexnan+0x258>
   24fb8:	48c5c83a 	sub	r2,r9,r3
   24fbc:	1004d0ba 	srli	r2,r2,2
   24fc0:	10800044 	addi	r2,r2,1
   24fc4:	100490ba 	slli	r2,r2,2
   24fc8:	3085883a 	add	r2,r6,r2
   24fcc:	10800104 	addi	r2,r2,4
   24fd0:	103fff15 	stw	zero,-4(r2)
   24fd4:	48bffd2e 	bgeu	r9,r2,24fcc <__hexnan+0x12c>
   24fd8:	60bfff17 	ldw	r2,-4(r12)
   24fdc:	1000041e 	bne	r2,zero,24ff0 <__hexnan+0x150>
   24fe0:	32403e26 	beq	r6,r9,250dc <__hexnan+0x23c>
   24fe4:	48bfff17 	ldw	r2,-4(r9)
   24fe8:	4a7fff04 	addi	r9,r9,-4
   24fec:	103ffc26 	beq	r2,zero,24fe0 <__hexnan+0x140>
   24ff0:	00800144 	movi	r2,5
   24ff4:	00003306 	br	250c4 <__hexnan+0x224>
   24ff8:	42000044 	addi	r8,r8,1
   24ffc:	41400248 	cmpgei	r5,r8,9
   25000:	5ac00044 	addi	r11,r11,1
   25004:	2800061e 	bne	r5,zero,25020 <__hexnan+0x180>
   25008:	19400017 	ldw	r5,0(r3)
   2500c:	280a913a 	slli	r5,r5,4
   25010:	108003cc 	andi	r2,r2,15
   25014:	1144b03a 	or	r2,r2,r5
   25018:	18800015 	stw	r2,0(r3)
   2501c:	003fc506 	br	24f34 <__hexnan+0x94>
   25020:	30ffc42e 	bgeu	r6,r3,24f34 <__hexnan+0x94>
   25024:	183fff15 	stw	zero,-4(r3)
   25028:	000b883a 	mov	r5,zero
   2502c:	18ffff04 	addi	r3,r3,-4
   25030:	02000044 	movi	r8,1
   25034:	003ff606 	br	25010 <__hexnan+0x170>
   25038:	1b7fff04 	addi	r13,r3,-4
   2503c:	183fff15 	stw	zero,-4(r3)
   25040:	581d883a 	mov	r14,r11
   25044:	6807883a 	mov	r3,r13
   25048:	0011883a 	mov	r8,zero
   2504c:	003fb906 	br	24f34 <__hexnan+0x94>
   25050:	13000104 	addi	r12,r2,4
   25054:	1013883a 	mov	r9,r2
   25058:	003f9906 	br	24ec0 <__hexnan+0x20>
   2505c:	8211c83a 	sub	r8,r16,r8
   25060:	402290ba 	slli	r17,r8,2
   25064:	1a800017 	ldw	r10,0(r3)
   25068:	1805883a 	mov	r2,r3
   2506c:	fc65c83a 	sub	r18,ra,r17
   25070:	12000117 	ldw	r8,4(r2)
   25074:	10800104 	addi	r2,r2,4
   25078:	448a983a 	sll	r5,r8,r18
   2507c:	2a8ab03a 	or	r5,r5,r10
   25080:	4454d83a 	srl	r10,r8,r17
   25084:	117fff15 	stw	r5,-4(r2)
   25088:	12800015 	stw	r10,0(r2)
   2508c:	137ff836 	bltu	r2,r13,25070 <__hexnan+0x1d0>
   25090:	003fa606 	br	24f2c <__hexnan+0x8c>
   25094:	60bfff17 	ldw	r2,-4(r12)
   25098:	783fd026 	beq	r15,zero,24fdc <__hexnan+0x13c>
   2509c:	00c00804 	movi	r3,32
   250a0:	1bdfc83a 	sub	r15,r3,r15
   250a4:	00ffffc4 	movi	r3,-1
   250a8:	1bc6d83a 	srl	r3,r3,r15
   250ac:	10c4703a 	and	r2,r2,r3
   250b0:	60bfff15 	stw	r2,-4(r12)
   250b4:	003fc906 	br	24fdc <__hexnan+0x13c>
   250b8:	29400a58 	cmpnei	r5,r5,41
   250bc:	28000b26 	beq	r5,zero,250ec <__hexnan+0x24c>
   250c0:	00800104 	movi	r2,4
   250c4:	dfc00317 	ldw	ra,12(sp)
   250c8:	dc800217 	ldw	r18,8(sp)
   250cc:	dc400117 	ldw	r17,4(sp)
   250d0:	dc000017 	ldw	r16,0(sp)
   250d4:	dec00404 	addi	sp,sp,16
   250d8:	f800283a 	ret
   250dc:	00800044 	movi	r2,1
   250e0:	48800015 	stw	r2,0(r9)
   250e4:	00800144 	movi	r2,5
   250e8:	003ff606 	br	250c4 <__hexnan+0x224>
   250ec:	39c00084 	addi	r7,r7,2
   250f0:	21c00015 	stw	r7,0(r4)
   250f4:	003f9206 	br	24f40 <__hexnan+0xa0>
   250f8:	00800104 	movi	r2,4
   250fc:	003fb206 	br	24fc8 <__hexnan+0x128>
   25100:	00800104 	movi	r2,4
   25104:	f800283a 	ret

00025108 <_isatty_r>:
   25108:	defffe04 	addi	sp,sp,-8
   2510c:	dc000015 	stw	r16,0(sp)
   25110:	008000f4 	movhi	r2,3
   25114:	2021883a 	mov	r16,r4
   25118:	2809883a 	mov	r4,r5
   2511c:	dfc00115 	stw	ra,4(sp)
   25120:	100fca15 	stw	zero,16168(r2)
   25124:	002d4000 	call	2d400 <isatty>
   25128:	10ffffd8 	cmpnei	r3,r2,-1
   2512c:	18000426 	beq	r3,zero,25140 <_isatty_r+0x38>
   25130:	dfc00117 	ldw	ra,4(sp)
   25134:	dc000017 	ldw	r16,0(sp)
   25138:	dec00204 	addi	sp,sp,8
   2513c:	f800283a 	ret
   25140:	00c000f4 	movhi	r3,3
   25144:	18cfca17 	ldw	r3,16168(r3)
   25148:	183ff926 	beq	r3,zero,25130 <_isatty_r+0x28>
   2514c:	80c00015 	stw	r3,0(r16)
   25150:	dfc00117 	ldw	ra,4(sp)
   25154:	dc000017 	ldw	r16,0(sp)
   25158:	dec00204 	addi	sp,sp,8
   2515c:	f800283a 	ret

00025160 <__numeric_load_locale>:
   25160:	0005883a 	mov	r2,zero
   25164:	f800283a 	ret

00025168 <_setlocale_r>:
   25168:	30001626 	beq	r6,zero,251c4 <_setlocale_r+0x5c>
   2516c:	014000f4 	movhi	r5,3
   25170:	defffe04 	addi	sp,sp,-8
   25174:	29403804 	addi	r5,r5,224
   25178:	3009883a 	mov	r4,r6
   2517c:	dc000015 	stw	r16,0(sp)
   25180:	dfc00115 	stw	ra,4(sp)
   25184:	3021883a 	mov	r16,r6
   25188:	00266400 	call	26640 <strcmp>
   2518c:	1000061e 	bne	r2,zero,251a8 <_setlocale_r+0x40>
   25190:	008000f4 	movhi	r2,3
   25194:	10803704 	addi	r2,r2,220
   25198:	dfc00117 	ldw	ra,4(sp)
   2519c:	dc000017 	ldw	r16,0(sp)
   251a0:	dec00204 	addi	sp,sp,8
   251a4:	f800283a 	ret
   251a8:	80800003 	ldbu	r2,0(r16)
   251ac:	10bfef44 	addi	r2,r2,-67
   251b0:	10000726 	beq	r2,zero,251d0 <_setlocale_r+0x68>
   251b4:	80800003 	ldbu	r2,0(r16)
   251b8:	103ff526 	beq	r2,zero,25190 <_setlocale_r+0x28>
   251bc:	0005883a 	mov	r2,zero
   251c0:	003ff506 	br	25198 <_setlocale_r+0x30>
   251c4:	008000f4 	movhi	r2,3
   251c8:	10803704 	addi	r2,r2,220
   251cc:	f800283a 	ret
   251d0:	80800043 	ldbu	r2,1(r16)
   251d4:	103fee26 	beq	r2,zero,25190 <_setlocale_r+0x28>
   251d8:	003ff606 	br	251b4 <_setlocale_r+0x4c>

000251dc <__locale_mb_cur_max>:
   251dc:	008000f4 	movhi	r2,3
   251e0:	10840707 	ldb	r2,4124(r2)
   251e4:	f800283a 	ret

000251e8 <setlocale>:
   251e8:	00c000f4 	movhi	r3,3
   251ec:	2005883a 	mov	r2,r4
   251f0:	1908aa17 	ldw	r4,8872(r3)
   251f4:	280d883a 	mov	r6,r5
   251f8:	100b883a 	mov	r5,r2
   251fc:	00251681 	jmpi	25168 <_setlocale_r>

00025200 <_lseek_r>:
   25200:	2807883a 	mov	r3,r5
   25204:	defffe04 	addi	sp,sp,-8
   25208:	dc000015 	stw	r16,0(sp)
   2520c:	300b883a 	mov	r5,r6
   25210:	008000f4 	movhi	r2,3
   25214:	380d883a 	mov	r6,r7
   25218:	2021883a 	mov	r16,r4
   2521c:	1809883a 	mov	r4,r3
   25220:	dfc00115 	stw	ra,4(sp)
   25224:	100fca15 	stw	zero,16168(r2)
   25228:	002d7400 	call	2d740 <lseek>
   2522c:	10ffffd8 	cmpnei	r3,r2,-1
   25230:	18000426 	beq	r3,zero,25244 <_lseek_r+0x44>
   25234:	dfc00117 	ldw	ra,4(sp)
   25238:	dc000017 	ldw	r16,0(sp)
   2523c:	dec00204 	addi	sp,sp,8
   25240:	f800283a 	ret
   25244:	00c000f4 	movhi	r3,3
   25248:	18cfca17 	ldw	r3,16168(r3)
   2524c:	183ff926 	beq	r3,zero,25234 <_lseek_r+0x34>
   25250:	80c00015 	stw	r3,0(r16)
   25254:	dfc00117 	ldw	ra,4(sp)
   25258:	dc000017 	ldw	r16,0(sp)
   2525c:	dec00204 	addi	sp,sp,8
   25260:	f800283a 	ret

00025264 <_mbtowc_r>:
   25264:	008000f4 	movhi	r2,3
   25268:	1083f617 	ldw	r2,4056(r2)
   2526c:	1000683a 	jmp	r2

00025270 <__ascii_mbtowc>:
   25270:	deffff04 	addi	sp,sp,-4
   25274:	28000826 	beq	r5,zero,25298 <__ascii_mbtowc+0x28>
   25278:	30000926 	beq	r6,zero,252a0 <__ascii_mbtowc+0x30>
   2527c:	38000b26 	beq	r7,zero,252ac <__ascii_mbtowc+0x3c>
   25280:	30800003 	ldbu	r2,0(r6)
   25284:	28800015 	stw	r2,0(r5)
   25288:	30800003 	ldbu	r2,0(r6)
   2528c:	1004c03a 	cmpne	r2,r2,zero
   25290:	dec00104 	addi	sp,sp,4
   25294:	f800283a 	ret
   25298:	d80b883a 	mov	r5,sp
   2529c:	303ff71e 	bne	r6,zero,2527c <__ascii_mbtowc+0xc>
   252a0:	0005883a 	mov	r2,zero
   252a4:	dec00104 	addi	sp,sp,4
   252a8:	f800283a 	ret
   252ac:	00bfff84 	movi	r2,-2
   252b0:	003ff706 	br	25290 <__ascii_mbtowc+0x20>

000252b4 <memcpy>:
   252b4:	30c00430 	cmpltui	r3,r6,16
   252b8:	2005883a 	mov	r2,r4
   252bc:	18002d1e 	bne	r3,zero,25374 <memcpy+0xc0>
   252c0:	2906b03a 	or	r3,r5,r4
   252c4:	18c000cc 	andi	r3,r3,3
   252c8:	1800351e 	bne	r3,zero,253a0 <memcpy+0xec>
   252cc:	32fffc04 	addi	r11,r6,-16
   252d0:	5816d13a 	srli	r11,r11,4
   252d4:	280f883a 	mov	r7,r5
   252d8:	2007883a 	mov	r3,r4
   252dc:	5ac00044 	addi	r11,r11,1
   252e0:	5816913a 	slli	r11,r11,4
   252e4:	22d5883a 	add	r10,r4,r11
   252e8:	39000117 	ldw	r4,4(r7)
   252ec:	3a400017 	ldw	r9,0(r7)
   252f0:	3a000217 	ldw	r8,8(r7)
   252f4:	19000115 	stw	r4,4(r3)
   252f8:	39000317 	ldw	r4,12(r7)
   252fc:	1a400015 	stw	r9,0(r3)
   25300:	1a000215 	stw	r8,8(r3)
   25304:	19000315 	stw	r4,12(r3)
   25308:	18c00404 	addi	r3,r3,16
   2530c:	39c00404 	addi	r7,r7,16
   25310:	50fff51e 	bne	r10,r3,252e8 <memcpy+0x34>
   25314:	3100030c 	andi	r4,r6,12
   25318:	2acb883a 	add	r5,r5,r11
   2531c:	320003cc 	andi	r8,r6,15
   25320:	20002226 	beq	r4,zero,253ac <memcpy+0xf8>
   25324:	280f883a 	mov	r7,r5
   25328:	1813883a 	mov	r9,r3
   2532c:	39c00104 	addi	r7,r7,4
   25330:	3abfff17 	ldw	r10,-4(r7)
   25334:	41c9c83a 	sub	r4,r8,r7
   25338:	2909883a 	add	r4,r5,r4
   2533c:	4a800015 	stw	r10,0(r9)
   25340:	21000128 	cmpgeui	r4,r4,4
   25344:	4a400104 	addi	r9,r9,4
   25348:	203ff81e 	bne	r4,zero,2532c <memcpy+0x78>
   2534c:	413fff04 	addi	r4,r8,-4
   25350:	2008d0ba 	srli	r4,r4,2
   25354:	318000cc 	andi	r6,r6,3
   25358:	31ffffc4 	addi	r7,r6,-1
   2535c:	21000044 	addi	r4,r4,1
   25360:	200890ba 	slli	r4,r4,2
   25364:	1907883a 	add	r3,r3,r4
   25368:	290b883a 	add	r5,r5,r4
   2536c:	3000041e 	bne	r6,zero,25380 <memcpy+0xcc>
   25370:	f800283a 	ret
   25374:	2007883a 	mov	r3,r4
   25378:	31ffffc4 	addi	r7,r6,-1
   2537c:	303ffc26 	beq	r6,zero,25370 <memcpy+0xbc>
   25380:	39c00044 	addi	r7,r7,1
   25384:	19cf883a 	add	r7,r3,r7
   25388:	29800003 	ldbu	r6,0(r5)
   2538c:	18c00044 	addi	r3,r3,1
   25390:	29400044 	addi	r5,r5,1
   25394:	19bfffc5 	stb	r6,-1(r3)
   25398:	38fffb1e 	bne	r7,r3,25388 <memcpy+0xd4>
   2539c:	f800283a 	ret
   253a0:	31ffffc4 	addi	r7,r6,-1
   253a4:	2007883a 	mov	r3,r4
   253a8:	003ff506 	br	25380 <memcpy+0xcc>
   253ac:	400d883a 	mov	r6,r8
   253b0:	003ff106 	br	25378 <memcpy+0xc4>

000253b4 <memset>:
   253b4:	20c000cc 	andi	r3,r4,3
   253b8:	2005883a 	mov	r2,r4
   253bc:	18003626 	beq	r3,zero,25498 <memset+0xe4>
   253c0:	31ffffc4 	addi	r7,r6,-1
   253c4:	30003326 	beq	r6,zero,25494 <memset+0xe0>
   253c8:	2811883a 	mov	r8,r5
   253cc:	2007883a 	mov	r3,r4
   253d0:	00000306 	br	253e0 <memset+0x2c>
   253d4:	39ffffc4 	addi	r7,r7,-1
   253d8:	39bfffe0 	cmpeqi	r6,r7,-1
   253dc:	30002d1e 	bne	r6,zero,25494 <memset+0xe0>
   253e0:	18c00044 	addi	r3,r3,1
   253e4:	198000cc 	andi	r6,r3,3
   253e8:	1a3fffc5 	stb	r8,-1(r3)
   253ec:	303ff91e 	bne	r6,zero,253d4 <memset+0x20>
   253f0:	39000130 	cmpltui	r4,r7,4
   253f4:	2000221e 	bne	r4,zero,25480 <memset+0xcc>
   253f8:	29003fcc 	andi	r4,r5,255
   253fc:	200c923a 	slli	r6,r4,8
   25400:	3a000430 	cmpltui	r8,r7,16
   25404:	3108b03a 	or	r4,r6,r4
   25408:	200c943a 	slli	r6,r4,16
   2540c:	310cb03a 	or	r6,r6,r4
   25410:	40000e1e 	bne	r8,zero,2544c <memset+0x98>
   25414:	393ffc04 	addi	r4,r7,-16
   25418:	2008d13a 	srli	r4,r4,4
   2541c:	21000044 	addi	r4,r4,1
   25420:	2008913a 	slli	r4,r4,4
   25424:	1909883a 	add	r4,r3,r4
   25428:	19800015 	stw	r6,0(r3)
   2542c:	19800115 	stw	r6,4(r3)
   25430:	19800215 	stw	r6,8(r3)
   25434:	19800315 	stw	r6,12(r3)
   25438:	18c00404 	addi	r3,r3,16
   2543c:	20fffa1e 	bne	r4,r3,25428 <memset+0x74>
   25440:	3900030c 	andi	r4,r7,12
   25444:	39c003cc 	andi	r7,r7,15
   25448:	20000d26 	beq	r4,zero,25480 <memset+0xcc>
   2544c:	1811883a 	mov	r8,r3
   25450:	42000104 	addi	r8,r8,4
   25454:	3a09c83a 	sub	r4,r7,r8
   25458:	1909883a 	add	r4,r3,r4
   2545c:	21000128 	cmpgeui	r4,r4,4
   25460:	41bfff15 	stw	r6,-4(r8)
   25464:	203ffa1e 	bne	r4,zero,25450 <memset+0x9c>
   25468:	393fff04 	addi	r4,r7,-4
   2546c:	2008d0ba 	srli	r4,r4,2
   25470:	39c000cc 	andi	r7,r7,3
   25474:	21000044 	addi	r4,r4,1
   25478:	200890ba 	slli	r4,r4,2
   2547c:	1907883a 	add	r3,r3,r4
   25480:	38000426 	beq	r7,zero,25494 <memset+0xe0>
   25484:	19cf883a 	add	r7,r3,r7
   25488:	18c00044 	addi	r3,r3,1
   2548c:	197fffc5 	stb	r5,-1(r3)
   25490:	38fffd1e 	bne	r7,r3,25488 <memset+0xd4>
   25494:	f800283a 	ret
   25498:	2007883a 	mov	r3,r4
   2549c:	300f883a 	mov	r7,r6
   254a0:	003fd306 	br	253f0 <memset+0x3c>

000254a4 <_Balloc>:
   254a4:	20801317 	ldw	r2,76(r4)
   254a8:	defffc04 	addi	sp,sp,-16
   254ac:	dc400115 	stw	r17,4(sp)
   254b0:	dc000015 	stw	r16,0(sp)
   254b4:	dfc00315 	stw	ra,12(sp)
   254b8:	dc800215 	stw	r18,8(sp)
   254bc:	2021883a 	mov	r16,r4
   254c0:	2823883a 	mov	r17,r5
   254c4:	10000e26 	beq	r2,zero,25500 <_Balloc+0x5c>
   254c8:	880690ba 	slli	r3,r17,2
   254cc:	10c7883a 	add	r3,r2,r3
   254d0:	18800017 	ldw	r2,0(r3)
   254d4:	10001126 	beq	r2,zero,2551c <_Balloc+0x78>
   254d8:	11000017 	ldw	r4,0(r2)
   254dc:	19000015 	stw	r4,0(r3)
   254e0:	10000415 	stw	zero,16(r2)
   254e4:	10000315 	stw	zero,12(r2)
   254e8:	dfc00317 	ldw	ra,12(sp)
   254ec:	dc800217 	ldw	r18,8(sp)
   254f0:	dc400117 	ldw	r17,4(sp)
   254f4:	dc000017 	ldw	r16,0(sp)
   254f8:	dec00404 	addi	sp,sp,16
   254fc:	f800283a 	ret
   25500:	01800844 	movi	r6,33
   25504:	01400104 	movi	r5,4
   25508:	00269080 	call	26908 <_calloc_r>
   2550c:	80801315 	stw	r2,76(r16)
   25510:	103fed1e 	bne	r2,zero,254c8 <_Balloc+0x24>
   25514:	0005883a 	mov	r2,zero
   25518:	003ff306 	br	254e8 <_Balloc+0x44>
   2551c:	04800044 	movi	r18,1
   25520:	9464983a 	sll	r18,r18,r17
   25524:	01400044 	movi	r5,1
   25528:	8009883a 	mov	r4,r16
   2552c:	91800144 	addi	r6,r18,5
   25530:	300c90ba 	slli	r6,r6,2
   25534:	00269080 	call	26908 <_calloc_r>
   25538:	103ff626 	beq	r2,zero,25514 <_Balloc+0x70>
   2553c:	14400115 	stw	r17,4(r2)
   25540:	14800215 	stw	r18,8(r2)
   25544:	003fe606 	br	254e0 <_Balloc+0x3c>

00025548 <_Bfree>:
   25548:	28000726 	beq	r5,zero,25568 <_Bfree+0x20>
   2554c:	28c00117 	ldw	r3,4(r5)
   25550:	20801317 	ldw	r2,76(r4)
   25554:	180690ba 	slli	r3,r3,2
   25558:	10c5883a 	add	r2,r2,r3
   2555c:	10c00017 	ldw	r3,0(r2)
   25560:	28c00015 	stw	r3,0(r5)
   25564:	11400015 	stw	r5,0(r2)
   25568:	f800283a 	ret

0002556c <__multadd>:
   2556c:	defff704 	addi	sp,sp,-36
   25570:	dc800215 	stw	r18,8(sp)
   25574:	2c800417 	ldw	r18,16(r5)
   25578:	ddc00715 	stw	r23,28(sp)
   2557c:	dd800615 	stw	r22,24(sp)
   25580:	dd400515 	stw	r21,20(sp)
   25584:	dd000415 	stw	r20,16(sp)
   25588:	dcc00315 	stw	r19,12(sp)
   2558c:	dc400115 	stw	r17,4(sp)
   25590:	dfc00815 	stw	ra,32(sp)
   25594:	dc000015 	stw	r16,0(sp)
   25598:	2827883a 	mov	r19,r5
   2559c:	2029883a 	mov	r20,r4
   255a0:	302b883a 	mov	r21,r6
   255a4:	3823883a 	mov	r17,r7
   255a8:	2d800504 	addi	r22,r5,20
   255ac:	002f883a 	mov	r23,zero
   255b0:	b4000017 	ldw	r16,0(r22)
   255b4:	a80b883a 	mov	r5,r21
   255b8:	b5800104 	addi	r22,r22,4
   255bc:	813fffcc 	andi	r4,r16,65535
   255c0:	002a4b80 	call	2a4b8 <__mulsi3>
   255c4:	8008d43a 	srli	r4,r16,16
   255c8:	a80b883a 	mov	r5,r21
   255cc:	1461883a 	add	r16,r2,r17
   255d0:	002a4b80 	call	2a4b8 <__mulsi3>
   255d4:	800ed43a 	srli	r7,r16,16
   255d8:	843fffcc 	andi	r16,r16,65535
   255dc:	bdc00044 	addi	r23,r23,1
   255e0:	11c5883a 	add	r2,r2,r7
   255e4:	1006943a 	slli	r3,r2,16
   255e8:	1022d43a 	srli	r17,r2,16
   255ec:	1c21883a 	add	r16,r3,r16
   255f0:	b43fff15 	stw	r16,-4(r22)
   255f4:	bcbfee16 	blt	r23,r18,255b0 <__multadd+0x44>
   255f8:	88000826 	beq	r17,zero,2561c <__multadd+0xb0>
   255fc:	98800217 	ldw	r2,8(r19)
   25600:	9080120e 	bge	r18,r2,2564c <__multadd+0xe0>
   25604:	90800144 	addi	r2,r18,5
   25608:	100490ba 	slli	r2,r2,2
   2560c:	94800044 	addi	r18,r18,1
   25610:	9885883a 	add	r2,r19,r2
   25614:	14400015 	stw	r17,0(r2)
   25618:	9c800415 	stw	r18,16(r19)
   2561c:	9805883a 	mov	r2,r19
   25620:	dfc00817 	ldw	ra,32(sp)
   25624:	ddc00717 	ldw	r23,28(sp)
   25628:	dd800617 	ldw	r22,24(sp)
   2562c:	dd400517 	ldw	r21,20(sp)
   25630:	dd000417 	ldw	r20,16(sp)
   25634:	dcc00317 	ldw	r19,12(sp)
   25638:	dc800217 	ldw	r18,8(sp)
   2563c:	dc400117 	ldw	r17,4(sp)
   25640:	dc000017 	ldw	r16,0(sp)
   25644:	dec00904 	addi	sp,sp,36
   25648:	f800283a 	ret
   2564c:	99400117 	ldw	r5,4(r19)
   25650:	a009883a 	mov	r4,r20
   25654:	29400044 	addi	r5,r5,1
   25658:	00254a40 	call	254a4 <_Balloc>
   2565c:	1021883a 	mov	r16,r2
   25660:	10001226 	beq	r2,zero,256ac <__multadd+0x140>
   25664:	99800417 	ldw	r6,16(r19)
   25668:	99400304 	addi	r5,r19,12
   2566c:	11000304 	addi	r4,r2,12
   25670:	31800084 	addi	r6,r6,2
   25674:	300c90ba 	slli	r6,r6,2
   25678:	00252b40 	call	252b4 <memcpy>
   2567c:	98000926 	beq	r19,zero,256a4 <__multadd+0x138>
   25680:	98c00117 	ldw	r3,4(r19)
   25684:	a0801317 	ldw	r2,76(r20)
   25688:	180690ba 	slli	r3,r3,2
   2568c:	10c5883a 	add	r2,r2,r3
   25690:	10c00017 	ldw	r3,0(r2)
   25694:	98c00015 	stw	r3,0(r19)
   25698:	14c00015 	stw	r19,0(r2)
   2569c:	8027883a 	mov	r19,r16
   256a0:	003fd806 	br	25604 <__multadd+0x98>
   256a4:	8027883a 	mov	r19,r16
   256a8:	003fd606 	br	25604 <__multadd+0x98>
   256ac:	01c000f4 	movhi	r7,3
   256b0:	010000f4 	movhi	r4,3
   256b4:	39ffdc04 	addi	r7,r7,-144
   256b8:	000d883a 	mov	r6,zero
   256bc:	01402d44 	movi	r5,181
   256c0:	21003a04 	addi	r4,r4,232
   256c4:	00268900 	call	26890 <__assert_func>

000256c8 <__s2b>:
   256c8:	defff904 	addi	sp,sp,-28
   256cc:	dc800215 	stw	r18,8(sp)
   256d0:	dc000015 	stw	r16,0(sp)
   256d4:	2025883a 	mov	r18,r4
   256d8:	2821883a 	mov	r16,r5
   256dc:	39000204 	addi	r4,r7,8
   256e0:	01400244 	movi	r5,9
   256e4:	dcc00315 	stw	r19,12(sp)
   256e8:	dc400115 	stw	r17,4(sp)
   256ec:	dfc00615 	stw	ra,24(sp)
   256f0:	3823883a 	mov	r17,r7
   256f4:	dd400515 	stw	r21,20(sp)
   256f8:	dd000415 	stw	r20,16(sp)
   256fc:	3027883a 	mov	r19,r6
   25700:	002a3040 	call	2a304 <__divsi3>
   25704:	88c00290 	cmplti	r3,r17,10
   25708:	1800341e 	bne	r3,zero,257dc <__s2b+0x114>
   2570c:	00c00044 	movi	r3,1
   25710:	000b883a 	mov	r5,zero
   25714:	18c7883a 	add	r3,r3,r3
   25718:	29400044 	addi	r5,r5,1
   2571c:	18bffd16 	blt	r3,r2,25714 <__s2b+0x4c>
   25720:	9009883a 	mov	r4,r18
   25724:	00254a40 	call	254a4 <_Balloc>
   25728:	100b883a 	mov	r5,r2
   2572c:	10002d26 	beq	r2,zero,257e4 <__s2b+0x11c>
   25730:	d8800717 	ldw	r2,28(sp)
   25734:	28800515 	stw	r2,20(r5)
   25738:	00800044 	movi	r2,1
   2573c:	28800415 	stw	r2,16(r5)
   25740:	98800290 	cmplti	r2,r19,10
   25744:	1000221e 	bne	r2,zero,257d0 <__s2b+0x108>
   25748:	85400244 	addi	r21,r16,9
   2574c:	a829883a 	mov	r20,r21
   25750:	84e1883a 	add	r16,r16,r19
   25754:	a1c00007 	ldb	r7,0(r20)
   25758:	01800284 	movi	r6,10
   2575c:	9009883a 	mov	r4,r18
   25760:	39fff404 	addi	r7,r7,-48
   25764:	002556c0 	call	2556c <__multadd>
   25768:	a5000044 	addi	r20,r20,1
   2576c:	100b883a 	mov	r5,r2
   25770:	a43ff81e 	bne	r20,r16,25754 <__s2b+0x8c>
   25774:	9c3ffe04 	addi	r16,r19,-8
   25778:	ac21883a 	add	r16,r21,r16
   2577c:	9c400a0e 	bge	r19,r17,257a8 <__s2b+0xe0>
   25780:	8ce3c83a 	sub	r17,r17,r19
   25784:	8463883a 	add	r17,r16,r17
   25788:	81c00007 	ldb	r7,0(r16)
   2578c:	01800284 	movi	r6,10
   25790:	9009883a 	mov	r4,r18
   25794:	39fff404 	addi	r7,r7,-48
   25798:	002556c0 	call	2556c <__multadd>
   2579c:	84000044 	addi	r16,r16,1
   257a0:	100b883a 	mov	r5,r2
   257a4:	8c3ff81e 	bne	r17,r16,25788 <__s2b+0xc0>
   257a8:	2805883a 	mov	r2,r5
   257ac:	dfc00617 	ldw	ra,24(sp)
   257b0:	dd400517 	ldw	r21,20(sp)
   257b4:	dd000417 	ldw	r20,16(sp)
   257b8:	dcc00317 	ldw	r19,12(sp)
   257bc:	dc800217 	ldw	r18,8(sp)
   257c0:	dc400117 	ldw	r17,4(sp)
   257c4:	dc000017 	ldw	r16,0(sp)
   257c8:	dec00704 	addi	sp,sp,28
   257cc:	f800283a 	ret
   257d0:	84000284 	addi	r16,r16,10
   257d4:	04c00244 	movi	r19,9
   257d8:	003fe806 	br	2577c <__s2b+0xb4>
   257dc:	000b883a 	mov	r5,zero
   257e0:	003fcf06 	br	25720 <__s2b+0x58>
   257e4:	01c000f4 	movhi	r7,3
   257e8:	010000f4 	movhi	r4,3
   257ec:	39ffdc04 	addi	r7,r7,-144
   257f0:	000d883a 	mov	r6,zero
   257f4:	01403384 	movi	r5,206
   257f8:	21003a04 	addi	r4,r4,232
   257fc:	00268900 	call	26890 <__assert_func>

00025800 <__hi0bits>:
   25800:	20bfffec 	andhi	r2,r4,65535
   25804:	1000131e 	bne	r2,zero,25854 <__hi0bits+0x54>
   25808:	2008943a 	slli	r4,r4,16
   2580c:	00800404 	movi	r2,16
   25810:	20ffc02c 	andhi	r3,r4,65280
   25814:	1800021e 	bne	r3,zero,25820 <__hi0bits+0x20>
   25818:	2008923a 	slli	r4,r4,8
   2581c:	10800204 	addi	r2,r2,8
   25820:	20fc002c 	andhi	r3,r4,61440
   25824:	1800021e 	bne	r3,zero,25830 <__hi0bits+0x30>
   25828:	2008913a 	slli	r4,r4,4
   2582c:	10800104 	addi	r2,r2,4
   25830:	20f0002c 	andhi	r3,r4,49152
   25834:	1800021e 	bne	r3,zero,25840 <__hi0bits+0x40>
   25838:	200890ba 	slli	r4,r4,2
   2583c:	10800084 	addi	r2,r2,2
   25840:	20000316 	blt	r4,zero,25850 <__hi0bits+0x50>
   25844:	2110002c 	andhi	r4,r4,16384
   25848:	10800044 	addi	r2,r2,1
   2584c:	20000326 	beq	r4,zero,2585c <__hi0bits+0x5c>
   25850:	f800283a 	ret
   25854:	0005883a 	mov	r2,zero
