
ubuntu_controller.elf:     file format elf32-littlenios2
ubuntu_controller.elf
architecture: nios2:r1, flags 0x00000112:
EXEC_P, HAS_SYMS, D_PAGED
start address 0x00020228

Program Header:
    LOAD off    0x00001000 vaddr 0x00020000 paddr 0x00020000 align 2**12
         filesz 0x00000020 memsz 0x00000020 flags r-x
    LOAD off    0x00001020 vaddr 0x00020020 paddr 0x00020020 align 2**12
         filesz 0x00013e9c memsz 0x00013e9c flags r-x
    LOAD off    0x00014ebc vaddr 0x00033ebc paddr 0x00035ae8 align 2**12
         filesz 0x00001c2c memsz 0x00001c2c flags rw-
    LOAD off    0x00017714 vaddr 0x00037714 paddr 0x00037714 align 2**12
         filesz 0x00000000 memsz 0x0000016c flags rw-

Sections:
Idx Name          Size      VMA       LMA       File off  Algn
  0 .entry        00000020  00020000  00020000  00001000  2**5
                  CONTENTS, ALLOC, LOAD, READONLY, CODE
  1 .exceptions   00000208  00020020  00020020  00001020  2**2
                  CONTENTS, ALLOC, LOAD, READONLY, CODE
  2 .text         0001343c  00020228  00020228  00001228  2**2
                  CONTENTS, ALLOC, LOAD, READONLY, CODE
  3 .rodata       00000858  00033664  00033664  00014664  2**2
                  CONTENTS, ALLOC, LOAD, READONLY, DATA
  4 .rwdata       00001c2c  00033ebc  00035ae8  00014ebc  2**2
                  CONTENTS, ALLOC, LOAD, DATA, SMALL_DATA
  5 .bss          0000016c  00037714  00037714  00017714  2**2
                  ALLOC, SMALL_DATA
  6 .onchip_memory 00000000  00037880  00037880  00016ae8  2**0
                  CONTENTS
  7 .comment      0000002c  00000000  00000000  00016ae8  2**0
                  CONTENTS, READONLY
  8 .debug_aranges 00001390  00000000  00000000  00016b18  2**3
                  CONTENTS, READONLY, DEBUGGING
  9 .debug_info   0005a8f0  00000000  00000000  00017ea8  2**0
                  CONTENTS, READONLY, DEBUGGING
 10 .debug_abbrev 00012862  00000000  00000000  00072798  2**0
                  CONTENTS, READONLY, DEBUGGING
 11 .debug_line   0001ee48  00000000  00000000  00084ffa  2**0
                  CONTENTS, READONLY, DEBUGGING
 12 .debug_frame  00002a98  00000000  00000000  000a3e44  2**2
                  CONTENTS, READONLY, DEBUGGING
 13 .debug_str    00004bfc  00000000  00000000  000a68dc  2**0
                  CONTENTS, READONLY, DEBUGGING
 14 .debug_loc    000238a5  00000000  00000000  000ab4d8  2**0
                  CONTENTS, READONLY, DEBUGGING
 15 .debug_alt_sim_info 00000010  00000000  00000000  000ced80  2**2
                  CONTENTS, READONLY, DEBUGGING
 16 .debug_ranges 00002160  00000000  00000000  000ced90  2**3
                  CONTENTS, READONLY, DEBUGGING
 17 .thread_model 00000003  00000000  00000000  000d4b71  2**0
                  CONTENTS, READONLY
 18 .cpu          00000003  00000000  00000000  000d4b74  2**0
                  CONTENTS, READONLY
 19 .qsys         00000001  00000000  00000000  000d4b77  2**0
                  CONTENTS, READONLY
 20 .simulation_enabled 00000001  00000000  00000000  000d4b78  2**0
                  CONTENTS, READONLY
 21 .sysid_hash   00000004  00000000  00000000  000d4b79  2**0
                  CONTENTS, READONLY
 22 .sysid_base   00000004  00000000  00000000  000d4b7d  2**0
                  CONTENTS, READONLY
 23 .sysid_time   00000004  00000000  00000000  000d4b81  2**0
                  CONTENTS, READONLY
 24 .stderr_dev   00000009  00000000  00000000  000d4b85  2**0
                  CONTENTS, READONLY
 25 .stdin_dev    00000009  00000000  00000000  000d4b8e  2**0
                  CONTENTS, READONLY
 26 .stdout_dev   00000009  00000000  00000000  000d4b97  2**0
                  CONTENTS, READONLY
 27 .sopc_system_name 00000015  00000000  00000000  000d4ba0  2**0
                  CONTENTS, READONLY
 28 .quartus_project_dir 00000033  00000000  00000000  000d4bb5  2**0
                  CONTENTS, READONLY
 29 .sopcinfo     0005ffcc  00000000  00000000  000d4be8  2**0
                  CONTENTS, READONLY
SYMBOL TABLE:
00020000 l    d  .entry	00000000 .entry
00020020 l    d  .exceptions	00000000 .exceptions
00020228 l    d  .text	00000000 .text
00033664 l    d  .rodata	00000000 .rodata
00033ebc l    d  .rwdata	00000000 .rwdata
00037714 l    d  .bss	00000000 .bss
00037880 l    d  .onchip_memory	00000000 .onchip_memory
00000000 l    d  .comment	00000000 .comment
00000000 l    d  .debug_aranges	00000000 .debug_aranges
00000000 l    d  .debug_info	00000000 .debug_info
00000000 l    d  .debug_abbrev	00000000 .debug_abbrev
00000000 l    d  .debug_line	00000000 .debug_line
00000000 l    d  .debug_frame	00000000 .debug_frame
00000000 l    d  .debug_str	00000000 .debug_str
00000000 l    d  .debug_loc	00000000 .debug_loc
00000000 l    d  .debug_alt_sim_info	00000000 .debug_alt_sim_info
00000000 l    d  .debug_ranges	00000000 .debug_ranges
00000000 l    df *ABS*	00000000 ../ubuntu_controller_bsp//obj/HAL/src/crt0.o
00020260 l       .text	00000000 alt_after_alt_main
00000000 l    df *ABS*	00000000 alt_irq_handler.c
00000000 l    df *ABS*	00000000 alt_instruction_exception_entry.c
00000000 l    df *ABS*	00000000 hello_world.c
00000000 l    df *ABS*	00000000 fixdfsi.c
00000000 l    df *ABS*	00000000 atof.c
00000000 l    df *ABS*	00000000 fopen.c
00000000 l    df *ABS*	00000000 fseek.c
00000000 l    df *ABS*	00000000 fseeko.c
00000000 l    df *ABS*	00000000 fstatr.c
00000000 l    df *ABS*	00000000 getc.c
00000000 l    df *ABS*	00000000 impure.c
00033ecc l     O .rwdata	00000424 impure_data
00000000 l    df *ABS*	00000000 int_errno.c
00000000 l    df *ABS*	00000000 makebuf.c
00000000 l    df *ABS*	00000000 malloc.c
00000000 l    df *ABS*	00000000 mallocr.c
00000000 l    df *ABS*	00000000 openr.c
00000000 l    df *ABS*	00000000 printf.c
00000000 l    df *ABS*	00000000 refill.c
00021c04 l     F .text	0000001c lflush
00000000 l    df *ABS*	00000000 rget.c
00000000 l    df *ABS*	00000000 sbrkr.c
00000000 l    df *ABS*	00000000 stdio.c
00000000 l    df *ABS*	00000000 strtod.c
00022008 l     F .text	00000064 sulp
000336dc l     O .rodata	00000028 tinytens
000336c8 l     O .rodata	00000014 fpi.4065
000336b4 l     O .rodata	00000014 fpinan.4101
00000000 l    df *ABS*	00000000 vfprintf.c
000259c4 l     F .text	000000c0 __sbprintf
00033758 l     O .rodata	00000010 blanks.5176
00033748 l     O .rodata	00000010 zeroes.5177
00000000 l    df *ABS*	00000000 writer.c
00000000 l    df *ABS*	00000000 wsetup.c
00000000 l    df *ABS*	00000000 closer.c
00000000 l    df *ABS*	00000000 dtoa.c
00025c9c l     F .text	00000220 quorem
00000000 l    df *ABS*	00000000 fflush.c
00000000 l    df *ABS*	00000000 findfp.c
000278bc l     F .text	00000008 __fp_lock
000278d0 l     F .text	00000168 __sinit.part.0
00027a38 l     F .text	00000008 __fp_unlock
00000000 l    df *ABS*	00000000 flags.c
00000000 l    df *ABS*	00000000 mallocr.c
00000000 l    df *ABS*	00000000 fwalk.c
00000000 l    df *ABS*	00000000 gdtoa-gethex.c
00028220 l     F .text	000000dc rshift
00000000 l    df *ABS*	00000000 gdtoa-hexnan.c
00000000 l    df *ABS*	00000000 isattyr.c
00000000 l    df *ABS*	00000000 lnumeric.c
00035abc l     O .rwdata	00000002 numempty
00000000 l    df *ABS*	00000000 locale.c
00000000 l    df *ABS*	00000000 localeconv.c
00000000 l    df *ABS*	00000000 lseekr.c
00000000 l    df *ABS*	00000000 mbtowc_r.c
00000000 l    df *ABS*	00000000 memchr.c
00000000 l    df *ABS*	00000000 memcpy.c
00000000 l    df *ABS*	00000000 memset.c
00000000 l    df *ABS*	00000000 mprec.c
00033970 l     O .rodata	0000000c p05.3991
00000000 l    df *ABS*	00000000 readr.c
00000000 l    df *ABS*	00000000 strcmp.c
00000000 l    df *ABS*	00000000 strlen.c
00000000 l    df *ABS*	00000000 strncmp.c
00000000 l    df *ABS*	00000000 vfprintf.c
0002a638 l     F .text	000000f4 __sprint_r.part.0
0002ba74 l     F .text	000000c0 __sbprintf
00033aa4 l     O .rodata	00000010 blanks.5153
00033a94 l     O .rodata	00000010 zeroes.5154
00000000 l    df *ABS*	00000000 wctomb_r.c
00000000 l    df *ABS*	00000000 assert.c
00000000 l    df *ABS*	00000000 mallocr.c
00000000 l    df *ABS*	00000000 ctype_.c
00000000 l    df *ABS*	00000000 fclose.c
00000000 l    df *ABS*	00000000 fiprintf.c
00000000 l    df *ABS*	00000000 fputwc.c
00000000 l    df *ABS*	00000000 fvwrite.c
00000000 l    df *ABS*	00000000 memmove.c
00000000 l    df *ABS*	00000000 mallocr.c
00000000 l    df *ABS*	00000000 vfiprintfr_1.c
00000000 l    df *ABS*	00000000 wbuf.c
00000000 l    df *ABS*	00000000 wcrtomb.c
00000000 l    df *ABS*	00000000 abort.c
00000000 l    df *ABS*	00000000 signal.c
0002cdd8 l     F .text	0000004c _init_signal_r.part.0
00000000 l    df *ABS*	00000000 signalr.c
00000000 l    df *ABS*	00000000 libgcc2.c
00000000 l    df *ABS*	00000000 libgcc2.c
00000000 l    df *ABS*	00000000 libgcc2.c
00000000 l    df *ABS*	00000000 libgcc2.c
00000000 l    df *ABS*	00000000 libgcc2.c
00000000 l    df *ABS*	00000000 libgcc2.c
00000000 l    df *ABS*	00000000 lib2-divmod.c
00000000 l    df *ABS*	00000000 lib2-mul.c
00000000 l    df *ABS*	00000000 eqsf2.c
00000000 l    df *ABS*	00000000 lesf2.c
00000000 l    df *ABS*	00000000 unordsf2.c
00000000 l    df *ABS*	00000000 adddf3.c
00000000 l    df *ABS*	00000000 divdf3.c
00000000 l    df *ABS*	00000000 eqdf2.c
00000000 l    df *ABS*	00000000 gedf2.c
00000000 l    df *ABS*	00000000 ledf2.c
00000000 l    df *ABS*	00000000 muldf3.c
00000000 l    df *ABS*	00000000 subdf3.c
00000000 l    df *ABS*	00000000 unorddf2.c
00000000 l    df *ABS*	00000000 floatsidf.c
00000000 l    df *ABS*	00000000 floatunsidf.c
00000000 l    df *ABS*	00000000 truncdfsf2.c
00000000 l    df *ABS*	00000000 libgcc2.c
00000000 l    df *ABS*	00000000 libgcc2.c
00000000 l    df *ABS*	00000000 alt_close.c
00030b64 l     F .text	0000003c alt_get_errno
00000000 l    df *ABS*	00000000 alt_dev.c
00030c7c l     F .text	0000002c alt_dev_null_write
00000000 l    df *ABS*	00000000 alt_errno.c
00000000 l    df *ABS*	00000000 alt_exit.c
00000000 l    df *ABS*	00000000 alt_fstat.c
00030ce0 l     F .text	0000003c alt_get_errno
00000000 l    df *ABS*	00000000 alt_getpid.c
00000000 l    df *ABS*	00000000 alt_irq_register.c
00000000 l    df *ABS*	00000000 alt_irq_vars.c
00000000 l    df *ABS*	00000000 alt_isatty.c
00030f78 l     F .text	0000003c alt_get_errno
00000000 l    df *ABS*	00000000 alt_kill.c
00031064 l     F .text	0000003c alt_get_errno
00000000 l    df *ABS*	00000000 alt_load.c
000311cc l     F .text	00000068 alt_load_section
00000000 l    df *ABS*	00000000 alt_lseek.c
000312b8 l     F .text	0000003c alt_get_errno
00000000 l    df *ABS*	00000000 alt_main.c
00000000 l    df *ABS*	00000000 alt_malloc_lock.c
00000000 l    df *ABS*	00000000 alt_open.c
00031498 l     F .text	0000003c alt_get_errno
000314d4 l     F .text	000000dc alt_file_locked
00000000 l    df *ABS*	00000000 alt_read.c
00031710 l     F .text	0000003c alt_get_errno
00000000 l    df *ABS*	00000000 alt_release_fd.c
00000000 l    df *ABS*	00000000 alt_sbrk.c
00035adc l     O .rwdata	00000004 heap_end
00000000 l    df *ABS*	00000000 alt_write.c
0003197c l     F .text	0000003c alt_get_errno
00000000 l    df *ABS*	00000000 alt_sys_init.c
00031abc l     F .text	00000034 alt_dev_reg
00034a0c l     O .rwdata	00001060 jtag_uart
00035a6c l     O .rwdata	0000002c accelerometer_spi
00000000 l    df *ABS*	00000000 altera_avalon_jtag_uart_fd.c
00000000 l    df *ABS*	00000000 altera_avalon_jtag_uart_init.c
00031db0 l     F .text	00000210 altera_avalon_jtag_uart_irq
00031fc0 l     F .text	000000a0 altera_avalon_jtag_uart_timeout
00000000 l    df *ABS*	00000000 altera_avalon_jtag_uart_ioctl.c
00000000 l    df *ABS*	00000000 altera_avalon_jtag_uart_read.c
00000000 l    df *ABS*	00000000 altera_avalon_jtag_uart_write.c
00000000 l    df *ABS*	00000000 altera_avalon_timer_sc.c
00032604 l     F .text	00000080 alt_avalon_timer_sc_irq
00000000 l    df *ABS*	00000000 altera_up_avalon_accelerometer_spi.c
00000000 l    df *ABS*	00000000 alt_alarm_start.c
00000000 l    df *ABS*	00000000 alt_dcache_flush_all.c
00000000 l    df *ABS*	00000000 alt_dev_llist_insert.c
00032c20 l     F .text	0000003c alt_get_errno
00000000 l    df *ABS*	00000000 alt_do_ctors.c
00000000 l    df *ABS*	00000000 alt_do_dtors.c
00000000 l    df *ABS*	00000000 alt_find_dev.c
00000000 l    df *ABS*	00000000 alt_find_file.c
00000000 l    df *ABS*	00000000 alt_get_fd.c
00000000 l    df *ABS*	00000000 alt_icache_flush_all.c
00000000 l    df *ABS*	00000000 alt_io_redirect.c
0003303c l     F .text	000000d4 alt_open_fd
00000000 l    df *ABS*	00000000 alt_tick.c
00000000 l    df *ABS*	00000000 altera_nios2_gen2_irq.c
00000000 l    df *ABS*	00000000 atexit.c
00000000 l    df *ABS*	00000000 exit.c
00000000 l    df *ABS*	00000000 memcmp.c
00000000 l    df *ABS*	00000000 __atexit.c
00000000 l    df *ABS*	00000000 __call_atexit.c
00037754 g     O .bss	00000004 alt_instruction_exception_handler
0002a284 g     F .text	00000070 _mprec_log10
0002a360 g     F .text	00000060 __any_on
00028df8 g     F .text	00000058 _isatty_r
0003397c g     O .rodata	00000028 __mprec_tinytens
000313d4 g     F .text	0000007c alt_main
00037780 g     O .bss	00000100 alt_irq
00028f10 g     F .text	00000064 _lseek_r
00035aa8 g     O .rwdata	00000004 en_f
00035ae8 g       *ABS*	00000000 __flash_rwdata_start
00027c10 g     F .text	000000b8 __sflags
0002f4c4 g     F .text	00000080 .hidden __eqdf2
00037880 g       *ABS*	00000000 __alt_heap_start
0002d268 g     F .text	00000070 .hidden __floatdidf
0002d08c g     F .text	00000060 _kill_r
00021bcc g     F .text	00000038 printf
0002cccc g     F .text	0000006c _wcrtomb_r
0002ce38 g     F .text	00000084 _signal_r
00021fa4 g     F .text	0000005c __sseek
00027bc8 g     F .text	00000010 __sinit
0002cb6c g     F .text	00000148 __swbuf_r
00028e58 g     F .text	00000074 _setlocale_r
00027a40 g     F .text	00000078 __sfmoreglue
00031474 g     F .text	00000024 __malloc_unlock
000235f8 g     F .text	0000000c _strtod_r
0002c4d8 g     F .text	0000012c memmove
00027bb4 g     F .text	00000014 _cleanup
00037714 g     O .bss	00000008 yz
00029288 g     F .text	000000a4 _Balloc
000202cc g     F .text	0000004c sys_timer_isr
00035a98 g     O .rwdata	00000008 inact_thresh_coef
0002f544 g     F .text	000000f0 .hidden __gtdf2
00033338 g     F .text	00000024 altera_nios2_gen2_irq_init
00020000 g     F .entry	0000000c __reset
00028ef0 g     F .text	00000008 __localeconv_l
00032850 g     F .text	000000d4 alt_up_accelerometer_spi_read_x_axis
00020020 g       *ABS*	00000000 __flash_exceptions_start
00020ff4 g     F .text	00000060 _fstat_r
00037728 g     O .bss	00000004 errno
00021e60 g     F .text	00000010 __srget
00021f1c g     F .text	00000008 __seofread
00037744 g     O .bss	00000004 alt_argv
0003da98 g       *ABS*	00000000 _gp
00030dd8 g     F .text	00000020 getpid
00035aa0 g     O .rwdata	00000004 output
0003488c g     O .rwdata	00000180 alt_fd_list
00021054 g     F .text	0000007c _getc_r
000210d0 g     F .text	00000090 getc
00032dcc g     F .text	00000090 alt_find_dev
00029098 g     F .text	00000100 memcpy
00028b90 g     F .text	00000268 __hexnan
000278c4 g     F .text	0000000c _cleanup_r
00030854 g     F .text	000000bc .hidden __floatsidf
00033110 g     F .text	0000007c alt_io_redirect
0002f634 g     F .text	000000f0 .hidden __ltdf2
00033664 g       *ABS*	00000000 __DTOR_END__
0003335c g     F .text	00000098 alt_exception_cause_generated_bad_addr
00033ebc g     O .rwdata	00000010 act_thresh_coef
0002a1e0 g     F .text	000000a4 __ratio
0002ba58 g     F .text	0000001c __vfiprintf_internal
000321bc g     F .text	00000220 altera_avalon_jtag_uart_read
00021338 g     F .text	00000010 malloc
00021b9c g     F .text	00000030 _printf_r
0002dfac g     F .text	00000064 .hidden __udivsi3
00030fb4 g     F .text	000000b0 isatty
0002cebc g     F .text	000000c4 _raise_r
0002bb70 g     F .text	00000064 __assert_func
000339cc g     O .rodata	000000c8 __mprec_tens
00020318 g     F .text	00000054 read_accelerometer
0002e10c g     F .text	000000c0 .hidden __lesf2
0002d0f0 g     F .text	00000074 .hidden __fixunsdfsi
00037734 g     O .bss	00000004 __malloc_top_pad
0002d0ec g     F .text	00000004 _getpid_r
00028ef8 g     F .text	0000000c _localeconv_r
0002c00c g     F .text	000004cc __sfvwrite_r
000296f8 g     F .text	00000054 __i2b
0002cf80 g     F .text	000000b8 __sigtramp_r
00021e70 g     F .text	00000058 _sbrk_r
0002a3c0 g     F .text	00000064 _read_r
00035ad0 g     O .rwdata	00000004 alt_max_fd
0002bcac g     F .text	000000f8 _fclose_r
00027894 g     F .text	00000028 fflush
00037730 g     O .bss	00000004 __malloc_max_sbrked_mem
00030df8 g     F .text	00000180 alt_irq_register
0002e218 g     F .text	00000978 .hidden __adddf3
0002e094 g     F .text	00000078 .hidden __nesf2
00029f78 g     F .text	00000104 __b2d
0002d8f4 g     F .text	000005c4 .hidden __umoddi3
000312f4 g     F .text	000000e0 lseek
00035aac g     O .rwdata	00000004 _global_impure_ptr
0002c604 g     F .text	00000564 _realloc_r
00037880 g       *ABS*	00000000 __bss_end
00033230 g     F .text	00000108 alt_tick
00033814 g     O .rodata	00000100 __hexdig
0002d2d8 g     F .text	0000061c .hidden __udivdi3
0002bf70 g     F .text	00000024 _fputwc_r
000339a4 g     O .rodata	00000028 __mprec_bigtens
000294ac g     F .text	00000138 __s2b
0002cdc0 g     F .text	00000018 abort
00030910 g     F .text	00000090 .hidden __floatunsidf
00029c98 g     F .text	00000058 __mcmp
00027be8 g     F .text	00000014 __fp_lock_all
0003318c g     F .text	000000a4 alt_alarm_stop
0003773c g     O .bss	00000004 alt_irq_active
00020b84 g     F .text	00000454 _fseeko_r
000200fc g     F .exceptions	000000cc alt_irq_handler
00034864 g     O .rwdata	00000028 alt_dev_null
0002206c g     F .text	0000158c _strtod_l
00028b40 g     F .text	00000050 __match
000205e4 g     F .text	00000084 detect_INACT
00032c00 g     F .text	00000020 alt_dcache_flush_all
000295e4 g     F .text	00000064 __hi0bits
000209d4 g     F .text	00000080 .hidden __fixdfsi
00023620 g     F .text	00000020 strtod
00035ae8 g       *ABS*	00000000 __ram_rwdata_end
00020264 g     F .text	00000068 timer_init
00020000 g       *ABS*	00000000 __alt_mem_onchip_memory
00035ac8 g     O .rwdata	00000008 alt_dev_list
000319b8 g     F .text	00000104 write
00020a54 g     F .text	00000008 atof
00033ebc g       *ABS*	00000000 __ram_rodata_end
00030d1c g     F .text	000000bc fstat
000310a0 g     F .text	0000012c kill
0002f634 g     F .text	000000f0 .hidden __ledf2
00023640 g     F .text	00000120 strtof_l
000299f8 g     F .text	00000118 __pow5mult
00035aa5 g     O .rwdata	00000001 led
0002a744 g     F .text	00001314 ___vfiprintf_internal_r
0002e010 g     F .text	0000005c .hidden __umodsi3
00037880 g       *ABS*	00000000 end
00020fd8 g     F .text	0000001c fseeko
00020b68 g     F .text	0000001c fseek
00031cfc g     F .text	000000b4 altera_avalon_jtag_uart_init
000201c8 g     F .exceptions	00000060 alt_instruction_exception_entry
00033664 g       *ABS*	00000000 __CTOR_LIST__
00040000 g       *ABS*	00000000 __alt_stack_pointer
00032684 g     F .text	0000007c alt_avalon_timer_sc_init
00030b10 g     F .text	00000054 .hidden __clzsi2
000323dc g     F .text	00000228 altera_avalon_jtag_uart_write
00027bd8 g     F .text	00000004 __sfp_lock_acquire
00028fc4 g     F .text	000000d4 memchr
000238bc g     F .text	000020ec ___vfprintf_internal_r
00027de4 g     F .text	000002fc _free_r
00033bf8 g     O .rodata	00000180 _ctype_b
00028ecc g     F .text	0000000c __locale_mb_cur_max
00033544 g     F .text	00000120 __call_exitprocs
00021dec g     F .text	00000074 __srget_r
00035ab4 g     O .rwdata	00000004 __malloc_sbrk_base
00020228 g     F .text	0000003c _start
0003774c g     O .bss	00000004 _alt_tick_rate
00029b10 g     F .text	00000188 __lshift
00037750 g     O .bss	00000004 _alt_nticks
0002d048 g     F .text	00000018 signal
0003174c g     F .text	00000108 read
00031b2c g     F .text	0000006c alt_sys_init
0003273c g     F .text	00000044 alt_up_accelerometer_spi_read_address_register
00021b38 g     F .text	00000064 _open_r
000334b4 g     F .text	00000090 __register_exitproc
0002a574 g     F .text	000000c4 strncmp
0002974c g     F .text	000002ac __multiply
00032060 g     F .text	00000068 altera_avalon_jtag_uart_close
0002e06c g     F .text	00000028 .hidden __mulsi3
00033ebc g       *ABS*	00000000 __ram_rwdata_start
00033664 g       *ABS*	00000000 __ram_rodata_start
00037758 g     O .bss	00000028 __malloc_current_mallinfo
0002e094 g     F .text	00000078 .hidden __eqsf2
0002a07c g     F .text	00000164 __d2b
00031b98 g     F .text	00000060 altera_avalon_jtag_uart_read_fd
00032f64 g     F .text	000000b8 alt_get_fd
00032924 g     F .text	000000d4 alt_up_accelerometer_spi_read_y_axis
00025c44 g     F .text	00000058 _close_r
0002036c g     F .text	000000a8 max
0003343c g     F .text	00000078 memcmp
00031c58 g     F .text	00000050 altera_avalon_jtag_uart_close_fd
00037880 g       *ABS*	00000000 __alt_stack_base
00031ca8 g     F .text	00000054 altera_avalon_jtag_uart_ioctl_fd
00025ae8 g     F .text	0000015c __swsetup_r
0002eb90 g     F .text	00000934 .hidden __divdf3
00027ab8 g     F .text	000000fc __sfp
0002a2f4 g     F .text	0000006c __copybits
000342f0 g     O .rwdata	00000408 __malloc_av_
00027be4 g     F .text	00000004 __sinit_lock_release
0002f724 g     F .text	000007a8 .hidden __muldf3
00021ec8 g     F .text	00000054 __sread
00032e5c g     F .text	00000108 alt_find_file
00032c5c g     F .text	000000a8 alt_dev_llist_insert
00031450 g     F .text	00000024 __malloc_lock
000318c4 g     F .text	000000b8 sbrk
00027834 g     F .text	00000060 _fflush_r
0002bbe8 g     F .text	000000c4 _calloc_r
00020b4c g     F .text	00000018 fopen
00037714 g       *ABS*	00000000 __bss_start
000206d0 g     F .text	000000ac write_7seg
00029198 g     F .text	000000f0 memset
0002077c g     F .text	00000258 main
00037748 g     O .bss	00000004 alt_envp
0003772c g     O .bss	00000004 __malloc_max_total_mem
00031bf8 g     F .text	00000060 altera_avalon_jtag_uart_write_fd
0002ccb4 g     F .text	00000018 __swbuf
0002e10c g     F .text	000000c0 .hidden __ltsf2
00022000 g     F .text	00000008 __sclose
00040000 g       *ABS*	00000000 __alt_heap_limit
0002bda4 g     F .text	00000010 fclose
000309a0 g     F .text	00000170 .hidden __truncdfsf2
00025ebc g     F .text	00001750 _dtoa_r
00021358 g     F .text	000007e0 _malloc_r
0002bb40 g     F .text	00000030 __ascii_wctomb
00035ad4 g     O .rwdata	00000004 alt_errno
0002bdb4 g     F .text	00000020 _fiprintf_r
0002d060 g     F .text	0000001c _init_signal
000280e0 g     F .text	00000098 _fwalk
00028f74 g     F .text	0000000c _mbtowc_r
0002deb8 g     F .text	00000080 .hidden __divsi3
00027cc8 g     F .text	0000011c _malloc_trim_r
00033664 g       *ABS*	00000000 __CTOR_END__
0002a424 g     F .text	000000b8 strcmp
00033664 g       *ABS*	00000000 __flash_rodata_start
00033664 g       *ABS*	00000000 __DTOR_LIST__
00020414 g     F .text	000000a8 min
0002d1d8 g     F .text	00000090 .hidden __fixunsdfdi
0002f4c4 g     F .text	00000080 .hidden __nedf2
00037720 g     O .bss	00000004 inact_counter
00031af0 g     F .text	0000003c alt_irq_init
00031854 g     F .text	00000070 alt_release_fd
00033d78 g     O .rodata	00000100 .hidden __clz_tab
00037738 g     O .bss	00000004 _PathLocale
0002d164 g     F .text	00000074 .hidden __fixdfdi
00023760 g     F .text	0000015c strtof
00023604 g     F .text	0000001c strtod_l
000333f4 g     F .text	00000014 atexit
000204bc g     F .text	00000128 detect_ACT
00025a84 g     F .text	00000064 _write_r
00028ed8 g     F .text	00000018 setlocale
00035ab0 g     O .rwdata	00000004 _impure_ptr
00037740 g     O .bss	00000004 alt_argc
0002760c g     F .text	00000228 __sflush_r
00032d68 g     F .text	00000064 _do_dtors
00035aa4 g     O .rwdata	00000001 char_out
00020b64 g     F .text	00000004 _fseek_r
00021c20 g     F .text	000001cc __srefill_r
00020020 g       .exceptions	00000000 alt_irq_entry
00028f80 g     F .text	00000044 __ascii_mbtowc
00029f1c g     F .text	0000005c __ulp
00027bfc g     F .text	00000014 __fp_unlock_all
00033918 g     O .rodata	0000000c _C_numeric_locale
00035ac0 g     O .rwdata	00000008 alt_fs_list
00020020 g       *ABS*	00000000 __ram_exceptions_start
00032700 g     F .text	0000003c alt_up_accelerometer_spi_open_dev
00028f04 g     F .text	0000000c localeconv
00021160 g     F .text	00000098 __swhatbuf_r
00035ae8 g       *ABS*	00000000 _edata
00037880 g       *ABS*	00000000 _end
0002e1cc g     F .text	0000004c .hidden __unordsf2
0002be0c g     F .text	00000164 __fputwc
00020228 g       *ABS*	00000000 __ram_exceptions_end
000320c8 g     F .text	000000f4 altera_avalon_jtag_uart_ioctl
00021f24 g     F .text	00000080 __swrite
00035ab8 g     O .rwdata	00000004 __malloc_trim_threshold
00033408 g     F .text	00000034 exit
0002bdd4 g     F .text	00000038 fiprintf
0002cb68 g     F .text	00000004 _vfiprintf_r
00028178 g     F .text	000000a8 _fwalk_reent
00029cf0 g     F .text	0000022c __mdiff
0002df38 g     F .text	00000074 .hidden __modsi3
000329f8 g     F .text	000000d4 alt_up_accelerometer_spi_read_z_axis
00040000 g       *ABS*	00000000 __alt_data_end
00020020 g     F .exceptions	00000000 alt_exception
00027bdc g     F .text	00000004 __sfp_lock_release
0003771c g     O .bss	00000004 timer_f
00033af4 g     O .rodata	00000101 _ctype_
00020668 g     F .text	00000068 wait_INACT
00030800 g     F .text	00000054 .hidden __unorddf2
00020a5c g     F .text	000000f0 _fopen_r
00030ca8 g     F .text	00000038 _exit
00032acc g     F .text	00000134 alt_alarm_start
00032780 g     F .text	00000068 alt_up_accelerometer_spi_read
000327e8 g     F .text	00000068 alt_up_accelerometer_spi_write
000211f8 g     F .text	00000140 __smakebuf_r
0002a4dc g     F .text	00000098 strlen
0002ce24 g     F .text	00000014 _init_signal_r
000315b0 g     F .text	00000160 open
0002f544 g     F .text	000000f0 .hidden __gedf2
000282fc g     F .text	00000844 __gethex
0002bbd4 g     F .text	00000014 __assert
0002a72c g     F .text	00000018 __sprint_r
0003301c g     F .text	00000020 alt_icache_flush_all
00028e50 g     F .text	00000008 __numeric_load_locale
00035ad8 g     O .rwdata	00000004 alt_priority_mask
000259a8 g     F .text	0000001c __vfprintf_internal
0002bb34 g     F .text	0000000c _wctomb_r
0002fecc g     F .text	00000934 .hidden __subdf3
00037724 g     O .bss	00000004 acc_dev
00029648 g     F .text	000000b0 __lo0bits
00035ae0 g     O .rwdata	00000008 alt_alarm_list
00032d04 g     F .text	00000064 _do_ctors
0002d07c g     F .text	00000010 __sigtramp
0002cd38 g     F .text	00000088 wcrtomb
00030ba0 g     F .text	000000dc close
000346f8 g     O .rwdata	0000016c __global_locale
00031234 g     F .text	00000084 alt_load
0002bf94 g     F .text	00000078 fputwc
0002d038 g     F .text	00000010 raise
00021348 g     F .text	00000010 free
00027be0 g     F .text	00000004 __sinit_lock_acquire
00029350 g     F .text	0000015c __multadd
0002932c g     F .text	00000024 _Bfree



Disassembly of section .entry:

00020000 <__reset>:
 * Jump to the _start entry point in the .text section if reset code
 * is allowed or if optimizing for RTL simulation.
 */
#if defined(ALT_ALLOW_CODE_AT_RESET) || defined(ALT_SIM_OPTIMIZE)
    /* Jump to the _start entry point in the .text section. */
    movhi r1, %hi(_start)
   20000:	004000b4 	movhi	at,2
    ori r1, r1, %lo(_start)
   20004:	08408a14 	ori	at,at,552
    jmp r1
   20008:	0800683a 	jmp	at
	...

Disassembly of section .exceptions:

00020020 <alt_exception>:

#else /* ALT_EXCEPTION_STACK disabled */
        /* 
         * Reserve space on normal stack for registers about to be pushed.
         */
        addi  sp, sp, -76
   20020:	deffed04 	addi	sp,sp,-76
         * documentation for details).
         *
         * Leave a gap in the stack frame at 4(sp) for the muldiv handler to
         * store zero into.
         */
        stw   ra,  0(sp)
   20024:	dfc00015 	stw	ra,0(sp)
        stw   r1,   8(sp)
   20028:	d8400215 	stw	at,8(sp)
        stw   r2,  12(sp)
   2002c:	d8800315 	stw	r2,12(sp)
        stw   r3,  16(sp)
   20030:	d8c00415 	stw	r3,16(sp)
        stw   r4,  20(sp)
   20034:	d9000515 	stw	r4,20(sp)
        stw   r5,  24(sp)
   20038:	d9400615 	stw	r5,24(sp)
        stw   r6,  28(sp)
   2003c:	d9800715 	stw	r6,28(sp)
        stw   r7,  32(sp)
   20040:	d9c00815 	stw	r7,32(sp)
        rdctl r5, estatus   /* Read early to avoid usage stall */
   20044:	000b307a 	rdctl	r5,estatus
        stw   r8,  36(sp)
   20048:	da000915 	stw	r8,36(sp)
        stw   r9,  40(sp)
   2004c:	da400a15 	stw	r9,40(sp)
        stw   r10, 44(sp)
   20050:	da800b15 	stw	r10,44(sp)
        stw   r11, 48(sp)
   20054:	dac00c15 	stw	r11,48(sp)
        stw   r12, 52(sp)
   20058:	db000d15 	stw	r12,52(sp)
        stw   r13, 56(sp)
   2005c:	db400e15 	stw	r13,56(sp)
        stw   r14, 60(sp)
   20060:	db800f15 	stw	r14,60(sp)
        stw   r15, 64(sp)
   20064:	dbc01015 	stw	r15,64(sp)
        /*
         * ea-4 contains the address of the instruction being executed
         * when the exception occured. For interrupt exceptions, we will
         * will be re-issue the isntruction. Store it in 72(sp)
         */
        stw   r5,  68(sp)  /* estatus */
   20068:	d9401115 	stw	r5,68(sp)
        addi  r15, ea, -4  /* instruction that caused exception */
   2006c:	ebffff04 	addi	r15,ea,-4
        stw   r15,  72(sp)
   20070:	dbc01215 	stw	r15,72(sp)
#else
        /*
         * Test to see if the exception was a software exception or caused 
         * by an external interrupt, and vector accordingly.
         */
        rdctl r4, ipending
   20074:	0009313a 	rdctl	r4,ipending
        andi  r2, r5, 1
   20078:	2880004c 	andi	r2,r5,1
        beq   r2, zero, .Lnot_irq
   2007c:	10000326 	beq	r2,zero,2008c <alt_exception+0x6c>
        beq   r4, zero, .Lnot_irq
   20080:	20000226 	beq	r4,zero,2008c <alt_exception+0x6c>
        /*
         * Now that all necessary registers have been preserved, call 
         * alt_irq_handler() to process the interrupts.
         */

        call alt_irq_handler
   20084:	00200fc0 	call	200fc <alt_irq_handler>

        .section .exceptions.irqreturn, "xa"

        br    .Lexception_exit
   20088:	00000706 	br	200a8 <alt_exception+0x88>
         * upon completion, so we write ea (address of instruction *after*
         * the one where the exception occured) into 72(sp). The actual
         * instruction that caused the exception is written in r2, which these
         * handlers will utilize.
         */
        stw ea, 72(sp) /* EA is PC+4 so will skip over instruction causing exception */
   2008c:	df401215 	stw	ea,72(sp)
.Lunknown_16bit:
        addi.n r4, r4, 2 /* Need PC+2 to skip over instruction causing exception */
        stw r4, 72(sp)

#else /* CDX is not Enabled and all instructions are 32bits */
        ldw r2, -4(ea) /* Instruction value that caused exception */
   20090:	e8bfff17 	ldw	r2,-4(ea)
         * debugger is present) or go into an infinite loop since the
         * handling behavior is undefined; in that case we will not return here.
         */

        /* Load exception-causing address as first argument (r4) */
        addi   r4, ea, -4
   20094:	e93fff04 	addi	r4,ea,-4

        /* Call the instruction-exception entry */
        call   alt_instruction_exception_entry
   20098:	00201c80 	call	201c8 <alt_instruction_exception_entry>
         * instruction
         *
         * Return code was 0: Skip. The instruction after the exception is
         * already stored in 72(sp).
         */
        bne   r2, r0, .Lexception_exit
   2009c:	1000021e 	bne	r2,zero,200a8 <alt_exception+0x88>

        /*
         * Otherwise, modify 72(sp) to re-issue the instruction that caused the
         * exception.
         */
        addi  r15, ea, -4  /* instruction that caused exception */
   200a0:	ebffff04 	addi	r15,ea,-4
        stw   r15,  72(sp)
   200a4:	dbc01215 	stw	r15,72(sp)
        /* 
         * Restore the saved registers, so that all general purpose registers 
         * have been restored to their state at the time the interrupt occured.
         */

        ldw   r5,  68(sp)
   200a8:	d9401117 	ldw	r5,68(sp)
        ldw   ea,  72(sp)  /* This becomes the PC once eret is executed */
   200ac:	df401217 	ldw	ea,72(sp)
        ldw   ra,   0(sp)
   200b0:	dfc00017 	ldw	ra,0(sp)

        wrctl estatus, r5
   200b4:	2801707a 	wrctl	estatus,r5

        ldw   r1,   8(sp)
   200b8:	d8400217 	ldw	at,8(sp)
        ldw   r2,  12(sp)
   200bc:	d8800317 	ldw	r2,12(sp)
        ldw   r3,  16(sp)
   200c0:	d8c00417 	ldw	r3,16(sp)
        ldw   r4,  20(sp)
   200c4:	d9000517 	ldw	r4,20(sp)
        ldw   r5,  24(sp)
   200c8:	d9400617 	ldw	r5,24(sp)
        ldw   r6,  28(sp)
   200cc:	d9800717 	ldw	r6,28(sp)
        ldw   r7,  32(sp)
   200d0:	d9c00817 	ldw	r7,32(sp)

#if defined(ALT_EXCEPTION_STACK) && defined(ALT_STACK_CHECK)
        ldw   et, %gprel(alt_exception_old_stack_limit)(gp)
#endif

        ldw   r8,  36(sp)
   200d4:	da000917 	ldw	r8,36(sp)
        ldw   r9,  40(sp)
   200d8:	da400a17 	ldw	r9,40(sp)
        ldw   r10, 44(sp)
   200dc:	da800b17 	ldw	r10,44(sp)
        ldw   r11, 48(sp)
   200e0:	dac00c17 	ldw	r11,48(sp)
        ldw   r12, 52(sp)
   200e4:	db000d17 	ldw	r12,52(sp)
        ldw   r13, 56(sp)
   200e8:	db400e17 	ldw	r13,56(sp)
        ldw   r14, 60(sp)
   200ec:	db800f17 	ldw	r14,60(sp)
        ldw   r15, 64(sp)
   200f0:	dbc01017 	ldw	r15,64(sp)
        stw   et, %gprel(alt_stack_limit_value)(gp)
        stw   zero, %gprel(alt_exception_old_stack_limit)(gp)
#endif /* ALT_STACK_CHECK */
        ldw   sp,  76(sp)
#else /* ALT_EXCEPTION_STACK disabled */
        addi  sp, sp, 76
   200f4:	dec01304 	addi	sp,sp,76

        /*
         * Return to the interrupted instruction.
         */

        eret
   200f8:	ef80083a 	eret

000200fc <alt_irq_handler>:
 * instruction is present if the macro ALT_CI_INTERRUPT_VECTOR defined.
 */

void alt_irq_handler (void) __attribute__ ((section (".exceptions")));
void alt_irq_handler (void)
{
   200fc:	defff904 	addi	sp,sp,-28
   20100:	dfc00615 	stw	ra,24(sp)
   20104:	df000515 	stw	fp,20(sp)
   20108:	df000504 	addi	fp,sp,20
  
  /*
   * Notify the operating system that we are at interrupt level.
   */ 
  
  ALT_OS_INT_ENTER();
   2010c:	0001883a 	nop
#ifndef NIOS2_EIC_PRESENT
static ALT_INLINE alt_u32 ALT_ALWAYS_INLINE alt_irq_pending (void)
{
  alt_u32 active;

  NIOS2_READ_IPENDING (active);
   20110:	0005313a 	rdctl	r2,ipending
   20114:	e0bffc15 	stw	r2,-16(fp)

  return active;
   20118:	e0bffc17 	ldw	r2,-16(fp)
   * Consider the case where the high priority interupt is asserted during
   * the interrupt entry sequence for a lower priority interrupt to see why
   * this is the case.
   */

  active = alt_irq_pending ();
   2011c:	e0bfff15 	stw	r2,-4(fp)

  do
  {
    i = 0;
   20120:	e03ffd15 	stw	zero,-12(fp)
    mask = 1;
   20124:	00800044 	movi	r2,1
   20128:	e0bffe15 	stw	r2,-8(fp)
     * called to clear the interrupt condition.
     */

    do
    {
      if (active & mask)
   2012c:	e0ffff17 	ldw	r3,-4(fp)
   20130:	e0bffe17 	ldw	r2,-8(fp)
   20134:	1884703a 	and	r2,r3,r2
   20138:	10001226 	beq	r2,zero,20184 <alt_irq_handler+0x88>
      { 
#ifdef ALT_ENHANCED_INTERRUPT_API_PRESENT
        alt_irq[i].handler(alt_irq[i].context); 
#else
        alt_irq[i].handler(alt_irq[i].context, i); 
   2013c:	e0bffd17 	ldw	r2,-12(fp)
   20140:	100690fa 	slli	r3,r2,3
   20144:	008000f4 	movhi	r2,3
   20148:	1885883a 	add	r2,r3,r2
   2014c:	10dde017 	ldw	r3,30592(r2)
   20150:	e0bffd17 	ldw	r2,-12(fp)
   20154:	100890fa 	slli	r4,r2,3
   20158:	008000f4 	movhi	r2,3
   2015c:	2085883a 	add	r2,r4,r2
   20160:	109de117 	ldw	r2,30596(r2)
   20164:	e17ffd17 	ldw	r5,-12(fp)
   20168:	1009883a 	mov	r4,r2
   2016c:	183ee83a 	callr	r3
#endif
        break;
   20170:	0001883a 	nop
  NIOS2_READ_IPENDING (active);
   20174:	0005313a 	rdctl	r2,ipending
   20178:	e0bffb15 	stw	r2,-20(fp)
  return active;
   2017c:	e0bffb17 	ldw	r2,-20(fp)
   20180:	00000706 	br	201a0 <alt_irq_handler+0xa4>
      }
      mask <<= 1;
   20184:	e0bffe17 	ldw	r2,-8(fp)
   20188:	1085883a 	add	r2,r2,r2
   2018c:	e0bffe15 	stw	r2,-8(fp)
      i++;
   20190:	e0bffd17 	ldw	r2,-12(fp)
   20194:	10800044 	addi	r2,r2,1
   20198:	e0bffd15 	stw	r2,-12(fp)
      if (active & mask)
   2019c:	003fe306 	br	2012c <alt_irq_handler+0x30>

    } while (1);

    active = alt_irq_pending ();
   201a0:	e0bfff15 	stw	r2,-4(fp)
    
  } while (active);
   201a4:	e0bfff17 	ldw	r2,-4(fp)
   201a8:	103fdd1e 	bne	r2,zero,20120 <alt_irq_handler+0x24>

  /*
   * Notify the operating system that interrupt processing is complete.
   */ 

  ALT_OS_INT_EXIT();
   201ac:	0001883a 	nop
}
   201b0:	0001883a 	nop
   201b4:	e037883a 	mov	sp,fp
   201b8:	dfc00117 	ldw	ra,4(sp)
   201bc:	df000017 	ldw	fp,0(sp)
   201c0:	dec00204 	addi	sp,sp,8
   201c4:	f800283a 	ret

000201c8 <alt_instruction_exception_entry>:
 * that handler if it has been registered. Absent a handler, it will
 * break break or hang as discussed below.
 */
int 
alt_instruction_exception_entry (alt_u32 exception_pc)
{
   201c8:	defffb04 	addi	sp,sp,-20
   201cc:	dfc00415 	stw	ra,16(sp)
   201d0:	df000315 	stw	fp,12(sp)
   201d4:	df000304 	addi	fp,sp,12
   201d8:	e13ffd15 	stw	r4,-12(fp)
  cause = ( (cause & NIOS2_EXCEPTION_REG_CAUSE_MASK) >>
              NIOS2_EXCEPTION_REG_CAUSE_OFST );

  NIOS2_READ_BADADDR(badaddr);
#else
  cause = NIOS2_EXCEPTION_CAUSE_NOT_PRESENT;
   201dc:	00bfffc4 	movi	r2,-1
   201e0:	e0bfff15 	stw	r2,-4(fp)
  badaddr = 0;
   201e4:	e03ffe15 	stw	zero,-8(fp)
#endif /* NIOS2_HAS_EXTRA_EXCEPTION_INFO */

  if(alt_instruction_exception_handler) {
   201e8:	d0a72f17 	ldw	r2,-25412(gp)
   201ec:	10000726 	beq	r2,zero,2020c <alt_instruction_exception_entry+0x44>
     * Call handler. Its return value indicates whether the exception-causing
     * instruction should be re-issued. The code that called us,
     * alt_eceptions_entry.S, will look at this value and adjust the ea
     * register as necessary
     */
    return alt_instruction_exception_handler(cause, exception_pc, badaddr);
   201f0:	d0a72f17 	ldw	r2,-25412(gp)
   201f4:	e0ffff17 	ldw	r3,-4(fp)
   201f8:	e1bffe17 	ldw	r6,-8(fp)
   201fc:	e17ffd17 	ldw	r5,-12(fp)
   20200:	1809883a 	mov	r4,r3
   20204:	103ee83a 	callr	r2
   20208:	00000206 	br	20214 <alt_instruction_exception_entry+0x4c>
   *    (a peripheral which negates its interrupt output before its
   *    interrupt handler has been executed will cause spurious interrupts)
   */
  else {
#ifdef NIOS2_HAS_DEBUG_STUB
    NIOS2_BREAK();
   2020c:	003da03a 	break	0
      ;
#endif /* NIOS2_HAS_DEBUG_STUB */
  }

  /* We should not get here. Remove compiler warning. */
  return NIOS2_EXCEPTION_RETURN_REISSUE_INST;
   20210:	0005883a 	mov	r2,zero
}
   20214:	e037883a 	mov	sp,fp
   20218:	dfc00117 	ldw	ra,4(sp)
   2021c:	df000017 	ldw	fp,0(sp)
   20220:	dec00204 	addi	sp,sp,8
   20224:	f800283a 	ret

Disassembly of section .text:

00020228 <_start>:

    /*
     * Now that the caches are initialized, set up the stack pointer and global pointer.
     * The values provided by the linker are assumed to be correctly aligned.
     */
    movhi sp, %hi(__alt_stack_pointer)
   20228:	06c00134 	movhi	sp,4
    ori sp, sp, %lo(__alt_stack_pointer)
   2022c:	dec00014 	ori	sp,sp,0
    movhi gp, %hi(_gp)
   20230:	068000f4 	movhi	gp,3
    ori gp, gp, %lo(_gp)
   20234:	d6b6a614 	ori	gp,gp,55960
 */
#ifndef ALT_SIM_OPTIMIZE
    /* Log that the BSS is about to be cleared. */
    ALT_LOG_PUTS(alt_log_msg_bss)

    movhi r2, %hi(__bss_start)
   20238:	008000f4 	movhi	r2,3
    ori r2, r2, %lo(__bss_start)
   2023c:	109dc514 	ori	r2,r2,30484

    movhi r3, %hi(__bss_end)
   20240:	00c000f4 	movhi	r3,3
    ori r3, r3, %lo(__bss_end)
   20244:	18de2014 	ori	r3,r3,30848

    beq r2, r3, 1f
   20248:	10c00326 	beq	r2,r3,20258 <_start+0x30>

0:
    stw zero, (r2)
   2024c:	10000015 	stw	zero,0(r2)
    addi r2, r2, 4
   20250:	10800104 	addi	r2,r2,4
    bltu r2, r3, 0b
   20254:	10fffd36 	bltu	r2,r3,2024c <_start+0x24>
     * section aren't defined until alt_load() has been called).
     */
    mov   et, zero
#endif

    call alt_load
   20258:	00312340 	call	31234 <alt_load>

    /* Log that alt_main is about to be called. */
    ALT_LOG_PUTS(alt_log_msg_alt_main)

    /* Call the C entry point. It should never return. */
    call alt_main
   2025c:	00313d40 	call	313d4 <alt_main>

00020260 <alt_after_alt_main>:

    /* Wait in infinite loop in case alt_main does return. */
alt_after_alt_main:
    br alt_after_alt_main
   20260:	003fff06 	br	20260 <alt_after_alt_main>

00020264 <timer_init>:
int timer_f = 0;
int inact_counter = 0;
alt_up_accelerometer_spi_dev * acc_dev;

//Timer is used to regulate the maximum rate of data input to the game.
void timer_init(void * isr) { //initialises timer and specifies interrupt service routine
   20264:	defffd04 	addi	sp,sp,-12
   20268:	dfc00215 	stw	ra,8(sp)
   2026c:	df000115 	stw	fp,4(sp)
   20270:	df000104 	addi	fp,sp,4
   20274:	e13fff15 	stw	r4,-4(fp)
    IOWR_ALTERA_AVALON_TIMER_CONTROL(TIMER_BASE, 0x0003);
   20278:	008000c4 	movi	r2,3
   2027c:	00800135 	stwio	r2,4(zero)
    IOWR_ALTERA_AVALON_TIMER_STATUS(TIMER_BASE, 0);
   20280:	0005883a 	mov	r2,zero
   20284:	00800035 	stwio	r2,0(zero)
    IOWR_ALTERA_AVALON_TIMER_PERIODL(TIMER_BASE, 0x0000); //change period of timer with these two registers
   20288:	0005883a 	mov	r2,zero
   2028c:	00800235 	stwio	r2,8(zero)
    IOWR_ALTERA_AVALON_TIMER_PERIODH(TIMER_BASE, 0x0008); // PERIOD = {PERIODH,PERIODL} (concatenated)
   20290:	00800204 	movi	r2,8
   20294:	00800335 	stwio	r2,12(zero)
    alt_irq_register(TIMER_IRQ, 0, isr);
   20298:	e0bfff17 	ldw	r2,-4(fp)
   2029c:	100d883a 	mov	r6,r2
   202a0:	000b883a 	mov	r5,zero
   202a4:	0009883a 	mov	r4,zero
   202a8:	0030df80 	call	30df8 <alt_irq_register>
    IOWR_ALTERA_AVALON_TIMER_CONTROL(TIMER_BASE, 0x0007);
   202ac:	008001c4 	movi	r2,7
   202b0:	00800135 	stwio	r2,4(zero)
}
   202b4:	0001883a 	nop
   202b8:	e037883a 	mov	sp,fp
   202bc:	dfc00117 	ldw	ra,4(sp)
   202c0:	df000017 	ldw	fp,0(sp)
   202c4:	dec00204 	addi	sp,sp,8
   202c8:	f800283a 	ret

000202cc <sys_timer_isr>:

void sys_timer_isr() { //interrupt service routine
   202cc:	deffff04 	addi	sp,sp,-4
   202d0:	df000015 	stw	fp,0(sp)
   202d4:	d839883a 	mov	fp,sp
	IOWR_ALTERA_AVALON_TIMER_STATUS(TIMER_BASE, 0);
   202d8:	0005883a 	mov	r2,zero
   202dc:	00800035 	stwio	r2,0(zero)
	led++;
   202e0:	d0a00343 	ldbu	r2,-32755(gp)
   202e4:	10800044 	addi	r2,r2,1
   202e8:	d0a00345 	stb	r2,-32755(gp)
	IOWR_ALTERA_AVALON_PIO_DATA(LED_BASE, led);
   202ec:	d0a00343 	ldbu	r2,-32755(gp)
   202f0:	10c03fcc 	andi	r3,r2,255
   202f4:	00800134 	movhi	r2,4
   202f8:	10c42435 	stwio	r3,4240(r2)
	timer_f = 1;
   202fc:	00800044 	movi	r2,1
   20300:	d0a72115 	stw	r2,-25468(gp)
}
   20304:	0001883a 	nop
   20308:	e037883a 	mov	sp,fp
   2030c:	df000017 	ldw	fp,0(sp)
   20310:	dec00104 	addi	sp,sp,4
   20314:	f800283a 	ret

00020318 <read_accelerometer>:

void read_accelerometer(alt_32* yz) {
   20318:	defffd04 	addi	sp,sp,-12
   2031c:	dfc00215 	stw	ra,8(sp)
   20320:	df000115 	stw	fp,4(sp)
   20324:	df000104 	addi	fp,sp,4
   20328:	e13fff15 	stw	r4,-4(fp)
	//readings for all axes
	alt_up_accelerometer_spi_read_y_axis(acc_dev, yz);
   2032c:	d0a72317 	ldw	r2,-25460(gp)
   20330:	e17fff17 	ldw	r5,-4(fp)
   20334:	1009883a 	mov	r4,r2
   20338:	00329240 	call	32924 <alt_up_accelerometer_spi_read_y_axis>
	alt_up_accelerometer_spi_read_z_axis(acc_dev, yz+1);
   2033c:	d0e72317 	ldw	r3,-25460(gp)
   20340:	e0bfff17 	ldw	r2,-4(fp)
   20344:	10800104 	addi	r2,r2,4
   20348:	100b883a 	mov	r5,r2
   2034c:	1809883a 	mov	r4,r3
   20350:	00329f80 	call	329f8 <alt_up_accelerometer_spi_read_z_axis>
}
   20354:	0001883a 	nop
   20358:	e037883a 	mov	sp,fp
   2035c:	dfc00117 	ldw	ra,4(sp)
   20360:	df000017 	ldw	fp,0(sp)
   20364:	dec00204 	addi	sp,sp,8
   20368:	f800283a 	ret

0002036c <max>:

int max() { //returns index of the maximum reading out of the 3 axes (current sample)
   2036c:	defffc04 	addi	sp,sp,-16
   20370:	df000315 	stw	fp,12(sp)
   20374:	df000304 	addi	fp,sp,12
	int index = 0;
   20378:	e03fff15 	stw	zero,-4(fp)
	int max = abs(yz[0]);
   2037c:	d0a71f17 	ldw	r2,-25476(gp)
   20380:	1000010e 	bge	r2,zero,20388 <max+0x1c>
   20384:	0085c83a 	sub	r2,zero,r2
   20388:	e0bffe15 	stw	r2,-8(fp)
	for (int i=1; i<2; i++) {
   2038c:	00800044 	movi	r2,1
   20390:	e0bffd15 	stw	r2,-12(fp)
   20394:	00001706 	br	203f4 <max+0x88>
		if (abs(yz[i]) > max) {
   20398:	e0bffd17 	ldw	r2,-12(fp)
   2039c:	100690ba 	slli	r3,r2,2
   203a0:	d0a71f04 	addi	r2,gp,-25476
   203a4:	1885883a 	add	r2,r3,r2
   203a8:	10800017 	ldw	r2,0(r2)
   203ac:	1000010e 	bge	r2,zero,203b4 <max+0x48>
   203b0:	0085c83a 	sub	r2,zero,r2
   203b4:	1007883a 	mov	r3,r2
   203b8:	e0bffe17 	ldw	r2,-8(fp)
   203bc:	10c00a0e 	bge	r2,r3,203e8 <max+0x7c>
			max = abs(yz[i]);
   203c0:	e0bffd17 	ldw	r2,-12(fp)
   203c4:	100690ba 	slli	r3,r2,2
   203c8:	d0a71f04 	addi	r2,gp,-25476
   203cc:	1885883a 	add	r2,r3,r2
   203d0:	10800017 	ldw	r2,0(r2)
   203d4:	1000010e 	bge	r2,zero,203dc <max+0x70>
   203d8:	0085c83a 	sub	r2,zero,r2
   203dc:	e0bffe15 	stw	r2,-8(fp)
			index = i;
   203e0:	e0bffd17 	ldw	r2,-12(fp)
   203e4:	e0bfff15 	stw	r2,-4(fp)
	for (int i=1; i<2; i++) {
   203e8:	e0bffd17 	ldw	r2,-12(fp)
   203ec:	10800044 	addi	r2,r2,1
   203f0:	e0bffd15 	stw	r2,-12(fp)
   203f4:	e0bffd17 	ldw	r2,-12(fp)
   203f8:	10800090 	cmplti	r2,r2,2
   203fc:	103fe61e 	bne	r2,zero,20398 <max+0x2c>
		}
	}
	return index;
   20400:	e0bfff17 	ldw	r2,-4(fp)
}
   20404:	e037883a 	mov	sp,fp
   20408:	df000017 	ldw	fp,0(sp)
   2040c:	dec00104 	addi	sp,sp,4
   20410:	f800283a 	ret

00020414 <min>:

int min() { //returns index of the maximum reading out of the 3 axes (current sample)
   20414:	defffc04 	addi	sp,sp,-16
   20418:	df000315 	stw	fp,12(sp)
   2041c:	df000304 	addi	fp,sp,12
	int index = 0;
   20420:	e03fff15 	stw	zero,-4(fp)
	int min = abs(yz[0]);
   20424:	d0a71f17 	ldw	r2,-25476(gp)
   20428:	1000010e 	bge	r2,zero,20430 <min+0x1c>
   2042c:	0085c83a 	sub	r2,zero,r2
   20430:	e0bffe15 	stw	r2,-8(fp)
	for (int i=1; i<2; i++) {
   20434:	00800044 	movi	r2,1
   20438:	e0bffd15 	stw	r2,-12(fp)
   2043c:	00001706 	br	2049c <min+0x88>
		if (abs(yz[i]) < min) {
   20440:	e0bffd17 	ldw	r2,-12(fp)
   20444:	100690ba 	slli	r3,r2,2
   20448:	d0a71f04 	addi	r2,gp,-25476
   2044c:	1885883a 	add	r2,r3,r2
   20450:	10800017 	ldw	r2,0(r2)
   20454:	1000010e 	bge	r2,zero,2045c <min+0x48>
   20458:	0085c83a 	sub	r2,zero,r2
   2045c:	1007883a 	mov	r3,r2
   20460:	e0bffe17 	ldw	r2,-8(fp)
   20464:	18800a0e 	bge	r3,r2,20490 <min+0x7c>
			min = abs(yz[i]);
   20468:	e0bffd17 	ldw	r2,-12(fp)
   2046c:	100690ba 	slli	r3,r2,2
   20470:	d0a71f04 	addi	r2,gp,-25476
   20474:	1885883a 	add	r2,r3,r2
   20478:	10800017 	ldw	r2,0(r2)
   2047c:	1000010e 	bge	r2,zero,20484 <min+0x70>
   20480:	0085c83a 	sub	r2,zero,r2
   20484:	e0bffe15 	stw	r2,-8(fp)
			index = i;
   20488:	e0bffd17 	ldw	r2,-12(fp)
   2048c:	e0bfff15 	stw	r2,-4(fp)
	for (int i=1; i<2; i++) {
   20490:	e0bffd17 	ldw	r2,-12(fp)
   20494:	10800044 	addi	r2,r2,1
   20498:	e0bffd15 	stw	r2,-12(fp)
   2049c:	e0bffd17 	ldw	r2,-12(fp)
   204a0:	10800090 	cmplti	r2,r2,2
   204a4:	103fe61e 	bne	r2,zero,20440 <min+0x2c>
		}
	}
	return index;
   204a8:	e0bfff17 	ldw	r2,-4(fp)
}
   204ac:	e037883a 	mov	sp,fp
   204b0:	df000017 	ldw	fp,0(sp)
   204b4:	dec00104 	addi	sp,sp,4
   204b8:	f800283a 	ret

000204bc <detect_ACT>:

int detect_ACT() {
   204bc:	defffd04 	addi	sp,sp,-12
   204c0:	dfc00215 	stw	ra,8(sp)
   204c4:	df000115 	stw	fp,4(sp)
   204c8:	df000104 	addi	fp,sp,4
	int i = max();
   204cc:	002036c0 	call	2036c <max>
   204d0:	e0bfff15 	stw	r2,-4(fp)

	//output char if the |acceleration|>threshold and gradient has same polarity
	if (yz[i]*10 > (act_thresh_coef[i][0]*THRESHOLD_1G)) { //multiplied by 10 to fine-tune threshold
   204d4:	e0bfff17 	ldw	r2,-4(fp)
   204d8:	100690ba 	slli	r3,r2,2
   204dc:	d0a71f04 	addi	r2,gp,-25476
   204e0:	1885883a 	add	r2,r3,r2
   204e4:	10c00017 	ldw	r3,0(r2)
   204e8:	1805883a 	mov	r2,r3
   204ec:	100490ba 	slli	r2,r2,2
   204f0:	10c5883a 	add	r2,r2,r3
   204f4:	1085883a 	add	r2,r2,r2
   204f8:	1009883a 	mov	r4,r2
   204fc:	e0bfff17 	ldw	r2,-4(fp)
   20500:	100690fa 	slli	r3,r2,3
   20504:	008000f4 	movhi	r2,3
   20508:	1885883a 	add	r2,r3,r2
   2050c:	10cfaf17 	ldw	r3,16060(r2)
   20510:	1805883a 	mov	r2,r3
   20514:	1004923a 	slli	r2,r2,8
   20518:	10c5c83a 	sub	r2,r2,r3
   2051c:	11000b0e 	bge	r2,r4,2054c <detect_ACT+0x90>
		char_out = output[i][0];
   20520:	e0bfff17 	ldw	r2,-4(fp)
   20524:	1087883a 	add	r3,r2,r2
   20528:	d0a00204 	addi	r2,gp,-32760
   2052c:	1885883a 	add	r2,r3,r2
   20530:	10800003 	ldbu	r2,0(r2)
   20534:	d0a00305 	stb	r2,-32756(gp)
		led++;
   20538:	d0a00343 	ldbu	r2,-32755(gp)
   2053c:	10800044 	addi	r2,r2,1
   20540:	d0a00345 	stb	r2,-32755(gp)
		return 1;
   20544:	00800044 	movi	r2,1
   20548:	00002106 	br	205d0 <detect_ACT+0x114>
	} else if ((yz[i]*10 < -(act_thresh_coef[i][1]*THRESHOLD_1G))) { //Threshold cannot be below 255 as tilting the controller can cause reading abs(255) in any axis
   2054c:	e0bfff17 	ldw	r2,-4(fp)
   20550:	100690ba 	slli	r3,r2,2
   20554:	d0a71f04 	addi	r2,gp,-25476
   20558:	1885883a 	add	r2,r3,r2
   2055c:	10c00017 	ldw	r3,0(r2)
   20560:	1805883a 	mov	r2,r3
   20564:	100490ba 	slli	r2,r2,2
   20568:	10c5883a 	add	r2,r2,r3
   2056c:	1085883a 	add	r2,r2,r2
   20570:	1009883a 	mov	r4,r2
   20574:	e0bfff17 	ldw	r2,-4(fp)
   20578:	100690fa 	slli	r3,r2,3
   2057c:	008000f4 	movhi	r2,3
   20580:	1885883a 	add	r2,r3,r2
   20584:	108fb017 	ldw	r2,16064(r2)
   20588:	1007883a 	mov	r3,r2
   2058c:	1004923a 	slli	r2,r2,8
   20590:	1885c83a 	sub	r2,r3,r2
   20594:	20800b0e 	bge	r4,r2,205c4 <detect_ACT+0x108>
		char_out = output[i][1];
   20598:	e0bfff17 	ldw	r2,-4(fp)
   2059c:	1087883a 	add	r3,r2,r2
   205a0:	d0a00244 	addi	r2,gp,-32759
   205a4:	1885883a 	add	r2,r3,r2
   205a8:	10800003 	ldbu	r2,0(r2)
   205ac:	d0a00305 	stb	r2,-32756(gp)
		led++;
   205b0:	d0a00343 	ldbu	r2,-32755(gp)
   205b4:	10800044 	addi	r2,r2,1
   205b8:	d0a00345 	stb	r2,-32755(gp)
		return 1;
   205bc:	00800044 	movi	r2,1
   205c0:	00000306 	br	205d0 <detect_ACT+0x114>
	} else {
		char_out = '0';
   205c4:	00800c04 	movi	r2,48
   205c8:	d0a00305 	stb	r2,-32756(gp)
		return 0; //return 0 if reading magnitude too small
   205cc:	0005883a 	mov	r2,zero
	}
}
   205d0:	e037883a 	mov	sp,fp
   205d4:	dfc00117 	ldw	ra,4(sp)
   205d8:	df000017 	ldw	fp,0(sp)
   205dc:	dec00204 	addi	sp,sp,8
   205e0:	f800283a 	ret

000205e4 <detect_INACT>:

int detect_INACT(int i){
   205e4:	defffe04 	addi	sp,sp,-8
   205e8:	df000115 	stw	fp,4(sp)
   205ec:	df000104 	addi	fp,sp,4
   205f0:	e13fff15 	stw	r4,-4(fp)
	if ((abs(yz[i])*10) < (inact_thresh_coef[i]*THRESHOLD_1G)) { //multiplied by 10 to fine-tune threshold
   205f4:	e0bfff17 	ldw	r2,-4(fp)
   205f8:	100690ba 	slli	r3,r2,2
   205fc:	d0a71f04 	addi	r2,gp,-25476
   20600:	1885883a 	add	r2,r3,r2
   20604:	10800017 	ldw	r2,0(r2)
   20608:	1000010e 	bge	r2,zero,20610 <detect_INACT+0x2c>
   2060c:	0085c83a 	sub	r2,zero,r2
   20610:	1007883a 	mov	r3,r2
   20614:	1805883a 	mov	r2,r3
   20618:	100490ba 	slli	r2,r2,2
   2061c:	10c5883a 	add	r2,r2,r3
   20620:	1085883a 	add	r2,r2,r2
   20624:	1009883a 	mov	r4,r2
   20628:	e0bfff17 	ldw	r2,-4(fp)
   2062c:	100690ba 	slli	r3,r2,2
   20630:	d0a00004 	addi	r2,gp,-32768
   20634:	1885883a 	add	r2,r3,r2
   20638:	10c00017 	ldw	r3,0(r2)
   2063c:	1805883a 	mov	r2,r3
   20640:	1004923a 	slli	r2,r2,8
   20644:	10c5c83a 	sub	r2,r2,r3
   20648:	2080020e 	bge	r4,r2,20654 <detect_INACT+0x70>
		return 1;
   2064c:	00800044 	movi	r2,1
   20650:	00000106 	br	20658 <detect_INACT+0x74>
	} else {
		return 0; //return 0 if reading magnitude too large
   20654:	0005883a 	mov	r2,zero
	}
}
   20658:	e037883a 	mov	sp,fp
   2065c:	df000017 	ldw	fp,0(sp)
   20660:	dec00104 	addi	sp,sp,4
   20664:	f800283a 	ret

00020668 <wait_INACT>:

int wait_INACT() {
   20668:	defffd04 	addi	sp,sp,-12
   2066c:	dfc00215 	stw	ra,8(sp)
   20670:	df000115 	stw	fp,4(sp)
   20674:	df000104 	addi	fp,sp,4
	int i = min();
   20678:	00204140 	call	20414 <min>
   2067c:	e0bfff15 	stw	r2,-4(fp)
	if (inact_counter < INACT_SAMPLES) {
   20680:	d0a72217 	ldw	r2,-25464(gp)
   20684:	1080fa08 	cmpgei	r2,r2,1000
   20688:	10000a1e 	bne	r2,zero,206b4 <wait_INACT+0x4c>
		if (detect_INACT(i)) {
   2068c:	e13fff17 	ldw	r4,-4(fp)
   20690:	00205e40 	call	205e4 <detect_INACT>
   20694:	10000426 	beq	r2,zero,206a8 <wait_INACT+0x40>
			inact_counter++;
   20698:	d0a72217 	ldw	r2,-25464(gp)
   2069c:	10800044 	addi	r2,r2,1
   206a0:	d0a72215 	stw	r2,-25464(gp)
   206a4:	00000106 	br	206ac <wait_INACT+0x44>
		} else {
			inact_counter = 0;
   206a8:	d0272215 	stw	zero,-25464(gp)
		}
		return 0;
   206ac:	0005883a 	mov	r2,zero
   206b0:	00000206 	br	206bc <wait_INACT+0x54>
	} else {
		inact_counter = 0;
   206b4:	d0272215 	stw	zero,-25464(gp)
		return 1;
   206b8:	00800044 	movi	r2,1
	}

}
   206bc:	e037883a 	mov	sp,fp
   206c0:	dfc00117 	ldw	ra,4(sp)
   206c4:	df000017 	ldw	fp,0(sp)
   206c8:	dec00204 	addi	sp,sp,8
   206cc:	f800283a 	ret

000206d0 <write_7seg>:

//input should be 2 characters and a 16 bit score (30bits overall)
void write_7seg(char* characters, alt_16 score) {
   206d0:	defffa04 	addi	sp,sp,-24
   206d4:	df000515 	stw	fp,20(sp)
   206d8:	df000504 	addi	fp,sp,20
   206dc:	e13ffc15 	stw	r4,-16(fp)
   206e0:	2805883a 	mov	r2,r5
   206e4:	e0bffb0d 	sth	r2,-20(fp)
	alt_u32 format_char0 = ((alt_u32)(characters[0]) << 25) >> 2;
   206e8:	e0bffc17 	ldw	r2,-16(fp)
   206ec:	10800003 	ldbu	r2,0(r2)
   206f0:	10803fcc 	andi	r2,r2,255
   206f4:	1080201c 	xori	r2,r2,128
   206f8:	10bfe004 	addi	r2,r2,-128
   206fc:	1004967a 	slli	r2,r2,25
   20700:	1004d0ba 	srli	r2,r2,2
   20704:	e0bfff15 	stw	r2,-4(fp)
	alt_u32 format_char1 = ((alt_u32)(characters[1]) << 25) >> 9;
   20708:	e0bffc17 	ldw	r2,-16(fp)
   2070c:	10800044 	addi	r2,r2,1
   20710:	10800003 	ldbu	r2,0(r2)
   20714:	10803fcc 	andi	r2,r2,255
   20718:	1080201c 	xori	r2,r2,128
   2071c:	10bfe004 	addi	r2,r2,-128
   20720:	1004967a 	slli	r2,r2,25
   20724:	1004d27a 	srli	r2,r2,9
   20728:	e0bffe15 	stw	r2,-8(fp)
	alt_u32 output = format_char0 + format_char1 + abs(score);
   2072c:	e0ffff17 	ldw	r3,-4(fp)
   20730:	e0bffe17 	ldw	r2,-8(fp)
   20734:	1887883a 	add	r3,r3,r2
   20738:	e0bffb0b 	ldhu	r2,-20(fp)
   2073c:	113fffcc 	andi	r4,r2,65535
   20740:	2120001c 	xori	r4,r4,32768
   20744:	21200004 	addi	r4,r4,-32768
   20748:	2000010e 	bge	r4,zero,20750 <write_7seg+0x80>
   2074c:	0085c83a 	sub	r2,zero,r2
   20750:	10bfffcc 	andi	r2,r2,65535
   20754:	1885883a 	add	r2,r3,r2
   20758:	e0bffd15 	stw	r2,-12(fp)
	IOWR_ALTERA_AVALON_PIO_DATA(HEX_DISPLAY_BASE, output);
   2075c:	e0fffd17 	ldw	r3,-12(fp)
   20760:	00800134 	movhi	r2,4
   20764:	10c42035 	stwio	r3,4224(r2)
}
   20768:	0001883a 	nop
   2076c:	e037883a 	mov	sp,fp
   20770:	df000017 	ldw	fp,0(sp)
   20774:	dec00104 	addi	sp,sp,4
   20778:	f800283a 	ret

0002077c <main>:

int main(){
   2077c:	defff604 	addi	sp,sp,-40
   20780:	dfc00915 	stw	ra,36(sp)
   20784:	df000815 	stw	fp,32(sp)
   20788:	df000804 	addi	fp,sp,32

	FILE* fp;
	fp = fopen ("/dev/jtag_uart", "r+");
   2078c:	014000f4 	movhi	r5,3
   20790:	294d9904 	addi	r5,r5,13924
   20794:	010000f4 	movhi	r4,3
   20798:	210d9a04 	addi	r4,r4,13928
   2079c:	0020b4c0 	call	20b4c <fopen>
   207a0:	e0bffd15 	stw	r2,-12(fp)
	char prompt;

	// SCORE
	char* myscore = malloc(4);
   207a4:	01000104 	movi	r4,4
   207a8:	00213380 	call	21338 <malloc>
   207ac:	e0bffc15 	stw	r2,-16(fp)
	strcpy(myscore, "0000");
   207b0:	e0bffc17 	ldw	r2,-16(fp)
   207b4:	00c00c04 	movi	r3,48
   207b8:	10c00005 	stb	r3,0(r2)
   207bc:	00c00c04 	movi	r3,48
   207c0:	10c00045 	stb	r3,1(r2)
   207c4:	00c00c04 	movi	r3,48
   207c8:	10c00085 	stb	r3,2(r2)
   207cc:	00c00c04 	movi	r3,48
   207d0:	10c000c5 	stb	r3,3(r2)
   207d4:	10000105 	stb	zero,4(r2)


	acc_dev = alt_up_accelerometer_spi_open_dev("/dev/accelerometer_spi");
   207d8:	010000f4 	movhi	r4,3
   207dc:	210d9e04 	addi	r4,r4,13944
   207e0:	00327000 	call	32700 <alt_up_accelerometer_spi_open_dev>
   207e4:	d0a72315 	stw	r2,-25460(gp)
	if (acc_dev == NULL) { // if return 1, check if the spi ip name is "accelerometer_spi"
   207e8:	d0a72317 	ldw	r2,-25460(gp)
   207ec:	1000021e 	bne	r2,zero,207f8 <main+0x7c>
		return 1;
   207f0:	00800044 	movi	r2,1
   207f4:	00007206 	br	209c0 <main+0x244>
	}
	alt_up_accelerometer_spi_write(acc_dev, 0x1F, -63);
   207f8:	d0a72317 	ldw	r2,-25460(gp)
   207fc:	01803044 	movi	r6,193
   20800:	014007c4 	movi	r5,31
   20804:	1009883a 	mov	r4,r2
   20808:	00327e80 	call	327e8 <alt_up_accelerometer_spi_write>
	//writing to Y OFFSET register on accelerometer, accounting for 1g caused by gravity.
	//The offset is scaled by a factor of 2 so (127 - 2*-63=0)(127=1G according to datasheet)
	//The output is scaled to 8 bits (255=1G), difference is confusing but worked.

	//TEST HEX DISPLAY
	char characters[2] = {'S','c'};
   2080c:	008014c4 	movi	r2,83
   20810:	e0bffac5 	stb	r2,-21(fp)
   20814:	008018c4 	movi	r2,99
   20818:	e0bffb05 	stb	r2,-20(fp)
	printf("%d\n",'s'); //s has ASCII value of 115, S has ASCII value of 83
   2081c:	01401cc4 	movi	r5,115
   20820:	010000f4 	movhi	r4,3
   20824:	210da404 	addi	r4,r4,13968
   20828:	0021bcc0 	call	21bcc <printf>
	alt_16 score = 0;
   2082c:	e03ffb8d 	sth	zero,-18(fp)
	write_7seg(characters, score);
   20830:	e0fffb8f 	ldh	r3,-18(fp)
   20834:	e0bffac4 	addi	r2,fp,-21
   20838:	180b883a 	mov	r5,r3
   2083c:	1009883a 	mov	r4,r2
   20840:	00206d00 	call	206d0 <write_7seg>

	printf("start");
   20844:	010000f4 	movhi	r4,3
   20848:	210da504 	addi	r4,r4,13972
   2084c:	0021bcc0 	call	21bcc <printf>

	//INITIALIZING ISR
	timer_init(sys_timer_isr);
   20850:	010000b4 	movhi	r4,2
   20854:	2100b304 	addi	r4,r4,716
   20858:	00202640 	call	20264 <timer_init>

	printf("end");
   2085c:	010000f4 	movhi	r4,3
   20860:	210da704 	addi	r4,r4,13980
   20864:	0021bcc0 	call	21bcc <printf>

	while(1){

		for (int k = 0; k < 5000; k++){ //READ DATA
   20868:	e03fff15 	stw	zero,-4(fp)
   2086c:	00002a06 	br	20918 <main+0x19c>
			alt_32 yz_raw[] = {0,0};
   20870:	e03ff815 	stw	zero,-32(fp)
   20874:	e03ff915 	stw	zero,-28(fp)
			read_accelerometer(yz_raw);
   20878:	e0bff804 	addi	r2,fp,-32
   2087c:	1009883a 	mov	r4,r2
   20880:	00203180 	call	20318 <read_accelerometer>

			//FILTER DATA
			IOWR_ALTERA_AVALON_PIO_DATA(FILTER_Y_IN_BASE, yz_raw[0]);
   20884:	e0fff817 	ldw	r3,-32(fp)
   20888:	00800134 	movhi	r2,4
   2088c:	10c41435 	stwio	r3,4176(r2)
			IOWR_ALTERA_AVALON_PIO_DATA(FILTER_Z_IN_BASE, yz_raw[1]);
   20890:	e0fff917 	ldw	r3,-28(fp)
   20894:	00800134 	movhi	r2,4
   20898:	10c40c35 	stwio	r3,4144(r2)

			yz[0] = IORD_ALTERA_AVALON_PIO_DATA(FILTER_Y_OUT_BASE);
   2089c:	00800134 	movhi	r2,4
   208a0:	10841037 	ldwio	r2,4160(r2)
   208a4:	d0a71f15 	stw	r2,-25476(gp)
			yz[1] = IORD_ALTERA_AVALON_PIO_DATA(FILTER_Z_OUT_BASE);
   208a8:	00800134 	movhi	r2,4
   208ac:	10840837 	ldwio	r2,4128(r2)
   208b0:	d0a72015 	stw	r2,-25472(gp)

			//PROCESS INPUT
			if (en_f) {
   208b4:	d0a00417 	ldw	r2,-32752(gp)
   208b8:	10000526 	beq	r2,zero,208d0 <main+0x154>
				en_f = !detect_ACT();
   208bc:	00204bc0 	call	204bc <detect_ACT>
   208c0:	1005003a 	cmpeq	r2,r2,zero
   208c4:	10803fcc 	andi	r2,r2,255
   208c8:	d0a00415 	stw	r2,-32752(gp)
   208cc:	00000406 	br	208e0 <main+0x164>
			} else if (!en_f) {
   208d0:	d0a00417 	ldw	r2,-32752(gp)
   208d4:	1000021e 	bne	r2,zero,208e0 <main+0x164>
				en_f = wait_INACT();
   208d8:	00206680 	call	20668 <wait_INACT>
   208dc:	d0a00415 	stw	r2,-32752(gp)
			}

			//OUTPUT
			if (timer_f) {
   208e0:	d0a72117 	ldw	r2,-25468(gp)
   208e4:	10000926 	beq	r2,zero,2090c <main+0x190>
				printf("%c\n", char_out);
   208e8:	d0a00303 	ldbu	r2,-32756(gp)
   208ec:	10803fcc 	andi	r2,r2,255
   208f0:	1080201c 	xori	r2,r2,128
   208f4:	10bfe004 	addi	r2,r2,-128
   208f8:	100b883a 	mov	r5,r2
   208fc:	010000f4 	movhi	r4,3
   20900:	210da804 	addi	r4,r4,13984
   20904:	0021bcc0 	call	21bcc <printf>
				timer_f = 0;
   20908:	d0272115 	stw	zero,-25468(gp)
		for (int k = 0; k < 5000; k++){ //READ DATA
   2090c:	e0bfff17 	ldw	r2,-4(fp)
   20910:	10800044 	addi	r2,r2,1
   20914:	e0bfff15 	stw	r2,-4(fp)
   20918:	e0bfff17 	ldw	r2,-4(fp)
   2091c:	1084e210 	cmplti	r2,r2,5000
   20920:	103fd31e 	bne	r2,zero,20870 <main+0xf4>
			}
		}

		if (fp) {
   20924:	e0bffd17 	ldw	r2,-12(fp)
   20928:	10001626 	beq	r2,zero,20984 <main+0x208>
					prompt = getc(fp);
   2092c:	e13ffd17 	ldw	r4,-12(fp)
   20930:	00210d00 	call	210d0 <getc>
   20934:	e0bffb45 	stb	r2,-19(fp)
					if (prompt == 's') {
   20938:	e0bffb47 	ldb	r2,-19(fp)
   2093c:	10801cd8 	cmpnei	r2,r2,115
   20940:	1000101e 	bne	r2,zero,20984 <main+0x208>
					// ASSIGN NEXT 4 CHARACTERS TO SCORE
						for(int s = 0; s < 4; s++){
   20944:	e03ffe15 	stw	zero,-8(fp)
   20948:	00000b06 	br	20978 <main+0x1fc>
							prompt = getc(fp);
   2094c:	e13ffd17 	ldw	r4,-12(fp)
   20950:	00210d00 	call	210d0 <getc>
   20954:	e0bffb45 	stb	r2,-19(fp)
						    // fprintf(fp, "FPGA: %c\n", prompt);
						    myscore[s] = prompt;
   20958:	e0bffe17 	ldw	r2,-8(fp)
   2095c:	e0fffc17 	ldw	r3,-16(fp)
   20960:	1885883a 	add	r2,r3,r2
   20964:	e0fffb43 	ldbu	r3,-19(fp)
   20968:	10c00005 	stb	r3,0(r2)
						for(int s = 0; s < 4; s++){
   2096c:	e0bffe17 	ldw	r2,-8(fp)
   20970:	10800044 	addi	r2,r2,1
   20974:	e0bffe15 	stw	r2,-8(fp)
   20978:	e0bffe17 	ldw	r2,-8(fp)
   2097c:	10800110 	cmplti	r2,r2,4
   20980:	103ff21e 	bne	r2,zero,2094c <main+0x1d0>
						}
				    }
				}

		write_7seg(characters, atof(myscore));
   20984:	e13ffc17 	ldw	r4,-16(fp)
   20988:	0020a540 	call	20a54 <atof>
   2098c:	100d883a 	mov	r6,r2
   20990:	180f883a 	mov	r7,r3
   20994:	3009883a 	mov	r4,r6
   20998:	380b883a 	mov	r5,r7
   2099c:	00209d40 	call	209d4 <__fixdfsi>
   209a0:	10ffffcc 	andi	r3,r2,65535
   209a4:	18e0001c 	xori	r3,r3,32768
   209a8:	18e00004 	addi	r3,r3,-32768
   209ac:	e0bffac4 	addi	r2,fp,-21
   209b0:	180b883a 	mov	r5,r3
   209b4:	1009883a 	mov	r4,r2
   209b8:	00206d00 	call	206d0 <write_7seg>
		for (int k = 0; k < 5000; k++){ //READ DATA
   209bc:	003faa06 	br	20868 <main+0xec>
	}

	return 0;
}
   209c0:	e037883a 	mov	sp,fp
   209c4:	dfc00117 	ldw	ra,4(sp)
   209c8:	df000017 	ldw	fp,0(sp)
   209cc:	dec00204 	addi	sp,sp,8
   209d0:	f800283a 	ret

000209d4 <__fixdfsi>:
   209d4:	2806d53a 	srli	r3,r5,20
   209d8:	01800434 	movhi	r6,16
   209dc:	31bfffc4 	addi	r6,r6,-1
   209e0:	18c1ffcc 	andi	r3,r3,2047
   209e4:	19c0ffd0 	cmplti	r7,r3,1023
   209e8:	2810d7fa 	srli	r8,r5,31
   209ec:	298a703a 	and	r5,r5,r6
   209f0:	3800061e 	bne	r7,zero,20a0c <__fixdfsi+0x38>
   209f4:	18810790 	cmplti	r2,r3,1054
   209f8:	1000061e 	bne	r2,zero,20a14 <__fixdfsi+0x40>
   209fc:	00a00034 	movhi	r2,32768
   20a00:	10bfffc4 	addi	r2,r2,-1
   20a04:	4085883a 	add	r2,r8,r2
   20a08:	f800283a 	ret
   20a0c:	0005883a 	mov	r2,zero
   20a10:	f800283a 	ret
   20a14:	01810cc4 	movi	r6,1075
   20a18:	30cdc83a 	sub	r6,r6,r3
   20a1c:	30800808 	cmpgei	r2,r6,32
   20a20:	29400434 	orhi	r5,r5,16
   20a24:	1000071e 	bne	r2,zero,20a44 <__fixdfsi+0x70>
   20a28:	18befb44 	addi	r2,r3,-1043
   20a2c:	2884983a 	sll	r2,r5,r2
   20a30:	2188d83a 	srl	r4,r4,r6
   20a34:	1104b03a 	or	r2,r2,r4
   20a38:	403ff526 	beq	r8,zero,20a10 <__fixdfsi+0x3c>
   20a3c:	0085c83a 	sub	r2,zero,r2
   20a40:	f800283a 	ret
   20a44:	008104c4 	movi	r2,1043
   20a48:	10c5c83a 	sub	r2,r2,r3
   20a4c:	2884d83a 	srl	r2,r5,r2
   20a50:	003ff906 	br	20a38 <__fixdfsi+0x64>

00020a54 <atof>:
   20a54:	000b883a 	mov	r5,zero
   20a58:	00236201 	jmpi	23620 <strtod>

00020a5c <_fopen_r>:
   20a5c:	defffa04 	addi	sp,sp,-24
   20a60:	3007883a 	mov	r3,r6
   20a64:	dcc00415 	stw	r19,16(sp)
   20a68:	d80d883a 	mov	r6,sp
   20a6c:	2827883a 	mov	r19,r5
   20a70:	180b883a 	mov	r5,r3
   20a74:	dc800315 	stw	r18,12(sp)
   20a78:	dfc00515 	stw	ra,20(sp)
   20a7c:	dc400215 	stw	r17,8(sp)
   20a80:	dc000115 	stw	r16,4(sp)
   20a84:	2025883a 	mov	r18,r4
   20a88:	0027c100 	call	27c10 <__sflags>
   20a8c:	10002726 	beq	r2,zero,20b2c <_fopen_r+0xd0>
   20a90:	9009883a 	mov	r4,r18
   20a94:	1023883a 	mov	r17,r2
   20a98:	0027ab80 	call	27ab8 <__sfp>
   20a9c:	1021883a 	mov	r16,r2
   20aa0:	10002226 	beq	r2,zero,20b2c <_fopen_r+0xd0>
   20aa4:	d9800017 	ldw	r6,0(sp)
   20aa8:	01c06d84 	movi	r7,438
   20aac:	980b883a 	mov	r5,r19
   20ab0:	9009883a 	mov	r4,r18
   20ab4:	0021b380 	call	21b38 <_open_r>
   20ab8:	10001916 	blt	r2,zero,20b20 <_fopen_r+0xc4>
   20abc:	018000b4 	movhi	r6,2
   20ac0:	014000b4 	movhi	r5,2
   20ac4:	010000b4 	movhi	r4,2
   20ac8:	00c000b4 	movhi	r3,2
   20acc:	3187b204 	addi	r6,r6,7880
   20ad0:	2947c904 	addi	r5,r5,7972
   20ad4:	2107e904 	addi	r4,r4,8100
   20ad8:	18c80004 	addi	r3,r3,8192
   20adc:	8440030d 	sth	r17,12(r16)
   20ae0:	8080038d 	sth	r2,14(r16)
   20ae4:	84000715 	stw	r16,28(r16)
   20ae8:	81800815 	stw	r6,32(r16)
   20aec:	81400915 	stw	r5,36(r16)
   20af0:	81000a15 	stw	r4,40(r16)
   20af4:	80c00b15 	stw	r3,44(r16)
   20af8:	8c40400c 	andi	r17,r17,256
   20afc:	88000d1e 	bne	r17,zero,20b34 <_fopen_r+0xd8>
   20b00:	8005883a 	mov	r2,r16
   20b04:	dfc00517 	ldw	ra,20(sp)
   20b08:	dcc00417 	ldw	r19,16(sp)
   20b0c:	dc800317 	ldw	r18,12(sp)
   20b10:	dc400217 	ldw	r17,8(sp)
   20b14:	dc000117 	ldw	r16,4(sp)
   20b18:	dec00604 	addi	sp,sp,24
   20b1c:	f800283a 	ret
   20b20:	0027bd80 	call	27bd8 <__sfp_lock_acquire>
   20b24:	8000030d 	sth	zero,12(r16)
   20b28:	0027bdc0 	call	27bdc <__sfp_lock_release>
   20b2c:	0021883a 	mov	r16,zero
   20b30:	003ff306 	br	20b00 <_fopen_r+0xa4>
   20b34:	01c00084 	movi	r7,2
   20b38:	000d883a 	mov	r6,zero
   20b3c:	800b883a 	mov	r5,r16
   20b40:	9009883a 	mov	r4,r18
   20b44:	0020b640 	call	20b64 <_fseek_r>
   20b48:	003fed06 	br	20b00 <_fopen_r+0xa4>

00020b4c <fopen>:
   20b4c:	00c000f4 	movhi	r3,3
   20b50:	2005883a 	mov	r2,r4
   20b54:	1916ac17 	ldw	r4,23216(r3)
   20b58:	280d883a 	mov	r6,r5
   20b5c:	100b883a 	mov	r5,r2
   20b60:	0020a5c1 	jmpi	20a5c <_fopen_r>

00020b64 <_fseek_r>:
   20b64:	0020b841 	jmpi	20b84 <_fseeko_r>

00020b68 <fseek>:
   20b68:	00c000f4 	movhi	r3,3
   20b6c:	2005883a 	mov	r2,r4
   20b70:	1916ac17 	ldw	r4,23216(r3)
   20b74:	300f883a 	mov	r7,r6
   20b78:	280d883a 	mov	r6,r5
   20b7c:	100b883a 	mov	r5,r2
   20b80:	0020b841 	jmpi	20b84 <_fseeko_r>

00020b84 <_fseeko_r>:
   20b84:	deffe504 	addi	sp,sp,-108
   20b88:	dd401715 	stw	r21,92(sp)
   20b8c:	dcc01515 	stw	r19,84(sp)
   20b90:	dc401315 	stw	r17,76(sp)
   20b94:	dc001215 	stw	r16,72(sp)
   20b98:	dfc01a15 	stw	ra,104(sp)
   20b9c:	ddc01915 	stw	r23,100(sp)
   20ba0:	dd801815 	stw	r22,96(sp)
   20ba4:	dd001615 	stw	r20,88(sp)
   20ba8:	dc801415 	stw	r18,80(sp)
   20bac:	2023883a 	mov	r17,r4
   20bb0:	2821883a 	mov	r16,r5
   20bb4:	3027883a 	mov	r19,r6
   20bb8:	382b883a 	mov	r21,r7
   20bbc:	20000226 	beq	r4,zero,20bc8 <_fseeko_r+0x44>
   20bc0:	20800e17 	ldw	r2,56(r4)
   20bc4:	10001a26 	beq	r2,zero,20c30 <_fseeko_r+0xac>
   20bc8:	8080030b 	ldhu	r2,12(r16)
   20bcc:	1080420c 	andi	r2,r2,264
   20bd0:	10804218 	cmpnei	r2,r2,264
   20bd4:	10001b26 	beq	r2,zero,20c44 <_fseeko_r+0xc0>
   20bd8:	85000a17 	ldw	r20,40(r16)
   20bdc:	a000fa26 	beq	r20,zero,20fc8 <_fseeko_r+0x444>
   20be0:	a8800060 	cmpeqi	r2,r21,1
   20be4:	10004a1e 	bne	r2,zero,20d10 <_fseeko_r+0x18c>
   20be8:	04bfff44 	movi	r18,-3
   20bec:	aca4703a 	and	r18,r21,r18
   20bf0:	90001826 	beq	r18,zero,20c54 <_fseeko_r+0xd0>
   20bf4:	00800584 	movi	r2,22
   20bf8:	88800015 	stw	r2,0(r17)
   20bfc:	04bfffc4 	movi	r18,-1
   20c00:	9005883a 	mov	r2,r18
   20c04:	dfc01a17 	ldw	ra,104(sp)
   20c08:	ddc01917 	ldw	r23,100(sp)
   20c0c:	dd801817 	ldw	r22,96(sp)
   20c10:	dd401717 	ldw	r21,92(sp)
   20c14:	dd001617 	ldw	r20,88(sp)
   20c18:	dcc01517 	ldw	r19,84(sp)
   20c1c:	dc801417 	ldw	r18,80(sp)
   20c20:	dc401317 	ldw	r17,76(sp)
   20c24:	dc001217 	ldw	r16,72(sp)
   20c28:	dec01b04 	addi	sp,sp,108
   20c2c:	f800283a 	ret
   20c30:	0027bc80 	call	27bc8 <__sinit>
   20c34:	8080030b 	ldhu	r2,12(r16)
   20c38:	1080420c 	andi	r2,r2,264
   20c3c:	10804218 	cmpnei	r2,r2,264
   20c40:	103fe51e 	bne	r2,zero,20bd8 <_fseeko_r+0x54>
   20c44:	800b883a 	mov	r5,r16
   20c48:	8809883a 	mov	r4,r17
   20c4c:	00278340 	call	27834 <_fflush_r>
   20c50:	003fe106 	br	20bd8 <_fseeko_r+0x54>
   20c54:	81000417 	ldw	r4,16(r16)
   20c58:	002f883a 	mov	r23,zero
   20c5c:	20004826 	beq	r4,zero,20d80 <_fseeko_r+0x1fc>
   20c60:	8080030b 	ldhu	r2,12(r16)
   20c64:	10c2068c 	andi	r3,r2,2074
   20c68:	1800071e 	bne	r3,zero,20c88 <_fseeko_r+0x104>
   20c6c:	10c1000c 	andi	r3,r2,1024
   20c70:	1800561e 	bne	r3,zero,20dcc <_fseeko_r+0x248>
   20c74:	00c000b4 	movhi	r3,2
   20c78:	18c7e904 	addi	r3,r3,8100
   20c7c:	a0c04426 	beq	r20,r3,20d90 <_fseeko_r+0x20c>
   20c80:	10820014 	ori	r2,r2,2048
   20c84:	8080030d 	sth	r2,12(r16)
   20c88:	800b883a 	mov	r5,r16
   20c8c:	8809883a 	mov	r4,r17
   20c90:	00278340 	call	27834 <_fflush_r>
   20c94:	1025883a 	mov	r18,r2
   20c98:	103fd81e 	bne	r2,zero,20bfc <_fseeko_r+0x78>
   20c9c:	81400717 	ldw	r5,28(r16)
   20ca0:	a80f883a 	mov	r7,r21
   20ca4:	980d883a 	mov	r6,r19
   20ca8:	8809883a 	mov	r4,r17
   20cac:	a03ee83a 	callr	r20
   20cb0:	10bfffe0 	cmpeqi	r2,r2,-1
   20cb4:	103fd11e 	bne	r2,zero,20bfc <_fseeko_r+0x78>
   20cb8:	81400c17 	ldw	r5,48(r16)
   20cbc:	28000526 	beq	r5,zero,20cd4 <_fseeko_r+0x150>
   20cc0:	80801004 	addi	r2,r16,64
   20cc4:	28800226 	beq	r5,r2,20cd0 <_fseeko_r+0x14c>
   20cc8:	8809883a 	mov	r4,r17
   20ccc:	0027de40 	call	27de4 <_free_r>
   20cd0:	80000c15 	stw	zero,48(r16)
   20cd4:	8080030b 	ldhu	r2,12(r16)
   20cd8:	80c00417 	ldw	r3,16(r16)
   20cdc:	80000115 	stw	zero,4(r16)
   20ce0:	10bdf7cc 	andi	r2,r2,63455
   20ce4:	80c00015 	stw	r3,0(r16)
   20ce8:	8080030d 	sth	r2,12(r16)
   20cec:	80001705 	stb	zero,92(r16)
   20cf0:	80001745 	stb	zero,93(r16)
   20cf4:	80001785 	stb	zero,94(r16)
   20cf8:	800017c5 	stb	zero,95(r16)
   20cfc:	80001805 	stb	zero,96(r16)
   20d00:	80001845 	stb	zero,97(r16)
   20d04:	80001885 	stb	zero,98(r16)
   20d08:	800018c5 	stb	zero,99(r16)
   20d0c:	003fbc06 	br	20c00 <_fseeko_r+0x7c>
   20d10:	800b883a 	mov	r5,r16
   20d14:	8809883a 	mov	r4,r17
   20d18:	00278340 	call	27834 <_fflush_r>
   20d1c:	8080030b 	ldhu	r2,12(r16)
   20d20:	10c4000c 	andi	r3,r2,4096
   20d24:	18006e1e 	bne	r3,zero,20ee0 <_fseeko_r+0x35c>
   20d28:	81400717 	ldw	r5,28(r16)
   20d2c:	01c00044 	movi	r7,1
   20d30:	000d883a 	mov	r6,zero
   20d34:	8809883a 	mov	r4,r17
   20d38:	a03ee83a 	callr	r20
   20d3c:	1025883a 	mov	r18,r2
   20d40:	10bfffd8 	cmpnei	r2,r2,-1
   20d44:	103fad26 	beq	r2,zero,20bfc <_fseeko_r+0x78>
   20d48:	8080030b 	ldhu	r2,12(r16)
   20d4c:	81000417 	ldw	r4,16(r16)
   20d50:	10c0010c 	andi	r3,r2,4
   20d54:	18006626 	beq	r3,zero,20ef0 <_fseeko_r+0x36c>
   20d58:	80c00117 	ldw	r3,4(r16)
   20d5c:	80800c17 	ldw	r2,48(r16)
   20d60:	90e5c83a 	sub	r18,r18,r3
   20d64:	10000226 	beq	r2,zero,20d70 <_fseeko_r+0x1ec>
   20d68:	81800f17 	ldw	r6,60(r16)
   20d6c:	91a5c83a 	sub	r18,r18,r6
   20d70:	9ca7883a 	add	r19,r19,r18
   20d74:	05c00044 	movi	r23,1
   20d78:	002b883a 	mov	r21,zero
   20d7c:	203fb81e 	bne	r4,zero,20c60 <_fseeko_r+0xdc>
   20d80:	800b883a 	mov	r5,r16
   20d84:	8809883a 	mov	r4,r17
   20d88:	00211f80 	call	211f8 <__smakebuf_r>
   20d8c:	003fb406 	br	20c60 <_fseeko_r+0xdc>
   20d90:	8140038f 	ldh	r5,14(r16)
   20d94:	283fba16 	blt	r5,zero,20c80 <_fseeko_r+0xfc>
   20d98:	d80d883a 	mov	r6,sp
   20d9c:	8809883a 	mov	r4,r17
   20da0:	0020ff40 	call	20ff4 <_fstat_r>
   20da4:	1000761e 	bne	r2,zero,20f80 <_fseeko_r+0x3fc>
   20da8:	d8c00117 	ldw	r3,4(sp)
   20dac:	01200014 	movui	r4,32768
   20db0:	8080030b 	ldhu	r2,12(r16)
   20db4:	18fc000c 	andi	r3,r3,61440
   20db8:	193fb11e 	bne	r3,r4,20c80 <_fseeko_r+0xfc>
   20dbc:	10810014 	ori	r2,r2,1024
   20dc0:	00c10004 	movi	r3,1024
   20dc4:	80c01315 	stw	r3,76(r16)
   20dc8:	8080030d 	sth	r2,12(r16)
   20dcc:	a8004f1e 	bne	r21,zero,20f0c <_fseeko_r+0x388>
   20dd0:	982d883a 	mov	r22,r19
   20dd4:	b800551e 	bne	r23,zero,20f2c <_fseeko_r+0x3a8>
   20dd8:	8080030b 	ldhu	r2,12(r16)
   20ddc:	1084000c 	andi	r2,r2,4096
   20de0:	10005f26 	beq	r2,zero,20f60 <_fseeko_r+0x3dc>
   20de4:	80801417 	ldw	r2,80(r16)
   20de8:	80c00117 	ldw	r3,4(r16)
   20dec:	81400c17 	ldw	r5,48(r16)
   20df0:	1809883a 	mov	r4,r3
   20df4:	10e5c83a 	sub	r18,r2,r3
   20df8:	28005226 	beq	r5,zero,20f44 <_fseeko_r+0x3c0>
   20dfc:	81800f17 	ldw	r6,60(r16)
   20e00:	91a5c83a 	sub	r18,r18,r6
   20e04:	80800e17 	ldw	r2,56(r16)
   20e08:	81c00417 	ldw	r7,16(r16)
   20e0c:	90e5883a 	add	r18,r18,r3
   20e10:	11c5c83a 	sub	r2,r2,r7
   20e14:	90a5c83a 	sub	r18,r18,r2
   20e18:	1185883a 	add	r2,r2,r6
   20e1c:	b4800216 	blt	r22,r18,20e28 <_fseeko_r+0x2a4>
   20e20:	9087883a 	add	r3,r18,r2
   20e24:	b0c05836 	bltu	r22,r3,20f88 <_fseeko_r+0x404>
   20e28:	84801317 	ldw	r18,76(r16)
   20e2c:	81400717 	ldw	r5,28(r16)
   20e30:	000f883a 	mov	r7,zero
   20e34:	04a5c83a 	sub	r18,zero,r18
   20e38:	95a4703a 	and	r18,r18,r22
   20e3c:	900d883a 	mov	r6,r18
   20e40:	8809883a 	mov	r4,r17
   20e44:	a03ee83a 	callr	r20
   20e48:	10bfffe0 	cmpeqi	r2,r2,-1
   20e4c:	103f8e1e 	bne	r2,zero,20c88 <_fseeko_r+0x104>
   20e50:	80800417 	ldw	r2,16(r16)
   20e54:	81400c17 	ldw	r5,48(r16)
   20e58:	80000115 	stw	zero,4(r16)
   20e5c:	80800015 	stw	r2,0(r16)
   20e60:	28000526 	beq	r5,zero,20e78 <_fseeko_r+0x2f4>
   20e64:	80801004 	addi	r2,r16,64
   20e68:	28800226 	beq	r5,r2,20e74 <_fseeko_r+0x2f0>
   20e6c:	8809883a 	mov	r4,r17
   20e70:	0027de40 	call	27de4 <_free_r>
   20e74:	80000c15 	stw	zero,48(r16)
   20e78:	8080030b 	ldhu	r2,12(r16)
   20e7c:	b4afc83a 	sub	r23,r22,r18
   20e80:	10bff7cc 	andi	r2,r2,65503
   20e84:	8080030d 	sth	r2,12(r16)
   20e88:	b4800b26 	beq	r22,r18,20eb8 <_fseeko_r+0x334>
   20e8c:	800b883a 	mov	r5,r16
   20e90:	8809883a 	mov	r4,r17
   20e94:	0021c200 	call	21c20 <__srefill_r>
   20e98:	103f7b1e 	bne	r2,zero,20c88 <_fseeko_r+0x104>
   20e9c:	80800117 	ldw	r2,4(r16)
   20ea0:	15ff7936 	bltu	r2,r23,20c88 <_fseeko_r+0x104>
   20ea4:	80c00017 	ldw	r3,0(r16)
   20ea8:	15c5c83a 	sub	r2,r2,r23
   20eac:	80800115 	stw	r2,4(r16)
   20eb0:	1def883a 	add	r23,r3,r23
   20eb4:	85c00015 	stw	r23,0(r16)
   20eb8:	80001705 	stb	zero,92(r16)
   20ebc:	80001745 	stb	zero,93(r16)
   20ec0:	80001785 	stb	zero,94(r16)
   20ec4:	800017c5 	stb	zero,95(r16)
   20ec8:	80001805 	stb	zero,96(r16)
   20ecc:	80001845 	stb	zero,97(r16)
   20ed0:	80001885 	stb	zero,98(r16)
   20ed4:	800018c5 	stb	zero,99(r16)
   20ed8:	0025883a 	mov	r18,zero
   20edc:	003f4806 	br	20c00 <_fseeko_r+0x7c>
   20ee0:	10c0010c 	andi	r3,r2,4
   20ee4:	84801417 	ldw	r18,80(r16)
   20ee8:	81000417 	ldw	r4,16(r16)
   20eec:	183f9a1e 	bne	r3,zero,20d58 <_fseeko_r+0x1d4>
   20ef0:	1080020c 	andi	r2,r2,8
   20ef4:	103f9e26 	beq	r2,zero,20d70 <_fseeko_r+0x1ec>
   20ef8:	80800017 	ldw	r2,0(r16)
   20efc:	103f9c26 	beq	r2,zero,20d70 <_fseeko_r+0x1ec>
   20f00:	1105c83a 	sub	r2,r2,r4
   20f04:	90a5883a 	add	r18,r18,r2
   20f08:	003f9906 	br	20d70 <_fseeko_r+0x1ec>
   20f0c:	8140038f 	ldh	r5,14(r16)
   20f10:	d80d883a 	mov	r6,sp
   20f14:	8809883a 	mov	r4,r17
   20f18:	0020ff40 	call	20ff4 <_fstat_r>
   20f1c:	103f5a1e 	bne	r2,zero,20c88 <_fseeko_r+0x104>
   20f20:	dd800417 	ldw	r22,16(sp)
   20f24:	9dad883a 	add	r22,r19,r22
   20f28:	b83fab26 	beq	r23,zero,20dd8 <_fseeko_r+0x254>
   20f2c:	81400c17 	ldw	r5,48(r16)
   20f30:	28000326 	beq	r5,zero,20f40 <_fseeko_r+0x3bc>
   20f34:	80c00117 	ldw	r3,4(r16)
   20f38:	81800f17 	ldw	r6,60(r16)
   20f3c:	003fb106 	br	20e04 <_fseeko_r+0x280>
   20f40:	81000117 	ldw	r4,4(r16)
   20f44:	80800017 	ldw	r2,0(r16)
   20f48:	81c00417 	ldw	r7,16(r16)
   20f4c:	000b883a 	mov	r5,zero
   20f50:	11c5c83a 	sub	r2,r2,r7
   20f54:	90a5c83a 	sub	r18,r18,r2
   20f58:	2085883a 	add	r2,r4,r2
   20f5c:	003faf06 	br	20e1c <_fseeko_r+0x298>
   20f60:	81400717 	ldw	r5,28(r16)
   20f64:	01c00044 	movi	r7,1
   20f68:	000d883a 	mov	r6,zero
   20f6c:	8809883a 	mov	r4,r17
   20f70:	a03ee83a 	callr	r20
   20f74:	10ffffe0 	cmpeqi	r3,r2,-1
   20f78:	183f9b26 	beq	r3,zero,20de8 <_fseeko_r+0x264>
   20f7c:	003f4206 	br	20c88 <_fseeko_r+0x104>
   20f80:	8080030b 	ldhu	r2,12(r16)
   20f84:	003f3e06 	br	20c80 <_fseeko_r+0xfc>
   20f88:	b4a5c83a 	sub	r18,r22,r18
   20f8c:	3c8f883a 	add	r7,r7,r18
   20f90:	14a5c83a 	sub	r18,r2,r18
   20f94:	81c00015 	stw	r7,0(r16)
   20f98:	84800115 	stw	r18,4(r16)
   20f9c:	28000526 	beq	r5,zero,20fb4 <_fseeko_r+0x430>
   20fa0:	80801004 	addi	r2,r16,64
   20fa4:	28800226 	beq	r5,r2,20fb0 <_fseeko_r+0x42c>
   20fa8:	8809883a 	mov	r4,r17
   20fac:	0027de40 	call	27de4 <_free_r>
   20fb0:	80000c15 	stw	zero,48(r16)
   20fb4:	80c0030b 	ldhu	r3,12(r16)
   20fb8:	80001705 	stb	zero,92(r16)
   20fbc:	18fff7cc 	andi	r3,r3,65503
   20fc0:	80c0030d 	sth	r3,12(r16)
   20fc4:	003fbd06 	br	20ebc <_fseeko_r+0x338>
   20fc8:	00800744 	movi	r2,29
   20fcc:	88800015 	stw	r2,0(r17)
   20fd0:	04bfffc4 	movi	r18,-1
   20fd4:	003f0a06 	br	20c00 <_fseeko_r+0x7c>

00020fd8 <fseeko>:
   20fd8:	00c000f4 	movhi	r3,3
   20fdc:	2005883a 	mov	r2,r4
   20fe0:	1916ac17 	ldw	r4,23216(r3)
   20fe4:	300f883a 	mov	r7,r6
   20fe8:	280d883a 	mov	r6,r5
   20fec:	100b883a 	mov	r5,r2
   20ff0:	0020b841 	jmpi	20b84 <_fseeko_r>

00020ff4 <_fstat_r>:
   20ff4:	2807883a 	mov	r3,r5
   20ff8:	defffe04 	addi	sp,sp,-8
   20ffc:	dc000015 	stw	r16,0(sp)
   21000:	008000f4 	movhi	r2,3
   21004:	300b883a 	mov	r5,r6
   21008:	2021883a 	mov	r16,r4
   2100c:	1809883a 	mov	r4,r3
   21010:	dfc00115 	stw	ra,4(sp)
   21014:	101dca15 	stw	zero,30504(r2)
   21018:	0030d1c0 	call	30d1c <fstat>
   2101c:	10ffffd8 	cmpnei	r3,r2,-1
   21020:	18000426 	beq	r3,zero,21034 <_fstat_r+0x40>
   21024:	dfc00117 	ldw	ra,4(sp)
   21028:	dc000017 	ldw	r16,0(sp)
   2102c:	dec00204 	addi	sp,sp,8
   21030:	f800283a 	ret
   21034:	00c000f4 	movhi	r3,3
   21038:	18ddca17 	ldw	r3,30504(r3)
   2103c:	183ff926 	beq	r3,zero,21024 <_fstat_r+0x30>
   21040:	80c00015 	stw	r3,0(r16)
   21044:	dfc00117 	ldw	ra,4(sp)
   21048:	dc000017 	ldw	r16,0(sp)
   2104c:	dec00204 	addi	sp,sp,8
   21050:	f800283a 	ret

00021054 <_getc_r>:
   21054:	defffd04 	addi	sp,sp,-12
   21058:	dc000115 	stw	r16,4(sp)
   2105c:	dfc00215 	stw	ra,8(sp)
   21060:	2021883a 	mov	r16,r4
   21064:	20000226 	beq	r4,zero,21070 <_getc_r+0x1c>
   21068:	20800e17 	ldw	r2,56(r4)
   2106c:	10000c26 	beq	r2,zero,210a0 <_getc_r+0x4c>
   21070:	28800117 	ldw	r2,4(r5)
   21074:	10bfffc4 	addi	r2,r2,-1
   21078:	28800115 	stw	r2,4(r5)
   2107c:	10000f16 	blt	r2,zero,210bc <_getc_r+0x68>
   21080:	28800017 	ldw	r2,0(r5)
   21084:	10c00044 	addi	r3,r2,1
   21088:	28c00015 	stw	r3,0(r5)
   2108c:	10800003 	ldbu	r2,0(r2)
   21090:	dfc00217 	ldw	ra,8(sp)
   21094:	dc000117 	ldw	r16,4(sp)
   21098:	dec00304 	addi	sp,sp,12
   2109c:	f800283a 	ret
   210a0:	d9400015 	stw	r5,0(sp)
   210a4:	0027bc80 	call	27bc8 <__sinit>
   210a8:	d9400017 	ldw	r5,0(sp)
   210ac:	28800117 	ldw	r2,4(r5)
   210b0:	10bfffc4 	addi	r2,r2,-1
   210b4:	28800115 	stw	r2,4(r5)
   210b8:	103ff10e 	bge	r2,zero,21080 <_getc_r+0x2c>
   210bc:	8009883a 	mov	r4,r16
   210c0:	dfc00217 	ldw	ra,8(sp)
   210c4:	dc000117 	ldw	r16,4(sp)
   210c8:	dec00304 	addi	sp,sp,12
   210cc:	0021dec1 	jmpi	21dec <__srget_r>

000210d0 <getc>:
   210d0:	defffd04 	addi	sp,sp,-12
   210d4:	008000f4 	movhi	r2,3
   210d8:	dc400115 	stw	r17,4(sp)
   210dc:	1456ac17 	ldw	r17,23216(r2)
   210e0:	dc000015 	stw	r16,0(sp)
   210e4:	dfc00215 	stw	ra,8(sp)
   210e8:	2021883a 	mov	r16,r4
   210ec:	88000226 	beq	r17,zero,210f8 <getc+0x28>
   210f0:	88800e17 	ldw	r2,56(r17)
   210f4:	10000d26 	beq	r2,zero,2112c <getc+0x5c>
   210f8:	80800117 	ldw	r2,4(r16)
   210fc:	10bfffc4 	addi	r2,r2,-1
   21100:	80800115 	stw	r2,4(r16)
   21104:	10000f16 	blt	r2,zero,21144 <getc+0x74>
   21108:	80800017 	ldw	r2,0(r16)
   2110c:	10c00044 	addi	r3,r2,1
   21110:	80c00015 	stw	r3,0(r16)
   21114:	10800003 	ldbu	r2,0(r2)
   21118:	dfc00217 	ldw	ra,8(sp)
   2111c:	dc400117 	ldw	r17,4(sp)
   21120:	dc000017 	ldw	r16,0(sp)
   21124:	dec00304 	addi	sp,sp,12
   21128:	f800283a 	ret
   2112c:	8809883a 	mov	r4,r17
   21130:	0027bc80 	call	27bc8 <__sinit>
   21134:	80800117 	ldw	r2,4(r16)
   21138:	10bfffc4 	addi	r2,r2,-1
   2113c:	80800115 	stw	r2,4(r16)
   21140:	103ff10e 	bge	r2,zero,21108 <getc+0x38>
   21144:	800b883a 	mov	r5,r16
   21148:	8809883a 	mov	r4,r17
   2114c:	dfc00217 	ldw	ra,8(sp)
   21150:	dc400117 	ldw	r17,4(sp)
   21154:	dc000017 	ldw	r16,0(sp)
   21158:	dec00304 	addi	sp,sp,12
   2115c:	0021dec1 	jmpi	21dec <__srget_r>

00021160 <__swhatbuf_r>:
   21160:	deffea04 	addi	sp,sp,-88
   21164:	dc001215 	stw	r16,72(sp)
   21168:	2821883a 	mov	r16,r5
   2116c:	2940038f 	ldh	r5,14(r5)
   21170:	dc801415 	stw	r18,80(sp)
   21174:	dc401315 	stw	r17,76(sp)
   21178:	dfc01515 	stw	ra,84(sp)
   2117c:	3023883a 	mov	r17,r6
   21180:	3825883a 	mov	r18,r7
   21184:	28001016 	blt	r5,zero,211c8 <__swhatbuf_r+0x68>
   21188:	d80d883a 	mov	r6,sp
   2118c:	0020ff40 	call	20ff4 <_fstat_r>
   21190:	10000d16 	blt	r2,zero,211c8 <__swhatbuf_r+0x68>
   21194:	d8c00117 	ldw	r3,4(sp)
   21198:	00820004 	movi	r2,2048
   2119c:	18fc000c 	andi	r3,r3,61440
   211a0:	18c80020 	cmpeqi	r3,r3,8192
   211a4:	90c00015 	stw	r3,0(r18)
   211a8:	00c10004 	movi	r3,1024
   211ac:	88c00015 	stw	r3,0(r17)
   211b0:	dfc01517 	ldw	ra,84(sp)
   211b4:	dc801417 	ldw	r18,80(sp)
   211b8:	dc401317 	ldw	r17,76(sp)
   211bc:	dc001217 	ldw	r16,72(sp)
   211c0:	dec01604 	addi	sp,sp,88
   211c4:	f800283a 	ret
   211c8:	8080030b 	ldhu	r2,12(r16)
   211cc:	90000015 	stw	zero,0(r18)
   211d0:	1080200c 	andi	r2,r2,128
   211d4:	10000426 	beq	r2,zero,211e8 <__swhatbuf_r+0x88>
   211d8:	00801004 	movi	r2,64
   211dc:	88800015 	stw	r2,0(r17)
   211e0:	0005883a 	mov	r2,zero
   211e4:	003ff206 	br	211b0 <__swhatbuf_r+0x50>
   211e8:	00810004 	movi	r2,1024
   211ec:	88800015 	stw	r2,0(r17)
   211f0:	0005883a 	mov	r2,zero
   211f4:	003fee06 	br	211b0 <__swhatbuf_r+0x50>

000211f8 <__smakebuf_r>:
   211f8:	2880030b 	ldhu	r2,12(r5)
   211fc:	defffa04 	addi	sp,sp,-24
   21200:	dc000215 	stw	r16,8(sp)
   21204:	dfc00515 	stw	ra,20(sp)
   21208:	dc800415 	stw	r18,16(sp)
   2120c:	dc400315 	stw	r17,12(sp)
   21210:	1080008c 	andi	r2,r2,2
   21214:	2821883a 	mov	r16,r5
   21218:	10000b26 	beq	r2,zero,21248 <__smakebuf_r+0x50>
   2121c:	288010c4 	addi	r2,r5,67
   21220:	28800015 	stw	r2,0(r5)
   21224:	28800415 	stw	r2,16(r5)
   21228:	00800044 	movi	r2,1
   2122c:	28800515 	stw	r2,20(r5)
   21230:	dfc00517 	ldw	ra,20(sp)
   21234:	dc800417 	ldw	r18,16(sp)
   21238:	dc400317 	ldw	r17,12(sp)
   2123c:	dc000217 	ldw	r16,8(sp)
   21240:	dec00604 	addi	sp,sp,24
   21244:	f800283a 	ret
   21248:	d9c00104 	addi	r7,sp,4
   2124c:	d80d883a 	mov	r6,sp
   21250:	2023883a 	mov	r17,r4
   21254:	00211600 	call	21160 <__swhatbuf_r>
   21258:	d9000117 	ldw	r4,4(sp)
   2125c:	1025883a 	mov	r18,r2
   21260:	2000131e 	bne	r4,zero,212b0 <__smakebuf_r+0xb8>
   21264:	d9400017 	ldw	r5,0(sp)
   21268:	8809883a 	mov	r4,r17
   2126c:	00213580 	call	21358 <_malloc_r>
   21270:	10001c26 	beq	r2,zero,212e4 <__smakebuf_r+0xec>
   21274:	010000b4 	movhi	r4,2
   21278:	211e3104 	addi	r4,r4,30916
   2127c:	80c0030b 	ldhu	r3,12(r16)
   21280:	89000f15 	stw	r4,60(r17)
   21284:	80800015 	stw	r2,0(r16)
   21288:	80800415 	stw	r2,16(r16)
   2128c:	d8800017 	ldw	r2,0(sp)
   21290:	d9400117 	ldw	r5,4(sp)
   21294:	18c02014 	ori	r3,r3,128
   21298:	80c0030d 	sth	r3,12(r16)
   2129c:	80800515 	stw	r2,20(r16)
   212a0:	28001d1e 	bne	r5,zero,21318 <__smakebuf_r+0x120>
   212a4:	90c6b03a 	or	r3,r18,r3
   212a8:	80c0030d 	sth	r3,12(r16)
   212ac:	003fe006 	br	21230 <__smakebuf_r+0x38>
   212b0:	8140038f 	ldh	r5,14(r16)
   212b4:	8809883a 	mov	r4,r17
   212b8:	0028df80 	call	28df8 <_isatty_r>
   212bc:	103fe926 	beq	r2,zero,21264 <__smakebuf_r+0x6c>
   212c0:	8080030b 	ldhu	r2,12(r16)
   212c4:	80c010c4 	addi	r3,r16,67
   212c8:	80c00015 	stw	r3,0(r16)
   212cc:	10800054 	ori	r2,r2,1
   212d0:	8080030d 	sth	r2,12(r16)
   212d4:	00800044 	movi	r2,1
   212d8:	80c00415 	stw	r3,16(r16)
   212dc:	80800515 	stw	r2,20(r16)
   212e0:	003fe006 	br	21264 <__smakebuf_r+0x6c>
   212e4:	8080030b 	ldhu	r2,12(r16)
   212e8:	10c0800c 	andi	r3,r2,512
   212ec:	183fd01e 	bne	r3,zero,21230 <__smakebuf_r+0x38>
   212f0:	00ffff04 	movi	r3,-4
   212f4:	10c4703a 	and	r2,r2,r3
   212f8:	10800094 	ori	r2,r2,2
   212fc:	80c010c4 	addi	r3,r16,67
   21300:	8080030d 	sth	r2,12(r16)
   21304:	00800044 	movi	r2,1
   21308:	80c00015 	stw	r3,0(r16)
   2130c:	80c00415 	stw	r3,16(r16)
   21310:	80800515 	stw	r2,20(r16)
   21314:	003fc606 	br	21230 <__smakebuf_r+0x38>
   21318:	8140038f 	ldh	r5,14(r16)
   2131c:	8809883a 	mov	r4,r17
   21320:	0028df80 	call	28df8 <_isatty_r>
   21324:	80c0030b 	ldhu	r3,12(r16)
   21328:	103fde26 	beq	r2,zero,212a4 <__smakebuf_r+0xac>
   2132c:	18ffff0c 	andi	r3,r3,65532
   21330:	18c00054 	ori	r3,r3,1
   21334:	003fdb06 	br	212a4 <__smakebuf_r+0xac>

00021338 <malloc>:
   21338:	008000f4 	movhi	r2,3
   2133c:	200b883a 	mov	r5,r4
   21340:	1116ac17 	ldw	r4,23216(r2)
   21344:	00213581 	jmpi	21358 <_malloc_r>

00021348 <free>:
   21348:	008000f4 	movhi	r2,3
   2134c:	200b883a 	mov	r5,r4
   21350:	1116ac17 	ldw	r4,23216(r2)
   21354:	0027de41 	jmpi	27de4 <_free_r>

00021358 <_malloc_r>:
   21358:	defff604 	addi	sp,sp,-40
   2135c:	dc400115 	stw	r17,4(sp)
   21360:	2c4002c4 	addi	r17,r5,11
   21364:	dc800215 	stw	r18,8(sp)
   21368:	dfc00915 	stw	ra,36(sp)
   2136c:	df000815 	stw	fp,32(sp)
   21370:	ddc00715 	stw	r23,28(sp)
   21374:	dd800615 	stw	r22,24(sp)
   21378:	dd400515 	stw	r21,20(sp)
   2137c:	dd000415 	stw	r20,16(sp)
   21380:	dcc00315 	stw	r19,12(sp)
   21384:	dc000015 	stw	r16,0(sp)
   21388:	888005e8 	cmpgeui	r2,r17,23
   2138c:	2025883a 	mov	r18,r4
   21390:	10001b1e 	bne	r2,zero,21400 <_malloc_r+0xa8>
   21394:	29400468 	cmpgeui	r5,r5,17
   21398:	2800821e 	bne	r5,zero,215a4 <_malloc_r+0x24c>
   2139c:	00314500 	call	31450 <__malloc_lock>
   213a0:	04400404 	movi	r17,16
   213a4:	01c00084 	movi	r7,2
   213a8:	00800604 	movi	r2,24
   213ac:	04c000f4 	movhi	r19,3
   213b0:	9cd0bc04 	addi	r19,r19,17136
   213b4:	9885883a 	add	r2,r19,r2
   213b8:	14000117 	ldw	r16,4(r2)
   213bc:	10fffe04 	addi	r3,r2,-8
   213c0:	80c08b26 	beq	r16,r3,215f0 <_malloc_r+0x298>
   213c4:	80800117 	ldw	r2,4(r16)
   213c8:	81000317 	ldw	r4,12(r16)
   213cc:	00ffff04 	movi	r3,-4
   213d0:	10c4703a 	and	r2,r2,r3
   213d4:	81400217 	ldw	r5,8(r16)
   213d8:	8085883a 	add	r2,r16,r2
   213dc:	10c00117 	ldw	r3,4(r2)
   213e0:	29000315 	stw	r4,12(r5)
   213e4:	21400215 	stw	r5,8(r4)
   213e8:	18c00054 	ori	r3,r3,1
   213ec:	10c00115 	stw	r3,4(r2)
   213f0:	9009883a 	mov	r4,r18
   213f4:	00314740 	call	31474 <__malloc_unlock>
   213f8:	80800204 	addi	r2,r16,8
   213fc:	00006c06 	br	215b0 <_malloc_r+0x258>
   21400:	00bffe04 	movi	r2,-8
   21404:	88a2703a 	and	r17,r17,r2
   21408:	88006616 	blt	r17,zero,215a4 <_malloc_r+0x24c>
   2140c:	89406536 	bltu	r17,r5,215a4 <_malloc_r+0x24c>
   21410:	00314500 	call	31450 <__malloc_lock>
   21414:	88807e28 	cmpgeui	r2,r17,504
   21418:	10012226 	beq	r2,zero,218a4 <_malloc_r+0x54c>
   2141c:	8804d27a 	srli	r2,r17,9
   21420:	10006f26 	beq	r2,zero,215e0 <_malloc_r+0x288>
   21424:	10c00168 	cmpgeui	r3,r2,5
   21428:	1800fe1e 	bne	r3,zero,21824 <_malloc_r+0x4cc>
   2142c:	8804d1ba 	srli	r2,r17,6
   21430:	11c00e44 	addi	r7,r2,57
   21434:	380890fa 	slli	r4,r7,3
   21438:	12000e04 	addi	r8,r2,56
   2143c:	04c000f4 	movhi	r19,3
   21440:	9cd0bc04 	addi	r19,r19,17136
   21444:	9909883a 	add	r4,r19,r4
   21448:	24000117 	ldw	r16,4(r4)
   2144c:	213ffe04 	addi	r4,r4,-8
   21450:	24000b26 	beq	r4,r16,21480 <_malloc_r+0x128>
   21454:	01bfff04 	movi	r6,-4
   21458:	00000306 	br	21468 <_malloc_r+0x110>
   2145c:	1800d60e 	bge	r3,zero,217b8 <_malloc_r+0x460>
   21460:	84000317 	ldw	r16,12(r16)
   21464:	24000626 	beq	r4,r16,21480 <_malloc_r+0x128>
   21468:	80800117 	ldw	r2,4(r16)
   2146c:	1184703a 	and	r2,r2,r6
   21470:	1447c83a 	sub	r3,r2,r17
   21474:	19400408 	cmpgei	r5,r3,16
   21478:	283ff826 	beq	r5,zero,2145c <_malloc_r+0x104>
   2147c:	400f883a 	mov	r7,r8
   21480:	9c000417 	ldw	r16,16(r19)
   21484:	024000f4 	movhi	r9,3
   21488:	4a50be04 	addi	r9,r9,17144
   2148c:	82405f26 	beq	r16,r9,2160c <_malloc_r+0x2b4>
   21490:	80c00117 	ldw	r3,4(r16)
   21494:	00bfff04 	movi	r2,-4
   21498:	1884703a 	and	r2,r3,r2
   2149c:	1447c83a 	sub	r3,r2,r17
   214a0:	19000410 	cmplti	r4,r3,16
   214a4:	20010a26 	beq	r4,zero,218d0 <_malloc_r+0x578>
   214a8:	9a400515 	stw	r9,20(r19)
   214ac:	9a400415 	stw	r9,16(r19)
   214b0:	1800ff0e 	bge	r3,zero,218b0 <_malloc_r+0x558>
   214b4:	10c08028 	cmpgeui	r3,r2,512
   214b8:	1800c11e 	bne	r3,zero,217c0 <_malloc_r+0x468>
   214bc:	1006d0fa 	srli	r3,r2,3
   214c0:	1008d17a 	srli	r4,r2,5
   214c4:	00800044 	movi	r2,1
   214c8:	18c00044 	addi	r3,r3,1
   214cc:	180690fa 	slli	r3,r3,3
   214d0:	99400117 	ldw	r5,4(r19)
   214d4:	1104983a 	sll	r2,r2,r4
   214d8:	98c7883a 	add	r3,r19,r3
   214dc:	19000017 	ldw	r4,0(r3)
   214e0:	1144b03a 	or	r2,r2,r5
   214e4:	197ffe04 	addi	r5,r3,-8
   214e8:	81400315 	stw	r5,12(r16)
   214ec:	81000215 	stw	r4,8(r16)
   214f0:	98800115 	stw	r2,4(r19)
   214f4:	1c000015 	stw	r16,0(r3)
   214f8:	24000315 	stw	r16,12(r4)
   214fc:	3807d0ba 	srai	r3,r7,2
   21500:	01000044 	movi	r4,1
   21504:	20c8983a 	sll	r4,r4,r3
   21508:	11004536 	bltu	r2,r4,21620 <_malloc_r+0x2c8>
   2150c:	2086703a 	and	r3,r4,r2
   21510:	18000a1e 	bne	r3,zero,2153c <_malloc_r+0x1e4>
   21514:	00ffff04 	movi	r3,-4
   21518:	2109883a 	add	r4,r4,r4
   2151c:	38ce703a 	and	r7,r7,r3
   21520:	2086703a 	and	r3,r4,r2
   21524:	39c00104 	addi	r7,r7,4
   21528:	1800041e 	bne	r3,zero,2153c <_malloc_r+0x1e4>
   2152c:	2109883a 	add	r4,r4,r4
   21530:	2086703a 	and	r3,r4,r2
   21534:	39c00104 	addi	r7,r7,4
   21538:	183ffc26 	beq	r3,zero,2152c <_malloc_r+0x1d4>
   2153c:	02bfff04 	movi	r10,-4
   21540:	381690fa 	slli	r11,r7,3
   21544:	3819883a 	mov	r12,r7
   21548:	9ad7883a 	add	r11,r19,r11
   2154c:	5811883a 	mov	r8,r11
   21550:	40800317 	ldw	r2,12(r8)
   21554:	4080bc26 	beq	r8,r2,21848 <_malloc_r+0x4f0>
   21558:	10c00117 	ldw	r3,4(r2)
   2155c:	1021883a 	mov	r16,r2
   21560:	10800317 	ldw	r2,12(r2)
   21564:	1a86703a 	and	r3,r3,r10
   21568:	1c4bc83a 	sub	r5,r3,r17
   2156c:	29800410 	cmplti	r6,r5,16
   21570:	3000ba26 	beq	r6,zero,2185c <_malloc_r+0x504>
   21574:	283ff716 	blt	r5,zero,21554 <_malloc_r+0x1fc>
   21578:	80c7883a 	add	r3,r16,r3
   2157c:	19400117 	ldw	r5,4(r3)
   21580:	81800217 	ldw	r6,8(r16)
   21584:	9009883a 	mov	r4,r18
   21588:	29400054 	ori	r5,r5,1
   2158c:	19400115 	stw	r5,4(r3)
   21590:	30800315 	stw	r2,12(r6)
   21594:	11800215 	stw	r6,8(r2)
   21598:	00314740 	call	31474 <__malloc_unlock>
   2159c:	80800204 	addi	r2,r16,8
   215a0:	00000306 	br	215b0 <_malloc_r+0x258>
   215a4:	00800304 	movi	r2,12
   215a8:	90800015 	stw	r2,0(r18)
   215ac:	0005883a 	mov	r2,zero
   215b0:	dfc00917 	ldw	ra,36(sp)
   215b4:	df000817 	ldw	fp,32(sp)
   215b8:	ddc00717 	ldw	r23,28(sp)
   215bc:	dd800617 	ldw	r22,24(sp)
   215c0:	dd400517 	ldw	r21,20(sp)
   215c4:	dd000417 	ldw	r20,16(sp)
   215c8:	dcc00317 	ldw	r19,12(sp)
   215cc:	dc800217 	ldw	r18,8(sp)
   215d0:	dc400117 	ldw	r17,4(sp)
   215d4:	dc000017 	ldw	r16,0(sp)
   215d8:	dec00a04 	addi	sp,sp,40
   215dc:	f800283a 	ret
   215e0:	01008004 	movi	r4,512
   215e4:	01c01004 	movi	r7,64
   215e8:	02000fc4 	movi	r8,63
   215ec:	003f9306 	br	2143c <_malloc_r+0xe4>
   215f0:	14000317 	ldw	r16,12(r2)
   215f4:	39c00084 	addi	r7,r7,2
   215f8:	143f721e 	bne	r2,r16,213c4 <_malloc_r+0x6c>
   215fc:	9c000417 	ldw	r16,16(r19)
   21600:	024000f4 	movhi	r9,3
   21604:	4a50be04 	addi	r9,r9,17144
   21608:	827fa11e 	bne	r16,r9,21490 <_malloc_r+0x138>
   2160c:	3807d0ba 	srai	r3,r7,2
   21610:	01000044 	movi	r4,1
   21614:	98800117 	ldw	r2,4(r19)
   21618:	20c8983a 	sll	r4,r4,r3
   2161c:	113fbb2e 	bgeu	r2,r4,2150c <_malloc_r+0x1b4>
   21620:	9c000217 	ldw	r16,8(r19)
   21624:	00bfff04 	movi	r2,-4
   21628:	85400117 	ldw	r21,4(r16)
   2162c:	a8ac703a 	and	r22,r21,r2
   21630:	b4400336 	bltu	r22,r17,21640 <_malloc_r+0x2e8>
   21634:	b445c83a 	sub	r2,r22,r17
   21638:	10c00408 	cmpgei	r3,r2,16
   2163c:	1800541e 	bne	r3,zero,21790 <_malloc_r+0x438>
   21640:	008000f4 	movhi	r2,3
   21644:	1096ad17 	ldw	r2,23220(r2)
   21648:	00c000f4 	movhi	r3,3
   2164c:	1d5dcd17 	ldw	r21,30516(r3)
   21650:	10bfffd8 	cmpnei	r2,r2,-1
   21654:	85b9883a 	add	fp,r16,r22
   21658:	8d6b883a 	add	r21,r17,r21
   2165c:	1000d626 	beq	r2,zero,219b8 <_malloc_r+0x660>
   21660:	ad4403c4 	addi	r21,r21,4111
   21664:	00bc0004 	movi	r2,-4096
   21668:	a8aa703a 	and	r21,r21,r2
   2166c:	a80b883a 	mov	r5,r21
   21670:	9009883a 	mov	r4,r18
   21674:	0021e700 	call	21e70 <_sbrk_r>
   21678:	102f883a 	mov	r23,r2
   2167c:	10bfffd8 	cmpnei	r2,r2,-1
   21680:	1000a826 	beq	r2,zero,21924 <_malloc_r+0x5cc>
   21684:	bf00a636 	bltu	r23,fp,21920 <_malloc_r+0x5c8>
   21688:	008000f4 	movhi	r2,3
   2168c:	151dd617 	ldw	r20,30552(r2)
   21690:	ad29883a 	add	r20,r21,r20
   21694:	151dd615 	stw	r20,30552(r2)
   21698:	a007883a 	mov	r3,r20
   2169c:	e5c0ec26 	beq	fp,r23,21a50 <_malloc_r+0x6f8>
   216a0:	008000f4 	movhi	r2,3
   216a4:	1096ad17 	ldw	r2,23220(r2)
   216a8:	10bfffd8 	cmpnei	r2,r2,-1
   216ac:	1000ef26 	beq	r2,zero,21a6c <_malloc_r+0x714>
   216b0:	bf39c83a 	sub	fp,r23,fp
   216b4:	e0c7883a 	add	r3,fp,r3
   216b8:	008000f4 	movhi	r2,3
   216bc:	10ddd615 	stw	r3,30552(r2)
   216c0:	bf0001cc 	andi	fp,r23,7
   216c4:	e000c526 	beq	fp,zero,219dc <_malloc_r+0x684>
   216c8:	bf2fc83a 	sub	r23,r23,fp
   216cc:	bdc00204 	addi	r23,r23,8
   216d0:	05040204 	movi	r20,4104
   216d4:	a729c83a 	sub	r20,r20,fp
   216d8:	bd6b883a 	add	r21,r23,r21
   216dc:	a569c83a 	sub	r20,r20,r21
   216e0:	a503ffcc 	andi	r20,r20,4095
   216e4:	a00b883a 	mov	r5,r20
   216e8:	9009883a 	mov	r4,r18
   216ec:	0021e700 	call	21e70 <_sbrk_r>
   216f0:	10ffffe0 	cmpeqi	r3,r2,-1
   216f4:	1800f31e 	bne	r3,zero,21ac4 <_malloc_r+0x76c>
   216f8:	15c5c83a 	sub	r2,r2,r23
   216fc:	152b883a 	add	r21,r2,r20
   21700:	008000f4 	movhi	r2,3
   21704:	115dd617 	ldw	r5,30552(r2)
   21708:	9dc00215 	stw	r23,8(r19)
   2170c:	ad400054 	ori	r21,r21,1
   21710:	a169883a 	add	r20,r20,r5
   21714:	151dd615 	stw	r20,30552(r2)
   21718:	bd400115 	stw	r21,4(r23)
   2171c:	84c0d626 	beq	r16,r19,21a78 <_malloc_r+0x720>
   21720:	b0800428 	cmpgeui	r2,r22,16
   21724:	1000d626 	beq	r2,zero,21a80 <_malloc_r+0x728>
   21728:	80c00117 	ldw	r3,4(r16)
   2172c:	013ffe04 	movi	r4,-8
   21730:	b0bffd04 	addi	r2,r22,-12
   21734:	1104703a 	and	r2,r2,r4
   21738:	18c0004c 	andi	r3,r3,1
   2173c:	1886b03a 	or	r3,r3,r2
   21740:	80c00115 	stw	r3,4(r16)
   21744:	01000144 	movi	r4,5
   21748:	8087883a 	add	r3,r16,r2
   2174c:	19000115 	stw	r4,4(r3)
   21750:	19000215 	stw	r4,8(r3)
   21754:	10800428 	cmpgeui	r2,r2,16
   21758:	1000df1e 	bne	r2,zero,21ad8 <_malloc_r+0x780>
   2175c:	bd400117 	ldw	r21,4(r23)
   21760:	b821883a 	mov	r16,r23
   21764:	008000f4 	movhi	r2,3
   21768:	109dcc17 	ldw	r2,30512(r2)
   2176c:	1500022e 	bgeu	r2,r20,21778 <_malloc_r+0x420>
   21770:	008000f4 	movhi	r2,3
   21774:	151dcc15 	stw	r20,30512(r2)
   21778:	008000f4 	movhi	r2,3
   2177c:	109dcb17 	ldw	r2,30508(r2)
   21780:	15006a2e 	bgeu	r2,r20,2192c <_malloc_r+0x5d4>
   21784:	008000f4 	movhi	r2,3
   21788:	151dcb15 	stw	r20,30508(r2)
   2178c:	00006706 	br	2192c <_malloc_r+0x5d4>
   21790:	88c00054 	ori	r3,r17,1
   21794:	80c00115 	stw	r3,4(r16)
   21798:	8463883a 	add	r17,r16,r17
   2179c:	10800054 	ori	r2,r2,1
   217a0:	9c400215 	stw	r17,8(r19)
   217a4:	88800115 	stw	r2,4(r17)
   217a8:	9009883a 	mov	r4,r18
   217ac:	00314740 	call	31474 <__malloc_unlock>
   217b0:	80800204 	addi	r2,r16,8
   217b4:	003f7e06 	br	215b0 <_malloc_r+0x258>
   217b8:	81000317 	ldw	r4,12(r16)
   217bc:	003f0506 	br	213d4 <_malloc_r+0x7c>
   217c0:	1006d27a 	srli	r3,r2,9
   217c4:	19000168 	cmpgeui	r4,r3,5
   217c8:	20005026 	beq	r4,zero,2190c <_malloc_r+0x5b4>
   217cc:	19000568 	cmpgeui	r4,r3,21
   217d0:	20008c1e 	bne	r4,zero,21a04 <_malloc_r+0x6ac>
   217d4:	19401704 	addi	r5,r3,92
   217d8:	280a90fa 	slli	r5,r5,3
   217dc:	190016c4 	addi	r4,r3,91
   217e0:	994b883a 	add	r5,r19,r5
   217e4:	28c00017 	ldw	r3,0(r5)
   217e8:	297ffe04 	addi	r5,r5,-8
   217ec:	28c07426 	beq	r5,r3,219c0 <_malloc_r+0x668>
   217f0:	01bfff04 	movi	r6,-4
   217f4:	19000117 	ldw	r4,4(r3)
   217f8:	2188703a 	and	r4,r4,r6
   217fc:	1100022e 	bgeu	r2,r4,21808 <_malloc_r+0x4b0>
   21800:	18c00217 	ldw	r3,8(r3)
   21804:	28fffb1e 	bne	r5,r3,217f4 <_malloc_r+0x49c>
   21808:	19400317 	ldw	r5,12(r3)
   2180c:	98800117 	ldw	r2,4(r19)
   21810:	81400315 	stw	r5,12(r16)
   21814:	80c00215 	stw	r3,8(r16)
   21818:	2c000215 	stw	r16,8(r5)
   2181c:	1c000315 	stw	r16,12(r3)
   21820:	003f3606 	br	214fc <_malloc_r+0x1a4>
   21824:	10c00568 	cmpgeui	r3,r2,21
   21828:	18004a26 	beq	r3,zero,21954 <_malloc_r+0x5fc>
   2182c:	10c01568 	cmpgeui	r3,r2,85
   21830:	18007b1e 	bne	r3,zero,21a20 <_malloc_r+0x6c8>
   21834:	8804d33a 	srli	r2,r17,12
   21838:	11c01bc4 	addi	r7,r2,111
   2183c:	380890fa 	slli	r4,r7,3
   21840:	12001b84 	addi	r8,r2,110
   21844:	003efd06 	br	2143c <_malloc_r+0xe4>
   21848:	63000044 	addi	r12,r12,1
   2184c:	608000cc 	andi	r2,r12,3
   21850:	42000204 	addi	r8,r8,8
   21854:	103f3e1e 	bne	r2,zero,21550 <_malloc_r+0x1f8>
   21858:	00004506 	br	21970 <_malloc_r+0x618>
   2185c:	81000217 	ldw	r4,8(r16)
   21860:	89800054 	ori	r6,r17,1
   21864:	81800115 	stw	r6,4(r16)
   21868:	20800315 	stw	r2,12(r4)
   2186c:	11000215 	stw	r4,8(r2)
   21870:	8463883a 	add	r17,r16,r17
   21874:	9c400515 	stw	r17,20(r19)
   21878:	9c400415 	stw	r17,16(r19)
   2187c:	28800054 	ori	r2,r5,1
   21880:	88800115 	stw	r2,4(r17)
   21884:	8a400315 	stw	r9,12(r17)
   21888:	8a400215 	stw	r9,8(r17)
   2188c:	80c7883a 	add	r3,r16,r3
   21890:	19400015 	stw	r5,0(r3)
   21894:	9009883a 	mov	r4,r18
   21898:	00314740 	call	31474 <__malloc_unlock>
   2189c:	80800204 	addi	r2,r16,8
   218a0:	003f4306 	br	215b0 <_malloc_r+0x258>
   218a4:	880ed0fa 	srli	r7,r17,3
   218a8:	88800204 	addi	r2,r17,8
   218ac:	003ebf06 	br	213ac <_malloc_r+0x54>
   218b0:	8085883a 	add	r2,r16,r2
   218b4:	10c00117 	ldw	r3,4(r2)
   218b8:	9009883a 	mov	r4,r18
   218bc:	18c00054 	ori	r3,r3,1
   218c0:	10c00115 	stw	r3,4(r2)
   218c4:	00314740 	call	31474 <__malloc_unlock>
   218c8:	80800204 	addi	r2,r16,8
   218cc:	003f3806 	br	215b0 <_malloc_r+0x258>
   218d0:	89000054 	ori	r4,r17,1
   218d4:	81000115 	stw	r4,4(r16)
   218d8:	8463883a 	add	r17,r16,r17
   218dc:	9c400515 	stw	r17,20(r19)
   218e0:	9c400415 	stw	r17,16(r19)
   218e4:	19000054 	ori	r4,r3,1
   218e8:	89000115 	stw	r4,4(r17)
   218ec:	8085883a 	add	r2,r16,r2
   218f0:	8a400315 	stw	r9,12(r17)
   218f4:	8a400215 	stw	r9,8(r17)
   218f8:	10c00015 	stw	r3,0(r2)
   218fc:	9009883a 	mov	r4,r18
   21900:	00314740 	call	31474 <__malloc_unlock>
   21904:	80800204 	addi	r2,r16,8
   21908:	003f2906 	br	215b0 <_malloc_r+0x258>
   2190c:	1006d1ba 	srli	r3,r2,6
   21910:	19400e44 	addi	r5,r3,57
   21914:	280a90fa 	slli	r5,r5,3
   21918:	19000e04 	addi	r4,r3,56
   2191c:	003fb006 	br	217e0 <_malloc_r+0x488>
   21920:	84c04626 	beq	r16,r19,21a3c <_malloc_r+0x6e4>
   21924:	9c000217 	ldw	r16,8(r19)
   21928:	85400117 	ldw	r21,4(r16)
   2192c:	00bfff04 	movi	r2,-4
   21930:	a8aa703a 	and	r21,r21,r2
   21934:	ac45c83a 	sub	r2,r21,r17
   21938:	ac400236 	bltu	r21,r17,21944 <_malloc_r+0x5ec>
   2193c:	10c00408 	cmpgei	r3,r2,16
   21940:	183f931e 	bne	r3,zero,21790 <_malloc_r+0x438>
   21944:	9009883a 	mov	r4,r18
   21948:	00314740 	call	31474 <__malloc_unlock>
   2194c:	0005883a 	mov	r2,zero
   21950:	003f1706 	br	215b0 <_malloc_r+0x258>
   21954:	11c01704 	addi	r7,r2,92
   21958:	380890fa 	slli	r4,r7,3
   2195c:	120016c4 	addi	r8,r2,91
   21960:	003eb606 	br	2143c <_malloc_r+0xe4>
   21964:	58800217 	ldw	r2,8(r11)
   21968:	39ffffc4 	addi	r7,r7,-1
   2196c:	12c0701e 	bne	r2,r11,21b30 <_malloc_r+0x7d8>
   21970:	388000cc 	andi	r2,r7,3
   21974:	5afffe04 	addi	r11,r11,-8
   21978:	103ffa1e 	bne	r2,zero,21964 <_malloc_r+0x60c>
   2197c:	98c00117 	ldw	r3,4(r19)
   21980:	0104303a 	nor	r2,zero,r4
   21984:	10c4703a 	and	r2,r2,r3
   21988:	98800115 	stw	r2,4(r19)
   2198c:	2109883a 	add	r4,r4,r4
   21990:	113f2336 	bltu	r2,r4,21620 <_malloc_r+0x2c8>
   21994:	203f2226 	beq	r4,zero,21620 <_malloc_r+0x2c8>
   21998:	2086703a 	and	r3,r4,r2
   2199c:	1800041e 	bne	r3,zero,219b0 <_malloc_r+0x658>
   219a0:	2109883a 	add	r4,r4,r4
   219a4:	2086703a 	and	r3,r4,r2
   219a8:	63000104 	addi	r12,r12,4
   219ac:	183ffc26 	beq	r3,zero,219a0 <_malloc_r+0x648>
   219b0:	600f883a 	mov	r7,r12
   219b4:	003ee206 	br	21540 <_malloc_r+0x1e8>
   219b8:	ad400404 	addi	r21,r21,16
   219bc:	003f2b06 	br	2166c <_malloc_r+0x314>
   219c0:	2009d0ba 	srai	r4,r4,2
   219c4:	00800044 	movi	r2,1
   219c8:	99800117 	ldw	r6,4(r19)
   219cc:	1104983a 	sll	r2,r2,r4
   219d0:	1184b03a 	or	r2,r2,r6
   219d4:	98800115 	stw	r2,4(r19)
   219d8:	003f8d06 	br	21810 <_malloc_r+0x4b8>
   219dc:	bd69883a 	add	r20,r23,r21
   219e0:	0529c83a 	sub	r20,zero,r20
   219e4:	a503ffcc 	andi	r20,r20,4095
   219e8:	a00b883a 	mov	r5,r20
   219ec:	9009883a 	mov	r4,r18
   219f0:	0021e700 	call	21e70 <_sbrk_r>
   219f4:	10ffffe0 	cmpeqi	r3,r2,-1
   219f8:	183f3f26 	beq	r3,zero,216f8 <_malloc_r+0x3a0>
   219fc:	0029883a 	mov	r20,zero
   21a00:	003f3f06 	br	21700 <_malloc_r+0x3a8>
   21a04:	19001568 	cmpgeui	r4,r3,85
   21a08:	2000201e 	bne	r4,zero,21a8c <_malloc_r+0x734>
   21a0c:	1006d33a 	srli	r3,r2,12
   21a10:	19401bc4 	addi	r5,r3,111
   21a14:	280a90fa 	slli	r5,r5,3
   21a18:	19001b84 	addi	r4,r3,110
   21a1c:	003f7006 	br	217e0 <_malloc_r+0x488>
   21a20:	10c05568 	cmpgeui	r3,r2,341
   21a24:	1800201e 	bne	r3,zero,21aa8 <_malloc_r+0x750>
   21a28:	8804d3fa 	srli	r2,r17,15
   21a2c:	11c01e04 	addi	r7,r2,120
   21a30:	380890fa 	slli	r4,r7,3
   21a34:	12001dc4 	addi	r8,r2,119
   21a38:	003e8006 	br	2143c <_malloc_r+0xe4>
   21a3c:	008000f4 	movhi	r2,3
   21a40:	10ddd617 	ldw	r3,30552(r2)
   21a44:	a8c7883a 	add	r3,r21,r3
   21a48:	10ddd615 	stw	r3,30552(r2)
   21a4c:	003f1406 	br	216a0 <_malloc_r+0x348>
   21a50:	e083ffcc 	andi	r2,fp,4095
   21a54:	103f121e 	bne	r2,zero,216a0 <_malloc_r+0x348>
   21a58:	9c000217 	ldw	r16,8(r19)
   21a5c:	b56b883a 	add	r21,r22,r21
   21a60:	ad400054 	ori	r21,r21,1
   21a64:	85400115 	stw	r21,4(r16)
   21a68:	003f3e06 	br	21764 <_malloc_r+0x40c>
   21a6c:	008000f4 	movhi	r2,3
   21a70:	15d6ad15 	stw	r23,23220(r2)
   21a74:	003f1206 	br	216c0 <_malloc_r+0x368>
   21a78:	b821883a 	mov	r16,r23
   21a7c:	003f3906 	br	21764 <_malloc_r+0x40c>
   21a80:	00800044 	movi	r2,1
   21a84:	b8800115 	stw	r2,4(r23)
   21a88:	003fae06 	br	21944 <_malloc_r+0x5ec>
   21a8c:	19005568 	cmpgeui	r4,r3,341
   21a90:	2000191e 	bne	r4,zero,21af8 <_malloc_r+0x7a0>
   21a94:	1006d3fa 	srli	r3,r2,15
   21a98:	19401e04 	addi	r5,r3,120
   21a9c:	280a90fa 	slli	r5,r5,3
   21aa0:	19001dc4 	addi	r4,r3,119
   21aa4:	003f4e06 	br	217e0 <_malloc_r+0x488>
   21aa8:	10815568 	cmpgeui	r2,r2,1365
   21aac:	1000191e 	bne	r2,zero,21b14 <_malloc_r+0x7bc>
   21ab0:	8804d4ba 	srli	r2,r17,18
   21ab4:	11c01f44 	addi	r7,r2,125
   21ab8:	380890fa 	slli	r4,r7,3
   21abc:	12001f04 	addi	r8,r2,124
   21ac0:	003e5e06 	br	2143c <_malloc_r+0xe4>
   21ac4:	e73ffe04 	addi	fp,fp,-8
   21ac8:	af2b883a 	add	r21,r21,fp
   21acc:	adebc83a 	sub	r21,r21,r23
   21ad0:	0029883a 	mov	r20,zero
   21ad4:	003f0a06 	br	21700 <_malloc_r+0x3a8>
   21ad8:	81400204 	addi	r5,r16,8
   21adc:	9009883a 	mov	r4,r18
   21ae0:	0027de40 	call	27de4 <_free_r>
   21ae4:	9c000217 	ldw	r16,8(r19)
   21ae8:	008000f4 	movhi	r2,3
   21aec:	151dd617 	ldw	r20,30552(r2)
   21af0:	85400117 	ldw	r21,4(r16)
   21af4:	003f1b06 	br	21764 <_malloc_r+0x40c>
   21af8:	18c15568 	cmpgeui	r3,r3,1365
   21afc:	1800091e 	bne	r3,zero,21b24 <_malloc_r+0x7cc>
   21b00:	1006d4ba 	srli	r3,r2,18
   21b04:	19401f44 	addi	r5,r3,125
   21b08:	280a90fa 	slli	r5,r5,3
   21b0c:	19001f04 	addi	r4,r3,124
   21b10:	003f3306 	br	217e0 <_malloc_r+0x488>
   21b14:	0100fe04 	movi	r4,1016
   21b18:	01c01fc4 	movi	r7,127
   21b1c:	02001f84 	movi	r8,126
   21b20:	003e4606 	br	2143c <_malloc_r+0xe4>
   21b24:	0140fe04 	movi	r5,1016
   21b28:	01001f84 	movi	r4,126
   21b2c:	003f2c06 	br	217e0 <_malloc_r+0x488>
   21b30:	98800117 	ldw	r2,4(r19)
   21b34:	003f9506 	br	2198c <_malloc_r+0x634>

00021b38 <_open_r>:
   21b38:	2807883a 	mov	r3,r5
   21b3c:	defffe04 	addi	sp,sp,-8
   21b40:	dc000015 	stw	r16,0(sp)
   21b44:	300b883a 	mov	r5,r6
   21b48:	008000f4 	movhi	r2,3
   21b4c:	380d883a 	mov	r6,r7
   21b50:	2021883a 	mov	r16,r4
   21b54:	1809883a 	mov	r4,r3
   21b58:	dfc00115 	stw	ra,4(sp)
   21b5c:	101dca15 	stw	zero,30504(r2)
   21b60:	00315b00 	call	315b0 <open>
   21b64:	10ffffd8 	cmpnei	r3,r2,-1
   21b68:	18000426 	beq	r3,zero,21b7c <_open_r+0x44>
   21b6c:	dfc00117 	ldw	ra,4(sp)
   21b70:	dc000017 	ldw	r16,0(sp)
   21b74:	dec00204 	addi	sp,sp,8
   21b78:	f800283a 	ret
   21b7c:	00c000f4 	movhi	r3,3
   21b80:	18ddca17 	ldw	r3,30504(r3)
   21b84:	183ff926 	beq	r3,zero,21b6c <_open_r+0x34>
   21b88:	80c00015 	stw	r3,0(r16)
   21b8c:	dfc00117 	ldw	ra,4(sp)
   21b90:	dc000017 	ldw	r16,0(sp)
   21b94:	dec00204 	addi	sp,sp,8
   21b98:	f800283a 	ret

00021b9c <_printf_r>:
   21b9c:	defffd04 	addi	sp,sp,-12
   21ba0:	2805883a 	mov	r2,r5
   21ba4:	dfc00015 	stw	ra,0(sp)
   21ba8:	d9800115 	stw	r6,4(sp)
   21bac:	d9c00215 	stw	r7,8(sp)
   21bb0:	21400217 	ldw	r5,8(r4)
   21bb4:	d9c00104 	addi	r7,sp,4
   21bb8:	100d883a 	mov	r6,r2
   21bbc:	00238bc0 	call	238bc <___vfprintf_internal_r>
   21bc0:	dfc00017 	ldw	ra,0(sp)
   21bc4:	dec00304 	addi	sp,sp,12
   21bc8:	f800283a 	ret

00021bcc <printf>:
   21bcc:	defffc04 	addi	sp,sp,-16
   21bd0:	dfc00015 	stw	ra,0(sp)
   21bd4:	d9400115 	stw	r5,4(sp)
   21bd8:	d9800215 	stw	r6,8(sp)
   21bdc:	d9c00315 	stw	r7,12(sp)
   21be0:	008000f4 	movhi	r2,3
   21be4:	1096ac17 	ldw	r2,23216(r2)
   21be8:	200b883a 	mov	r5,r4
   21bec:	d9800104 	addi	r6,sp,4
   21bf0:	11000217 	ldw	r4,8(r2)
   21bf4:	00259a80 	call	259a8 <__vfprintf_internal>
   21bf8:	dfc00017 	ldw	ra,0(sp)
   21bfc:	dec00404 	addi	sp,sp,16
   21c00:	f800283a 	ret

00021c04 <lflush>:
   21c04:	2080030b 	ldhu	r2,12(r4)
   21c08:	1080024c 	andi	r2,r2,9
   21c0c:	10800258 	cmpnei	r2,r2,9
   21c10:	10000226 	beq	r2,zero,21c1c <lflush+0x18>
   21c14:	0005883a 	mov	r2,zero
   21c18:	f800283a 	ret
   21c1c:	00278941 	jmpi	27894 <fflush>

00021c20 <__srefill_r>:
   21c20:	defffc04 	addi	sp,sp,-16
   21c24:	dc400115 	stw	r17,4(sp)
   21c28:	dc000015 	stw	r16,0(sp)
   21c2c:	dfc00315 	stw	ra,12(sp)
   21c30:	dc800215 	stw	r18,8(sp)
   21c34:	2023883a 	mov	r17,r4
   21c38:	2821883a 	mov	r16,r5
   21c3c:	20000226 	beq	r4,zero,21c48 <__srefill_r+0x28>
   21c40:	20800e17 	ldw	r2,56(r4)
   21c44:	10003a26 	beq	r2,zero,21d30 <__srefill_r+0x110>
   21c48:	80c0030b 	ldhu	r3,12(r16)
   21c4c:	1908000c 	andi	r4,r3,8192
   21c50:	1805883a 	mov	r2,r3
   21c54:	2000071e 	bne	r4,zero,21c74 <__srefill_r+0x54>
   21c58:	81001917 	ldw	r4,100(r16)
   21c5c:	18880014 	ori	r2,r3,8192
   21c60:	00f7ffc4 	movi	r3,-8193
   21c64:	20c8703a 	and	r4,r4,r3
   21c68:	8080030d 	sth	r2,12(r16)
   21c6c:	1007883a 	mov	r3,r2
   21c70:	81001915 	stw	r4,100(r16)
   21c74:	80000115 	stw	zero,4(r16)
   21c78:	1100080c 	andi	r4,r2,32
   21c7c:	20004d1e 	bne	r4,zero,21db4 <__srefill_r+0x194>
   21c80:	1100010c 	andi	r4,r2,4
   21c84:	20001c1e 	bne	r4,zero,21cf8 <__srefill_r+0xd8>
   21c88:	1100040c 	andi	r4,r2,16
   21c8c:	20005126 	beq	r4,zero,21dd4 <__srefill_r+0x1b4>
   21c90:	1080020c 	andi	r2,r2,8
   21c94:	1000371e 	bne	r2,zero,21d74 <__srefill_r+0x154>
   21c98:	18c00114 	ori	r3,r3,4
   21c9c:	80c0030d 	sth	r3,12(r16)
   21ca0:	80800417 	ldw	r2,16(r16)
   21ca4:	10003c26 	beq	r2,zero,21d98 <__srefill_r+0x178>
   21ca8:	8480030b 	ldhu	r18,12(r16)
   21cac:	908000cc 	andi	r2,r18,3
   21cb0:	1000211e 	bne	r2,zero,21d38 <__srefill_r+0x118>
   21cb4:	81800417 	ldw	r6,16(r16)
   21cb8:	80800817 	ldw	r2,32(r16)
   21cbc:	81c00517 	ldw	r7,20(r16)
   21cc0:	81400717 	ldw	r5,28(r16)
   21cc4:	81800015 	stw	r6,0(r16)
   21cc8:	8809883a 	mov	r4,r17
   21ccc:	103ee83a 	callr	r2
   21cd0:	1007883a 	mov	r3,r2
   21cd4:	80800115 	stw	r2,4(r16)
   21cd8:	0005883a 	mov	r2,zero
   21cdc:	00c0370e 	bge	zero,r3,21dbc <__srefill_r+0x19c>
   21ce0:	dfc00317 	ldw	ra,12(sp)
   21ce4:	dc800217 	ldw	r18,8(sp)
   21ce8:	dc400117 	ldw	r17,4(sp)
   21cec:	dc000017 	ldw	r16,0(sp)
   21cf0:	dec00404 	addi	sp,sp,16
   21cf4:	f800283a 	ret
   21cf8:	81400c17 	ldw	r5,48(r16)
   21cfc:	283fe826 	beq	r5,zero,21ca0 <__srefill_r+0x80>
   21d00:	80801004 	addi	r2,r16,64
   21d04:	28800226 	beq	r5,r2,21d10 <__srefill_r+0xf0>
   21d08:	8809883a 	mov	r4,r17
   21d0c:	0027de40 	call	27de4 <_free_r>
   21d10:	80800f17 	ldw	r2,60(r16)
   21d14:	80000c15 	stw	zero,48(r16)
   21d18:	80800115 	stw	r2,4(r16)
   21d1c:	103fe026 	beq	r2,zero,21ca0 <__srefill_r+0x80>
   21d20:	80c00e17 	ldw	r3,56(r16)
   21d24:	0005883a 	mov	r2,zero
   21d28:	80c00015 	stw	r3,0(r16)
   21d2c:	003fec06 	br	21ce0 <__srefill_r+0xc0>
   21d30:	0027bc80 	call	27bc8 <__sinit>
   21d34:	003fc406 	br	21c48 <__srefill_r+0x28>
   21d38:	008000f4 	movhi	r2,3
   21d3c:	1116ab17 	ldw	r4,23212(r2)
   21d40:	014000b4 	movhi	r5,2
   21d44:	00800044 	movi	r2,1
   21d48:	8080030d 	sth	r2,12(r16)
   21d4c:	29470104 	addi	r5,r5,7172
   21d50:	00280e00 	call	280e0 <_fwalk>
   21d54:	9080024c 	andi	r2,r18,9
   21d58:	8480030d 	sth	r18,12(r16)
   21d5c:	10800258 	cmpnei	r2,r2,9
   21d60:	103fd41e 	bne	r2,zero,21cb4 <__srefill_r+0x94>
   21d64:	800b883a 	mov	r5,r16
   21d68:	8809883a 	mov	r4,r17
   21d6c:	002760c0 	call	2760c <__sflush_r>
   21d70:	003fd006 	br	21cb4 <__srefill_r+0x94>
   21d74:	800b883a 	mov	r5,r16
   21d78:	8809883a 	mov	r4,r17
   21d7c:	00278340 	call	27834 <_fflush_r>
   21d80:	10000c1e 	bne	r2,zero,21db4 <__srefill_r+0x194>
   21d84:	80c0030b 	ldhu	r3,12(r16)
   21d88:	80000215 	stw	zero,8(r16)
   21d8c:	80000615 	stw	zero,24(r16)
   21d90:	18fffdcc 	andi	r3,r3,65527
   21d94:	003fc006 	br	21c98 <__srefill_r+0x78>
   21d98:	800b883a 	mov	r5,r16
   21d9c:	8809883a 	mov	r4,r17
   21da0:	00211f80 	call	211f8 <__smakebuf_r>
   21da4:	003fc006 	br	21ca8 <__srefill_r+0x88>
   21da8:	10801014 	ori	r2,r2,64
   21dac:	80000115 	stw	zero,4(r16)
   21db0:	8080030d 	sth	r2,12(r16)
   21db4:	00bfffc4 	movi	r2,-1
   21db8:	003fc906 	br	21ce0 <__srefill_r+0xc0>
   21dbc:	8080030b 	ldhu	r2,12(r16)
   21dc0:	183ff91e 	bne	r3,zero,21da8 <__srefill_r+0x188>
   21dc4:	10800814 	ori	r2,r2,32
   21dc8:	8080030d 	sth	r2,12(r16)
   21dcc:	00bfffc4 	movi	r2,-1
   21dd0:	003fc306 	br	21ce0 <__srefill_r+0xc0>
   21dd4:	00800244 	movi	r2,9
   21dd8:	88800015 	stw	r2,0(r17)
   21ddc:	18c01014 	ori	r3,r3,64
   21de0:	80c0030d 	sth	r3,12(r16)
   21de4:	00bfffc4 	movi	r2,-1
   21de8:	003fbd06 	br	21ce0 <__srefill_r+0xc0>

00021dec <__srget_r>:
   21dec:	defffd04 	addi	sp,sp,-12
   21df0:	dc400115 	stw	r17,4(sp)
   21df4:	dc000015 	stw	r16,0(sp)
   21df8:	dfc00215 	stw	ra,8(sp)
   21dfc:	2023883a 	mov	r17,r4
   21e00:	2821883a 	mov	r16,r5
   21e04:	20000226 	beq	r4,zero,21e10 <__srget_r+0x24>
   21e08:	20800e17 	ldw	r2,56(r4)
   21e0c:	10001026 	beq	r2,zero,21e50 <__srget_r+0x64>
   21e10:	800b883a 	mov	r5,r16
   21e14:	8809883a 	mov	r4,r17
   21e18:	0021c200 	call	21c20 <__srefill_r>
   21e1c:	10000e1e 	bne	r2,zero,21e58 <__srget_r+0x6c>
   21e20:	80c00017 	ldw	r3,0(r16)
   21e24:	80800117 	ldw	r2,4(r16)
   21e28:	19000044 	addi	r4,r3,1
   21e2c:	10bfffc4 	addi	r2,r2,-1
   21e30:	80800115 	stw	r2,4(r16)
   21e34:	81000015 	stw	r4,0(r16)
   21e38:	18800003 	ldbu	r2,0(r3)
   21e3c:	dfc00217 	ldw	ra,8(sp)
   21e40:	dc400117 	ldw	r17,4(sp)
   21e44:	dc000017 	ldw	r16,0(sp)
   21e48:	dec00304 	addi	sp,sp,12
   21e4c:	f800283a 	ret
   21e50:	0027bc80 	call	27bc8 <__sinit>
   21e54:	003fee06 	br	21e10 <__srget_r+0x24>
   21e58:	00bfffc4 	movi	r2,-1
   21e5c:	003ff706 	br	21e3c <__srget_r+0x50>

00021e60 <__srget>:
   21e60:	008000f4 	movhi	r2,3
   21e64:	200b883a 	mov	r5,r4
   21e68:	1116ac17 	ldw	r4,23216(r2)
   21e6c:	0021dec1 	jmpi	21dec <__srget_r>

00021e70 <_sbrk_r>:
   21e70:	defffe04 	addi	sp,sp,-8
   21e74:	dc000015 	stw	r16,0(sp)
   21e78:	008000f4 	movhi	r2,3
   21e7c:	2021883a 	mov	r16,r4
   21e80:	2809883a 	mov	r4,r5
   21e84:	dfc00115 	stw	ra,4(sp)
   21e88:	101dca15 	stw	zero,30504(r2)
   21e8c:	00318c40 	call	318c4 <sbrk>
   21e90:	10ffffd8 	cmpnei	r3,r2,-1
   21e94:	18000426 	beq	r3,zero,21ea8 <_sbrk_r+0x38>
   21e98:	dfc00117 	ldw	ra,4(sp)
   21e9c:	dc000017 	ldw	r16,0(sp)
   21ea0:	dec00204 	addi	sp,sp,8
   21ea4:	f800283a 	ret
   21ea8:	00c000f4 	movhi	r3,3
   21eac:	18ddca17 	ldw	r3,30504(r3)
   21eb0:	183ff926 	beq	r3,zero,21e98 <_sbrk_r+0x28>
   21eb4:	80c00015 	stw	r3,0(r16)
   21eb8:	dfc00117 	ldw	ra,4(sp)
   21ebc:	dc000017 	ldw	r16,0(sp)
   21ec0:	dec00204 	addi	sp,sp,8
   21ec4:	f800283a 	ret

00021ec8 <__sread>:
   21ec8:	defffe04 	addi	sp,sp,-8
   21ecc:	dc000015 	stw	r16,0(sp)
   21ed0:	2821883a 	mov	r16,r5
   21ed4:	2940038f 	ldh	r5,14(r5)
   21ed8:	dfc00115 	stw	ra,4(sp)
   21edc:	002a3c00 	call	2a3c0 <_read_r>
   21ee0:	10000716 	blt	r2,zero,21f00 <__sread+0x38>
   21ee4:	80c01417 	ldw	r3,80(r16)
   21ee8:	1887883a 	add	r3,r3,r2
   21eec:	80c01415 	stw	r3,80(r16)
   21ef0:	dfc00117 	ldw	ra,4(sp)
   21ef4:	dc000017 	ldw	r16,0(sp)
   21ef8:	dec00204 	addi	sp,sp,8
   21efc:	f800283a 	ret
   21f00:	80c0030b 	ldhu	r3,12(r16)
   21f04:	18fbffcc 	andi	r3,r3,61439
   21f08:	80c0030d 	sth	r3,12(r16)
   21f0c:	dfc00117 	ldw	ra,4(sp)
   21f10:	dc000017 	ldw	r16,0(sp)
   21f14:	dec00204 	addi	sp,sp,8
   21f18:	f800283a 	ret

00021f1c <__seofread>:
   21f1c:	0005883a 	mov	r2,zero
   21f20:	f800283a 	ret

00021f24 <__swrite>:
   21f24:	2880030b 	ldhu	r2,12(r5)
   21f28:	defffb04 	addi	sp,sp,-20
   21f2c:	dcc00315 	stw	r19,12(sp)
   21f30:	dc800215 	stw	r18,8(sp)
   21f34:	dc400115 	stw	r17,4(sp)
   21f38:	dc000015 	stw	r16,0(sp)
   21f3c:	dfc00415 	stw	ra,16(sp)
   21f40:	10c0400c 	andi	r3,r2,256
   21f44:	2821883a 	mov	r16,r5
   21f48:	2023883a 	mov	r17,r4
   21f4c:	2940038f 	ldh	r5,14(r5)
   21f50:	3025883a 	mov	r18,r6
   21f54:	3827883a 	mov	r19,r7
   21f58:	18000c1e 	bne	r3,zero,21f8c <__swrite+0x68>
   21f5c:	10bbffcc 	andi	r2,r2,61439
   21f60:	980f883a 	mov	r7,r19
   21f64:	900d883a 	mov	r6,r18
   21f68:	8809883a 	mov	r4,r17
   21f6c:	8080030d 	sth	r2,12(r16)
   21f70:	dfc00417 	ldw	ra,16(sp)
   21f74:	dcc00317 	ldw	r19,12(sp)
   21f78:	dc800217 	ldw	r18,8(sp)
   21f7c:	dc400117 	ldw	r17,4(sp)
   21f80:	dc000017 	ldw	r16,0(sp)
   21f84:	dec00504 	addi	sp,sp,20
   21f88:	0025a841 	jmpi	25a84 <_write_r>
   21f8c:	01c00084 	movi	r7,2
   21f90:	000d883a 	mov	r6,zero
   21f94:	0028f100 	call	28f10 <_lseek_r>
   21f98:	8080030b 	ldhu	r2,12(r16)
   21f9c:	8140038f 	ldh	r5,14(r16)
   21fa0:	003fee06 	br	21f5c <__swrite+0x38>

00021fa4 <__sseek>:
   21fa4:	defffe04 	addi	sp,sp,-8
   21fa8:	dc000015 	stw	r16,0(sp)
   21fac:	2821883a 	mov	r16,r5
   21fb0:	2940038f 	ldh	r5,14(r5)
   21fb4:	dfc00115 	stw	ra,4(sp)
   21fb8:	0028f100 	call	28f10 <_lseek_r>
   21fbc:	10ffffd8 	cmpnei	r3,r2,-1
   21fc0:	18000826 	beq	r3,zero,21fe4 <__sseek+0x40>
   21fc4:	80c0030b 	ldhu	r3,12(r16)
   21fc8:	80801415 	stw	r2,80(r16)
   21fcc:	18c40014 	ori	r3,r3,4096
   21fd0:	80c0030d 	sth	r3,12(r16)
   21fd4:	dfc00117 	ldw	ra,4(sp)
   21fd8:	dc000017 	ldw	r16,0(sp)
   21fdc:	dec00204 	addi	sp,sp,8
   21fe0:	f800283a 	ret
   21fe4:	80c0030b 	ldhu	r3,12(r16)
   21fe8:	18fbffcc 	andi	r3,r3,61439
   21fec:	80c0030d 	sth	r3,12(r16)
   21ff0:	dfc00117 	ldw	ra,4(sp)
   21ff4:	dc000017 	ldw	r16,0(sp)
   21ff8:	dec00204 	addi	sp,sp,8
   21ffc:	f800283a 	ret

00022000 <__sclose>:
   22000:	2940038f 	ldh	r5,14(r5)
   22004:	0025c441 	jmpi	25c44 <_close_r>

00022008 <sulp>:
   22008:	defffd04 	addi	sp,sp,-12
   2200c:	dc400115 	stw	r17,4(sp)
   22010:	3023883a 	mov	r17,r6
   22014:	dc000015 	stw	r16,0(sp)
   22018:	dfc00215 	stw	ra,8(sp)
   2201c:	2821883a 	mov	r16,r5
   22020:	0029f1c0 	call	29f1c <__ulp>
   22024:	88000c26 	beq	r17,zero,22058 <sulp+0x50>
   22028:	8020d53a 	srli	r16,r16,20
   2202c:	01c01ac4 	movi	r7,107
   22030:	8401ffcc 	andi	r16,r16,2047
   22034:	3c21c83a 	sub	r16,r7,r16
   22038:	0400070e 	bge	zero,r16,22058 <sulp+0x50>
   2203c:	8020953a 	slli	r16,r16,20
   22040:	01cffc34 	movhi	r7,16368
   22044:	1009883a 	mov	r4,r2
   22048:	180b883a 	mov	r5,r3
   2204c:	000d883a 	mov	r6,zero
   22050:	81cf883a 	add	r7,r16,r7
   22054:	002f7240 	call	2f724 <__muldf3>
   22058:	dfc00217 	ldw	ra,8(sp)
   2205c:	dc400117 	ldw	r17,4(sp)
   22060:	dc000017 	ldw	r16,0(sp)
   22064:	dec00304 	addi	sp,sp,12
   22068:	f800283a 	ret

0002206c <_strtod_l>:
   2206c:	deffdf04 	addi	sp,sp,-132
   22070:	008000f4 	movhi	r2,3
   22074:	dd401c15 	stw	r21,112(sp)
   22078:	154e4617 	ldw	r21,14616(r2)
   2207c:	dc001715 	stw	r16,92(sp)
   22080:	2021883a 	mov	r16,r4
   22084:	a809883a 	mov	r4,r21
   22088:	dd801d15 	stw	r22,116(sp)
   2208c:	dd001b15 	stw	r20,108(sp)
   22090:	282d883a 	mov	r22,r5
   22094:	dc801915 	stw	r18,100(sp)
   22098:	dc401815 	stw	r17,96(sp)
   2209c:	d9800315 	stw	r6,12(sp)
   220a0:	dfc02015 	stw	ra,128(sp)
   220a4:	df001f15 	stw	fp,124(sp)
   220a8:	ddc01e15 	stw	r23,120(sp)
   220ac:	dcc01a15 	stw	r19,104(sp)
   220b0:	3829883a 	mov	r20,r7
   220b4:	d8001315 	stw	zero,76(sp)
   220b8:	002a4dc0 	call	2a4dc <strlen>
   220bc:	100d883a 	mov	r6,r2
   220c0:	0025883a 	mov	r18,zero
   220c4:	0023883a 	mov	r17,zero
   220c8:	dd801215 	stw	r22,72(sp)
   220cc:	b007883a 	mov	r3,r22
   220d0:	1cc00003 	ldbu	r19,0(r3)
   220d4:	010000b4 	movhi	r4,2
   220d8:	1813883a 	mov	r9,r3
   220dc:	98803fcc 	andi	r2,r19,255
   220e0:	100a90ba 	slli	r5,r2,2
   220e4:	10800ba8 	cmpgeui	r2,r2,46
   220e8:	1000311e 	bne	r2,zero,221b0 <_strtod_l+0x144>
   220ec:	2909883a 	add	r4,r5,r4
   220f0:	20883e17 	ldw	r2,8440(r4)
   220f4:	1000683a 	jmp	r2
   220f8:	00022264 	muli	zero,zero,2185
   220fc:	000221b0 	cmpltui	zero,zero,2182
   22100:	000221b0 	cmpltui	zero,zero,2182
   22104:	000221b0 	cmpltui	zero,zero,2182
   22108:	000221b0 	cmpltui	zero,zero,2182
   2210c:	000221b0 	cmpltui	zero,zero,2182
   22110:	000221b0 	cmpltui	zero,zero,2182
   22114:	000221b0 	cmpltui	zero,zero,2182
   22118:	000221b0 	cmpltui	zero,zero,2182
   2211c:	000222b4 	movhi	zero,2186
   22120:	000222b4 	movhi	zero,2186
   22124:	000222b4 	movhi	zero,2186
   22128:	000222b4 	movhi	zero,2186
   2212c:	000222b4 	movhi	zero,2186
   22130:	000221b0 	cmpltui	zero,zero,2182
   22134:	000221b0 	cmpltui	zero,zero,2182
   22138:	000221b0 	cmpltui	zero,zero,2182
   2213c:	000221b0 	cmpltui	zero,zero,2182
   22140:	000221b0 	cmpltui	zero,zero,2182
   22144:	000221b0 	cmpltui	zero,zero,2182
   22148:	000221b0 	cmpltui	zero,zero,2182
   2214c:	000221b0 	cmpltui	zero,zero,2182
   22150:	000221b0 	cmpltui	zero,zero,2182
   22154:	000221b0 	cmpltui	zero,zero,2182
   22158:	000221b0 	cmpltui	zero,zero,2182
   2215c:	000221b0 	cmpltui	zero,zero,2182
   22160:	000221b0 	cmpltui	zero,zero,2182
   22164:	000221b0 	cmpltui	zero,zero,2182
   22168:	000221b0 	cmpltui	zero,zero,2182
   2216c:	000221b0 	cmpltui	zero,zero,2182
   22170:	000221b0 	cmpltui	zero,zero,2182
   22174:	000221b0 	cmpltui	zero,zero,2182
   22178:	000222b4 	movhi	zero,2186
   2217c:	000221b0 	cmpltui	zero,zero,2182
   22180:	000221b0 	cmpltui	zero,zero,2182
   22184:	000221b0 	cmpltui	zero,zero,2182
   22188:	000221b0 	cmpltui	zero,zero,2182
   2218c:	000221b0 	cmpltui	zero,zero,2182
   22190:	000221b0 	cmpltui	zero,zero,2182
   22194:	000221b0 	cmpltui	zero,zero,2182
   22198:	000221b0 	cmpltui	zero,zero,2182
   2219c:	000221b0 	cmpltui	zero,zero,2182
   221a0:	000221b0 	cmpltui	zero,zero,2182
   221a4:	00022ebc 	xorhi	zero,zero,2234
   221a8:	000221b0 	cmpltui	zero,zero,2182
   221ac:	00022e98 	cmpnei	zero,zero,2234
   221b0:	9cc03fcc 	andi	r19,r19,255
   221b4:	9cc0201c 	xori	r19,r19,128
   221b8:	d8000415 	stw	zero,16(sp)
   221bc:	9cffe004 	addi	r19,r19,-128
   221c0:	98800c18 	cmpnei	r2,r19,48
   221c4:	10008426 	beq	r2,zero,223d8 <_strtod_l+0x36c>
   221c8:	0023883a 	mov	r17,zero
   221cc:	98800c08 	cmpgei	r2,r19,48
   221d0:	9825883a 	mov	r18,r19
   221d4:	1003d526 	beq	r2,zero,2312c <_strtod_l+0x10c0>
   221d8:	4829883a 	mov	r20,r9
   221dc:	0011883a 	mov	r8,zero
   221e0:	0039883a 	mov	fp,zero
   221e4:	002f883a 	mov	r23,zero
   221e8:	00000806 	br	2220c <_strtod_l+0x1a0>
   221ec:	1f3ff404 	addi	fp,r3,-48
   221f0:	a5000044 	addi	r20,r20,1
   221f4:	dd001215 	stw	r20,72(sp)
   221f8:	a4800007 	ldb	r18,0(r20)
   221fc:	bdc00044 	addi	r23,r23,1
   22200:	90800c10 	cmplti	r2,r18,48
   22204:	9027883a 	mov	r19,r18
   22208:	1000881e 	bne	r2,zero,2242c <_strtod_l+0x3c0>
   2220c:	e00690ba 	slli	r3,fp,2
   22210:	400490ba 	slli	r2,r8,2
   22214:	99000e90 	cmplti	r4,r19,58
   22218:	1f07883a 	add	r3,r3,fp
   2221c:	1205883a 	add	r2,r2,r8
   22220:	18c7883a 	add	r3,r3,r3
   22224:	1085883a 	add	r2,r2,r2
   22228:	b9400248 	cmpgei	r5,r23,9
   2222c:	1cc7883a 	add	r3,r3,r19
   22230:	14c5883a 	add	r2,r2,r19
   22234:	20002226 	beq	r4,zero,222c0 <_strtod_l+0x254>
   22238:	283fec26 	beq	r5,zero,221ec <_strtod_l+0x180>
   2223c:	123ff404 	addi	r8,r2,-48
   22240:	003feb06 	br	221f0 <_strtod_l+0x184>
   22244:	90c01960 	cmpeqi	r3,r18,101
   22248:	01c00044 	movi	r7,1
   2224c:	1800c01e 	bne	r3,zero,22550 <_strtod_l+0x4e4>
   22250:	90c01160 	cmpeqi	r3,r18,69
   22254:	18008326 	beq	r3,zero,22464 <_strtod_l+0x3f8>
   22258:	b800bd1e 	bne	r23,zero,22550 <_strtod_l+0x4e4>
   2225c:	8886b03a 	or	r3,r17,r2
   22260:	1800ba1e 	bne	r3,zero,2254c <_strtod_l+0x4e0>
   22264:	d8800317 	ldw	r2,12(sp)
   22268:	10000226 	beq	r2,zero,22274 <_strtod_l+0x208>
   2226c:	d8800317 	ldw	r2,12(sp)
   22270:	15800015 	stw	r22,0(r2)
   22274:	002d883a 	mov	r22,zero
   22278:	002b883a 	mov	r21,zero
   2227c:	b005883a 	mov	r2,r22
   22280:	a807883a 	mov	r3,r21
   22284:	dfc02017 	ldw	ra,128(sp)
   22288:	df001f17 	ldw	fp,124(sp)
   2228c:	ddc01e17 	ldw	r23,120(sp)
   22290:	dd801d17 	ldw	r22,116(sp)
   22294:	dd401c17 	ldw	r21,112(sp)
   22298:	dd001b17 	ldw	r20,108(sp)
   2229c:	dcc01a17 	ldw	r19,104(sp)
   222a0:	dc801917 	ldw	r18,100(sp)
   222a4:	dc401817 	ldw	r17,96(sp)
   222a8:	dc001717 	ldw	r16,92(sp)
   222ac:	dec02104 	addi	sp,sp,132
   222b0:	f800283a 	ret
   222b4:	18c00044 	addi	r3,r3,1
   222b8:	d8c01215 	stw	r3,72(sp)
   222bc:	003f8406 	br	220d0 <_strtod_l+0x64>
   222c0:	a80b883a 	mov	r5,r21
   222c4:	a009883a 	mov	r4,r20
   222c8:	da000615 	stw	r8,24(sp)
   222cc:	da400515 	stw	r9,20(sp)
   222d0:	d9800715 	stw	r6,28(sp)
   222d4:	002a5740 	call	2a574 <strncmp>
   222d8:	da400517 	ldw	r9,20(sp)
   222dc:	da000617 	ldw	r8,24(sp)
   222e0:	10004b1e 	bne	r2,zero,22410 <_strtod_l+0x3a4>
   222e4:	d9800717 	ldw	r6,28(sp)
   222e8:	a18d883a 	add	r6,r20,r6
   222ec:	d9801215 	stw	r6,72(sp)
   222f0:	34800007 	ldb	r18,0(r6)
   222f4:	b803f81e 	bne	r23,zero,232d8 <_strtod_l+0x126c>
   222f8:	90800c18 	cmpnei	r2,r18,48
   222fc:	1003ae1e 	bne	r2,zero,231b8 <_strtod_l+0x114c>
   22300:	d8c01217 	ldw	r3,72(sp)
   22304:	01400044 	movi	r5,1
   22308:	28cbc83a 	sub	r5,r5,r3
   2230c:	1945883a 	add	r2,r3,r5
   22310:	18c00044 	addi	r3,r3,1
   22314:	d8c01215 	stw	r3,72(sp)
   22318:	1c800007 	ldb	r18,0(r3)
   2231c:	91000c20 	cmpeqi	r4,r18,48
   22320:	203ffa1e 	bne	r4,zero,2230c <_strtod_l+0x2a0>
   22324:	90fff3c4 	addi	r3,r18,-49
   22328:	18c00268 	cmpgeui	r3,r3,9
   2232c:	1802851e 	bne	r3,zero,22d44 <_strtod_l+0xcd8>
   22330:	da401217 	ldw	r9,72(sp)
   22334:	94bff404 	addi	r18,r18,-48
   22338:	15000044 	addi	r20,r2,1
   2233c:	480f883a 	mov	r7,r9
   22340:	002b883a 	mov	r21,zero
   22344:	05c00044 	movi	r23,1
   22348:	e00690ba 	slli	r3,fp,2
   2234c:	0005883a 	mov	r2,zero
   22350:	1f39883a 	add	fp,r3,fp
   22354:	e739883a 	add	fp,fp,fp
   22358:	9739883a 	add	fp,r18,fp
   2235c:	38c00044 	addi	r3,r7,1
   22360:	d8c01215 	stw	r3,72(sp)
   22364:	3c800047 	ldb	r18,1(r7)
   22368:	91bff404 	addi	r6,r18,-48
   2236c:	30c002b0 	cmpltui	r3,r6,10
   22370:	183fb426 	beq	r3,zero,22244 <_strtod_l+0x1d8>
   22374:	d9c01217 	ldw	r7,72(sp)
   22378:	10800044 	addi	r2,r2,1
   2237c:	3025883a 	mov	r18,r6
   22380:	303ff626 	beq	r6,zero,2235c <_strtod_l+0x2f0>
   22384:	10c00060 	cmpeqi	r3,r2,1
   22388:	b9000044 	addi	r4,r23,1
   2238c:	a0a9883a 	add	r20,r20,r2
   22390:	1804961e 	bne	r3,zero,235ec <_strtod_l+0x1580>
   22394:	15c5883a 	add	r2,r2,r23
   22398:	12ffffc4 	addi	r11,r2,-1
   2239c:	00000306 	br	223ac <_strtod_l+0x340>
   223a0:	18f9883a 	add	fp,r3,r3
   223a4:	282f883a 	mov	r23,r5
   223a8:	2ac35426 	beq	r5,r11,230fc <_strtod_l+0x1090>
   223ac:	e00690ba 	slli	r3,fp,2
   223b0:	b9400044 	addi	r5,r23,1
   223b4:	b9000248 	cmpgei	r4,r23,9
   223b8:	1f07883a 	add	r3,r3,fp
   223bc:	2a800448 	cmpgei	r10,r5,17
   223c0:	203ff726 	beq	r4,zero,223a0 <_strtod_l+0x334>
   223c4:	400690ba 	slli	r3,r8,2
   223c8:	503ff61e 	bne	r10,zero,223a4 <_strtod_l+0x338>
   223cc:	1a11883a 	add	r8,r3,r8
   223d0:	4211883a 	add	r8,r8,r8
   223d4:	003ff306 	br	223a4 <_strtod_l+0x338>
   223d8:	48800043 	ldbu	r2,1(r9)
   223dc:	4dc00044 	addi	r23,r9,1
   223e0:	108037cc 	andi	r2,r2,223
   223e4:	10801618 	cmpnei	r2,r2,88
   223e8:	10032c26 	beq	r2,zero,2309c <_strtod_l+0x1030>
   223ec:	ddc01215 	stw	r23,72(sp)
   223f0:	bcc00007 	ldb	r19,0(r23)
   223f4:	b813883a 	mov	r9,r23
   223f8:	bdc00044 	addi	r23,r23,1
   223fc:	98800c20 	cmpeqi	r2,r19,48
   22400:	103ffa1e 	bne	r2,zero,223ec <_strtod_l+0x380>
   22404:	98009d26 	beq	r19,zero,2267c <_strtod_l+0x610>
   22408:	04400044 	movi	r17,1
   2240c:	003f6f06 	br	221cc <_strtod_l+0x160>
   22410:	9cc01960 	cmpeqi	r19,r19,101
   22414:	b82b883a 	mov	r21,r23
   22418:	0005883a 	mov	r2,zero
   2241c:	0029883a 	mov	r20,zero
   22420:	000f883a 	mov	r7,zero
   22424:	983f8c1e 	bne	r19,zero,22258 <_strtod_l+0x1ec>
   22428:	003f8906 	br	22250 <_strtod_l+0x1e4>
   2242c:	a80b883a 	mov	r5,r21
   22430:	a009883a 	mov	r4,r20
   22434:	da400715 	stw	r9,28(sp)
   22438:	da000615 	stw	r8,24(sp)
   2243c:	d9800515 	stw	r6,20(sp)
   22440:	002a5740 	call	2a574 <strncmp>
   22444:	d9800517 	ldw	r6,20(sp)
   22448:	da000617 	ldw	r8,24(sp)
   2244c:	da400717 	ldw	r9,28(sp)
   22450:	10009426 	beq	r2,zero,226a4 <_strtod_l+0x638>
   22454:	b82b883a 	mov	r21,r23
   22458:	000f883a 	mov	r7,zero
   2245c:	0029883a 	mov	r20,zero
   22460:	0005883a 	mov	r2,zero
   22464:	0027883a 	mov	r19,zero
   22468:	b8006d26 	beq	r23,zero,22620 <_strtod_l+0x5b4>
   2246c:	9d05c83a 	sub	r2,r19,r20
   22470:	d8800915 	stw	r2,36(sp)
   22474:	a800011e 	bne	r21,zero,2247c <_strtod_l+0x410>
   22478:	b82b883a 	mov	r21,r23
   2247c:	b8800450 	cmplti	r2,r23,17
   22480:	b82d883a 	mov	r22,r23
   22484:	1000011e 	bne	r2,zero,2248c <_strtod_l+0x420>
   22488:	05800404 	movi	r22,16
   2248c:	e009883a 	mov	r4,fp
   22490:	da400515 	stw	r9,20(sp)
   22494:	da000615 	stw	r8,24(sp)
   22498:	00309100 	call	30910 <__floatunsidf>
   2249c:	b9000290 	cmplti	r4,r23,10
   224a0:	da400517 	ldw	r9,20(sp)
   224a4:	1025883a 	mov	r18,r2
   224a8:	1823883a 	mov	r17,r3
   224ac:	2000171e 	bne	r4,zero,2250c <_strtod_l+0x4a0>
   224b0:	b0bffdc4 	addi	r2,r22,-9
   224b4:	100690fa 	slli	r3,r2,3
   224b8:	008000f4 	movhi	r2,3
   224bc:	108e7304 	addi	r2,r2,14796
   224c0:	10c5883a 	add	r2,r2,r3
   224c4:	11800017 	ldw	r6,0(r2)
   224c8:	11c00117 	ldw	r7,4(r2)
   224cc:	880b883a 	mov	r5,r17
   224d0:	9009883a 	mov	r4,r18
   224d4:	002f7240 	call	2f724 <__muldf3>
   224d8:	da000617 	ldw	r8,24(sp)
   224dc:	1025883a 	mov	r18,r2
   224e0:	1823883a 	mov	r17,r3
   224e4:	4009883a 	mov	r4,r8
   224e8:	00309100 	call	30910 <__floatunsidf>
   224ec:	9009883a 	mov	r4,r18
   224f0:	880b883a 	mov	r5,r17
   224f4:	100d883a 	mov	r6,r2
   224f8:	180f883a 	mov	r7,r3
   224fc:	002e2180 	call	2e218 <__adddf3>
   22500:	da400517 	ldw	r9,20(sp)
   22504:	1025883a 	mov	r18,r2
   22508:	1823883a 	mov	r17,r3
   2250c:	b8800408 	cmpgei	r2,r23,16
   22510:	10006a1e 	bne	r2,zero,226bc <_strtod_l+0x650>
   22514:	9d05c83a 	sub	r2,r19,r20
   22518:	1002f526 	beq	r2,zero,230f0 <_strtod_l+0x1084>
   2251c:	9d05c83a 	sub	r2,r19,r20
   22520:	0082720e 	bge	zero,r2,22eec <_strtod_l+0xe80>
   22524:	108005c8 	cmpgei	r2,r2,23
   22528:	10035e26 	beq	r2,zero,232a4 <_strtod_l+0x1238>
   2252c:	00800944 	movi	r2,37
   22530:	15c5c83a 	sub	r2,r2,r23
   22534:	9d07c83a 	sub	r3,r19,r20
   22538:	10c36f0e 	bge	r2,r3,232f8 <_strtod_l+0x128c>
   2253c:	bdadc83a 	sub	r22,r23,r22
   22540:	9d05c83a 	sub	r2,r19,r20
   22544:	b0ad883a 	add	r22,r22,r2
   22548:	00006006 	br	226cc <_strtod_l+0x660>
   2254c:	002f883a 	mov	r23,zero
   22550:	dd801217 	ldw	r22,72(sp)
   22554:	b0c00044 	addi	r3,r22,1
   22558:	d8c01215 	stw	r3,72(sp)
   2255c:	b4800047 	ldb	r18,1(r22)
   22560:	90c00ae0 	cmpeqi	r3,r18,43
   22564:	1801f51e 	bne	r3,zero,22d3c <_strtod_l+0xcd0>
   22568:	90c00b60 	cmpeqi	r3,r18,45
   2256c:	1801c11e 	bne	r3,zero,22c74 <_strtod_l+0xc08>
   22570:	0015883a 	mov	r10,zero
   22574:	90fff404 	addi	r3,r18,-48
   22578:	18c002a8 	cmpgeui	r3,r3,10
   2257c:	1801ba1e 	bne	r3,zero,22c68 <_strtod_l+0xbfc>
   22580:	90c00c18 	cmpnei	r3,r18,48
   22584:	1800071e 	bne	r3,zero,225a4 <_strtod_l+0x538>
   22588:	d8c01217 	ldw	r3,72(sp)
   2258c:	18c00044 	addi	r3,r3,1
   22590:	d8c01215 	stw	r3,72(sp)
   22594:	1c800007 	ldb	r18,0(r3)
   22598:	18c00044 	addi	r3,r3,1
   2259c:	91000c20 	cmpeqi	r4,r18,48
   225a0:	203ffb1e 	bne	r4,zero,22590 <_strtod_l+0x524>
   225a4:	90fff3c4 	addi	r3,r18,-49
   225a8:	18c00268 	cmpgeui	r3,r3,9
   225ac:	183fad1e 	bne	r3,zero,22464 <_strtod_l+0x3f8>
   225b0:	dac01217 	ldw	r11,72(sp)
   225b4:	94fff404 	addi	r19,r18,-48
   225b8:	59000044 	addi	r4,r11,1
   225bc:	d9001215 	stw	r4,72(sp)
   225c0:	5c800047 	ldb	r18,1(r11)
   225c4:	90c00c08 	cmpgei	r3,r18,48
   225c8:	1800071e 	bne	r3,zero,225e8 <_strtod_l+0x57c>
   225cc:	0002e406 	br	23160 <_strtod_l+0x10f4>
   225d0:	21000044 	addi	r4,r4,1
   225d4:	d9001215 	stw	r4,72(sp)
   225d8:	34800047 	ldb	r18,1(r6)
   225dc:	1cfff404 	addi	r19,r3,-48
   225e0:	90c00c08 	cmpgei	r3,r18,48
   225e4:	18000726 	beq	r3,zero,22604 <_strtod_l+0x598>
   225e8:	980690ba 	slli	r3,r19,2
   225ec:	91400e90 	cmplti	r5,r18,58
   225f0:	200d883a 	mov	r6,r4
   225f4:	1cc7883a 	add	r3,r3,r19
   225f8:	18c7883a 	add	r3,r3,r3
   225fc:	1c87883a 	add	r3,r3,r18
   22600:	283ff31e 	bne	r5,zero,225d0 <_strtod_l+0x564>
   22604:	22c9c83a 	sub	r4,r4,r11
   22608:	20c00248 	cmpgei	r3,r4,9
   2260c:	1802d426 	beq	r3,zero,23160 <_strtod_l+0x10f4>
   22610:	04d387c4 	movi	r19,19999
   22614:	503f9426 	beq	r10,zero,22468 <_strtod_l+0x3fc>
   22618:	04e7c83a 	sub	r19,zero,r19
   2261c:	b83f931e 	bne	r23,zero,2246c <_strtod_l+0x400>
   22620:	8884b03a 	or	r2,r17,r2
   22624:	1000151e 	bne	r2,zero,2267c <_strtod_l+0x610>
   22628:	383f0e1e 	bne	r7,zero,22264 <_strtod_l+0x1f8>
   2262c:	90801a60 	cmpeqi	r2,r18,105
   22630:	1002d01e 	bne	r2,zero,23174 <_strtod_l+0x1108>
   22634:	90801a88 	cmpgei	r2,r18,106
   22638:	1002401e 	bne	r2,zero,22f3c <_strtod_l+0xed0>
   2263c:	90801260 	cmpeqi	r2,r18,73
   22640:	1002cc1e 	bne	r2,zero,23174 <_strtod_l+0x1108>
   22644:	948013a0 	cmpeqi	r18,r18,78
   22648:	903f0626 	beq	r18,zero,22264 <_strtod_l+0x1f8>
   2264c:	014000f4 	movhi	r5,3
   22650:	294dac04 	addi	r5,r5,14000
   22654:	d9001204 	addi	r4,sp,72
   22658:	0028b400 	call	28b40 <__match>
   2265c:	103f0126 	beq	r2,zero,22264 <_strtod_l+0x1f8>
   22660:	d8801217 	ldw	r2,72(sp)
   22664:	10800007 	ldb	r2,0(r2)
   22668:	10800a18 	cmpnei	r2,r2,40
   2266c:	10039826 	beq	r2,zero,234d0 <_strtod_l+0x1464>
   22670:	002d883a 	mov	r22,zero
   22674:	055ffe34 	movhi	r21,32760
   22678:	00000206 	br	22684 <_strtod_l+0x618>
   2267c:	002d883a 	mov	r22,zero
   22680:	002b883a 	mov	r21,zero
   22684:	d8c00317 	ldw	r3,12(sp)
   22688:	18000226 	beq	r3,zero,22694 <_strtod_l+0x628>
   2268c:	d8801217 	ldw	r2,72(sp)
   22690:	18800015 	stw	r2,0(r3)
   22694:	d8800417 	ldw	r2,16(sp)
   22698:	103ef826 	beq	r2,zero,2227c <_strtod_l+0x210>
   2269c:	ad60003c 	xorhi	r21,r21,32768
   226a0:	003ef606 	br	2227c <_strtod_l+0x210>
   226a4:	a18d883a 	add	r6,r20,r6
   226a8:	d9801215 	stw	r6,72(sp)
   226ac:	34800007 	ldb	r18,0(r6)
   226b0:	b82b883a 	mov	r21,r23
   226b4:	0029883a 	mov	r20,zero
   226b8:	003f2b06 	br	22368 <_strtod_l+0x2fc>
   226bc:	bdadc83a 	sub	r22,r23,r22
   226c0:	9d05c83a 	sub	r2,r19,r20
   226c4:	b0ad883a 	add	r22,r22,r2
   226c8:	05821f0e 	bge	zero,r22,22f48 <_strtod_l+0xedc>
   226cc:	b08003cc 	andi	r2,r22,15
   226d0:	10000d26 	beq	r2,zero,22708 <_strtod_l+0x69c>
   226d4:	100690fa 	slli	r3,r2,3
   226d8:	008000f4 	movhi	r2,3
   226dc:	108e7304 	addi	r2,r2,14796
   226e0:	10c5883a 	add	r2,r2,r3
   226e4:	11000017 	ldw	r4,0(r2)
   226e8:	11400117 	ldw	r5,4(r2)
   226ec:	900d883a 	mov	r6,r18
   226f0:	880f883a 	mov	r7,r17
   226f4:	da400515 	stw	r9,20(sp)
   226f8:	002f7240 	call	2f724 <__muldf3>
   226fc:	da400517 	ldw	r9,20(sp)
   22700:	1025883a 	mov	r18,r2
   22704:	1823883a 	mov	r17,r3
   22708:	023ffc04 	movi	r8,-16
   2270c:	b210703a 	and	r8,r22,r8
   22710:	40003f26 	beq	r8,zero,22810 <_strtod_l+0x7a4>
   22714:	40804d50 	cmplti	r2,r8,309
   22718:	10025b26 	beq	r2,zero,23088 <_strtod_l+0x101c>
   2271c:	4011d13a 	srai	r8,r8,4
   22720:	40800090 	cmplti	r2,r8,2
   22724:	1003651e 	bne	r2,zero,234bc <_strtod_l+0x1450>
   22728:	008000f4 	movhi	r2,3
   2272c:	108e6904 	addi	r2,r2,14756
   22730:	002d883a 	mov	r22,zero
   22734:	9009883a 	mov	r4,r18
   22738:	880b883a 	mov	r5,r17
   2273c:	dc000715 	stw	r16,28(sp)
   22740:	dc800815 	stw	r18,32(sp)
   22744:	d8800515 	stw	r2,20(sp)
   22748:	b025883a 	mov	r18,r22
   2274c:	0007883a 	mov	r3,zero
   22750:	882d883a 	mov	r22,r17
   22754:	da400615 	stw	r9,24(sp)
   22758:	4021883a 	mov	r16,r8
   2275c:	1023883a 	mov	r17,r2
   22760:	8080004c 	andi	r2,r16,1
   22764:	8021d07a 	srai	r16,r16,1
   22768:	10000626 	beq	r2,zero,22784 <_strtod_l+0x718>
   2276c:	89800017 	ldw	r6,0(r17)
   22770:	89c00117 	ldw	r7,4(r17)
   22774:	002f7240 	call	2f724 <__muldf3>
   22778:	180b883a 	mov	r5,r3
   2277c:	1009883a 	mov	r4,r2
   22780:	00c00044 	movi	r3,1
   22784:	81800058 	cmpnei	r6,r16,1
   22788:	94800044 	addi	r18,r18,1
   2278c:	8c400204 	addi	r17,r17,8
   22790:	303ff31e 	bne	r6,zero,22760 <_strtod_l+0x6f4>
   22794:	18c03fcc 	andi	r3,r3,255
   22798:	b023883a 	mov	r17,r22
   2279c:	da400617 	ldw	r9,24(sp)
   227a0:	902d883a 	mov	r22,r18
   227a4:	dc000717 	ldw	r16,28(sp)
   227a8:	dc800817 	ldw	r18,32(sp)
   227ac:	18000226 	beq	r3,zero,227b8 <_strtod_l+0x74c>
   227b0:	2025883a 	mov	r18,r4
   227b4:	2823883a 	mov	r17,r5
   227b8:	d8800517 	ldw	r2,20(sp)
   227bc:	b01690fa 	slli	r11,r22,3
   227c0:	01ff2c34 	movhi	r7,64688
   227c4:	900d883a 	mov	r6,r18
   227c8:	12d7883a 	add	r11,r2,r11
   227cc:	59000017 	ldw	r4,0(r11)
   227d0:	59400117 	ldw	r5,4(r11)
   227d4:	89cf883a 	add	r7,r17,r7
   227d8:	da400615 	stw	r9,24(sp)
   227dc:	002f7240 	call	2f724 <__muldf3>
   227e0:	191ffc2c 	andhi	r4,r3,32752
   227e4:	015f2834 	movhi	r5,31904
   227e8:	1025883a 	mov	r18,r2
   227ec:	29022636 	bltu	r5,r4,23088 <_strtod_l+0x101c>
   227f0:	009f2434 	movhi	r2,31888
   227f4:	da400617 	ldw	r9,24(sp)
   227f8:	1103022e 	bgeu	r2,r4,23404 <_strtod_l+0x1398>
   227fc:	045ffc34 	movhi	r17,32752
   22800:	8c7fffc4 	addi	r17,r17,-1
   22804:	04bfffc4 	movi	r18,-1
   22808:	d8001015 	stw	zero,64(sp)
   2280c:	00000106 	br	22814 <_strtod_l+0x7a8>
   22810:	d8001015 	stw	zero,64(sp)
   22814:	df000015 	stw	fp,0(sp)
   22818:	b80f883a 	mov	r7,r23
   2281c:	a80d883a 	mov	r6,r21
   22820:	480b883a 	mov	r5,r9
   22824:	8009883a 	mov	r4,r16
   22828:	00294ac0 	call	294ac <__s2b>
   2282c:	d8800715 	stw	r2,28(sp)
   22830:	10021526 	beq	r2,zero,23088 <_strtod_l+0x101c>
   22834:	d8c00917 	ldw	r3,36(sp)
   22838:	a4e7c83a 	sub	r19,r20,r19
   2283c:	1805d7fa 	srai	r2,r3,31
   22840:	d8c00815 	stw	r3,32(sp)
   22844:	9884703a 	and	r2,r19,r2
   22848:	d8800515 	stw	r2,20(sp)
   2284c:	18019d16 	blt	r3,zero,22ec4 <_strtod_l+0xe58>
   22850:	d8c00717 	ldw	r3,28(sp)
   22854:	00800434 	movhi	r2,16
   22858:	dd401017 	ldw	r21,64(sp)
   2285c:	18c00304 	addi	r3,r3,12
   22860:	10bfffc4 	addi	r2,r2,-1
   22864:	002f883a 	mov	r23,zero
   22868:	0027883a 	mov	r19,zero
   2286c:	d8c00d15 	stw	r3,52(sp)
   22870:	d8801115 	stw	r2,68(sp)
   22874:	dd800717 	ldw	r22,28(sp)
   22878:	8009883a 	mov	r4,r16
   2287c:	b1400117 	ldw	r5,4(r22)
   22880:	00292880 	call	29288 <_Balloc>
   22884:	1029883a 	mov	r20,r2
   22888:	1000ce26 	beq	r2,zero,22bc4 <_strtod_l+0xb58>
   2288c:	b1800417 	ldw	r6,16(r22)
   22890:	d9400d17 	ldw	r5,52(sp)
   22894:	11000304 	addi	r4,r2,12
   22898:	31800084 	addi	r6,r6,2
   2289c:	300c90ba 	slli	r6,r6,2
   228a0:	dc800b15 	stw	r18,44(sp)
   228a4:	dc400a15 	stw	r17,40(sp)
   228a8:	00290980 	call	29098 <memcpy>
   228ac:	d8801504 	addi	r2,sp,84
   228b0:	d9c01404 	addi	r7,sp,80
   228b4:	d8800015 	stw	r2,0(sp)
   228b8:	900b883a 	mov	r5,r18
   228bc:	880d883a 	mov	r6,r17
   228c0:	8009883a 	mov	r4,r16
   228c4:	002a07c0 	call	2a07c <__d2b>
   228c8:	d8801315 	stw	r2,76(sp)
   228cc:	1000b526 	beq	r2,zero,22ba4 <_strtod_l+0xb38>
   228d0:	01400044 	movi	r5,1
   228d4:	8009883a 	mov	r4,r16
   228d8:	00296f80 	call	296f8 <__i2b>
   228dc:	1027883a 	mov	r19,r2
   228e0:	1000b826 	beq	r2,zero,22bc4 <_strtod_l+0xb58>
   228e4:	d8801417 	ldw	r2,80(sp)
   228e8:	1000d316 	blt	r2,zero,22c38 <_strtod_l+0xbcc>
   228ec:	d8c00517 	ldw	r3,20(sp)
   228f0:	d9c00817 	ldw	r7,32(sp)
   228f4:	10f9883a 	add	fp,r2,r3
   228f8:	d9001517 	ldw	r4,84(sp)
   228fc:	1545c83a 	sub	r2,r2,r21
   22900:	00c00d84 	movi	r3,54
   22904:	1105883a 	add	r2,r2,r4
   22908:	10bfffc4 	addi	r2,r2,-1
   2290c:	117f0088 	cmpgei	r5,r2,-1022
   22910:	1907c83a 	sub	r3,r3,r4
   22914:	2800b81e 	bne	r5,zero,22bf8 <_strtod_l+0xb8c>
   22918:	05bf0084 	movi	r22,-1022
   2291c:	b089c83a 	sub	r4,r22,r2
   22920:	21400808 	cmpgei	r5,r4,32
   22924:	1907c83a 	sub	r3,r3,r4
   22928:	2800c71e 	bne	r5,zero,22c48 <_strtod_l+0xbdc>
   2292c:	05800044 	movi	r22,1
   22930:	b104983a 	sll	r2,r22,r4
   22934:	d8000e15 	stw	zero,56(sp)
   22938:	d8800c15 	stw	r2,48(sp)
   2293c:	38cf883a 	add	r7,r7,r3
   22940:	e0c7883a 	add	r3,fp,r3
   22944:	a9ed883a 	add	r22,r21,r7
   22948:	e005883a 	mov	r2,fp
   2294c:	1f00010e 	bge	r3,fp,22954 <_strtod_l+0x8e8>
   22950:	1805883a 	mov	r2,r3
   22954:	b080010e 	bge	r22,r2,2295c <_strtod_l+0x8f0>
   22958:	b005883a 	mov	r2,r22
   2295c:	0080030e 	bge	zero,r2,2296c <_strtod_l+0x900>
   22960:	1887c83a 	sub	r3,r3,r2
   22964:	b0adc83a 	sub	r22,r22,r2
   22968:	e0b9c83a 	sub	fp,fp,r2
   2296c:	d9800517 	ldw	r6,20(sp)
   22970:	01806f16 	blt	zero,r6,22b30 <_strtod_l+0xac4>
   22974:	00c08516 	blt	zero,r3,22b8c <_strtod_l+0xb20>
   22978:	d8800917 	ldw	r2,36(sp)
   2297c:	00808b16 	blt	zero,r2,22bac <_strtod_l+0xb40>
   22980:	05809616 	blt	zero,r22,22bdc <_strtod_l+0xb70>
   22984:	0700060e 	bge	zero,fp,229a0 <_strtod_l+0x934>
   22988:	980b883a 	mov	r5,r19
   2298c:	e00d883a 	mov	r6,fp
   22990:	8009883a 	mov	r4,r16
   22994:	0029b100 	call	29b10 <__lshift>
   22998:	1027883a 	mov	r19,r2
   2299c:	10008926 	beq	r2,zero,22bc4 <_strtod_l+0xb58>
   229a0:	d9401317 	ldw	r5,76(sp)
   229a4:	a00d883a 	mov	r6,r20
   229a8:	8009883a 	mov	r4,r16
   229ac:	0029cf00 	call	29cf0 <__mdiff>
   229b0:	102f883a 	mov	r23,r2
   229b4:	10008326 	beq	r2,zero,22bc4 <_strtod_l+0xb58>
   229b8:	10800317 	ldw	r2,12(r2)
   229bc:	980b883a 	mov	r5,r19
   229c0:	b8000315 	stw	zero,12(r23)
   229c4:	b809883a 	mov	r4,r23
   229c8:	d8800615 	stw	r2,24(sp)
   229cc:	0029c980 	call	29c98 <__mcmp>
   229d0:	10029016 	blt	r2,zero,23414 <_strtod_l+0x13a8>
   229d4:	10026126 	beq	r2,zero,2335c <_strtod_l+0x12f0>
   229d8:	980b883a 	mov	r5,r19
   229dc:	b809883a 	mov	r4,r23
   229e0:	002a1e00 	call	2a1e0 <__ratio>
   229e4:	000d883a 	mov	r6,zero
   229e8:	01d00034 	movhi	r7,16384
   229ec:	1009883a 	mov	r4,r2
   229f0:	180b883a 	mov	r5,r3
   229f4:	1039883a 	mov	fp,r2
   229f8:	182d883a 	mov	r22,r3
   229fc:	002f6340 	call	2f634 <__ledf2>
   22a00:	00808116 	blt	zero,r2,22c08 <_strtod_l+0xb9c>
   22a04:	d8800617 	ldw	r2,24(sp)
   22a08:	10009f26 	beq	r2,zero,22c88 <_strtod_l+0xc1c>
   22a0c:	0011883a 	mov	r8,zero
   22a10:	024ffc34 	movhi	r9,16368
   22a14:	d8000c15 	stw	zero,48(sp)
   22a18:	058ffc34 	movhi	r22,16368
   22a1c:	8f1ffc2c 	andhi	fp,r17,32752
   22a20:	009ff834 	movhi	r2,32736
   22a24:	e080a326 	beq	fp,r2,22cb4 <_strtod_l+0xc48>
   22a28:	a8001d26 	beq	r21,zero,22aa0 <_strtod_l+0xa34>
   22a2c:	0081a834 	movhi	r2,1696
   22a30:	17001b36 	bltu	r2,fp,22aa0 <_strtod_l+0xa34>
   22a34:	d9000c17 	ldw	r4,48(sp)
   22a38:	01d07834 	movhi	r7,16864
   22a3c:	01bff034 	movhi	r6,65472
   22a40:	39ffffc4 	addi	r7,r7,-1
   22a44:	b00b883a 	mov	r5,r22
   22a48:	da400b15 	stw	r9,44(sp)
   22a4c:	da000a15 	stw	r8,40(sp)
   22a50:	002f6340 	call	2f634 <__ledf2>
   22a54:	da000a17 	ldw	r8,40(sp)
   22a58:	da400b17 	ldw	r9,44(sp)
   22a5c:	00800d16 	blt	zero,r2,22a94 <_strtod_l+0xa28>
   22a60:	d9000c17 	ldw	r4,48(sp)
   22a64:	b00b883a 	mov	r5,r22
   22a68:	002d0f00 	call	2d0f0 <__fixunsdfsi>
   22a6c:	1009883a 	mov	r4,r2
   22a70:	1000011e 	bne	r2,zero,22a78 <_strtod_l+0xa0c>
   22a74:	01000044 	movi	r4,1
   22a78:	00309100 	call	30910 <__floatunsidf>
   22a7c:	1011883a 	mov	r8,r2
   22a80:	d8800c15 	stw	r2,48(sp)
   22a84:	d8800617 	ldw	r2,24(sp)
   22a88:	182d883a 	mov	r22,r3
   22a8c:	1001b71e 	bne	r2,zero,2316c <_strtod_l+0x1100>
   22a90:	1a60003c 	xorhi	r9,r3,32768
   22a94:	0081ac34 	movhi	r2,1712
   22a98:	4893883a 	add	r9,r9,r2
   22a9c:	4f13c83a 	sub	r9,r9,fp
   22aa0:	9009883a 	mov	r4,r18
   22aa4:	880b883a 	mov	r5,r17
   22aa8:	da400b15 	stw	r9,44(sp)
   22aac:	da000a15 	stw	r8,40(sp)
   22ab0:	0029f1c0 	call	29f1c <__ulp>
   22ab4:	da000a17 	ldw	r8,40(sp)
   22ab8:	da400b17 	ldw	r9,44(sp)
   22abc:	100d883a 	mov	r6,r2
   22ac0:	4009883a 	mov	r4,r8
   22ac4:	480b883a 	mov	r5,r9
   22ac8:	180f883a 	mov	r7,r3
   22acc:	002f7240 	call	2f724 <__muldf3>
   22ad0:	900d883a 	mov	r6,r18
   22ad4:	880f883a 	mov	r7,r17
   22ad8:	1009883a 	mov	r4,r2
   22adc:	180b883a 	mov	r5,r3
   22ae0:	002e2180 	call	2e218 <__adddf3>
   22ae4:	1823883a 	mov	r17,r3
   22ae8:	1025883a 	mov	r18,r2
   22aec:	1811883a 	mov	r8,r3
   22af0:	a800021e 	bne	r21,zero,22afc <_strtod_l+0xa90>
   22af4:	409ffc2c 	andhi	r2,r8,32752
   22af8:	e0809826 	beq	fp,r2,22d5c <_strtod_l+0xcf0>
   22afc:	d9401317 	ldw	r5,76(sp)
   22b00:	8009883a 	mov	r4,r16
   22b04:	002932c0 	call	2932c <_Bfree>
   22b08:	a00b883a 	mov	r5,r20
   22b0c:	8009883a 	mov	r4,r16
   22b10:	002932c0 	call	2932c <_Bfree>
   22b14:	980b883a 	mov	r5,r19
   22b18:	8009883a 	mov	r4,r16
   22b1c:	002932c0 	call	2932c <_Bfree>
   22b20:	b80b883a 	mov	r5,r23
   22b24:	8009883a 	mov	r4,r16
   22b28:	002932c0 	call	2932c <_Bfree>
   22b2c:	003f5106 	br	22874 <_strtod_l+0x808>
   22b30:	980b883a 	mov	r5,r19
   22b34:	8009883a 	mov	r4,r16
   22b38:	d8c00615 	stw	r3,24(sp)
   22b3c:	00299f80 	call	299f8 <__pow5mult>
   22b40:	d8c00617 	ldw	r3,24(sp)
   22b44:	1027883a 	mov	r19,r2
   22b48:	10001e26 	beq	r2,zero,22bc4 <_strtod_l+0xb58>
   22b4c:	d9801317 	ldw	r6,76(sp)
   22b50:	100b883a 	mov	r5,r2
   22b54:	8009883a 	mov	r4,r16
   22b58:	d8c00615 	stw	r3,24(sp)
   22b5c:	002974c0 	call	2974c <__multiply>
   22b60:	d8c00617 	ldw	r3,24(sp)
   22b64:	10001726 	beq	r2,zero,22bc4 <_strtod_l+0xb58>
   22b68:	d9401317 	ldw	r5,76(sp)
   22b6c:	8009883a 	mov	r4,r16
   22b70:	d8800f15 	stw	r2,60(sp)
   22b74:	d8c00615 	stw	r3,24(sp)
   22b78:	002932c0 	call	2932c <_Bfree>
   22b7c:	d8800f17 	ldw	r2,60(sp)
   22b80:	d8c00617 	ldw	r3,24(sp)
   22b84:	d8801315 	stw	r2,76(sp)
   22b88:	00ff7b0e 	bge	zero,r3,22978 <_strtod_l+0x90c>
   22b8c:	d9401317 	ldw	r5,76(sp)
   22b90:	180d883a 	mov	r6,r3
   22b94:	8009883a 	mov	r4,r16
   22b98:	0029b100 	call	29b10 <__lshift>
   22b9c:	d8801315 	stw	r2,76(sp)
   22ba0:	103f751e 	bne	r2,zero,22978 <_strtod_l+0x90c>
   22ba4:	1013883a 	mov	r9,r2
   22ba8:	00000706 	br	22bc8 <_strtod_l+0xb5c>
   22bac:	d9800817 	ldw	r6,32(sp)
   22bb0:	a00b883a 	mov	r5,r20
   22bb4:	8009883a 	mov	r4,r16
   22bb8:	00299f80 	call	299f8 <__pow5mult>
   22bbc:	1029883a 	mov	r20,r2
   22bc0:	103f6f1e 	bne	r2,zero,22980 <_strtod_l+0x914>
   22bc4:	da401317 	ldw	r9,76(sp)
   22bc8:	00800884 	movi	r2,34
   22bcc:	80800015 	stw	r2,0(r16)
   22bd0:	002d883a 	mov	r22,zero
   22bd4:	055ffc34 	movhi	r21,32752
   22bd8:	00008806 	br	22dfc <_strtod_l+0xd90>
   22bdc:	a00b883a 	mov	r5,r20
   22be0:	b00d883a 	mov	r6,r22
   22be4:	8009883a 	mov	r4,r16
   22be8:	0029b100 	call	29b10 <__lshift>
   22bec:	1029883a 	mov	r20,r2
   22bf0:	103f641e 	bne	r2,zero,22984 <_strtod_l+0x918>
   22bf4:	003ff306 	br	22bc4 <_strtod_l+0xb58>
   22bf8:	00800044 	movi	r2,1
   22bfc:	d8000e15 	stw	zero,56(sp)
   22c00:	d8800c15 	stw	r2,48(sp)
   22c04:	003f4d06 	br	2293c <_strtod_l+0x8d0>
   22c08:	b00b883a 	mov	r5,r22
   22c0c:	000d883a 	mov	r6,zero
   22c10:	01cff834 	movhi	r7,16352
   22c14:	e009883a 	mov	r4,fp
   22c18:	002f7240 	call	2f724 <__muldf3>
   22c1c:	1011883a 	mov	r8,r2
   22c20:	d8800c15 	stw	r2,48(sp)
   22c24:	d8800617 	ldw	r2,24(sp)
   22c28:	182d883a 	mov	r22,r3
   22c2c:	10001f1e 	bne	r2,zero,22cac <_strtod_l+0xc40>
   22c30:	1a60003c 	xorhi	r9,r3,32768
   22c34:	003f7906 	br	22a1c <_strtod_l+0x9b0>
   22c38:	d8c00817 	ldw	r3,32(sp)
   22c3c:	df000517 	ldw	fp,20(sp)
   22c40:	188fc83a 	sub	r7,r3,r2
   22c44:	003f2c06 	br	228f8 <_strtod_l+0x88c>
   22c48:	013ef884 	movi	r4,-1054
   22c4c:	2085c83a 	sub	r2,r4,r2
   22c50:	01000044 	movi	r4,1
   22c54:	2084983a 	sll	r2,r4,r2
   22c58:	d8800e15 	stw	r2,56(sp)
   22c5c:	00800044 	movi	r2,1
   22c60:	d8800c15 	stw	r2,48(sp)
   22c64:	003f3506 	br	2293c <_strtod_l+0x8d0>
   22c68:	dd801215 	stw	r22,72(sp)
   22c6c:	0027883a 	mov	r19,zero
   22c70:	003dfd06 	br	22468 <_strtod_l+0x3fc>
   22c74:	02800044 	movi	r10,1
   22c78:	b0c00084 	addi	r3,r22,2
   22c7c:	d8c01215 	stw	r3,72(sp)
   22c80:	b4800087 	ldb	r18,2(r22)
   22c84:	003e3b06 	br	22574 <_strtod_l+0x508>
   22c88:	90006c26 	beq	r18,zero,22e3c <_strtod_l+0xdd0>
   22c8c:	90800058 	cmpnei	r2,r18,1
   22c90:	1000011e 	bne	r2,zero,22c98 <_strtod_l+0xc2c>
   22c94:	88022726 	beq	r17,zero,23534 <_strtod_l+0x14c8>
   22c98:	0011883a 	mov	r8,zero
   22c9c:	026ffc34 	movhi	r9,49136
   22ca0:	d8000c15 	stw	zero,48(sp)
   22ca4:	058ffc34 	movhi	r22,16368
   22ca8:	003f5c06 	br	22a1c <_strtod_l+0x9b0>
   22cac:	1813883a 	mov	r9,r3
   22cb0:	003f5a06 	br	22a1c <_strtod_l+0x9b0>
   22cb4:	00bf2c34 	movhi	r2,64688
   22cb8:	88a3883a 	add	r17,r17,r2
   22cbc:	9009883a 	mov	r4,r18
   22cc0:	880b883a 	mov	r5,r17
   22cc4:	da400f15 	stw	r9,60(sp)
   22cc8:	da000e15 	stw	r8,56(sp)
   22ccc:	0029f1c0 	call	29f1c <__ulp>
   22cd0:	da000e17 	ldw	r8,56(sp)
   22cd4:	da400f17 	ldw	r9,60(sp)
   22cd8:	100d883a 	mov	r6,r2
   22cdc:	4009883a 	mov	r4,r8
   22ce0:	480b883a 	mov	r5,r9
   22ce4:	180f883a 	mov	r7,r3
   22ce8:	002f7240 	call	2f724 <__muldf3>
   22cec:	900d883a 	mov	r6,r18
   22cf0:	1009883a 	mov	r4,r2
   22cf4:	180b883a 	mov	r5,r3
   22cf8:	880f883a 	mov	r7,r17
   22cfc:	002e2180 	call	2e218 <__adddf3>
   22d00:	195ffc2c 	andhi	r5,r3,32752
   22d04:	011f2834 	movhi	r4,31904
   22d08:	1025883a 	mov	r18,r2
   22d0c:	29005e36 	bltu	r5,r4,22e88 <_strtod_l+0xe1c>
   22d10:	d8c00a17 	ldw	r3,40(sp)
   22d14:	009ffc34 	movhi	r2,32752
   22d18:	10bfffc4 	addi	r2,r2,-1
   22d1c:	1880031e 	bne	r3,r2,22d2c <_strtod_l+0xcc0>
   22d20:	d8800b17 	ldw	r2,44(sp)
   22d24:	10bfffd8 	cmpnei	r2,r2,-1
   22d28:	103fa626 	beq	r2,zero,22bc4 <_strtod_l+0xb58>
   22d2c:	045ffc34 	movhi	r17,32752
   22d30:	8c7fffc4 	addi	r17,r17,-1
   22d34:	04bfffc4 	movi	r18,-1
   22d38:	003f7006 	br	22afc <_strtod_l+0xa90>
   22d3c:	0015883a 	mov	r10,zero
   22d40:	003fcd06 	br	22c78 <_strtod_l+0xc0c>
   22d44:	90c01960 	cmpeqi	r3,r18,101
   22d48:	1800781e 	bne	r3,zero,22f2c <_strtod_l+0xec0>
   22d4c:	90c01160 	cmpeqi	r3,r18,69
   22d50:	1800761e 	bne	r3,zero,22f2c <_strtod_l+0xec0>
   22d54:	01c00044 	movi	r7,1
   22d58:	003e3106 	br	22620 <_strtod_l+0x5b4>
   22d5c:	df000c17 	ldw	fp,48(sp)
   22d60:	b00b883a 	mov	r5,r22
   22d64:	da000a15 	stw	r8,40(sp)
   22d68:	e009883a 	mov	r4,fp
   22d6c:	002d1640 	call	2d164 <__fixdfdi>
   22d70:	1009883a 	mov	r4,r2
   22d74:	180b883a 	mov	r5,r3
   22d78:	002d2680 	call	2d268 <__floatdidf>
   22d7c:	e009883a 	mov	r4,fp
   22d80:	b00b883a 	mov	r5,r22
   22d84:	100d883a 	mov	r6,r2
   22d88:	180f883a 	mov	r7,r3
   22d8c:	002fecc0 	call	2fecc <__subdf3>
   22d90:	d9000617 	ldw	r4,24(sp)
   22d94:	d9401117 	ldw	r5,68(sp)
   22d98:	da000a17 	ldw	r8,40(sp)
   22d9c:	2488b03a 	or	r4,r4,r18
   22da0:	1039883a 	mov	fp,r2
   22da4:	4150703a 	and	r8,r8,r5
   22da8:	2210b03a 	or	r8,r4,r8
   22dac:	182d883a 	mov	r22,r3
   22db0:	01a52834 	movhi	r6,38048
   22db4:	40004526 	beq	r8,zero,22ecc <_strtod_l+0xe60>
   22db8:	01cff834 	movhi	r7,16352
   22dbc:	318d6544 	addi	r6,r6,13717
   22dc0:	39ffffc4 	addi	r7,r7,-1
   22dc4:	1009883a 	mov	r4,r2
   22dc8:	180b883a 	mov	r5,r3
   22dcc:	002f6340 	call	2f634 <__ledf2>
   22dd0:	10000716 	blt	r2,zero,22df0 <_strtod_l+0xd84>
   22dd4:	018d6c34 	movhi	r6,13744
   22dd8:	31b94d44 	addi	r6,r6,-6859
   22ddc:	01cff834 	movhi	r7,16352
   22de0:	e009883a 	mov	r4,fp
   22de4:	b00b883a 	mov	r5,r22
   22de8:	002f5440 	call	2f544 <__gedf2>
   22dec:	00bf430e 	bge	zero,r2,22afc <_strtod_l+0xa90>
   22df0:	da401317 	ldw	r9,76(sp)
   22df4:	902d883a 	mov	r22,r18
   22df8:	882b883a 	mov	r21,r17
   22dfc:	480b883a 	mov	r5,r9
   22e00:	8009883a 	mov	r4,r16
   22e04:	002932c0 	call	2932c <_Bfree>
   22e08:	a00b883a 	mov	r5,r20
   22e0c:	8009883a 	mov	r4,r16
   22e10:	002932c0 	call	2932c <_Bfree>
   22e14:	980b883a 	mov	r5,r19
   22e18:	8009883a 	mov	r4,r16
   22e1c:	002932c0 	call	2932c <_Bfree>
   22e20:	d9400717 	ldw	r5,28(sp)
   22e24:	8009883a 	mov	r4,r16
   22e28:	002932c0 	call	2932c <_Bfree>
   22e2c:	b80b883a 	mov	r5,r23
   22e30:	8009883a 	mov	r4,r16
   22e34:	002932c0 	call	2932c <_Bfree>
   22e38:	003e1206 	br	22684 <_strtod_l+0x618>
   22e3c:	d8801117 	ldw	r2,68(sp)
   22e40:	8884703a 	and	r2,r17,r2
   22e44:	103f941e 	bne	r2,zero,22c98 <_strtod_l+0xc2c>
   22e48:	000d883a 	mov	r6,zero
   22e4c:	01cffc34 	movhi	r7,16368
   22e50:	e009883a 	mov	r4,fp
   22e54:	b00b883a 	mov	r5,r22
   22e58:	002f6340 	call	2f634 <__ledf2>
   22e5c:	10012116 	blt	r2,zero,232e4 <_strtod_l+0x1278>
   22e60:	b00b883a 	mov	r5,r22
   22e64:	000d883a 	mov	r6,zero
   22e68:	01cff834 	movhi	r7,16352
   22e6c:	e009883a 	mov	r4,fp
   22e70:	002f7240 	call	2f724 <__muldf3>
   22e74:	d8800c15 	stw	r2,48(sp)
   22e78:	182d883a 	mov	r22,r3
   22e7c:	1011883a 	mov	r8,r2
   22e80:	1a60003c 	xorhi	r9,r3,32768
   22e84:	003ee506 	br	22a1c <_strtod_l+0x9b0>
   22e88:	0440d434 	movhi	r17,848
   22e8c:	1c63883a 	add	r17,r3,r17
   22e90:	8811883a 	mov	r8,r17
   22e94:	003f1606 	br	22af0 <_strtod_l+0xa84>
   22e98:	00800044 	movi	r2,1
   22e9c:	d8800415 	stw	r2,16(sp)
   22ea0:	1a400044 	addi	r9,r3,1
   22ea4:	da401215 	stw	r9,72(sp)
   22ea8:	1cc00047 	ldb	r19,1(r3)
   22eac:	983cc41e 	bne	r19,zero,221c0 <_strtod_l+0x154>
   22eb0:	d8800317 	ldw	r2,12(sp)
   22eb4:	103ced1e 	bne	r2,zero,2226c <_strtod_l+0x200>
   22eb8:	003cee06 	br	22274 <_strtod_l+0x208>
   22ebc:	d8000415 	stw	zero,16(sp)
   22ec0:	003ff706 	br	22ea0 <_strtod_l+0xe34>
   22ec4:	d8000815 	stw	zero,32(sp)
   22ec8:	003e6106 	br	22850 <_strtod_l+0x7e4>
   22ecc:	01cff434 	movhi	r7,16336
   22ed0:	318d6544 	addi	r6,r6,13717
   22ed4:	39ffffc4 	addi	r7,r7,-1
   22ed8:	1009883a 	mov	r4,r2
   22edc:	180b883a 	mov	r5,r3
   22ee0:	002f6340 	call	2f634 <__ledf2>
   22ee4:	103f050e 	bge	r2,zero,22afc <_strtod_l+0xa90>
   22ee8:	003fc106 	br	22df0 <_strtod_l+0xd84>
   22eec:	9d05c83a 	sub	r2,r19,r20
   22ef0:	10bffa90 	cmplti	r2,r2,-22
   22ef4:	103df11e 	bne	r2,zero,226bc <_strtod_l+0x650>
   22ef8:	a4c5c83a 	sub	r2,r20,r19
   22efc:	100690fa 	slli	r3,r2,3
   22f00:	008000f4 	movhi	r2,3
   22f04:	108e7304 	addi	r2,r2,14796
   22f08:	10c5883a 	add	r2,r2,r3
   22f0c:	11800017 	ldw	r6,0(r2)
   22f10:	11c00117 	ldw	r7,4(r2)
   22f14:	9009883a 	mov	r4,r18
   22f18:	880b883a 	mov	r5,r17
   22f1c:	002eb900 	call	2eb90 <__divdf3>
   22f20:	102d883a 	mov	r22,r2
   22f24:	182b883a 	mov	r21,r3
   22f28:	003dd606 	br	22684 <_strtod_l+0x618>
   22f2c:	002b883a 	mov	r21,zero
   22f30:	0029883a 	mov	r20,zero
   22f34:	01c00044 	movi	r7,1
   22f38:	003cc806 	br	2225c <_strtod_l+0x1f0>
   22f3c:	94801ba0 	cmpeqi	r18,r18,110
   22f40:	903dc21e 	bne	r18,zero,2264c <_strtod_l+0x5e0>
   22f44:	003cc706 	br	22264 <_strtod_l+0x1f8>
   22f48:	b03e3126 	beq	r22,zero,22810 <_strtod_l+0x7a4>
   22f4c:	05adc83a 	sub	r22,zero,r22
   22f50:	b08003cc 	andi	r2,r22,15
   22f54:	10000d26 	beq	r2,zero,22f8c <_strtod_l+0xf20>
   22f58:	100490fa 	slli	r2,r2,3
   22f5c:	00c000f4 	movhi	r3,3
   22f60:	18ce7304 	addi	r3,r3,14796
   22f64:	1885883a 	add	r2,r3,r2
   22f68:	11800017 	ldw	r6,0(r2)
   22f6c:	11c00117 	ldw	r7,4(r2)
   22f70:	9009883a 	mov	r4,r18
   22f74:	880b883a 	mov	r5,r17
   22f78:	da400515 	stw	r9,20(sp)
   22f7c:	002eb900 	call	2eb90 <__divdf3>
   22f80:	da400517 	ldw	r9,20(sp)
   22f84:	1025883a 	mov	r18,r2
   22f88:	1823883a 	mov	r17,r3
   22f8c:	b02dd13a 	srai	r22,r22,4
   22f90:	b03e1f26 	beq	r22,zero,22810 <_strtod_l+0x7a4>
   22f94:	b0800808 	cmpgei	r2,r22,32
   22f98:	1000361e 	bne	r2,zero,23074 <_strtod_l+0x1008>
   22f9c:	b080040c 	andi	r2,r22,16
   22fa0:	d8801015 	stw	r2,64(sp)
   22fa4:	10000226 	beq	r2,zero,22fb0 <_strtod_l+0xf44>
   22fa8:	00801a84 	movi	r2,106
   22fac:	d8801015 	stw	r2,64(sp)
   22fb0:	020000f4 	movhi	r8,3
   22fb4:	420db704 	addi	r8,r8,14044
   22fb8:	880b883a 	mov	r5,r17
   22fbc:	dc000615 	stw	r16,24(sp)
   22fc0:	9009883a 	mov	r4,r18
   22fc4:	b021883a 	mov	r16,r22
   22fc8:	0007883a 	mov	r3,zero
   22fcc:	882d883a 	mov	r22,r17
   22fd0:	da400515 	stw	r9,20(sp)
   22fd4:	4023883a 	mov	r17,r8
   22fd8:	8080004c 	andi	r2,r16,1
   22fdc:	8021d07a 	srai	r16,r16,1
   22fe0:	10000626 	beq	r2,zero,22ffc <_strtod_l+0xf90>
   22fe4:	89800017 	ldw	r6,0(r17)
   22fe8:	89c00117 	ldw	r7,4(r17)
   22fec:	002f7240 	call	2f724 <__muldf3>
   22ff0:	180b883a 	mov	r5,r3
   22ff4:	1009883a 	mov	r4,r2
   22ff8:	00c00044 	movi	r3,1
   22ffc:	8c400204 	addi	r17,r17,8
   23000:	803ff51e 	bne	r16,zero,22fd8 <_strtod_l+0xf6c>
   23004:	18c03fcc 	andi	r3,r3,255
   23008:	da400517 	ldw	r9,20(sp)
   2300c:	dc000617 	ldw	r16,24(sp)
   23010:	b023883a 	mov	r17,r22
   23014:	18000226 	beq	r3,zero,23020 <_strtod_l+0xfb4>
   23018:	2025883a 	mov	r18,r4
   2301c:	2823883a 	mov	r17,r5
   23020:	d8801017 	ldw	r2,64(sp)
   23024:	10000b26 	beq	r2,zero,23054 <_strtod_l+0xfe8>
   23028:	8804d53a 	srli	r2,r17,20
   2302c:	10c1ffcc 	andi	r3,r2,2047
   23030:	00801ac4 	movi	r2,107
   23034:	10c5c83a 	sub	r2,r2,r3
   23038:	0080060e 	bge	zero,r2,23054 <_strtod_l+0xfe8>
   2303c:	10c00810 	cmplti	r3,r2,32
   23040:	1801421e 	bne	r3,zero,2354c <_strtod_l+0x14e0>
   23044:	10c00d50 	cmplti	r3,r2,53
   23048:	0025883a 	mov	r18,zero
   2304c:	18015f1e 	bne	r3,zero,235cc <_strtod_l+0x1560>
   23050:	0440dc34 	movhi	r17,880
   23054:	000d883a 	mov	r6,zero
   23058:	000f883a 	mov	r7,zero
   2305c:	9009883a 	mov	r4,r18
   23060:	880b883a 	mov	r5,r17
   23064:	da400515 	stw	r9,20(sp)
   23068:	002f4c40 	call	2f4c4 <__eqdf2>
   2306c:	da400517 	ldw	r9,20(sp)
   23070:	103de81e 	bne	r2,zero,22814 <_strtod_l+0x7a8>
   23074:	00800884 	movi	r2,34
   23078:	80800015 	stw	r2,0(r16)
   2307c:	002d883a 	mov	r22,zero
   23080:	002b883a 	mov	r21,zero
   23084:	003d7f06 	br	22684 <_strtod_l+0x618>
   23088:	00800884 	movi	r2,34
   2308c:	80800015 	stw	r2,0(r16)
   23090:	002d883a 	mov	r22,zero
   23094:	055ffc34 	movhi	r21,32752
   23098:	003d7a06 	br	22684 <_strtod_l+0x618>
   2309c:	d8800417 	ldw	r2,16(sp)
   230a0:	018000f4 	movhi	r6,3
   230a4:	dd000215 	stw	r20,8(sp)
   230a8:	d8800115 	stw	r2,4(sp)
   230ac:	d8801304 	addi	r2,sp,76
   230b0:	d8800015 	stw	r2,0(sp)
   230b4:	d9c01404 	addi	r7,sp,80
   230b8:	318db204 	addi	r6,r6,14024
   230bc:	d9401204 	addi	r5,sp,72
   230c0:	8009883a 	mov	r4,r16
   230c4:	00282fc0 	call	282fc <__gethex>
   230c8:	14c001cc 	andi	r19,r2,7
   230cc:	983d6b26 	beq	r19,zero,2267c <_strtod_l+0x610>
   230d0:	98c00198 	cmpnei	r3,r19,6
   230d4:	18003a1e 	bne	r3,zero,231c0 <_strtod_l+0x1154>
   230d8:	d8800317 	ldw	r2,12(sp)
   230dc:	103c6526 	beq	r2,zero,22274 <_strtod_l+0x208>
   230e0:	15c00015 	stw	r23,0(r2)
   230e4:	002d883a 	mov	r22,zero
   230e8:	002b883a 	mov	r21,zero
   230ec:	003c6306 	br	2227c <_strtod_l+0x210>
   230f0:	902d883a 	mov	r22,r18
   230f4:	882b883a 	mov	r21,r17
   230f8:	003d6206 	br	22684 <_strtod_l+0x618>
   230fc:	2807883a 	mov	r3,r5
   23100:	102f883a 	mov	r23,r2
   23104:	18c00248 	cmpgei	r3,r3,9
   23108:	183c8f26 	beq	r3,zero,22348 <_strtod_l+0x2dc>
   2310c:	b8800448 	cmpgei	r2,r23,17
   23110:	1000901e 	bne	r2,zero,23354 <_strtod_l+0x12e8>
   23114:	400690ba 	slli	r3,r8,2
   23118:	0005883a 	mov	r2,zero
   2311c:	1a11883a 	add	r8,r3,r8
   23120:	4211883a 	add	r8,r8,r8
   23124:	3211883a 	add	r8,r6,r8
   23128:	003c8c06 	br	2235c <_strtod_l+0x2f0>
   2312c:	4809883a 	mov	r4,r9
   23130:	a80b883a 	mov	r5,r21
   23134:	d9800615 	stw	r6,24(sp)
   23138:	da400515 	stw	r9,20(sp)
   2313c:	002a5740 	call	2a574 <strncmp>
   23140:	da400517 	ldw	r9,20(sp)
   23144:	d9800617 	ldw	r6,24(sp)
   23148:	10005026 	beq	r2,zero,2328c <_strtod_l+0x1220>
   2314c:	002b883a 	mov	r21,zero
   23150:	0011883a 	mov	r8,zero
   23154:	0039883a 	mov	fp,zero
   23158:	002f883a 	mov	r23,zero
   2315c:	003cbe06 	br	22458 <_strtod_l+0x3ec>
   23160:	98d38810 	cmplti	r3,r19,20000
   23164:	183d2b1e 	bne	r3,zero,22614 <_strtod_l+0x5a8>
   23168:	003d2906 	br	22610 <_strtod_l+0x5a4>
   2316c:	1813883a 	mov	r9,r3
   23170:	003e4806 	br	22a94 <_strtod_l+0xa28>
   23174:	014000f4 	movhi	r5,3
   23178:	294da904 	addi	r5,r5,13988
   2317c:	d9001204 	addi	r4,sp,72
   23180:	0028b400 	call	28b40 <__match>
   23184:	103c3726 	beq	r2,zero,22264 <_strtod_l+0x1f8>
   23188:	d8801217 	ldw	r2,72(sp)
   2318c:	014000f4 	movhi	r5,3
   23190:	294daa04 	addi	r5,r5,13992
   23194:	10bfffc4 	addi	r2,r2,-1
   23198:	d9001204 	addi	r4,sp,72
   2319c:	d8801215 	stw	r2,72(sp)
   231a0:	0028b400 	call	28b40 <__match>
   231a4:	103fba1e 	bne	r2,zero,23090 <_strtod_l+0x1024>
   231a8:	d8801217 	ldw	r2,72(sp)
   231ac:	10800044 	addi	r2,r2,1
   231b0:	d8801215 	stw	r2,72(sp)
   231b4:	003fb606 	br	23090 <_strtod_l+0x1024>
   231b8:	0005883a 	mov	r2,zero
   231bc:	003c5906 	br	22324 <_strtod_l+0x2b8>
   231c0:	d9801317 	ldw	r6,76(sp)
   231c4:	30000826 	beq	r6,zero,231e8 <_strtod_l+0x117c>
   231c8:	01400d44 	movi	r5,53
   231cc:	d9001504 	addi	r4,sp,84
   231d0:	d8800515 	stw	r2,20(sp)
   231d4:	002a2f40 	call	2a2f4 <__copybits>
   231d8:	d9401317 	ldw	r5,76(sp)
   231dc:	8009883a 	mov	r4,r16
   231e0:	002932c0 	call	2932c <_Bfree>
   231e4:	d8800517 	ldw	r2,20(sp)
   231e8:	98c001e8 	cmpgeui	r3,r19,7
   231ec:	1800151e 	bne	r3,zero,23244 <_strtod_l+0x11d8>
   231f0:	982690ba 	slli	r19,r19,2
   231f4:	00c000b4 	movhi	r3,2
   231f8:	98c7883a 	add	r3,r19,r3
   231fc:	18cc8117 	ldw	r3,12804(r3)
   23200:	1800683a 	jmp	r3
   23204:	00023244 	movi	zero,2249
   23208:	00023220 	cmpeqi	zero,zero,2248
   2320c:	00023280 	call	2328 <__alt_mem_onchip_memory-0x1dcd8>
   23210:	00023274 	movhi	zero,2249
   23214:	00023264 	muli	zero,zero,2249
   23218:	00023220 	cmpeqi	zero,zero,2248
   2321c:	00023258 	cmpnei	zero,zero,2249
   23220:	d8c01417 	ldw	r3,80(sp)
   23224:	dc401617 	ldw	r17,88(sp)
   23228:	013ffc34 	movhi	r4,65520
   2322c:	18c10cc4 	addi	r3,r3,1075
   23230:	1806953a 	slli	r3,r3,20
   23234:	213fffc4 	addi	r4,r4,-1
   23238:	dc801517 	ldw	r18,84(sp)
   2323c:	8922703a 	and	r17,r17,r4
   23240:	88e2b03a 	or	r17,r17,r3
   23244:	1080020c 	andi	r2,r2,8
   23248:	902d883a 	mov	r22,r18
   2324c:	103fa926 	beq	r2,zero,230f4 <_strtod_l+0x1088>
   23250:	8d600034 	orhi	r21,r17,32768
   23254:	003d0b06 	br	22684 <_strtod_l+0x618>
   23258:	0023883a 	mov	r17,zero
   2325c:	0025883a 	mov	r18,zero
   23260:	003ff806 	br	23244 <_strtod_l+0x11d8>
   23264:	04600034 	movhi	r17,32768
   23268:	8c7fffc4 	addi	r17,r17,-1
   2326c:	04bfffc4 	movi	r18,-1
   23270:	003ff406 	br	23244 <_strtod_l+0x11d8>
   23274:	045ffc34 	movhi	r17,32752
   23278:	0025883a 	mov	r18,zero
   2327c:	003ff106 	br	23244 <_strtod_l+0x11d8>
   23280:	dc801517 	ldw	r18,84(sp)
   23284:	dc401617 	ldw	r17,88(sp)
   23288:	003fee06 	br	23244 <_strtod_l+0x11d8>
   2328c:	498d883a 	add	r6,r9,r6
   23290:	d9801215 	stw	r6,72(sp)
   23294:	34800007 	ldb	r18,0(r6)
   23298:	0039883a 	mov	fp,zero
   2329c:	0011883a 	mov	r8,zero
   232a0:	003c1506 	br	222f8 <_strtod_l+0x28c>
   232a4:	d8800917 	ldw	r2,36(sp)
   232a8:	900d883a 	mov	r6,r18
   232ac:	880f883a 	mov	r7,r17
   232b0:	100690fa 	slli	r3,r2,3
   232b4:	008000f4 	movhi	r2,3
   232b8:	108e7304 	addi	r2,r2,14796
   232bc:	10c5883a 	add	r2,r2,r3
   232c0:	11000017 	ldw	r4,0(r2)
   232c4:	11400117 	ldw	r5,4(r2)
   232c8:	002f7240 	call	2f724 <__muldf3>
   232cc:	102d883a 	mov	r22,r2
   232d0:	182b883a 	mov	r21,r3
   232d4:	003ceb06 	br	22684 <_strtod_l+0x618>
   232d8:	b82b883a 	mov	r21,r23
   232dc:	0029883a 	mov	r20,zero
   232e0:	003c2106 	br	22368 <_strtod_l+0x2fc>
   232e4:	0011883a 	mov	r8,zero
   232e8:	026ff834 	movhi	r9,49120
   232ec:	d8000c15 	stw	zero,48(sp)
   232f0:	058ff834 	movhi	r22,16352
   232f4:	003dc906 	br	22a1c <_strtod_l+0x9b0>
   232f8:	008003c4 	movi	r2,15
   232fc:	15efc83a 	sub	r23,r2,r23
   23300:	b80490fa 	slli	r2,r23,3
   23304:	040000f4 	movhi	r16,3
   23308:	840e7304 	addi	r16,r16,14796
   2330c:	8085883a 	add	r2,r16,r2
   23310:	11000017 	ldw	r4,0(r2)
   23314:	11400117 	ldw	r5,4(r2)
   23318:	900d883a 	mov	r6,r18
   2331c:	880f883a 	mov	r7,r17
   23320:	002f7240 	call	2f724 <__muldf3>
   23324:	d9000917 	ldw	r4,36(sp)
   23328:	180b883a 	mov	r5,r3
   2332c:	25efc83a 	sub	r23,r4,r23
   23330:	b80c90fa 	slli	r6,r23,3
   23334:	1009883a 	mov	r4,r2
   23338:	81a1883a 	add	r16,r16,r6
   2333c:	81800017 	ldw	r6,0(r16)
   23340:	81c00117 	ldw	r7,4(r16)
   23344:	002f7240 	call	2f724 <__muldf3>
   23348:	102d883a 	mov	r22,r2
   2334c:	182b883a 	mov	r21,r3
   23350:	003ccc06 	br	22684 <_strtod_l+0x618>
   23354:	0005883a 	mov	r2,zero
   23358:	003c0006 	br	2235c <_strtod_l+0x2f0>
   2335c:	d9000617 	ldw	r4,24(sp)
   23360:	00c00434 	movhi	r3,16
   23364:	18ffffc4 	addi	r3,r3,-1
   23368:	dd800b17 	ldw	r22,44(sp)
   2336c:	dd400a17 	ldw	r21,40(sp)
   23370:	88c4703a 	and	r2,r17,r3
   23374:	20004926 	beq	r4,zero,2349c <_strtod_l+0x1430>
   23378:	10c07826 	beq	r2,r3,2355c <_strtod_l+0x14f0>
   2337c:	d8800e17 	ldw	r2,56(sp)
   23380:	10004a26 	beq	r2,zero,234ac <_strtod_l+0x1440>
   23384:	1444703a 	and	r2,r2,r17
   23388:	10000d26 	beq	r2,zero,233c0 <_strtod_l+0x1354>
   2338c:	d8800617 	ldw	r2,24(sp)
   23390:	d9801017 	ldw	r6,64(sp)
   23394:	9009883a 	mov	r4,r18
   23398:	880b883a 	mov	r5,r17
   2339c:	10005726 	beq	r2,zero,234fc <_strtod_l+0x1490>
   233a0:	00220080 	call	22008 <sulp>
   233a4:	100d883a 	mov	r6,r2
   233a8:	180f883a 	mov	r7,r3
   233ac:	9009883a 	mov	r4,r18
   233b0:	880b883a 	mov	r5,r17
   233b4:	002e2180 	call	2e218 <__adddf3>
   233b8:	102d883a 	mov	r22,r2
   233bc:	182b883a 	mov	r21,r3
   233c0:	d8801017 	ldw	r2,64(sp)
   233c4:	da401317 	ldw	r9,76(sp)
   233c8:	103e8c26 	beq	r2,zero,22dfc <_strtod_l+0xd90>
   233cc:	b009883a 	mov	r4,r22
   233d0:	a80b883a 	mov	r5,r21
   233d4:	000d883a 	mov	r6,zero
   233d8:	01ce5434 	movhi	r7,14672
   233dc:	da400515 	stw	r9,20(sp)
   233e0:	002f7240 	call	2f724 <__muldf3>
   233e4:	102d883a 	mov	r22,r2
   233e8:	1884b03a 	or	r2,r3,r2
   233ec:	da400517 	ldw	r9,20(sp)
   233f0:	182b883a 	mov	r21,r3
   233f4:	103e811e 	bne	r2,zero,22dfc <_strtod_l+0xd90>
   233f8:	00800884 	movi	r2,34
   233fc:	80800015 	stw	r2,0(r16)
   23400:	003e7e06 	br	22dfc <_strtod_l+0xd90>
   23404:	0440d434 	movhi	r17,848
   23408:	1c63883a 	add	r17,r3,r17
   2340c:	d8001015 	stw	zero,64(sp)
   23410:	003d0006 	br	22814 <_strtod_l+0x7a8>
   23414:	d8800617 	ldw	r2,24(sp)
   23418:	dd800b17 	ldw	r22,44(sp)
   2341c:	dd400a17 	ldw	r21,40(sp)
   23420:	14a4b03a 	or	r18,r2,r18
   23424:	903fe61e 	bne	r18,zero,233c0 <_strtod_l+0x1354>
   23428:	00800434 	movhi	r2,16
   2342c:	10bfffc4 	addi	r2,r2,-1
   23430:	8884703a 	and	r2,r17,r2
   23434:	103fe21e 	bne	r2,zero,233c0 <_strtod_l+0x1354>
   23438:	8c5ffc2c 	andhi	r17,r17,32752
   2343c:	0081ac34 	movhi	r2,1712
   23440:	147fdf2e 	bgeu	r2,r17,233c0 <_strtod_l+0x1354>
   23444:	b8800517 	ldw	r2,20(r23)
   23448:	1000031e 	bne	r2,zero,23458 <_strtod_l+0x13ec>
   2344c:	b8800417 	ldw	r2,16(r23)
   23450:	10800090 	cmplti	r2,r2,2
   23454:	103fda1e 	bne	r2,zero,233c0 <_strtod_l+0x1354>
   23458:	b80b883a 	mov	r5,r23
   2345c:	8009883a 	mov	r4,r16
   23460:	01800044 	movi	r6,1
   23464:	0029b100 	call	29b10 <__lshift>
   23468:	980b883a 	mov	r5,r19
   2346c:	1009883a 	mov	r4,r2
   23470:	102f883a 	mov	r23,r2
   23474:	0029c980 	call	29c98 <__mcmp>
   23478:	00bfd10e 	bge	zero,r2,233c0 <_strtod_l+0x1354>
   2347c:	d8801017 	ldw	r2,64(sp)
   23480:	10004b26 	beq	r2,zero,235b0 <_strtod_l+0x1544>
   23484:	0081ac34 	movhi	r2,1712
   23488:	14404916 	blt	r2,r17,235b0 <_strtod_l+0x1544>
   2348c:	0080dc34 	movhi	r2,880
   23490:	1440280e 	bge	r2,r17,23534 <_strtod_l+0x14c8>
   23494:	da401317 	ldw	r9,76(sp)
   23498:	003fcc06 	br	233cc <_strtod_l+0x1360>
   2349c:	1484b03a 	or	r2,r2,r18
   234a0:	103fb61e 	bne	r2,zero,2337c <_strtod_l+0x1310>
   234a4:	8c5ffc2c 	andhi	r17,r17,32752
   234a8:	003ff406 	br	2347c <_strtod_l+0x1410>
   234ac:	d8800c17 	ldw	r2,48(sp)
   234b0:	14b8703a 	and	fp,r2,r18
   234b4:	e03fc226 	beq	fp,zero,233c0 <_strtod_l+0x1354>
   234b8:	003fb406 	br	2338c <_strtod_l+0x1320>
   234bc:	008000f4 	movhi	r2,3
   234c0:	108e6904 	addi	r2,r2,14756
   234c4:	002d883a 	mov	r22,zero
   234c8:	d8800515 	stw	r2,20(sp)
   234cc:	003cba06 	br	227b8 <_strtod_l+0x74c>
   234d0:	014000f4 	movhi	r5,3
   234d4:	d9801504 	addi	r6,sp,84
   234d8:	294dad04 	addi	r5,r5,14004
   234dc:	d9001204 	addi	r4,sp,72
   234e0:	0028b900 	call	28b90 <__hexnan>
   234e4:	10800158 	cmpnei	r2,r2,5
   234e8:	103c611e 	bne	r2,zero,22670 <_strtod_l+0x604>
   234ec:	dd401617 	ldw	r21,88(sp)
   234f0:	dd801517 	ldw	r22,84(sp)
   234f4:	ad5ffc34 	orhi	r21,r21,32752
   234f8:	003c6206 	br	22684 <_strtod_l+0x618>
   234fc:	00220080 	call	22008 <sulp>
   23500:	100d883a 	mov	r6,r2
   23504:	180f883a 	mov	r7,r3
   23508:	9009883a 	mov	r4,r18
   2350c:	880b883a 	mov	r5,r17
   23510:	002fecc0 	call	2fecc <__subdf3>
   23514:	000d883a 	mov	r6,zero
   23518:	000f883a 	mov	r7,zero
   2351c:	1009883a 	mov	r4,r2
   23520:	180b883a 	mov	r5,r3
   23524:	102d883a 	mov	r22,r2
   23528:	182b883a 	mov	r21,r3
   2352c:	002f4c40 	call	2f4c4 <__eqdf2>
   23530:	103fa31e 	bne	r2,zero,233c0 <_strtod_l+0x1354>
   23534:	00800884 	movi	r2,34
   23538:	da401317 	ldw	r9,76(sp)
   2353c:	80800015 	stw	r2,0(r16)
   23540:	002d883a 	mov	r22,zero
   23544:	002b883a 	mov	r21,zero
   23548:	003e2c06 	br	22dfc <_strtod_l+0xd90>
   2354c:	00ffffc4 	movi	r3,-1
   23550:	1884983a 	sll	r2,r3,r2
   23554:	14a4703a 	and	r18,r2,r18
   23558:	003ebe06 	br	23054 <_strtod_l+0xfe8>
   2355c:	d8801017 	ldw	r2,64(sp)
   23560:	10001126 	beq	r2,zero,235a8 <_strtod_l+0x153c>
   23564:	889ffc2c 	andhi	r2,r17,32752
   23568:	00c1a834 	movhi	r3,1696
   2356c:	18800e36 	bltu	r3,r2,235a8 <_strtod_l+0x153c>
   23570:	1004d53a 	srli	r2,r2,20
   23574:	00c01ac4 	movi	r3,107
   23578:	1887c83a 	sub	r3,r3,r2
   2357c:	00bfffc4 	movi	r2,-1
   23580:	10c4983a 	sll	r2,r2,r3
   23584:	90bf7d1e 	bne	r18,r2,2337c <_strtod_l+0x1310>
   23588:	009ffc34 	movhi	r2,32752
   2358c:	10bfffc4 	addi	r2,r2,-1
   23590:	88801326 	beq	r17,r2,235e0 <_strtod_l+0x1574>
   23594:	8c5ffc2c 	andhi	r17,r17,32752
   23598:	00800434 	movhi	r2,16
   2359c:	002d883a 	mov	r22,zero
   235a0:	88ab883a 	add	r21,r17,r2
   235a4:	003f8606 	br	233c0 <_strtod_l+0x1354>
   235a8:	00bfffc4 	movi	r2,-1
   235ac:	003ff506 	br	23584 <_strtod_l+0x1518>
   235b0:	05400434 	movhi	r21,16
   235b4:	00bffc34 	movhi	r2,65520
   235b8:	88a3883a 	add	r17,r17,r2
   235bc:	ad7fffc4 	addi	r21,r21,-1
   235c0:	05bfffc4 	movi	r22,-1
   235c4:	8d6ab03a 	or	r21,r17,r21
   235c8:	003f7d06 	br	233c0 <_strtod_l+0x1354>
   235cc:	10bff804 	addi	r2,r2,-32
   235d0:	00ffffc4 	movi	r3,-1
   235d4:	1884983a 	sll	r2,r3,r2
   235d8:	1462703a 	and	r17,r2,r17
   235dc:	003e9d06 	br	23054 <_strtod_l+0xfe8>
   235e0:	94bfffd8 	cmpnei	r18,r18,-1
   235e4:	903feb1e 	bne	r18,zero,23594 <_strtod_l+0x1528>
   235e8:	003d7606 	br	22bc4 <_strtod_l+0xb58>
   235ec:	b807883a 	mov	r3,r23
   235f0:	202f883a 	mov	r23,r4
   235f4:	003ec306 	br	23104 <_strtod_l+0x1098>

000235f8 <_strtod_r>:
   235f8:	01c000f4 	movhi	r7,3
   235fc:	39d1be04 	addi	r7,r7,18168
   23600:	002206c1 	jmpi	2206c <_strtod_l>

00023604 <strtod_l>:
   23604:	00c000f4 	movhi	r3,3
   23608:	2005883a 	mov	r2,r4
   2360c:	1916ac17 	ldw	r4,23216(r3)
   23610:	300f883a 	mov	r7,r6
   23614:	280d883a 	mov	r6,r5
   23618:	100b883a 	mov	r5,r2
   2361c:	002206c1 	jmpi	2206c <_strtod_l>

00023620 <strtod>:
   23620:	00c000f4 	movhi	r3,3
   23624:	2005883a 	mov	r2,r4
   23628:	1916ac17 	ldw	r4,23216(r3)
   2362c:	01c000f4 	movhi	r7,3
   23630:	280d883a 	mov	r6,r5
   23634:	39d1be04 	addi	r7,r7,18168
   23638:	100b883a 	mov	r5,r2
   2363c:	002206c1 	jmpi	2206c <_strtod_l>

00023640 <strtof_l>:
   23640:	00c000f4 	movhi	r3,3
   23644:	2005883a 	mov	r2,r4
   23648:	1916ac17 	ldw	r4,23216(r3)
   2364c:	defffa04 	addi	sp,sp,-24
   23650:	300f883a 	mov	r7,r6
   23654:	280d883a 	mov	r6,r5
   23658:	100b883a 	mov	r5,r2
   2365c:	dc400115 	stw	r17,4(sp)
   23660:	dc000015 	stw	r16,0(sp)
   23664:	dfc00515 	stw	ra,20(sp)
   23668:	dd000415 	stw	r20,16(sp)
   2366c:	dcc00315 	stw	r19,12(sp)
   23670:	dc800215 	stw	r18,8(sp)
   23674:	002206c0 	call	2206c <_strtod_l>
   23678:	100d883a 	mov	r6,r2
   2367c:	180f883a 	mov	r7,r3
   23680:	1009883a 	mov	r4,r2
   23684:	180b883a 	mov	r5,r3
   23688:	1023883a 	mov	r17,r2
   2368c:	1821883a 	mov	r16,r3
   23690:	00308000 	call	30800 <__unorddf2>
   23694:	10002d1e 	bne	r2,zero,2374c <strtof_l+0x10c>
   23698:	8809883a 	mov	r4,r17
   2369c:	800b883a 	mov	r5,r16
   236a0:	04a00034 	movhi	r18,32768
   236a4:	00309a00 	call	309a0 <__truncdfsf2>
   236a8:	94bfffc4 	addi	r18,r18,-1
   236ac:	90a8703a 	and	r20,r18,r2
   236b0:	015fe034 	movhi	r5,32640
   236b4:	297fffc4 	addi	r5,r5,-1
   236b8:	a009883a 	mov	r4,r20
   236bc:	1027883a 	mov	r19,r2
   236c0:	002e1cc0 	call	2e1cc <__unordsf2>
   236c4:	1000181e 	bne	r2,zero,23728 <strtof_l+0xe8>
   236c8:	015fe034 	movhi	r5,32640
   236cc:	297fffc4 	addi	r5,r5,-1
   236d0:	a009883a 	mov	r4,r20
   236d4:	002e10c0 	call	2e10c <__lesf2>
   236d8:	0080130e 	bge	zero,r2,23728 <strtof_l+0xe8>
   236dc:	84a0703a 	and	r16,r16,r18
   236e0:	01dffc34 	movhi	r7,32752
   236e4:	01bfffc4 	movi	r6,-1
   236e8:	39ffffc4 	addi	r7,r7,-1
   236ec:	8809883a 	mov	r4,r17
   236f0:	800b883a 	mov	r5,r16
   236f4:	00308000 	call	30800 <__unorddf2>
   236f8:	1000071e 	bne	r2,zero,23718 <strtof_l+0xd8>
   236fc:	01dffc34 	movhi	r7,32752
   23700:	01bfffc4 	movi	r6,-1
   23704:	39ffffc4 	addi	r7,r7,-1
   23708:	8809883a 	mov	r4,r17
   2370c:	800b883a 	mov	r5,r16
   23710:	002f6340 	call	2f634 <__ledf2>
   23714:	00800416 	blt	zero,r2,23728 <strtof_l+0xe8>
   23718:	008000f4 	movhi	r2,3
   2371c:	1096ac17 	ldw	r2,23216(r2)
   23720:	00c00884 	movi	r3,34
   23724:	10c00015 	stw	r3,0(r2)
   23728:	9805883a 	mov	r2,r19
   2372c:	dfc00517 	ldw	ra,20(sp)
   23730:	dd000417 	ldw	r20,16(sp)
   23734:	dcc00317 	ldw	r19,12(sp)
   23738:	dc800217 	ldw	r18,8(sp)
   2373c:	dc400117 	ldw	r17,4(sp)
   23740:	dc000017 	ldw	r16,0(sp)
   23744:	dec00604 	addi	sp,sp,24
   23748:	f800283a 	ret
   2374c:	8000020e 	bge	r16,zero,23758 <strtof_l+0x118>
   23750:	04fff034 	movhi	r19,65472
   23754:	003ff406 	br	23728 <strtof_l+0xe8>
   23758:	04dff034 	movhi	r19,32704
   2375c:	003ff206 	br	23728 <strtof_l+0xe8>

00023760 <strtof>:
   23760:	00c000f4 	movhi	r3,3
   23764:	2005883a 	mov	r2,r4
   23768:	1916ac17 	ldw	r4,23216(r3)
   2376c:	01c000f4 	movhi	r7,3
   23770:	defff904 	addi	sp,sp,-28
   23774:	280d883a 	mov	r6,r5
   23778:	39d1be04 	addi	r7,r7,18168
   2377c:	100b883a 	mov	r5,r2
   23780:	dc400115 	stw	r17,4(sp)
   23784:	dc000015 	stw	r16,0(sp)
   23788:	dfc00615 	stw	ra,24(sp)
   2378c:	dd400515 	stw	r21,20(sp)
   23790:	dd000415 	stw	r20,16(sp)
   23794:	dcc00315 	stw	r19,12(sp)
   23798:	dc800215 	stw	r18,8(sp)
   2379c:	002206c0 	call	2206c <_strtod_l>
   237a0:	100d883a 	mov	r6,r2
   237a4:	180f883a 	mov	r7,r3
   237a8:	1009883a 	mov	r4,r2
   237ac:	180b883a 	mov	r5,r3
   237b0:	1021883a 	mov	r16,r2
   237b4:	1823883a 	mov	r17,r3
   237b8:	00308000 	call	30800 <__unorddf2>
   237bc:	10003a1e 	bne	r2,zero,238a8 <strtof+0x148>
   237c0:	8009883a 	mov	r4,r16
   237c4:	880b883a 	mov	r5,r17
   237c8:	04a00034 	movhi	r18,32768
   237cc:	00309a00 	call	309a0 <__truncdfsf2>
   237d0:	94bfffc4 	addi	r18,r18,-1
   237d4:	90a8703a 	and	r20,r18,r2
   237d8:	015fe034 	movhi	r5,32640
   237dc:	297fffc4 	addi	r5,r5,-1
   237e0:	a009883a 	mov	r4,r20
   237e4:	1027883a 	mov	r19,r2
   237e8:	002e1cc0 	call	2e1cc <__unordsf2>
   237ec:	982b883a 	mov	r21,r19
   237f0:	1000221e 	bne	r2,zero,2387c <strtof+0x11c>
   237f4:	015fe034 	movhi	r5,32640
   237f8:	297fffc4 	addi	r5,r5,-1
   237fc:	a009883a 	mov	r4,r20
   23800:	002e10c0 	call	2e10c <__lesf2>
   23804:	00801d0e 	bge	zero,r2,2387c <strtof+0x11c>
   23808:	8ca4703a 	and	r18,r17,r18
   2380c:	01dffc34 	movhi	r7,32752
   23810:	01bfffc4 	movi	r6,-1
   23814:	39ffffc4 	addi	r7,r7,-1
   23818:	8009883a 	mov	r4,r16
   2381c:	900b883a 	mov	r5,r18
   23820:	00308000 	call	30800 <__unorddf2>
   23824:	1000071e 	bne	r2,zero,23844 <strtof+0xe4>
   23828:	01dffc34 	movhi	r7,32752
   2382c:	01bfffc4 	movi	r6,-1
   23830:	39ffffc4 	addi	r7,r7,-1
   23834:	8009883a 	mov	r4,r16
   23838:	900b883a 	mov	r5,r18
   2383c:	002f6340 	call	2f634 <__ledf2>
   23840:	00800e16 	blt	zero,r2,2387c <strtof+0x11c>
   23844:	008000f4 	movhi	r2,3
   23848:	1096ac17 	ldw	r2,23216(r2)
   2384c:	00c00884 	movi	r3,34
   23850:	10c00015 	stw	r3,0(r2)
   23854:	a805883a 	mov	r2,r21
   23858:	dfc00617 	ldw	ra,24(sp)
   2385c:	dd400517 	ldw	r21,20(sp)
   23860:	dd000417 	ldw	r20,16(sp)
   23864:	dcc00317 	ldw	r19,12(sp)
   23868:	dc800217 	ldw	r18,8(sp)
   2386c:	dc400117 	ldw	r17,4(sp)
   23870:	dc000017 	ldw	r16,0(sp)
   23874:	dec00704 	addi	sp,sp,28
   23878:	f800283a 	ret
   2387c:	000b883a 	mov	r5,zero
   23880:	9809883a 	mov	r4,r19
   23884:	002e0940 	call	2e094 <__eqsf2>
   23888:	103ff21e 	bne	r2,zero,23854 <strtof+0xf4>
   2388c:	000d883a 	mov	r6,zero
   23890:	000f883a 	mov	r7,zero
   23894:	8009883a 	mov	r4,r16
   23898:	880b883a 	mov	r5,r17
   2389c:	002f4c40 	call	2f4c4 <__eqdf2>
   238a0:	103fec26 	beq	r2,zero,23854 <strtof+0xf4>
   238a4:	003fe706 	br	23844 <strtof+0xe4>
   238a8:	8800020e 	bge	r17,zero,238b4 <strtof+0x154>
   238ac:	057ff034 	movhi	r21,65472
   238b0:	003fe806 	br	23854 <strtof+0xf4>
   238b4:	055ff034 	movhi	r21,32704
   238b8:	003fe606 	br	23854 <strtof+0xf4>

000238bc <___vfprintf_internal_r>:
   238bc:	deffbf04 	addi	sp,sp,-260
   238c0:	dfc04015 	stw	ra,256(sp)
   238c4:	dd803d15 	stw	r22,244(sp)
   238c8:	dcc03a15 	stw	r19,232(sp)
   238cc:	dc803915 	stw	r18,228(sp)
   238d0:	2027883a 	mov	r19,r4
   238d4:	2825883a 	mov	r18,r5
   238d8:	302d883a 	mov	r22,r6
   238dc:	d9c00615 	stw	r7,24(sp)
   238e0:	df003f15 	stw	fp,252(sp)
   238e4:	ddc03e15 	stw	r23,248(sp)
   238e8:	dd403c15 	stw	r21,240(sp)
   238ec:	dd003b15 	stw	r20,236(sp)
   238f0:	dc403815 	stw	r17,224(sp)
   238f4:	dc003715 	stw	r16,220(sp)
   238f8:	0028ef80 	call	28ef8 <_localeconv_r>
   238fc:	10800017 	ldw	r2,0(r2)
   23900:	1009883a 	mov	r4,r2
   23904:	d8800d15 	stw	r2,52(sp)
   23908:	002a4dc0 	call	2a4dc <strlen>
   2390c:	d8800b15 	stw	r2,44(sp)
   23910:	98000226 	beq	r19,zero,2391c <___vfprintf_internal_r+0x60>
   23914:	98800e17 	ldw	r2,56(r19)
   23918:	1001d726 	beq	r2,zero,24078 <___vfprintf_internal_r+0x7bc>
   2391c:	9080030b 	ldhu	r2,12(r18)
   23920:	10c8000c 	andi	r3,r2,8192
   23924:	1800061e 	bne	r3,zero,23940 <___vfprintf_internal_r+0x84>
   23928:	90c01917 	ldw	r3,100(r18)
   2392c:	0137ffc4 	movi	r4,-8193
   23930:	10880014 	ori	r2,r2,8192
   23934:	1906703a 	and	r3,r3,r4
   23938:	9080030d 	sth	r2,12(r18)
   2393c:	90c01915 	stw	r3,100(r18)
   23940:	10c0020c 	andi	r3,r2,8
   23944:	1800fc26 	beq	r3,zero,23d38 <___vfprintf_internal_r+0x47c>
   23948:	90c00417 	ldw	r3,16(r18)
   2394c:	1800fa26 	beq	r3,zero,23d38 <___vfprintf_internal_r+0x47c>
   23950:	1080068c 	andi	r2,r2,26
   23954:	10800298 	cmpnei	r2,r2,10
   23958:	1000ff26 	beq	r2,zero,23d58 <___vfprintf_internal_r+0x49c>
   2395c:	d8802704 	addi	r2,sp,156
   23960:	b02f883a 	mov	r23,r22
   23964:	d8801a15 	stw	r2,104(sp)
   23968:	d8001c15 	stw	zero,112(sp)
   2396c:	d8001b15 	stw	zero,108(sp)
   23970:	d8000815 	stw	zero,32(sp)
   23974:	d8000915 	stw	zero,36(sp)
   23978:	d8000a15 	stw	zero,40(sp)
   2397c:	d8000c15 	stw	zero,48(sp)
   23980:	d8001015 	stw	zero,64(sp)
   23984:	d8000515 	stw	zero,20(sp)
   23988:	102d883a 	mov	r22,r2
   2398c:	b8800007 	ldb	r2,0(r23)
   23990:	1000d726 	beq	r2,zero,23cf0 <___vfprintf_internal_r+0x434>
   23994:	b821883a 	mov	r16,r23
   23998:	00000306 	br	239a8 <___vfprintf_internal_r+0xec>
   2399c:	80800047 	ldb	r2,1(r16)
   239a0:	84000044 	addi	r16,r16,1
   239a4:	10011926 	beq	r2,zero,23e0c <___vfprintf_internal_r+0x550>
   239a8:	10800958 	cmpnei	r2,r2,37
   239ac:	103ffb1e 	bne	r2,zero,2399c <___vfprintf_internal_r+0xe0>
   239b0:	85e3c83a 	sub	r17,r16,r23
   239b4:	85c1171e 	bne	r16,r23,23e14 <___vfprintf_internal_r+0x558>
   239b8:	80800003 	ldbu	r2,0(r16)
   239bc:	10803fcc 	andi	r2,r2,255
   239c0:	1080201c 	xori	r2,r2,128
   239c4:	10bfe004 	addi	r2,r2,-128
   239c8:	1000c926 	beq	r2,zero,23cf0 <___vfprintf_internal_r+0x434>
   239cc:	82c00047 	ldb	r11,1(r16)
   239d0:	85c00044 	addi	r23,r16,1
   239d4:	d8001345 	stb	zero,77(sp)
   239d8:	0009883a 	mov	r4,zero
   239dc:	000b883a 	mov	r5,zero
   239e0:	023fffc4 	movi	r8,-1
   239e4:	0021883a 	mov	r16,zero
   239e8:	0019883a 	mov	r12,zero
   239ec:	bdc00044 	addi	r23,r23,1
   239f0:	5839883a 	mov	fp,r11
   239f4:	e0bff804 	addi	r2,fp,-32
   239f8:	10c01668 	cmpgeui	r3,r2,89
   239fc:	18006c1e 	bne	r3,zero,23bb0 <___vfprintf_internal_r+0x2f4>
   23a00:	100490ba 	slli	r2,r2,2
   23a04:	00c000b4 	movhi	r3,2
   23a08:	10c7883a 	add	r3,r2,r3
   23a0c:	188e8517 	ldw	r2,14868(r3)
   23a10:	1000683a 	jmp	r2
   23a14:	00024400 	call	2440 <__alt_mem_onchip_memory-0x1dbc0>
   23a18:	00023bb0 	cmpltui	zero,zero,2286
   23a1c:	00023bb0 	cmpltui	zero,zero,2286
   23a20:	000243f4 	movhi	zero,2319
   23a24:	00023bb0 	cmpltui	zero,zero,2286
   23a28:	00023bb0 	cmpltui	zero,zero,2286
   23a2c:	00023bb0 	cmpltui	zero,zero,2286
   23a30:	00023bb0 	cmpltui	zero,zero,2286
   23a34:	00023bb0 	cmpltui	zero,zero,2286
   23a38:	00023bb0 	cmpltui	zero,zero,2286
   23a3c:	000243cc 	andi	zero,zero,2319
   23a40:	000243bc 	xorhi	zero,zero,2318
   23a44:	00023bb0 	cmpltui	zero,zero,2286
   23a48:	000243a4 	muli	zero,zero,2318
   23a4c:	00024358 	cmpnei	zero,zero,2317
   23a50:	00023bb0 	cmpltui	zero,zero,2286
   23a54:	0002434c 	andi	zero,zero,2317
   23a58:	00023b78 	rdprs	zero,zero,2285
   23a5c:	00023b78 	rdprs	zero,zero,2285
   23a60:	00023b78 	rdprs	zero,zero,2285
   23a64:	00023b78 	rdprs	zero,zero,2285
   23a68:	00023b78 	rdprs	zero,zero,2285
   23a6c:	00023b78 	rdprs	zero,zero,2285
   23a70:	00023b78 	rdprs	zero,zero,2285
   23a74:	00023b78 	rdprs	zero,zero,2285
   23a78:	00023b78 	rdprs	zero,zero,2285
   23a7c:	00023bb0 	cmpltui	zero,zero,2286
   23a80:	00023bb0 	cmpltui	zero,zero,2286
   23a84:	00023bb0 	cmpltui	zero,zero,2286
   23a88:	00023bb0 	cmpltui	zero,zero,2286
   23a8c:	00023bb0 	cmpltui	zero,zero,2286
   23a90:	00023bb0 	cmpltui	zero,zero,2286
   23a94:	00023bb0 	cmpltui	zero,zero,2286
   23a98:	00023bb0 	cmpltui	zero,zero,2286
   23a9c:	00023bb0 	cmpltui	zero,zero,2286
   23aa0:	00023bb0 	cmpltui	zero,zero,2286
   23aa4:	00024240 	call	2424 <__alt_mem_onchip_memory-0x1dbdc>
   23aa8:	00023e70 	cmpltui	zero,zero,2297
   23aac:	00023bb0 	cmpltui	zero,zero,2286
   23ab0:	00023e70 	cmpltui	zero,zero,2297
   23ab4:	00023bb0 	cmpltui	zero,zero,2286
   23ab8:	00023bb0 	cmpltui	zero,zero,2286
   23abc:	00023bb0 	cmpltui	zero,zero,2286
   23ac0:	00023bb0 	cmpltui	zero,zero,2286
   23ac4:	0002442c 	andhi	zero,zero,2320
   23ac8:	00023bb0 	cmpltui	zero,zero,2286
   23acc:	00023bb0 	cmpltui	zero,zero,2286
   23ad0:	00023da4 	muli	zero,zero,2294
   23ad4:	00023bb0 	cmpltui	zero,zero,2286
   23ad8:	00023bb0 	cmpltui	zero,zero,2286
   23adc:	00023bb0 	cmpltui	zero,zero,2286
   23ae0:	00023bb0 	cmpltui	zero,zero,2286
   23ae4:	00023bb0 	cmpltui	zero,zero,2286
   23ae8:	00023d7c 	xorhi	zero,zero,2293
   23aec:	00023bb0 	cmpltui	zero,zero,2286
   23af0:	00023bb0 	cmpltui	zero,zero,2286
   23af4:	00024460 	cmpeqi	zero,zero,2321
   23af8:	00023bb0 	cmpltui	zero,zero,2286
   23afc:	00023bb0 	cmpltui	zero,zero,2286
   23b00:	00023bb0 	cmpltui	zero,zero,2286
   23b04:	00023bb0 	cmpltui	zero,zero,2286
   23b08:	00023bb0 	cmpltui	zero,zero,2286
   23b0c:	00023bb0 	cmpltui	zero,zero,2286
   23b10:	00023bb0 	cmpltui	zero,zero,2286
   23b14:	00023bb0 	cmpltui	zero,zero,2286
   23b18:	00023bb0 	cmpltui	zero,zero,2286
   23b1c:	00023bb0 	cmpltui	zero,zero,2286
   23b20:	00024438 	rdprs	zero,zero,2320
   23b24:	00024084 	movi	zero,2306
   23b28:	00023e70 	cmpltui	zero,zero,2297
   23b2c:	00023e70 	cmpltui	zero,zero,2297
   23b30:	00023e70 	cmpltui	zero,zero,2297
   23b34:	000240f8 	rdprs	zero,zero,2307
   23b38:	00024084 	movi	zero,2306
   23b3c:	00023bb0 	cmpltui	zero,zero,2286
   23b40:	00023bb0 	cmpltui	zero,zero,2286
   23b44:	0002422c 	andhi	zero,zero,2312
   23b48:	00023bb0 	cmpltui	zero,zero,2286
   23b4c:	000241f0 	cmpltui	zero,zero,2311
   23b50:	00023da8 	cmpgeui	zero,zero,2294
   23b54:	000241b0 	cmpltui	zero,zero,2310
   23b58:	000241a4 	muli	zero,zero,2310
   23b5c:	00023bb0 	cmpltui	zero,zero,2286
   23b60:	0002414c 	andi	zero,zero,2309
   23b64:	00023bb0 	cmpltui	zero,zero,2286
   23b68:	00023d80 	call	23d8 <__alt_mem_onchip_memory-0x1dc28>
   23b6c:	00023bb0 	cmpltui	zero,zero,2286
   23b70:	00023bb0 	cmpltui	zero,zero,2286
   23b74:	00024104 	movi	zero,2308
   23b78:	0021883a 	mov	r16,zero
   23b7c:	e0fff404 	addi	r3,fp,-48
   23b80:	800490ba 	slli	r2,r16,2
   23b84:	bf000007 	ldb	fp,0(r23)
   23b88:	bdc00044 	addi	r23,r23,1
   23b8c:	1421883a 	add	r16,r2,r16
   23b90:	8421883a 	add	r16,r16,r16
   23b94:	1c21883a 	add	r16,r3,r16
   23b98:	e0fff404 	addi	r3,fp,-48
   23b9c:	188002b0 	cmpltui	r2,r3,10
   23ba0:	103ff71e 	bne	r2,zero,23b80 <___vfprintf_internal_r+0x2c4>
   23ba4:	e0bff804 	addi	r2,fp,-32
   23ba8:	10c01668 	cmpgeui	r3,r2,89
   23bac:	183f9426 	beq	r3,zero,23a00 <___vfprintf_internal_r+0x144>
   23bb0:	21003fcc 	andi	r4,r4,255
   23bb4:	20068f1e 	bne	r4,zero,255f4 <___vfprintf_internal_r+0x1d38>
   23bb8:	e0004d26 	beq	fp,zero,23cf0 <___vfprintf_internal_r+0x434>
   23bbc:	df001d05 	stb	fp,116(sp)
   23bc0:	d8001345 	stb	zero,77(sp)
   23bc4:	05000044 	movi	r20,1
   23bc8:	05400044 	movi	r21,1
   23bcc:	dc401d04 	addi	r17,sp,116
   23bd0:	db000415 	stw	r12,16(sp)
   23bd4:	0011883a 	mov	r8,zero
   23bd8:	d8000715 	stw	zero,28(sp)
   23bdc:	d8800417 	ldw	r2,16(sp)
   23be0:	1380008c 	andi	r14,r2,2
   23be4:	70000126 	beq	r14,zero,23bec <___vfprintf_internal_r+0x330>
   23be8:	a5000084 	addi	r20,r20,2
   23bec:	d8800417 	ldw	r2,16(sp)
   23bf0:	d8c01c17 	ldw	r3,112(sp)
   23bf4:	1340210c 	andi	r13,r2,132
   23bf8:	6800021e 	bne	r13,zero,23c04 <___vfprintf_internal_r+0x348>
   23bfc:	850fc83a 	sub	r7,r16,r20
   23c00:	01c36016 	blt	zero,r7,24984 <___vfprintf_internal_r+0x10c8>
   23c04:	d8801347 	ldb	r2,77(sp)
   23c08:	10000c26 	beq	r2,zero,23c3c <___vfprintf_internal_r+0x380>
   23c0c:	d8801b17 	ldw	r2,108(sp)
   23c10:	d9001344 	addi	r4,sp,77
   23c14:	18c00044 	addi	r3,r3,1
   23c18:	10800044 	addi	r2,r2,1
   23c1c:	b1000015 	stw	r4,0(r22)
   23c20:	01000044 	movi	r4,1
   23c24:	d8801b15 	stw	r2,108(sp)
   23c28:	b1000115 	stw	r4,4(r22)
   23c2c:	d8c01c15 	stw	r3,112(sp)
   23c30:	10800208 	cmpgei	r2,r2,8
   23c34:	1003a01e 	bne	r2,zero,24ab8 <___vfprintf_internal_r+0x11fc>
   23c38:	b5800204 	addi	r22,r22,8
   23c3c:	70000c26 	beq	r14,zero,23c70 <___vfprintf_internal_r+0x3b4>
   23c40:	d8801b17 	ldw	r2,108(sp)
   23c44:	d9001384 	addi	r4,sp,78
   23c48:	18c00084 	addi	r3,r3,2
   23c4c:	10800044 	addi	r2,r2,1
   23c50:	b1000015 	stw	r4,0(r22)
   23c54:	01000084 	movi	r4,2
   23c58:	d8801b15 	stw	r2,108(sp)
   23c5c:	b1000115 	stw	r4,4(r22)
   23c60:	d8c01c15 	stw	r3,112(sp)
   23c64:	10800208 	cmpgei	r2,r2,8
   23c68:	1003871e 	bne	r2,zero,24a88 <___vfprintf_internal_r+0x11cc>
   23c6c:	b5800204 	addi	r22,r22,8
   23c70:	6b402018 	cmpnei	r13,r13,128
   23c74:	68025226 	beq	r13,zero,245c0 <___vfprintf_internal_r+0xd04>
   23c78:	4551c83a 	sub	r8,r8,r21
   23c7c:	02028a16 	blt	zero,r8,246a8 <___vfprintf_internal_r+0xdec>
   23c80:	d8800417 	ldw	r2,16(sp)
   23c84:	1080400c 	andi	r2,r2,256
   23c88:	1002071e 	bne	r2,zero,244a8 <___vfprintf_internal_r+0xbec>
   23c8c:	d8801b17 	ldw	r2,108(sp)
   23c90:	1d47883a 	add	r3,r3,r21
   23c94:	b4400015 	stw	r17,0(r22)
   23c98:	10800044 	addi	r2,r2,1
   23c9c:	b5400115 	stw	r21,4(r22)
   23ca0:	d8801b15 	stw	r2,108(sp)
   23ca4:	d8c01c15 	stw	r3,112(sp)
   23ca8:	10800208 	cmpgei	r2,r2,8
   23cac:	1002ee1e 	bne	r2,zero,24868 <___vfprintf_internal_r+0xfac>
   23cb0:	b5800204 	addi	r22,r22,8
   23cb4:	d8800417 	ldw	r2,16(sp)
   23cb8:	1440010c 	andi	r17,r2,4
   23cbc:	88000226 	beq	r17,zero,23cc8 <___vfprintf_internal_r+0x40c>
   23cc0:	8523c83a 	sub	r17,r16,r20
   23cc4:	0440bd16 	blt	zero,r17,23fbc <___vfprintf_internal_r+0x700>
   23cc8:	8500010e 	bge	r16,r20,23cd0 <___vfprintf_internal_r+0x414>
   23ccc:	a021883a 	mov	r16,r20
   23cd0:	d8800517 	ldw	r2,20(sp)
   23cd4:	1405883a 	add	r2,r2,r16
   23cd8:	d8800515 	stw	r2,20(sp)
   23cdc:	1802b91e 	bne	r3,zero,247c4 <___vfprintf_internal_r+0xf08>
   23ce0:	b8800007 	ldb	r2,0(r23)
   23ce4:	d8001b15 	stw	zero,108(sp)
   23ce8:	dd802704 	addi	r22,sp,156
   23cec:	103f291e 	bne	r2,zero,23994 <___vfprintf_internal_r+0xd8>
   23cf0:	d8801c17 	ldw	r2,112(sp)
   23cf4:	10063a1e 	bne	r2,zero,255e0 <___vfprintf_internal_r+0x1d24>
   23cf8:	9080030b 	ldhu	r2,12(r18)
   23cfc:	1080100c 	andi	r2,r2,64
   23d00:	1006c91e 	bne	r2,zero,25828 <___vfprintf_internal_r+0x1f6c>
   23d04:	d8800517 	ldw	r2,20(sp)
   23d08:	dfc04017 	ldw	ra,256(sp)
   23d0c:	df003f17 	ldw	fp,252(sp)
   23d10:	ddc03e17 	ldw	r23,248(sp)
   23d14:	dd803d17 	ldw	r22,244(sp)
   23d18:	dd403c17 	ldw	r21,240(sp)
   23d1c:	dd003b17 	ldw	r20,236(sp)
   23d20:	dcc03a17 	ldw	r19,232(sp)
   23d24:	dc803917 	ldw	r18,228(sp)
   23d28:	dc403817 	ldw	r17,224(sp)
   23d2c:	dc003717 	ldw	r16,220(sp)
   23d30:	dec04104 	addi	sp,sp,260
   23d34:	f800283a 	ret
   23d38:	900b883a 	mov	r5,r18
   23d3c:	9809883a 	mov	r4,r19
   23d40:	0025ae80 	call	25ae8 <__swsetup_r>
   23d44:	1006b81e 	bne	r2,zero,25828 <___vfprintf_internal_r+0x1f6c>
   23d48:	9080030b 	ldhu	r2,12(r18)
   23d4c:	1080068c 	andi	r2,r2,26
   23d50:	10800298 	cmpnei	r2,r2,10
   23d54:	103f011e 	bne	r2,zero,2395c <___vfprintf_internal_r+0xa0>
   23d58:	9080038f 	ldh	r2,14(r18)
   23d5c:	103eff16 	blt	r2,zero,2395c <___vfprintf_internal_r+0xa0>
   23d60:	d9c00617 	ldw	r7,24(sp)
   23d64:	b00d883a 	mov	r6,r22
   23d68:	900b883a 	mov	r5,r18
   23d6c:	9809883a 	mov	r4,r19
   23d70:	00259c40 	call	259c4 <__sbprintf>
   23d74:	d8800515 	stw	r2,20(sp)
   23d78:	003fe206 	br	23d04 <___vfprintf_internal_r+0x448>
   23d7c:	63000414 	ori	r12,r12,16
   23d80:	6080080c 	andi	r2,r12,32
   23d84:	10008126 	beq	r2,zero,23f8c <___vfprintf_internal_r+0x6d0>
   23d88:	d8c00617 	ldw	r3,24(sp)
   23d8c:	00800044 	movi	r2,1
   23d90:	1d000017 	ldw	r20,0(r3)
   23d94:	1d400117 	ldw	r21,4(r3)
   23d98:	18c00204 	addi	r3,r3,8
   23d9c:	d8c00615 	stw	r3,24(sp)
   23da0:	00000906 	br	23dc8 <___vfprintf_internal_r+0x50c>
   23da4:	63000414 	ori	r12,r12,16
   23da8:	6080080c 	andi	r2,r12,32
   23dac:	10006b26 	beq	r2,zero,23f5c <___vfprintf_internal_r+0x6a0>
   23db0:	d8c00617 	ldw	r3,24(sp)
   23db4:	0005883a 	mov	r2,zero
   23db8:	1d000017 	ldw	r20,0(r3)
   23dbc:	1d400117 	ldw	r21,4(r3)
   23dc0:	18c00204 	addi	r3,r3,8
   23dc4:	d8c00615 	stw	r3,24(sp)
   23dc8:	d8001345 	stb	zero,77(sp)
   23dcc:	40ffffe0 	cmpeqi	r3,r8,-1
   23dd0:	001b883a 	mov	r13,zero
   23dd4:	1801351e 	bne	r3,zero,242ac <___vfprintf_internal_r+0x9f0>
   23dd8:	047fdfc4 	movi	r17,-129
   23ddc:	6448703a 	and	r4,r12,r17
   23de0:	a546b03a 	or	r3,r20,r21
   23de4:	d9000415 	stw	r4,16(sp)
   23de8:	1802e41e 	bne	r3,zero,2497c <___vfprintf_internal_r+0x10c0>
   23dec:	40025f1e 	bne	r8,zero,2476c <___vfprintf_internal_r+0xeb0>
   23df0:	1003a61e 	bne	r2,zero,24c8c <___vfprintf_internal_r+0x13d0>
   23df4:	6540004c 	andi	r21,r12,1
   23df8:	a803d426 	beq	r21,zero,24d4c <___vfprintf_internal_r+0x1490>
   23dfc:	00800c04 	movi	r2,48
   23e00:	d88026c5 	stb	r2,155(sp)
   23e04:	dc4026c4 	addi	r17,sp,155
   23e08:	00014606 	br	24324 <___vfprintf_internal_r+0xa68>
   23e0c:	85e3c83a 	sub	r17,r16,r23
   23e10:	85ffb726 	beq	r16,r23,23cf0 <___vfprintf_internal_r+0x434>
   23e14:	d8c01c17 	ldw	r3,112(sp)
   23e18:	d8801b17 	ldw	r2,108(sp)
   23e1c:	b5c00015 	stw	r23,0(r22)
   23e20:	1c47883a 	add	r3,r3,r17
   23e24:	10800044 	addi	r2,r2,1
   23e28:	d8801b15 	stw	r2,108(sp)
   23e2c:	b4400115 	stw	r17,4(r22)
   23e30:	d8c01c15 	stw	r3,112(sp)
   23e34:	10800208 	cmpgei	r2,r2,8
   23e38:	1000061e 	bne	r2,zero,23e54 <___vfprintf_internal_r+0x598>
   23e3c:	b5800204 	addi	r22,r22,8
   23e40:	d8c00517 	ldw	r3,20(sp)
   23e44:	80800003 	ldbu	r2,0(r16)
   23e48:	1c47883a 	add	r3,r3,r17
   23e4c:	d8c00515 	stw	r3,20(sp)
   23e50:	003eda06 	br	239bc <___vfprintf_internal_r+0x100>
   23e54:	d9801a04 	addi	r6,sp,104
   23e58:	900b883a 	mov	r5,r18
   23e5c:	9809883a 	mov	r4,r19
   23e60:	002a72c0 	call	2a72c <__sprint_r>
   23e64:	103fa41e 	bne	r2,zero,23cf8 <___vfprintf_internal_r+0x43c>
   23e68:	dd802704 	addi	r22,sp,156
   23e6c:	003ff406 	br	23e40 <___vfprintf_internal_r+0x584>
   23e70:	21003fcc 	andi	r4,r4,255
   23e74:	20066a1e 	bne	r4,zero,25820 <___vfprintf_internal_r+0x1f64>
   23e78:	d8c00617 	ldw	r3,24(sp)
   23e7c:	6080020c 	andi	r2,r12,8
   23e80:	19000204 	addi	r4,r3,8
   23e84:	d9000e15 	stw	r4,56(sp)
   23e88:	1003d01e 	bne	r2,zero,24dcc <___vfprintf_internal_r+0x1510>
   23e8c:	d8800617 	ldw	r2,24(sp)
   23e90:	10c00017 	ldw	r3,0(r2)
   23e94:	10800117 	ldw	r2,4(r2)
   23e98:	d8c00915 	stw	r3,36(sp)
   23e9c:	d8800a15 	stw	r2,40(sp)
   23ea0:	dd400a17 	ldw	r21,40(sp)
   23ea4:	dd000917 	ldw	r20,36(sp)
   23ea8:	00a00034 	movhi	r2,32768
   23eac:	10bfffc4 	addi	r2,r2,-1
   23eb0:	a8a2703a 	and	r17,r21,r2
   23eb4:	01dffc34 	movhi	r7,32752
   23eb8:	01bfffc4 	movi	r6,-1
   23ebc:	39ffffc4 	addi	r7,r7,-1
   23ec0:	a009883a 	mov	r4,r20
   23ec4:	880b883a 	mov	r5,r17
   23ec8:	da000615 	stw	r8,24(sp)
   23ecc:	db000415 	stw	r12,16(sp)
   23ed0:	00308000 	call	30800 <__unorddf2>
   23ed4:	db000417 	ldw	r12,16(sp)
   23ed8:	da000617 	ldw	r8,24(sp)
   23edc:	1004701e 	bne	r2,zero,250a0 <___vfprintf_internal_r+0x17e4>
   23ee0:	01dffc34 	movhi	r7,32752
   23ee4:	01bfffc4 	movi	r6,-1
   23ee8:	39ffffc4 	addi	r7,r7,-1
   23eec:	a009883a 	mov	r4,r20
   23ef0:	880b883a 	mov	r5,r17
   23ef4:	002f6340 	call	2f634 <__ledf2>
   23ef8:	db000417 	ldw	r12,16(sp)
   23efc:	da000617 	ldw	r8,24(sp)
   23f00:	0084670e 	bge	zero,r2,250a0 <___vfprintf_internal_r+0x17e4>
   23f04:	000d883a 	mov	r6,zero
   23f08:	000f883a 	mov	r7,zero
   23f0c:	a009883a 	mov	r4,r20
   23f10:	a80b883a 	mov	r5,r21
   23f14:	002f6340 	call	2f634 <__ledf2>
   23f18:	db000417 	ldw	r12,16(sp)
   23f1c:	10059d16 	blt	r2,zero,25594 <___vfprintf_internal_r+0x1cd8>
   23f20:	db401343 	ldbu	r13,77(sp)
   23f24:	e0801210 	cmplti	r2,fp,72
   23f28:	1005741e 	bne	r2,zero,254fc <___vfprintf_internal_r+0x1c40>
   23f2c:	044000f4 	movhi	r17,3
   23f30:	8c4dc204 	addi	r17,r17,14088
   23f34:	00bfdfc4 	movi	r2,-129
   23f38:	6084703a 	and	r2,r12,r2
   23f3c:	d8800415 	stw	r2,16(sp)
   23f40:	d8800e17 	ldw	r2,56(sp)
   23f44:	050000c4 	movi	r20,3
   23f48:	054000c4 	movi	r21,3
   23f4c:	d8800615 	stw	r2,24(sp)
   23f50:	0011883a 	mov	r8,zero
   23f54:	d8000715 	stw	zero,28(sp)
   23f58:	0000f606 	br	24334 <___vfprintf_internal_r+0xa78>
   23f5c:	d9000617 	ldw	r4,24(sp)
   23f60:	6080040c 	andi	r2,r12,16
   23f64:	20c00104 	addi	r3,r4,4
   23f68:	1003891e 	bne	r2,zero,24d90 <___vfprintf_internal_r+0x14d4>
   23f6c:	6080100c 	andi	r2,r12,64
   23f70:	10056b26 	beq	r2,zero,25520 <___vfprintf_internal_r+0x1c64>
   23f74:	d8800617 	ldw	r2,24(sp)
   23f78:	002b883a 	mov	r21,zero
   23f7c:	d8c00615 	stw	r3,24(sp)
   23f80:	1500000b 	ldhu	r20,0(r2)
   23f84:	0005883a 	mov	r2,zero
   23f88:	003f8f06 	br	23dc8 <___vfprintf_internal_r+0x50c>
   23f8c:	d9000617 	ldw	r4,24(sp)
   23f90:	6080040c 	andi	r2,r12,16
   23f94:	20c00104 	addi	r3,r4,4
   23f98:	1003821e 	bne	r2,zero,24da4 <___vfprintf_internal_r+0x14e8>
   23f9c:	6080100c 	andi	r2,r12,64
   23fa0:	10056526 	beq	r2,zero,25538 <___vfprintf_internal_r+0x1c7c>
   23fa4:	d8800617 	ldw	r2,24(sp)
   23fa8:	002b883a 	mov	r21,zero
   23fac:	d8c00615 	stw	r3,24(sp)
   23fb0:	1500000b 	ldhu	r20,0(r2)
   23fb4:	00800044 	movi	r2,1
   23fb8:	003f8306 	br	23dc8 <___vfprintf_internal_r+0x50c>
   23fbc:	030000f4 	movhi	r12,3
   23fc0:	89000450 	cmplti	r4,r17,17
   23fc4:	d8801b17 	ldw	r2,108(sp)
   23fc8:	630dd604 	addi	r12,r12,14168
   23fcc:	20001b1e 	bne	r4,zero,2403c <___vfprintf_internal_r+0x780>
   23fd0:	05400404 	movi	r21,16
   23fd4:	6039883a 	mov	fp,r12
   23fd8:	00000406 	br	23fec <___vfprintf_internal_r+0x730>
   23fdc:	8c7ffc04 	addi	r17,r17,-16
   23fe0:	89000448 	cmpgei	r4,r17,17
   23fe4:	b5800204 	addi	r22,r22,8
   23fe8:	20001326 	beq	r4,zero,24038 <___vfprintf_internal_r+0x77c>
   23fec:	10800044 	addi	r2,r2,1
   23ff0:	18c00404 	addi	r3,r3,16
   23ff4:	b7000015 	stw	fp,0(r22)
   23ff8:	b5400115 	stw	r21,4(r22)
   23ffc:	d8c01c15 	stw	r3,112(sp)
   24000:	d8801b15 	stw	r2,108(sp)
   24004:	11000208 	cmpgei	r4,r2,8
   24008:	203ff426 	beq	r4,zero,23fdc <___vfprintf_internal_r+0x720>
   2400c:	d9801a04 	addi	r6,sp,104
   24010:	900b883a 	mov	r5,r18
   24014:	9809883a 	mov	r4,r19
   24018:	002a72c0 	call	2a72c <__sprint_r>
   2401c:	103f361e 	bne	r2,zero,23cf8 <___vfprintf_internal_r+0x43c>
   24020:	8c7ffc04 	addi	r17,r17,-16
   24024:	89000448 	cmpgei	r4,r17,17
   24028:	d8c01c17 	ldw	r3,112(sp)
   2402c:	d8801b17 	ldw	r2,108(sp)
   24030:	dd802704 	addi	r22,sp,156
   24034:	203fed1e 	bne	r4,zero,23fec <___vfprintf_internal_r+0x730>
   24038:	e019883a 	mov	r12,fp
   2403c:	10800044 	addi	r2,r2,1
   24040:	1c47883a 	add	r3,r3,r17
   24044:	d8801b15 	stw	r2,108(sp)
   24048:	b3000015 	stw	r12,0(r22)
   2404c:	b4400115 	stw	r17,4(r22)
   24050:	d8c01c15 	stw	r3,112(sp)
   24054:	10800210 	cmplti	r2,r2,8
   24058:	103f1b1e 	bne	r2,zero,23cc8 <___vfprintf_internal_r+0x40c>
   2405c:	d9801a04 	addi	r6,sp,104
   24060:	900b883a 	mov	r5,r18
   24064:	9809883a 	mov	r4,r19
   24068:	002a72c0 	call	2a72c <__sprint_r>
   2406c:	103f221e 	bne	r2,zero,23cf8 <___vfprintf_internal_r+0x43c>
   24070:	d8c01c17 	ldw	r3,112(sp)
   24074:	003f1406 	br	23cc8 <___vfprintf_internal_r+0x40c>
   24078:	9809883a 	mov	r4,r19
   2407c:	0027bc80 	call	27bc8 <__sinit>
   24080:	003e2606 	br	2391c <___vfprintf_internal_r+0x60>
   24084:	21003fcc 	andi	r4,r4,255
   24088:	2005db1e 	bne	r4,zero,257f8 <___vfprintf_internal_r+0x1f3c>
   2408c:	6080080c 	andi	r2,r12,32
   24090:	10007026 	beq	r2,zero,24254 <___vfprintf_internal_r+0x998>
   24094:	d8c00617 	ldw	r3,24(sp)
   24098:	18800117 	ldw	r2,4(r3)
   2409c:	1d000017 	ldw	r20,0(r3)
   240a0:	18c00204 	addi	r3,r3,8
   240a4:	d8c00615 	stw	r3,24(sp)
   240a8:	102b883a 	mov	r21,r2
   240ac:	10007516 	blt	r2,zero,24284 <___vfprintf_internal_r+0x9c8>
   240b0:	40bfffd8 	cmpnei	r2,r8,-1
   240b4:	10034a26 	beq	r2,zero,24de0 <___vfprintf_internal_r+0x1524>
   240b8:	047fdfc4 	movi	r17,-129
   240bc:	6446703a 	and	r3,r12,r17
   240c0:	a544b03a 	or	r2,r20,r21
   240c4:	d8c00415 	stw	r3,16(sp)
   240c8:	db401343 	ldbu	r13,77(sp)
   240cc:	1002ee26 	beq	r2,zero,24c88 <___vfprintf_internal_r+0x13cc>
   240d0:	db000417 	ldw	r12,16(sp)
   240d4:	a803441e 	bne	r21,zero,24de8 <___vfprintf_internal_r+0x152c>
   240d8:	a08002a8 	cmpgeui	r2,r20,10
   240dc:	1003421e 	bne	r2,zero,24de8 <___vfprintf_internal_r+0x152c>
   240e0:	a5000c04 	addi	r20,r20,48
   240e4:	dd0026c5 	stb	r20,155(sp)
   240e8:	db000415 	stw	r12,16(sp)
   240ec:	05400044 	movi	r21,1
   240f0:	dc4026c4 	addi	r17,sp,155
   240f4:	00008b06 	br	24324 <___vfprintf_internal_r+0xa68>
   240f8:	bac00007 	ldb	r11,0(r23)
   240fc:	63001014 	ori	r12,r12,64
   24100:	003e3a06 	br	239ec <___vfprintf_internal_r+0x130>
   24104:	21003fcc 	andi	r4,r4,255
   24108:	2005c11e 	bne	r4,zero,25810 <___vfprintf_internal_r+0x1f54>
   2410c:	008000f4 	movhi	r2,3
   24110:	108dca04 	addi	r2,r2,14120
   24114:	d8800c15 	stw	r2,48(sp)
   24118:	6080080c 	andi	r2,r12,32
   2411c:	1000d726 	beq	r2,zero,2447c <___vfprintf_internal_r+0xbc0>
   24120:	d8800617 	ldw	r2,24(sp)
   24124:	15000017 	ldw	r20,0(r2)
   24128:	15400117 	ldw	r21,4(r2)
   2412c:	10800204 	addi	r2,r2,8
   24130:	d8800615 	stw	r2,24(sp)
   24134:	6080004c 	andi	r2,r12,1
   24138:	10000226 	beq	r2,zero,24144 <___vfprintf_internal_r+0x888>
   2413c:	a544b03a 	or	r2,r20,r21
   24140:	1003091e 	bne	r2,zero,24d68 <___vfprintf_internal_r+0x14ac>
   24144:	00800084 	movi	r2,2
   24148:	003f1f06 	br	23dc8 <___vfprintf_internal_r+0x50c>
   2414c:	d8800617 	ldw	r2,24(sp)
   24150:	d8001345 	stb	zero,77(sp)
   24154:	14400017 	ldw	r17,0(r2)
   24158:	10c00104 	addi	r3,r2,4
   2415c:	88037726 	beq	r17,zero,24f3c <___vfprintf_internal_r+0x1680>
   24160:	40bfffe0 	cmpeqi	r2,r8,-1
   24164:	1004661e 	bne	r2,zero,25300 <___vfprintf_internal_r+0x1a44>
   24168:	400d883a 	mov	r6,r8
   2416c:	000b883a 	mov	r5,zero
   24170:	8809883a 	mov	r4,r17
   24174:	d8c00715 	stw	r3,28(sp)
   24178:	db000615 	stw	r12,24(sp)
   2417c:	da000415 	stw	r8,16(sp)
   24180:	0028fc40 	call	28fc4 <memchr>
   24184:	da000417 	ldw	r8,16(sp)
   24188:	db000617 	ldw	r12,24(sp)
   2418c:	d8c00717 	ldw	r3,28(sp)
   24190:	10058926 	beq	r2,zero,257b8 <___vfprintf_internal_r+0x1efc>
   24194:	146bc83a 	sub	r21,r2,r17
   24198:	a829883a 	mov	r20,r21
   2419c:	d8c00615 	stw	r3,24(sp)
   241a0:	003e8b06 	br	23bd0 <___vfprintf_internal_r+0x314>
   241a4:	bac00007 	ldb	r11,0(r23)
   241a8:	63000814 	ori	r12,r12,32
   241ac:	003e0f06 	br	239ec <___vfprintf_internal_r+0x130>
   241b0:	d8c00617 	ldw	r3,24(sp)
   241b4:	00800c04 	movi	r2,48
   241b8:	d8801385 	stb	r2,78(sp)
   241bc:	00801e04 	movi	r2,120
   241c0:	010000f4 	movhi	r4,3
   241c4:	d88013c5 	stb	r2,79(sp)
   241c8:	18800104 	addi	r2,r3,4
   241cc:	d8800615 	stw	r2,24(sp)
   241d0:	208dca04 	addi	r2,r4,14120
   241d4:	d8800c15 	stw	r2,48(sp)
   241d8:	1d000017 	ldw	r20,0(r3)
   241dc:	002b883a 	mov	r21,zero
   241e0:	63000094 	ori	r12,r12,2
   241e4:	00800084 	movi	r2,2
   241e8:	07001e04 	movi	fp,120
   241ec:	003ef606 	br	23dc8 <___vfprintf_internal_r+0x50c>
   241f0:	21003fcc 	andi	r4,r4,255
   241f4:	2005881e 	bne	r4,zero,25818 <___vfprintf_internal_r+0x1f5c>
   241f8:	d9000617 	ldw	r4,24(sp)
   241fc:	6080080c 	andi	r2,r12,32
   24200:	20c00017 	ldw	r3,0(r4)
   24204:	21000104 	addi	r4,r4,4
   24208:	d9000615 	stw	r4,24(sp)
   2420c:	1002d11e 	bne	r2,zero,24d54 <___vfprintf_internal_r+0x1498>
   24210:	6080040c 	andi	r2,r12,16
   24214:	10036f1e 	bne	r2,zero,24fd4 <___vfprintf_internal_r+0x1718>
   24218:	6300100c 	andi	r12,r12,64
   2421c:	60036d26 	beq	r12,zero,24fd4 <___vfprintf_internal_r+0x1718>
   24220:	d8800517 	ldw	r2,20(sp)
   24224:	1880000d 	sth	r2,0(r3)
   24228:	003dd806 	br	2398c <___vfprintf_internal_r+0xd0>
   2422c:	bac00007 	ldb	r11,0(r23)
   24230:	58801b18 	cmpnei	r2,r11,108
   24234:	10033026 	beq	r2,zero,24ef8 <___vfprintf_internal_r+0x163c>
   24238:	63000414 	ori	r12,r12,16
   2423c:	003deb06 	br	239ec <___vfprintf_internal_r+0x130>
   24240:	21003fcc 	andi	r4,r4,255
   24244:	2005701e 	bne	r4,zero,25808 <___vfprintf_internal_r+0x1f4c>
   24248:	63000414 	ori	r12,r12,16
   2424c:	6080080c 	andi	r2,r12,32
   24250:	103f901e 	bne	r2,zero,24094 <___vfprintf_internal_r+0x7d8>
   24254:	d9000617 	ldw	r4,24(sp)
   24258:	6080040c 	andi	r2,r12,16
   2425c:	20c00104 	addi	r3,r4,4
   24260:	1002d51e 	bne	r2,zero,24db8 <___vfprintf_internal_r+0x14fc>
   24264:	6080100c 	andi	r2,r12,64
   24268:	1004a726 	beq	r2,zero,25508 <___vfprintf_internal_r+0x1c4c>
   2426c:	d8800617 	ldw	r2,24(sp)
   24270:	d8c00615 	stw	r3,24(sp)
   24274:	1500000f 	ldh	r20,0(r2)
   24278:	a02bd7fa 	srai	r21,r20,31
   2427c:	a805883a 	mov	r2,r21
   24280:	103f8b0e 	bge	r2,zero,240b0 <___vfprintf_internal_r+0x7f4>
   24284:	a004c03a 	cmpne	r2,r20,zero
   24288:	056bc83a 	sub	r21,zero,r21
   2428c:	a8abc83a 	sub	r21,r21,r2
   24290:	00800b44 	movi	r2,45
   24294:	d8801345 	stb	r2,77(sp)
   24298:	40ffffe0 	cmpeqi	r3,r8,-1
   2429c:	0529c83a 	sub	r20,zero,r20
   242a0:	03400b44 	movi	r13,45
   242a4:	00800044 	movi	r2,1
   242a8:	183ecb26 	beq	r3,zero,23dd8 <___vfprintf_internal_r+0x51c>
   242ac:	10c00060 	cmpeqi	r3,r2,1
   242b0:	183f881e 	bne	r3,zero,240d4 <___vfprintf_internal_r+0x818>
   242b4:	108000a0 	cmpeqi	r2,r2,2
   242b8:	1001311e 	bne	r2,zero,24780 <___vfprintf_internal_r+0xec4>
   242bc:	dc402704 	addi	r17,sp,156
   242c0:	a004d0fa 	srli	r2,r20,3
   242c4:	a806977a 	slli	r3,r21,29
   242c8:	a82ad0fa 	srli	r21,r21,3
   242cc:	a50001cc 	andi	r20,r20,7
   242d0:	a1000c04 	addi	r4,r20,48
   242d4:	18a8b03a 	or	r20,r3,r2
   242d8:	893fffc5 	stb	r4,-1(r17)
   242dc:	a544b03a 	or	r2,r20,r21
   242e0:	880b883a 	mov	r5,r17
   242e4:	8c7fffc4 	addi	r17,r17,-1
   242e8:	103ff51e 	bne	r2,zero,242c0 <___vfprintf_internal_r+0xa04>
   242ec:	6080004c 	andi	r2,r12,1
   242f0:	10013026 	beq	r2,zero,247b4 <___vfprintf_internal_r+0xef8>
   242f4:	21003fcc 	andi	r4,r4,255
   242f8:	2100201c 	xori	r4,r4,128
   242fc:	213fe004 	addi	r4,r4,-128
   24300:	20800c18 	cmpnei	r2,r4,48
   24304:	10012b26 	beq	r2,zero,247b4 <___vfprintf_internal_r+0xef8>
   24308:	00800c04 	movi	r2,48
   2430c:	297fff84 	addi	r5,r5,-2
   24310:	88bfffc5 	stb	r2,-1(r17)
   24314:	d8802704 	addi	r2,sp,156
   24318:	116bc83a 	sub	r21,r2,r5
   2431c:	db000415 	stw	r12,16(sp)
   24320:	2823883a 	mov	r17,r5
   24324:	4029883a 	mov	r20,r8
   24328:	4540010e 	bge	r8,r21,24330 <___vfprintf_internal_r+0xa74>
   2432c:	a829883a 	mov	r20,r21
   24330:	d8000715 	stw	zero,28(sp)
   24334:	6b403fcc 	andi	r13,r13,255
   24338:	6b40201c 	xori	r13,r13,128
   2433c:	6b7fe004 	addi	r13,r13,-128
   24340:	683e2626 	beq	r13,zero,23bdc <___vfprintf_internal_r+0x320>
   24344:	a5000044 	addi	r20,r20,1
   24348:	003e2406 	br	23bdc <___vfprintf_internal_r+0x320>
   2434c:	bac00007 	ldb	r11,0(r23)
   24350:	63002014 	ori	r12,r12,128
   24354:	003da506 	br	239ec <___vfprintf_internal_r+0x130>
   24358:	bf000007 	ldb	fp,0(r23)
   2435c:	b8800044 	addi	r2,r23,1
   24360:	e0c00aa0 	cmpeqi	r3,fp,42
   24364:	1805841e 	bne	r3,zero,25978 <___vfprintf_internal_r+0x20bc>
   24368:	e0fff404 	addi	r3,fp,-48
   2436c:	198002b0 	cmpltui	r6,r3,10
   24370:	102f883a 	mov	r23,r2
   24374:	0011883a 	mov	r8,zero
   24378:	303d9e26 	beq	r6,zero,239f4 <___vfprintf_internal_r+0x138>
   2437c:	400490ba 	slli	r2,r8,2
   24380:	bf000007 	ldb	fp,0(r23)
   24384:	bdc00044 	addi	r23,r23,1
   24388:	1211883a 	add	r8,r2,r8
   2438c:	4211883a 	add	r8,r8,r8
   24390:	40d1883a 	add	r8,r8,r3
   24394:	e0fff404 	addi	r3,fp,-48
   24398:	188002b0 	cmpltui	r2,r3,10
   2439c:	103ff71e 	bne	r2,zero,2437c <___vfprintf_internal_r+0xac0>
   243a0:	003d9406 	br	239f4 <___vfprintf_internal_r+0x138>
   243a4:	bf000003 	ldbu	fp,0(r23)
   243a8:	e2c03fcc 	andi	r11,fp,255
   243ac:	5ac0201c 	xori	r11,r11,128
   243b0:	63000114 	ori	r12,r12,4
   243b4:	5affe004 	addi	r11,r11,-128
   243b8:	003d8c06 	br	239ec <___vfprintf_internal_r+0x130>
   243bc:	bac00007 	ldb	r11,0(r23)
   243c0:	01000044 	movi	r4,1
   243c4:	01400ac4 	movi	r5,43
   243c8:	003d8806 	br	239ec <___vfprintf_internal_r+0x130>
   243cc:	d8800617 	ldw	r2,24(sp)
   243d0:	bf000003 	ldbu	fp,0(r23)
   243d4:	14000017 	ldw	r16,0(r2)
   243d8:	10800104 	addi	r2,r2,4
   243dc:	8002aa16 	blt	r16,zero,24e88 <___vfprintf_internal_r+0x15cc>
   243e0:	d8800615 	stw	r2,24(sp)
   243e4:	e2c03fcc 	andi	r11,fp,255
   243e8:	5ac0201c 	xori	r11,r11,128
   243ec:	5affe004 	addi	r11,r11,-128
   243f0:	003d7e06 	br	239ec <___vfprintf_internal_r+0x130>
   243f4:	bac00007 	ldb	r11,0(r23)
   243f8:	63000054 	ori	r12,r12,1
   243fc:	003d7b06 	br	239ec <___vfprintf_internal_r+0x130>
   24400:	28803fcc 	andi	r2,r5,255
   24404:	1080201c 	xori	r2,r2,128
   24408:	10bfe004 	addi	r2,r2,-128
   2440c:	bf000003 	ldbu	fp,0(r23)
   24410:	103ff41e 	bne	r2,zero,243e4 <___vfprintf_internal_r+0xb28>
   24414:	e2c03fcc 	andi	r11,fp,255
   24418:	5ac0201c 	xori	r11,r11,128
   2441c:	01000044 	movi	r4,1
   24420:	01400804 	movi	r5,32
   24424:	5affe004 	addi	r11,r11,-128
   24428:	003d7006 	br	239ec <___vfprintf_internal_r+0x130>
   2442c:	bac00007 	ldb	r11,0(r23)
   24430:	63000214 	ori	r12,r12,8
   24434:	003d6d06 	br	239ec <___vfprintf_internal_r+0x130>
   24438:	d8c00617 	ldw	r3,24(sp)
   2443c:	d8001345 	stb	zero,77(sp)
   24440:	05000044 	movi	r20,1
   24444:	18800017 	ldw	r2,0(r3)
   24448:	18c00104 	addi	r3,r3,4
   2444c:	d8c00615 	stw	r3,24(sp)
   24450:	d8801d05 	stb	r2,116(sp)
   24454:	05400044 	movi	r21,1
   24458:	dc401d04 	addi	r17,sp,116
   2445c:	003ddc06 	br	23bd0 <___vfprintf_internal_r+0x314>
   24460:	21003fcc 	andi	r4,r4,255
   24464:	2004e61e 	bne	r4,zero,25800 <___vfprintf_internal_r+0x1f44>
   24468:	008000f4 	movhi	r2,3
   2446c:	108dc504 	addi	r2,r2,14100
   24470:	d8800c15 	stw	r2,48(sp)
   24474:	6080080c 	andi	r2,r12,32
   24478:	103f291e 	bne	r2,zero,24120 <___vfprintf_internal_r+0x864>
   2447c:	d9000617 	ldw	r4,24(sp)
   24480:	6080040c 	andi	r2,r12,16
   24484:	20c00104 	addi	r3,r4,4
   24488:	10023d1e 	bne	r2,zero,24d80 <___vfprintf_internal_r+0x14c4>
   2448c:	6080100c 	andi	r2,r12,64
   24490:	10042f26 	beq	r2,zero,25550 <___vfprintf_internal_r+0x1c94>
   24494:	d8800617 	ldw	r2,24(sp)
   24498:	002b883a 	mov	r21,zero
   2449c:	d8c00615 	stw	r3,24(sp)
   244a0:	1500000b 	ldhu	r20,0(r2)
   244a4:	003f2306 	br	24134 <___vfprintf_internal_r+0x878>
   244a8:	e2c01990 	cmplti	r11,fp,102
   244ac:	5800f61e 	bne	r11,zero,24888 <___vfprintf_internal_r+0xfcc>
   244b0:	d9000917 	ldw	r4,36(sp)
   244b4:	d9400a17 	ldw	r5,40(sp)
   244b8:	000d883a 	mov	r6,zero
   244bc:	000f883a 	mov	r7,zero
   244c0:	d8c00e15 	stw	r3,56(sp)
   244c4:	002f4c40 	call	2f4c4 <__eqdf2>
   244c8:	d8c00e17 	ldw	r3,56(sp)
   244cc:	1001881e 	bne	r2,zero,24af0 <___vfprintf_internal_r+0x1234>
   244d0:	d8801b17 	ldw	r2,108(sp)
   244d4:	010000f4 	movhi	r4,3
   244d8:	210dd104 	addi	r4,r4,14148
   244dc:	10800044 	addi	r2,r2,1
   244e0:	18c00044 	addi	r3,r3,1
   244e4:	b1000015 	stw	r4,0(r22)
   244e8:	01000044 	movi	r4,1
   244ec:	d8801b15 	stw	r2,108(sp)
   244f0:	b1000115 	stw	r4,4(r22)
   244f4:	d8c01c15 	stw	r3,112(sp)
   244f8:	10800208 	cmpgei	r2,r2,8
   244fc:	10036e1e 	bne	r2,zero,252b8 <___vfprintf_internal_r+0x19fc>
   24500:	b5800204 	addi	r22,r22,8
   24504:	d8801417 	ldw	r2,80(sp)
   24508:	d9000817 	ldw	r4,32(sp)
   2450c:	11020b0e 	bge	r2,r4,24d3c <___vfprintf_internal_r+0x1480>
   24510:	d8800d17 	ldw	r2,52(sp)
   24514:	d9000b17 	ldw	r4,44(sp)
   24518:	b0800015 	stw	r2,0(r22)
   2451c:	d8801b17 	ldw	r2,108(sp)
   24520:	1907883a 	add	r3,r3,r4
   24524:	b1000115 	stw	r4,4(r22)
   24528:	10800044 	addi	r2,r2,1
   2452c:	d8801b15 	stw	r2,108(sp)
   24530:	d8c01c15 	stw	r3,112(sp)
   24534:	10800208 	cmpgei	r2,r2,8
   24538:	1002761e 	bne	r2,zero,24f14 <___vfprintf_internal_r+0x1658>
   2453c:	b5800204 	addi	r22,r22,8
   24540:	d8800817 	ldw	r2,32(sp)
   24544:	157fffc4 	addi	r21,r2,-1
   24548:	057dda0e 	bge	zero,r21,23cb4 <___vfprintf_internal_r+0x3f8>
   2454c:	01c000f4 	movhi	r7,3
   24550:	a9000450 	cmplti	r4,r21,17
   24554:	d8801b17 	ldw	r2,108(sp)
   24558:	39cdd204 	addi	r7,r7,14152
   2455c:	2003521e 	bne	r4,zero,252a8 <___vfprintf_internal_r+0x19ec>
   24560:	07000404 	movi	fp,16
   24564:	3823883a 	mov	r17,r7
   24568:	00000406 	br	2457c <___vfprintf_internal_r+0xcc0>
   2456c:	b5800204 	addi	r22,r22,8
   24570:	ad7ffc04 	addi	r21,r21,-16
   24574:	a9000448 	cmpgei	r4,r21,17
   24578:	20034a26 	beq	r4,zero,252a4 <___vfprintf_internal_r+0x19e8>
   2457c:	10800044 	addi	r2,r2,1
   24580:	18c00404 	addi	r3,r3,16
   24584:	b4400015 	stw	r17,0(r22)
   24588:	b7000115 	stw	fp,4(r22)
   2458c:	d8c01c15 	stw	r3,112(sp)
   24590:	d8801b15 	stw	r2,108(sp)
   24594:	11000208 	cmpgei	r4,r2,8
   24598:	203ff426 	beq	r4,zero,2456c <___vfprintf_internal_r+0xcb0>
   2459c:	d9801a04 	addi	r6,sp,104
   245a0:	900b883a 	mov	r5,r18
   245a4:	9809883a 	mov	r4,r19
   245a8:	002a72c0 	call	2a72c <__sprint_r>
   245ac:	103dd21e 	bne	r2,zero,23cf8 <___vfprintf_internal_r+0x43c>
   245b0:	d8c01c17 	ldw	r3,112(sp)
   245b4:	d8801b17 	ldw	r2,108(sp)
   245b8:	dd802704 	addi	r22,sp,156
   245bc:	003fec06 	br	24570 <___vfprintf_internal_r+0xcb4>
   245c0:	8519c83a 	sub	r12,r16,r20
   245c4:	033dac0e 	bge	zero,r12,23c78 <___vfprintf_internal_r+0x3bc>
   245c8:	01c000f4 	movhi	r7,3
   245cc:	61000450 	cmplti	r4,r12,17
   245d0:	d8801b17 	ldw	r2,108(sp)
   245d4:	39cdd204 	addi	r7,r7,14152
   245d8:	2000281e 	bne	r4,zero,2467c <___vfprintf_internal_r+0xdc0>
   245dc:	dc400e15 	stw	r17,56(sp)
   245e0:	dc000f15 	stw	r16,60(sp)
   245e4:	b009883a 	mov	r4,r22
   245e8:	03400404 	movi	r13,16
   245ec:	a02d883a 	mov	r22,r20
   245f0:	6021883a 	mov	r16,r12
   245f4:	4029883a 	mov	r20,r8
   245f8:	3823883a 	mov	r17,r7
   245fc:	00000406 	br	24610 <___vfprintf_internal_r+0xd54>
   24600:	843ffc04 	addi	r16,r16,-16
   24604:	81400448 	cmpgei	r5,r16,17
   24608:	21000204 	addi	r4,r4,8
   2460c:	28001426 	beq	r5,zero,24660 <___vfprintf_internal_r+0xda4>
   24610:	10800044 	addi	r2,r2,1
   24614:	18c00404 	addi	r3,r3,16
   24618:	24400015 	stw	r17,0(r4)
   2461c:	23400115 	stw	r13,4(r4)
   24620:	d8c01c15 	stw	r3,112(sp)
   24624:	d8801b15 	stw	r2,108(sp)
   24628:	11400208 	cmpgei	r5,r2,8
   2462c:	283ff426 	beq	r5,zero,24600 <___vfprintf_internal_r+0xd44>
   24630:	d9801a04 	addi	r6,sp,104
   24634:	900b883a 	mov	r5,r18
   24638:	9809883a 	mov	r4,r19
   2463c:	002a72c0 	call	2a72c <__sprint_r>
   24640:	103dad1e 	bne	r2,zero,23cf8 <___vfprintf_internal_r+0x43c>
   24644:	843ffc04 	addi	r16,r16,-16
   24648:	81400448 	cmpgei	r5,r16,17
   2464c:	d8c01c17 	ldw	r3,112(sp)
   24650:	d8801b17 	ldw	r2,108(sp)
   24654:	d9002704 	addi	r4,sp,156
   24658:	03400404 	movi	r13,16
   2465c:	283fec1e 	bne	r5,zero,24610 <___vfprintf_internal_r+0xd54>
   24660:	8019883a 	mov	r12,r16
   24664:	880f883a 	mov	r7,r17
   24668:	dc000f17 	ldw	r16,60(sp)
   2466c:	dc400e17 	ldw	r17,56(sp)
   24670:	a011883a 	mov	r8,r20
   24674:	b029883a 	mov	r20,r22
   24678:	202d883a 	mov	r22,r4
   2467c:	10800044 	addi	r2,r2,1
   24680:	1b07883a 	add	r3,r3,r12
   24684:	d8801b15 	stw	r2,108(sp)
   24688:	b1c00015 	stw	r7,0(r22)
   2468c:	b3000115 	stw	r12,4(r22)
   24690:	d8c01c15 	stw	r3,112(sp)
   24694:	10800208 	cmpgei	r2,r2,8
   24698:	10030f1e 	bne	r2,zero,252d8 <___vfprintf_internal_r+0x1a1c>
   2469c:	4551c83a 	sub	r8,r8,r21
   246a0:	b5800204 	addi	r22,r22,8
   246a4:	023d760e 	bge	zero,r8,23c80 <___vfprintf_internal_r+0x3c4>
   246a8:	01c000f4 	movhi	r7,3
   246ac:	41000450 	cmplti	r4,r8,17
   246b0:	d8801b17 	ldw	r2,108(sp)
   246b4:	39cdd204 	addi	r7,r7,14152
   246b8:	2000221e 	bne	r4,zero,24744 <___vfprintf_internal_r+0xe88>
   246bc:	dc400e15 	stw	r17,56(sp)
   246c0:	dc000f15 	stw	r16,60(sp)
   246c4:	03000404 	movi	r12,16
   246c8:	4021883a 	mov	r16,r8
   246cc:	3823883a 	mov	r17,r7
   246d0:	00000406 	br	246e4 <___vfprintf_internal_r+0xe28>
   246d4:	843ffc04 	addi	r16,r16,-16
   246d8:	81000448 	cmpgei	r4,r16,17
   246dc:	b5800204 	addi	r22,r22,8
   246e0:	20001426 	beq	r4,zero,24734 <___vfprintf_internal_r+0xe78>
   246e4:	10800044 	addi	r2,r2,1
   246e8:	18c00404 	addi	r3,r3,16
   246ec:	b4400015 	stw	r17,0(r22)
   246f0:	b3000115 	stw	r12,4(r22)
   246f4:	d8c01c15 	stw	r3,112(sp)
   246f8:	d8801b15 	stw	r2,108(sp)
   246fc:	11000208 	cmpgei	r4,r2,8
   24700:	203ff426 	beq	r4,zero,246d4 <___vfprintf_internal_r+0xe18>
   24704:	d9801a04 	addi	r6,sp,104
   24708:	900b883a 	mov	r5,r18
   2470c:	9809883a 	mov	r4,r19
   24710:	002a72c0 	call	2a72c <__sprint_r>
   24714:	103d781e 	bne	r2,zero,23cf8 <___vfprintf_internal_r+0x43c>
   24718:	843ffc04 	addi	r16,r16,-16
   2471c:	81000448 	cmpgei	r4,r16,17
   24720:	d8c01c17 	ldw	r3,112(sp)
   24724:	d8801b17 	ldw	r2,108(sp)
   24728:	dd802704 	addi	r22,sp,156
   2472c:	03000404 	movi	r12,16
   24730:	203fec1e 	bne	r4,zero,246e4 <___vfprintf_internal_r+0xe28>
   24734:	8011883a 	mov	r8,r16
   24738:	880f883a 	mov	r7,r17
   2473c:	dc000f17 	ldw	r16,60(sp)
   24740:	dc400e17 	ldw	r17,56(sp)
   24744:	10800044 	addi	r2,r2,1
   24748:	1a07883a 	add	r3,r3,r8
   2474c:	d8801b15 	stw	r2,108(sp)
   24750:	b1c00015 	stw	r7,0(r22)
   24754:	b2000115 	stw	r8,4(r22)
   24758:	d8c01c15 	stw	r3,112(sp)
   2475c:	10800208 	cmpgei	r2,r2,8
   24760:	10016e1e 	bne	r2,zero,24d1c <___vfprintf_internal_r+0x1460>
   24764:	b5800204 	addi	r22,r22,8
   24768:	003d4506 	br	23c80 <___vfprintf_internal_r+0x3c4>
   2476c:	10c00060 	cmpeqi	r3,r2,1
   24770:	1803c81e 	bne	r3,zero,25694 <___vfprintf_internal_r+0x1dd8>
   24774:	108000a0 	cmpeqi	r2,r2,2
   24778:	db000417 	ldw	r12,16(sp)
   2477c:	103ecf26 	beq	r2,zero,242bc <___vfprintf_internal_r+0xa00>
   24780:	d9000c17 	ldw	r4,48(sp)
   24784:	dc402704 	addi	r17,sp,156
   24788:	a08003cc 	andi	r2,r20,15
   2478c:	a806973a 	slli	r3,r21,28
   24790:	a028d13a 	srli	r20,r20,4
   24794:	2085883a 	add	r2,r4,r2
   24798:	10800003 	ldbu	r2,0(r2)
   2479c:	a82ad13a 	srli	r21,r21,4
   247a0:	1d28b03a 	or	r20,r3,r20
   247a4:	88bfffc5 	stb	r2,-1(r17)
   247a8:	a544b03a 	or	r2,r20,r21
   247ac:	8c7fffc4 	addi	r17,r17,-1
   247b0:	103ff51e 	bne	r2,zero,24788 <___vfprintf_internal_r+0xecc>
   247b4:	d8802704 	addi	r2,sp,156
   247b8:	146bc83a 	sub	r21,r2,r17
   247bc:	db000415 	stw	r12,16(sp)
   247c0:	003ed806 	br	24324 <___vfprintf_internal_r+0xa68>
   247c4:	d9801a04 	addi	r6,sp,104
   247c8:	900b883a 	mov	r5,r18
   247cc:	9809883a 	mov	r4,r19
   247d0:	002a72c0 	call	2a72c <__sprint_r>
   247d4:	103d4226 	beq	r2,zero,23ce0 <___vfprintf_internal_r+0x424>
   247d8:	003d4706 	br	23cf8 <___vfprintf_internal_r+0x43c>
   247dc:	d9801a04 	addi	r6,sp,104
   247e0:	900b883a 	mov	r5,r18
   247e4:	9809883a 	mov	r4,r19
   247e8:	002a72c0 	call	2a72c <__sprint_r>
   247ec:	103d421e 	bne	r2,zero,23cf8 <___vfprintf_internal_r+0x43c>
   247f0:	d9401417 	ldw	r5,80(sp)
   247f4:	d8c01c17 	ldw	r3,112(sp)
   247f8:	dd802704 	addi	r22,sp,156
   247fc:	2802c81e 	bne	r5,zero,25320 <___vfprintf_internal_r+0x1a64>
   24800:	d8800417 	ldw	r2,16(sp)
   24804:	d9000817 	ldw	r4,32(sp)
   24808:	1080004c 	andi	r2,r2,1
   2480c:	1104b03a 	or	r2,r2,r4
   24810:	103d2826 	beq	r2,zero,23cb4 <___vfprintf_internal_r+0x3f8>
   24814:	d8800d17 	ldw	r2,52(sp)
   24818:	d9000b17 	ldw	r4,44(sp)
   2481c:	b0800015 	stw	r2,0(r22)
   24820:	d8801b17 	ldw	r2,108(sp)
   24824:	20c7883a 	add	r3,r4,r3
   24828:	b1000115 	stw	r4,4(r22)
   2482c:	10800044 	addi	r2,r2,1
   24830:	d8c01c15 	stw	r3,112(sp)
   24834:	d8801b15 	stw	r2,108(sp)
   24838:	11000208 	cmpgei	r4,r2,8
   2483c:	2003821e 	bne	r4,zero,25648 <___vfprintf_internal_r+0x1d8c>
   24840:	b5800204 	addi	r22,r22,8
   24844:	d9000817 	ldw	r4,32(sp)
   24848:	10800044 	addi	r2,r2,1
   2484c:	d8801b15 	stw	r2,108(sp)
   24850:	20c7883a 	add	r3,r4,r3
   24854:	b4400015 	stw	r17,0(r22)
   24858:	b1000115 	stw	r4,4(r22)
   2485c:	d8c01c15 	stw	r3,112(sp)
   24860:	10800208 	cmpgei	r2,r2,8
   24864:	103d1226 	beq	r2,zero,23cb0 <___vfprintf_internal_r+0x3f4>
   24868:	d9801a04 	addi	r6,sp,104
   2486c:	900b883a 	mov	r5,r18
   24870:	9809883a 	mov	r4,r19
   24874:	002a72c0 	call	2a72c <__sprint_r>
   24878:	103d1f1e 	bne	r2,zero,23cf8 <___vfprintf_internal_r+0x43c>
   2487c:	d8c01c17 	ldw	r3,112(sp)
   24880:	dd802704 	addi	r22,sp,156
   24884:	003d0b06 	br	23cb4 <___vfprintf_internal_r+0x3f8>
   24888:	d8800817 	ldw	r2,32(sp)
   2488c:	da001b17 	ldw	r8,108(sp)
   24890:	18c00044 	addi	r3,r3,1
   24894:	10800088 	cmpgei	r2,r2,2
   24898:	45400044 	addi	r21,r8,1
   2489c:	b7000204 	addi	fp,r22,8
   248a0:	1000ec26 	beq	r2,zero,24c54 <___vfprintf_internal_r+0x1398>
   248a4:	00800044 	movi	r2,1
   248a8:	b0800115 	stw	r2,4(r22)
   248ac:	b4400015 	stw	r17,0(r22)
   248b0:	d8c01c15 	stw	r3,112(sp)
   248b4:	dd401b15 	stw	r21,108(sp)
   248b8:	a8800210 	cmplti	r2,r21,8
   248bc:	1001d126 	beq	r2,zero,25004 <___vfprintf_internal_r+0x1748>
   248c0:	d8800b17 	ldw	r2,44(sp)
   248c4:	d9000d17 	ldw	r4,52(sp)
   248c8:	ad400044 	addi	r21,r21,1
   248cc:	1887883a 	add	r3,r3,r2
   248d0:	e0800115 	stw	r2,4(fp)
   248d4:	e1000015 	stw	r4,0(fp)
   248d8:	d8c01c15 	stw	r3,112(sp)
   248dc:	dd401b15 	stw	r21,108(sp)
   248e0:	a8800208 	cmpgei	r2,r21,8
   248e4:	1001be1e 	bne	r2,zero,24fe0 <___vfprintf_internal_r+0x1724>
   248e8:	e7000204 	addi	fp,fp,8
   248ec:	d9000917 	ldw	r4,36(sp)
   248f0:	d9400a17 	ldw	r5,40(sp)
   248f4:	aa000044 	addi	r8,r21,1
   248f8:	000d883a 	mov	r6,zero
   248fc:	000f883a 	mov	r7,zero
   24900:	d8c00e15 	stw	r3,56(sp)
   24904:	da000715 	stw	r8,28(sp)
   24908:	002f4c40 	call	2f4c4 <__eqdf2>
   2490c:	d8c00817 	ldw	r3,32(sp)
   24910:	da000717 	ldw	r8,28(sp)
   24914:	e5800204 	addi	r22,fp,8
   24918:	1affffc4 	addi	r11,r3,-1
   2491c:	d8c00e17 	ldw	r3,56(sp)
   24920:	1000de26 	beq	r2,zero,24c9c <___vfprintf_internal_r+0x13e0>
   24924:	8a400044 	addi	r9,r17,1
   24928:	1ac7883a 	add	r3,r3,r11
   2492c:	da001b15 	stw	r8,108(sp)
   24930:	e2400015 	stw	r9,0(fp)
   24934:	e2c00115 	stw	r11,4(fp)
   24938:	d8c01c15 	stw	r3,112(sp)
   2493c:	42000208 	cmpgei	r8,r8,8
   24940:	4001621e 	bne	r8,zero,24ecc <___vfprintf_internal_r+0x1610>
   24944:	e0800404 	addi	r2,fp,16
   24948:	aa000084 	addi	r8,r21,2
   2494c:	b039883a 	mov	fp,r22
   24950:	102d883a 	mov	r22,r2
   24954:	d9001017 	ldw	r4,64(sp)
   24958:	d8801644 	addi	r2,sp,89
   2495c:	da001b15 	stw	r8,108(sp)
   24960:	20c7883a 	add	r3,r4,r3
   24964:	e0800015 	stw	r2,0(fp)
   24968:	e1000115 	stw	r4,4(fp)
   2496c:	d8c01c15 	stw	r3,112(sp)
   24970:	42000210 	cmplti	r8,r8,8
   24974:	403ccf1e 	bne	r8,zero,23cb4 <___vfprintf_internal_r+0x3f8>
   24978:	003fbb06 	br	24868 <___vfprintf_internal_r+0xfac>
   2497c:	db000417 	ldw	r12,16(sp)
   24980:	003e4a06 	br	242ac <___vfprintf_internal_r+0x9f0>
   24984:	030000f4 	movhi	r12,3
   24988:	39000450 	cmplti	r4,r7,17
   2498c:	d8801b17 	ldw	r2,108(sp)
   24990:	630dd604 	addi	r12,r12,14168
   24994:	2000321e 	bne	r4,zero,24a60 <___vfprintf_internal_r+0x11a4>
   24998:	dc401115 	stw	r17,68(sp)
   2499c:	b009883a 	mov	r4,r22
   249a0:	9023883a 	mov	r17,r18
   249a4:	a82d883a 	mov	r22,r21
   249a8:	ddc01215 	stw	r23,72(sp)
   249ac:	03c00404 	movi	r15,16
   249b0:	a02f883a 	mov	r23,r20
   249b4:	db800e15 	stw	r14,56(sp)
   249b8:	8029883a 	mov	r20,r16
   249bc:	db400f15 	stw	r13,60(sp)
   249c0:	402b883a 	mov	r21,r8
   249c4:	3821883a 	mov	r16,r7
   249c8:	6025883a 	mov	r18,r12
   249cc:	00000406 	br	249e0 <___vfprintf_internal_r+0x1124>
   249d0:	843ffc04 	addi	r16,r16,-16
   249d4:	81800448 	cmpgei	r6,r16,17
   249d8:	21000204 	addi	r4,r4,8
   249dc:	30001426 	beq	r6,zero,24a30 <___vfprintf_internal_r+0x1174>
   249e0:	10800044 	addi	r2,r2,1
   249e4:	18c00404 	addi	r3,r3,16
   249e8:	24800015 	stw	r18,0(r4)
   249ec:	23c00115 	stw	r15,4(r4)
   249f0:	d8c01c15 	stw	r3,112(sp)
   249f4:	d8801b15 	stw	r2,108(sp)
   249f8:	11800208 	cmpgei	r6,r2,8
   249fc:	303ff426 	beq	r6,zero,249d0 <___vfprintf_internal_r+0x1114>
   24a00:	d9801a04 	addi	r6,sp,104
   24a04:	880b883a 	mov	r5,r17
   24a08:	9809883a 	mov	r4,r19
   24a0c:	002a72c0 	call	2a72c <__sprint_r>
   24a10:	1001a11e 	bne	r2,zero,25098 <___vfprintf_internal_r+0x17dc>
   24a14:	843ffc04 	addi	r16,r16,-16
   24a18:	81800448 	cmpgei	r6,r16,17
   24a1c:	d8c01c17 	ldw	r3,112(sp)
   24a20:	d8801b17 	ldw	r2,108(sp)
   24a24:	d9002704 	addi	r4,sp,156
   24a28:	03c00404 	movi	r15,16
   24a2c:	303fec1e 	bne	r6,zero,249e0 <___vfprintf_internal_r+0x1124>
   24a30:	800f883a 	mov	r7,r16
   24a34:	9019883a 	mov	r12,r18
   24a38:	a021883a 	mov	r16,r20
   24a3c:	8825883a 	mov	r18,r17
   24a40:	b829883a 	mov	r20,r23
   24a44:	db800e17 	ldw	r14,56(sp)
   24a48:	db400f17 	ldw	r13,60(sp)
   24a4c:	ddc01217 	ldw	r23,72(sp)
   24a50:	dc401117 	ldw	r17,68(sp)
   24a54:	a811883a 	mov	r8,r21
   24a58:	b02b883a 	mov	r21,r22
   24a5c:	202d883a 	mov	r22,r4
   24a60:	10800044 	addi	r2,r2,1
   24a64:	19c7883a 	add	r3,r3,r7
   24a68:	d8801b15 	stw	r2,108(sp)
   24a6c:	b3000015 	stw	r12,0(r22)
   24a70:	b1c00115 	stw	r7,4(r22)
   24a74:	d8c01c15 	stw	r3,112(sp)
   24a78:	10800208 	cmpgei	r2,r2,8
   24a7c:	1001781e 	bne	r2,zero,25060 <___vfprintf_internal_r+0x17a4>
   24a80:	b5800204 	addi	r22,r22,8
   24a84:	003c5f06 	br	23c04 <___vfprintf_internal_r+0x348>
   24a88:	d9801a04 	addi	r6,sp,104
   24a8c:	900b883a 	mov	r5,r18
   24a90:	9809883a 	mov	r4,r19
   24a94:	da000f15 	stw	r8,60(sp)
   24a98:	db400e15 	stw	r13,56(sp)
   24a9c:	002a72c0 	call	2a72c <__sprint_r>
   24aa0:	103c951e 	bne	r2,zero,23cf8 <___vfprintf_internal_r+0x43c>
   24aa4:	d8c01c17 	ldw	r3,112(sp)
   24aa8:	da000f17 	ldw	r8,60(sp)
   24aac:	db400e17 	ldw	r13,56(sp)
   24ab0:	dd802704 	addi	r22,sp,156
   24ab4:	003c6e06 	br	23c70 <___vfprintf_internal_r+0x3b4>
   24ab8:	d9801a04 	addi	r6,sp,104
   24abc:	900b883a 	mov	r5,r18
   24ac0:	9809883a 	mov	r4,r19
   24ac4:	da001115 	stw	r8,68(sp)
   24ac8:	db400f15 	stw	r13,60(sp)
   24acc:	db800e15 	stw	r14,56(sp)
   24ad0:	002a72c0 	call	2a72c <__sprint_r>
   24ad4:	103c881e 	bne	r2,zero,23cf8 <___vfprintf_internal_r+0x43c>
   24ad8:	d8c01c17 	ldw	r3,112(sp)
   24adc:	da001117 	ldw	r8,68(sp)
   24ae0:	db400f17 	ldw	r13,60(sp)
   24ae4:	db800e17 	ldw	r14,56(sp)
   24ae8:	dd802704 	addi	r22,sp,156
   24aec:	003c5306 	br	23c3c <___vfprintf_internal_r+0x380>
   24af0:	d9401417 	ldw	r5,80(sp)
   24af4:	01414c0e 	bge	zero,r5,25028 <___vfprintf_internal_r+0x176c>
   24af8:	d8800717 	ldw	r2,28(sp)
   24afc:	d9000817 	ldw	r4,32(sp)
   24b00:	102b883a 	mov	r21,r2
   24b04:	2080e316 	blt	r4,r2,24e94 <___vfprintf_internal_r+0x15d8>
   24b08:	05400a0e 	bge	zero,r21,24b34 <___vfprintf_internal_r+0x1278>
   24b0c:	d8801b17 	ldw	r2,108(sp)
   24b10:	1d47883a 	add	r3,r3,r21
   24b14:	b4400015 	stw	r17,0(r22)
   24b18:	10800044 	addi	r2,r2,1
   24b1c:	d8801b15 	stw	r2,108(sp)
   24b20:	b5400115 	stw	r21,4(r22)
   24b24:	d8c01c15 	stw	r3,112(sp)
   24b28:	10800208 	cmpgei	r2,r2,8
   24b2c:	10030c1e 	bne	r2,zero,25760 <___vfprintf_internal_r+0x1ea4>
   24b30:	b5800204 	addi	r22,r22,8
   24b34:	a800ff16 	blt	r21,zero,24f34 <___vfprintf_internal_r+0x1678>
   24b38:	d8800717 	ldw	r2,28(sp)
   24b3c:	156bc83a 	sub	r21,r2,r21
   24b40:	05410616 	blt	zero,r21,24f5c <___vfprintf_internal_r+0x16a0>
   24b44:	dd401417 	ldw	r21,80(sp)
   24b48:	d8800817 	ldw	r2,32(sp)
   24b4c:	a880d40e 	bge	r21,r2,24ea0 <___vfprintf_internal_r+0x15e4>
   24b50:	d8800d17 	ldw	r2,52(sp)
   24b54:	d9000b17 	ldw	r4,44(sp)
   24b58:	b0800015 	stw	r2,0(r22)
   24b5c:	d8801b17 	ldw	r2,108(sp)
   24b60:	1907883a 	add	r3,r3,r4
   24b64:	b1000115 	stw	r4,4(r22)
   24b68:	10800044 	addi	r2,r2,1
   24b6c:	d8801b15 	stw	r2,108(sp)
   24b70:	d8c01c15 	stw	r3,112(sp)
   24b74:	10800208 	cmpgei	r2,r2,8
   24b78:	10028e1e 	bne	r2,zero,255b4 <___vfprintf_internal_r+0x1cf8>
   24b7c:	b5800204 	addi	r22,r22,8
   24b80:	d9000817 	ldw	r4,32(sp)
   24b84:	d9400717 	ldw	r5,28(sp)
   24b88:	2545c83a 	sub	r2,r4,r21
   24b8c:	2149c83a 	sub	r4,r4,r5
   24b90:	102b883a 	mov	r21,r2
   24b94:	2080010e 	bge	r4,r2,24b9c <___vfprintf_internal_r+0x12e0>
   24b98:	202b883a 	mov	r21,r4
   24b9c:	05400c0e 	bge	zero,r21,24bd0 <___vfprintf_internal_r+0x1314>
   24ba0:	d9000717 	ldw	r4,28(sp)
   24ba4:	1d47883a 	add	r3,r3,r21
   24ba8:	b5400115 	stw	r21,4(r22)
   24bac:	8913883a 	add	r9,r17,r4
   24bb0:	d9001b17 	ldw	r4,108(sp)
   24bb4:	b2400015 	stw	r9,0(r22)
   24bb8:	d8c01c15 	stw	r3,112(sp)
   24bbc:	21000044 	addi	r4,r4,1
   24bc0:	d9001b15 	stw	r4,108(sp)
   24bc4:	21000208 	cmpgei	r4,r4,8
   24bc8:	2002f01e 	bne	r4,zero,2578c <___vfprintf_internal_r+0x1ed0>
   24bcc:	b5800204 	addi	r22,r22,8
   24bd0:	a800010e 	bge	r21,zero,24bd8 <___vfprintf_internal_r+0x131c>
   24bd4:	002b883a 	mov	r21,zero
   24bd8:	156bc83a 	sub	r21,r2,r21
   24bdc:	057c350e 	bge	zero,r21,23cb4 <___vfprintf_internal_r+0x3f8>
   24be0:	01c000f4 	movhi	r7,3
   24be4:	a9000450 	cmplti	r4,r21,17
   24be8:	d8801b17 	ldw	r2,108(sp)
   24bec:	39cdd204 	addi	r7,r7,14152
   24bf0:	2001ad1e 	bne	r4,zero,252a8 <___vfprintf_internal_r+0x19ec>
   24bf4:	07000404 	movi	fp,16
   24bf8:	3823883a 	mov	r17,r7
   24bfc:	00000406 	br	24c10 <___vfprintf_internal_r+0x1354>
   24c00:	b5800204 	addi	r22,r22,8
   24c04:	ad7ffc04 	addi	r21,r21,-16
   24c08:	a9000448 	cmpgei	r4,r21,17
   24c0c:	2001a526 	beq	r4,zero,252a4 <___vfprintf_internal_r+0x19e8>
   24c10:	10800044 	addi	r2,r2,1
   24c14:	18c00404 	addi	r3,r3,16
   24c18:	b4400015 	stw	r17,0(r22)
   24c1c:	b7000115 	stw	fp,4(r22)
   24c20:	d8c01c15 	stw	r3,112(sp)
   24c24:	d8801b15 	stw	r2,108(sp)
   24c28:	11000208 	cmpgei	r4,r2,8
   24c2c:	203ff426 	beq	r4,zero,24c00 <___vfprintf_internal_r+0x1344>
   24c30:	d9801a04 	addi	r6,sp,104
   24c34:	900b883a 	mov	r5,r18
   24c38:	9809883a 	mov	r4,r19
   24c3c:	002a72c0 	call	2a72c <__sprint_r>
   24c40:	103c2d1e 	bne	r2,zero,23cf8 <___vfprintf_internal_r+0x43c>
   24c44:	d8c01c17 	ldw	r3,112(sp)
   24c48:	d8801b17 	ldw	r2,108(sp)
   24c4c:	dd802704 	addi	r22,sp,156
   24c50:	003fec06 	br	24c04 <___vfprintf_internal_r+0x1348>
   24c54:	d8800417 	ldw	r2,16(sp)
   24c58:	1080004c 	andi	r2,r2,1
   24c5c:	103f111e 	bne	r2,zero,248a4 <___vfprintf_internal_r+0xfe8>
   24c60:	00800044 	movi	r2,1
   24c64:	dd401b15 	stw	r21,108(sp)
   24c68:	b4400015 	stw	r17,0(r22)
   24c6c:	b0800115 	stw	r2,4(r22)
   24c70:	d8c01c15 	stw	r3,112(sp)
   24c74:	ad400208 	cmpgei	r21,r21,8
   24c78:	a800941e 	bne	r21,zero,24ecc <___vfprintf_internal_r+0x1610>
   24c7c:	42000084 	addi	r8,r8,2
   24c80:	b5800404 	addi	r22,r22,16
   24c84:	003f3306 	br	24954 <___vfprintf_internal_r+0x1098>
   24c88:	4002821e 	bne	r8,zero,25694 <___vfprintf_internal_r+0x1dd8>
   24c8c:	0011883a 	mov	r8,zero
   24c90:	002b883a 	mov	r21,zero
   24c94:	dc402704 	addi	r17,sp,156
   24c98:	003da206 	br	24324 <___vfprintf_internal_r+0xa68>
   24c9c:	02ff2d0e 	bge	zero,r11,24954 <___vfprintf_internal_r+0x1098>
   24ca0:	58800450 	cmplti	r2,r11,17
   24ca4:	01c000f4 	movhi	r7,3
   24ca8:	1003261e 	bne	r2,zero,25944 <___vfprintf_internal_r+0x2088>
   24cac:	39cdd204 	addi	r7,r7,14152
   24cb0:	dc000715 	stw	r16,28(sp)
   24cb4:	05800404 	movi	r22,16
   24cb8:	5823883a 	mov	r17,r11
   24cbc:	402b883a 	mov	r21,r8
   24cc0:	3821883a 	mov	r16,r7
   24cc4:	00000506 	br	24cdc <___vfprintf_internal_r+0x1420>
   24cc8:	e7000204 	addi	fp,fp,8
   24ccc:	8c7ffc04 	addi	r17,r17,-16
   24cd0:	88800448 	cmpgei	r2,r17,17
   24cd4:	1001be26 	beq	r2,zero,253d0 <___vfprintf_internal_r+0x1b14>
   24cd8:	ad400044 	addi	r21,r21,1
   24cdc:	18c00404 	addi	r3,r3,16
   24ce0:	e4000015 	stw	r16,0(fp)
   24ce4:	e5800115 	stw	r22,4(fp)
   24ce8:	d8c01c15 	stw	r3,112(sp)
   24cec:	dd401b15 	stw	r21,108(sp)
   24cf0:	a8800208 	cmpgei	r2,r21,8
   24cf4:	103ff426 	beq	r2,zero,24cc8 <___vfprintf_internal_r+0x140c>
   24cf8:	d9801a04 	addi	r6,sp,104
   24cfc:	900b883a 	mov	r5,r18
   24d00:	9809883a 	mov	r4,r19
   24d04:	002a72c0 	call	2a72c <__sprint_r>
   24d08:	103bfb1e 	bne	r2,zero,23cf8 <___vfprintf_internal_r+0x43c>
   24d0c:	dd401b17 	ldw	r21,108(sp)
   24d10:	d8c01c17 	ldw	r3,112(sp)
   24d14:	df002704 	addi	fp,sp,156
   24d18:	003fec06 	br	24ccc <___vfprintf_internal_r+0x1410>
   24d1c:	d9801a04 	addi	r6,sp,104
   24d20:	900b883a 	mov	r5,r18
   24d24:	9809883a 	mov	r4,r19
   24d28:	002a72c0 	call	2a72c <__sprint_r>
   24d2c:	103bf21e 	bne	r2,zero,23cf8 <___vfprintf_internal_r+0x43c>
   24d30:	d8c01c17 	ldw	r3,112(sp)
   24d34:	dd802704 	addi	r22,sp,156
   24d38:	003bd106 	br	23c80 <___vfprintf_internal_r+0x3c4>
   24d3c:	d8800417 	ldw	r2,16(sp)
   24d40:	1080004c 	andi	r2,r2,1
   24d44:	103bdb26 	beq	r2,zero,23cb4 <___vfprintf_internal_r+0x3f8>
   24d48:	003df106 	br	24510 <___vfprintf_internal_r+0xc54>
   24d4c:	dc402704 	addi	r17,sp,156
   24d50:	003d7406 	br	24324 <___vfprintf_internal_r+0xa68>
   24d54:	d9000517 	ldw	r4,20(sp)
   24d58:	2005d7fa 	srai	r2,r4,31
   24d5c:	19000015 	stw	r4,0(r3)
   24d60:	18800115 	stw	r2,4(r3)
   24d64:	003b0906 	br	2398c <___vfprintf_internal_r+0xd0>
   24d68:	00800c04 	movi	r2,48
   24d6c:	d8801385 	stb	r2,78(sp)
   24d70:	df0013c5 	stb	fp,79(sp)
   24d74:	63000094 	ori	r12,r12,2
   24d78:	00800084 	movi	r2,2
   24d7c:	003c1206 	br	23dc8 <___vfprintf_internal_r+0x50c>
   24d80:	25000017 	ldw	r20,0(r4)
   24d84:	002b883a 	mov	r21,zero
   24d88:	d8c00615 	stw	r3,24(sp)
   24d8c:	003ce906 	br	24134 <___vfprintf_internal_r+0x878>
   24d90:	25000017 	ldw	r20,0(r4)
   24d94:	002b883a 	mov	r21,zero
   24d98:	d8c00615 	stw	r3,24(sp)
   24d9c:	0005883a 	mov	r2,zero
   24da0:	003c0906 	br	23dc8 <___vfprintf_internal_r+0x50c>
   24da4:	25000017 	ldw	r20,0(r4)
   24da8:	002b883a 	mov	r21,zero
   24dac:	d8c00615 	stw	r3,24(sp)
   24db0:	00800044 	movi	r2,1
   24db4:	003c0406 	br	23dc8 <___vfprintf_internal_r+0x50c>
   24db8:	25000017 	ldw	r20,0(r4)
   24dbc:	d8c00615 	stw	r3,24(sp)
   24dc0:	a02bd7fa 	srai	r21,r20,31
   24dc4:	a805883a 	mov	r2,r21
   24dc8:	003cb806 	br	240ac <___vfprintf_internal_r+0x7f0>
   24dcc:	18800017 	ldw	r2,0(r3)
   24dd0:	d8800915 	stw	r2,36(sp)
   24dd4:	18800117 	ldw	r2,4(r3)
   24dd8:	d8800a15 	stw	r2,40(sp)
   24ddc:	003c3006 	br	23ea0 <___vfprintf_internal_r+0x5e4>
   24de0:	db401343 	ldbu	r13,77(sp)
   24de4:	a83cbc26 	beq	r21,zero,240d8 <___vfprintf_internal_r+0x81c>
   24de8:	dc402704 	addi	r17,sp,156
   24dec:	a805883a 	mov	r2,r21
   24df0:	dc000715 	stw	r16,28(sp)
   24df4:	902b883a 	mov	r21,r18
   24df8:	8821883a 	mov	r16,r17
   24dfc:	db000415 	stw	r12,16(sp)
   24e00:	a023883a 	mov	r17,r20
   24e04:	da000e15 	stw	r8,56(sp)
   24e08:	9829883a 	mov	r20,r19
   24e0c:	1025883a 	mov	r18,r2
   24e10:	6827883a 	mov	r19,r13
   24e14:	8809883a 	mov	r4,r17
   24e18:	900b883a 	mov	r5,r18
   24e1c:	01800284 	movi	r6,10
   24e20:	000f883a 	mov	r7,zero
   24e24:	002d8f40 	call	2d8f4 <__umoddi3>
   24e28:	10800c04 	addi	r2,r2,48
   24e2c:	8809883a 	mov	r4,r17
   24e30:	900b883a 	mov	r5,r18
   24e34:	01800284 	movi	r6,10
   24e38:	000f883a 	mov	r7,zero
   24e3c:	80bfffc5 	stb	r2,-1(r16)
   24e40:	002d2d80 	call	2d2d8 <__udivdi3>
   24e44:	900d883a 	mov	r6,r18
   24e48:	880f883a 	mov	r7,r17
   24e4c:	843fffc4 	addi	r16,r16,-1
   24e50:	1023883a 	mov	r17,r2
   24e54:	1825883a 	mov	r18,r3
   24e58:	303fee1e 	bne	r6,zero,24e14 <___vfprintf_internal_r+0x1558>
   24e5c:	39c002a8 	cmpgeui	r7,r7,10
   24e60:	383fec1e 	bne	r7,zero,24e14 <___vfprintf_internal_r+0x1558>
   24e64:	8023883a 	mov	r17,r16
   24e68:	d8802704 	addi	r2,sp,156
   24e6c:	981b883a 	mov	r13,r19
   24e70:	a825883a 	mov	r18,r21
   24e74:	dc000717 	ldw	r16,28(sp)
   24e78:	da000e17 	ldw	r8,56(sp)
   24e7c:	a027883a 	mov	r19,r20
   24e80:	146bc83a 	sub	r21,r2,r17
   24e84:	003d2706 	br	24324 <___vfprintf_internal_r+0xa68>
   24e88:	0421c83a 	sub	r16,zero,r16
   24e8c:	d8800615 	stw	r2,24(sp)
   24e90:	003d4506 	br	243a8 <___vfprintf_internal_r+0xaec>
   24e94:	202b883a 	mov	r21,r4
   24e98:	057f1c16 	blt	zero,r21,24b0c <___vfprintf_internal_r+0x1250>
   24e9c:	003f2506 	br	24b34 <___vfprintf_internal_r+0x1278>
   24ea0:	d8800417 	ldw	r2,16(sp)
   24ea4:	1080004c 	andi	r2,r2,1
   24ea8:	103f291e 	bne	r2,zero,24b50 <___vfprintf_internal_r+0x1294>
   24eac:	d9000817 	ldw	r4,32(sp)
   24eb0:	d9400717 	ldw	r5,28(sp)
   24eb4:	2545c83a 	sub	r2,r4,r21
   24eb8:	2179c83a 	sub	fp,r4,r5
   24ebc:	102b883a 	mov	r21,r2
   24ec0:	e0bf430e 	bge	fp,r2,24bd0 <___vfprintf_internal_r+0x1314>
   24ec4:	e02b883a 	mov	r21,fp
   24ec8:	003f4106 	br	24bd0 <___vfprintf_internal_r+0x1314>
   24ecc:	d9801a04 	addi	r6,sp,104
   24ed0:	900b883a 	mov	r5,r18
   24ed4:	9809883a 	mov	r4,r19
   24ed8:	002a72c0 	call	2a72c <__sprint_r>
   24edc:	103b861e 	bne	r2,zero,23cf8 <___vfprintf_internal_r+0x43c>
   24ee0:	da001b17 	ldw	r8,108(sp)
   24ee4:	d8c01c17 	ldw	r3,112(sp)
   24ee8:	dd802904 	addi	r22,sp,164
   24eec:	42000044 	addi	r8,r8,1
   24ef0:	df002704 	addi	fp,sp,156
   24ef4:	003e9706 	br	24954 <___vfprintf_internal_r+0x1098>
   24ef8:	bf000043 	ldbu	fp,1(r23)
   24efc:	63000814 	ori	r12,r12,32
   24f00:	bdc00044 	addi	r23,r23,1
   24f04:	e2c03fcc 	andi	r11,fp,255
   24f08:	5ac0201c 	xori	r11,r11,128
   24f0c:	5affe004 	addi	r11,r11,-128
   24f10:	003ab606 	br	239ec <___vfprintf_internal_r+0x130>
   24f14:	d9801a04 	addi	r6,sp,104
   24f18:	900b883a 	mov	r5,r18
   24f1c:	9809883a 	mov	r4,r19
   24f20:	002a72c0 	call	2a72c <__sprint_r>
   24f24:	103b741e 	bne	r2,zero,23cf8 <___vfprintf_internal_r+0x43c>
   24f28:	d8c01c17 	ldw	r3,112(sp)
   24f2c:	dd802704 	addi	r22,sp,156
   24f30:	003d8306 	br	24540 <___vfprintf_internal_r+0xc84>
   24f34:	002b883a 	mov	r21,zero
   24f38:	003eff06 	br	24b38 <___vfprintf_internal_r+0x127c>
   24f3c:	408001f0 	cmpltui	r2,r8,7
   24f40:	402b883a 	mov	r21,r8
   24f44:	1001a426 	beq	r2,zero,255d8 <___vfprintf_internal_r+0x1d1c>
   24f48:	044000f4 	movhi	r17,3
   24f4c:	a829883a 	mov	r20,r21
   24f50:	d8c00615 	stw	r3,24(sp)
   24f54:	8c4dcf04 	addi	r17,r17,14140
   24f58:	003b1d06 	br	23bd0 <___vfprintf_internal_r+0x314>
   24f5c:	01c000f4 	movhi	r7,3
   24f60:	a9000450 	cmplti	r4,r21,17
   24f64:	d8801b17 	ldw	r2,108(sp)
   24f68:	39cdd204 	addi	r7,r7,14152
   24f6c:	20017f1e 	bne	r4,zero,2556c <___vfprintf_internal_r+0x1cb0>
   24f70:	dc000e15 	stw	r16,56(sp)
   24f74:	07000404 	movi	fp,16
   24f78:	3821883a 	mov	r16,r7
   24f7c:	00000406 	br	24f90 <___vfprintf_internal_r+0x16d4>
   24f80:	b5800204 	addi	r22,r22,8
   24f84:	ad7ffc04 	addi	r21,r21,-16
   24f88:	a9000448 	cmpgei	r4,r21,17
   24f8c:	20017526 	beq	r4,zero,25564 <___vfprintf_internal_r+0x1ca8>
   24f90:	10800044 	addi	r2,r2,1
   24f94:	18c00404 	addi	r3,r3,16
   24f98:	b4000015 	stw	r16,0(r22)
   24f9c:	b7000115 	stw	fp,4(r22)
   24fa0:	d8c01c15 	stw	r3,112(sp)
   24fa4:	d8801b15 	stw	r2,108(sp)
   24fa8:	11000208 	cmpgei	r4,r2,8
   24fac:	203ff426 	beq	r4,zero,24f80 <___vfprintf_internal_r+0x16c4>
   24fb0:	d9801a04 	addi	r6,sp,104
   24fb4:	900b883a 	mov	r5,r18
   24fb8:	9809883a 	mov	r4,r19
   24fbc:	002a72c0 	call	2a72c <__sprint_r>
   24fc0:	103b4d1e 	bne	r2,zero,23cf8 <___vfprintf_internal_r+0x43c>
   24fc4:	d8c01c17 	ldw	r3,112(sp)
   24fc8:	d8801b17 	ldw	r2,108(sp)
   24fcc:	dd802704 	addi	r22,sp,156
   24fd0:	003fec06 	br	24f84 <___vfprintf_internal_r+0x16c8>
   24fd4:	d8800517 	ldw	r2,20(sp)
   24fd8:	18800015 	stw	r2,0(r3)
   24fdc:	003a6b06 	br	2398c <___vfprintf_internal_r+0xd0>
   24fe0:	d9801a04 	addi	r6,sp,104
   24fe4:	900b883a 	mov	r5,r18
   24fe8:	9809883a 	mov	r4,r19
   24fec:	002a72c0 	call	2a72c <__sprint_r>
   24ff0:	103b411e 	bne	r2,zero,23cf8 <___vfprintf_internal_r+0x43c>
   24ff4:	d8c01c17 	ldw	r3,112(sp)
   24ff8:	dd401b17 	ldw	r21,108(sp)
   24ffc:	df002704 	addi	fp,sp,156
   25000:	003e3a06 	br	248ec <___vfprintf_internal_r+0x1030>
   25004:	d9801a04 	addi	r6,sp,104
   25008:	900b883a 	mov	r5,r18
   2500c:	9809883a 	mov	r4,r19
   25010:	002a72c0 	call	2a72c <__sprint_r>
   25014:	103b381e 	bne	r2,zero,23cf8 <___vfprintf_internal_r+0x43c>
   25018:	d8c01c17 	ldw	r3,112(sp)
   2501c:	dd401b17 	ldw	r21,108(sp)
   25020:	df002704 	addi	fp,sp,156
   25024:	003e2606 	br	248c0 <___vfprintf_internal_r+0x1004>
   25028:	d8801b17 	ldw	r2,108(sp)
   2502c:	010000f4 	movhi	r4,3
   25030:	210dd104 	addi	r4,r4,14148
   25034:	10800044 	addi	r2,r2,1
   25038:	18c00044 	addi	r3,r3,1
   2503c:	b1000015 	stw	r4,0(r22)
   25040:	01000044 	movi	r4,1
   25044:	d8801b15 	stw	r2,108(sp)
   25048:	b1000115 	stw	r4,4(r22)
   2504c:	d8c01c15 	stw	r3,112(sp)
   25050:	10800208 	cmpgei	r2,r2,8
   25054:	103de11e 	bne	r2,zero,247dc <___vfprintf_internal_r+0xf20>
   25058:	b5800204 	addi	r22,r22,8
   2505c:	003de706 	br	247fc <___vfprintf_internal_r+0xf40>
   25060:	d9801a04 	addi	r6,sp,104
   25064:	900b883a 	mov	r5,r18
   25068:	9809883a 	mov	r4,r19
   2506c:	da001115 	stw	r8,68(sp)
   25070:	db400f15 	stw	r13,60(sp)
   25074:	db800e15 	stw	r14,56(sp)
   25078:	002a72c0 	call	2a72c <__sprint_r>
   2507c:	103b1e1e 	bne	r2,zero,23cf8 <___vfprintf_internal_r+0x43c>
   25080:	d8c01c17 	ldw	r3,112(sp)
   25084:	da001117 	ldw	r8,68(sp)
   25088:	db400f17 	ldw	r13,60(sp)
   2508c:	db800e17 	ldw	r14,56(sp)
   25090:	dd802704 	addi	r22,sp,156
   25094:	003adb06 	br	23c04 <___vfprintf_internal_r+0x348>
   25098:	8825883a 	mov	r18,r17
   2509c:	003b1606 	br	23cf8 <___vfprintf_internal_r+0x43c>
   250a0:	d9000917 	ldw	r4,36(sp)
   250a4:	d9400a17 	ldw	r5,40(sp)
   250a8:	da000615 	stw	r8,24(sp)
   250ac:	200d883a 	mov	r6,r4
   250b0:	280f883a 	mov	r7,r5
   250b4:	db000415 	stw	r12,16(sp)
   250b8:	00308000 	call	30800 <__unorddf2>
   250bc:	db000417 	ldw	r12,16(sp)
   250c0:	da000617 	ldw	r8,24(sp)
   250c4:	1002091e 	bne	r2,zero,258ec <___vfprintf_internal_r+0x2030>
   250c8:	057ff7c4 	movi	r21,-33
   250cc:	40bfffe0 	cmpeqi	r2,r8,-1
   250d0:	e56a703a 	and	r21,fp,r21
   250d4:	1001ab1e 	bne	r2,zero,25784 <___vfprintf_internal_r+0x1ec8>
   250d8:	a88011d8 	cmpnei	r2,r21,71
   250dc:	10015726 	beq	r2,zero,2563c <___vfprintf_internal_r+0x1d80>
   250e0:	60804014 	ori	r2,r12,256
   250e4:	d8800415 	stw	r2,16(sp)
   250e8:	d8800a17 	ldw	r2,40(sp)
   250ec:	10012d16 	blt	r2,zero,255a4 <___vfprintf_internal_r+0x1ce8>
   250f0:	dd000a17 	ldw	r20,40(sp)
   250f4:	d8000605 	stb	zero,24(sp)
   250f8:	e08019a0 	cmpeqi	r2,fp,102
   250fc:	d8800f15 	stw	r2,60(sp)
   25100:	1000c31e 	bne	r2,zero,25410 <___vfprintf_internal_r+0x1b54>
   25104:	e08011a0 	cmpeqi	r2,fp,70
   25108:	1000c11e 	bne	r2,zero,25410 <___vfprintf_internal_r+0x1b54>
   2510c:	a8801158 	cmpnei	r2,r21,69
   25110:	10016226 	beq	r2,zero,2569c <___vfprintf_internal_r+0x1de0>
   25114:	d8801804 	addi	r2,sp,96
   25118:	d8800315 	stw	r2,12(sp)
   2511c:	d9400917 	ldw	r5,36(sp)
   25120:	d8801504 	addi	r2,sp,84
   25124:	d8800215 	stw	r2,8(sp)
   25128:	d8801404 	addi	r2,sp,80
   2512c:	da000015 	stw	r8,0(sp)
   25130:	9809883a 	mov	r4,r19
   25134:	d8800115 	stw	r2,4(sp)
   25138:	01c00084 	movi	r7,2
   2513c:	a00d883a 	mov	r6,r20
   25140:	db000815 	stw	r12,32(sp)
   25144:	da000715 	stw	r8,28(sp)
   25148:	0025ebc0 	call	25ebc <_dtoa_r>
   2514c:	da000717 	ldw	r8,28(sp)
   25150:	e10019d8 	cmpnei	r4,fp,103
   25154:	db000817 	ldw	r12,32(sp)
   25158:	1023883a 	mov	r17,r2
   2515c:	4007883a 	mov	r3,r8
   25160:	2001621e 	bne	r4,zero,256ec <___vfprintf_internal_r+0x1e30>
   25164:	6080004c 	andi	r2,r12,1
   25168:	1001621e 	bne	r2,zero,256f4 <___vfprintf_internal_r+0x1e38>
   2516c:	d8801417 	ldw	r2,80(sp)
   25170:	ad4011e0 	cmpeqi	r21,r21,71
   25174:	d8800715 	stw	r2,28(sp)
   25178:	d8801817 	ldw	r2,96(sp)
   2517c:	1445c83a 	sub	r2,r2,r17
   25180:	d8800815 	stw	r2,32(sp)
   25184:	a8000526 	beq	r21,zero,2519c <___vfprintf_internal_r+0x18e0>
   25188:	d8c00717 	ldw	r3,28(sp)
   2518c:	18bfff50 	cmplti	r2,r3,-3
   25190:	1000011e 	bne	r2,zero,25198 <___vfprintf_internal_r+0x18dc>
   25194:	40c1670e 	bge	r8,r3,25734 <___vfprintf_internal_r+0x1e78>
   25198:	e73fff84 	addi	fp,fp,-2
   2519c:	d8800717 	ldw	r2,28(sp)
   251a0:	df001645 	stb	fp,89(sp)
   251a4:	157fffc4 	addi	r21,r2,-1
   251a8:	dd401415 	stw	r21,80(sp)
   251ac:	a801c316 	blt	r21,zero,258bc <___vfprintf_internal_r+0x2000>
   251b0:	00800ac4 	movi	r2,43
   251b4:	d8801685 	stb	r2,90(sp)
   251b8:	a8800290 	cmplti	r2,r21,10
   251bc:	1001b81e 	bne	r2,zero,258a0 <___vfprintf_internal_r+0x1fe4>
   251c0:	d98019c4 	addi	r6,sp,103
   251c4:	9029883a 	mov	r20,r18
   251c8:	dc400715 	stw	r17,28(sp)
   251cc:	8025883a 	mov	r18,r16
   251d0:	db000f15 	stw	r12,60(sp)
   251d4:	3021883a 	mov	r16,r6
   251d8:	a809883a 	mov	r4,r21
   251dc:	01400284 	movi	r5,10
   251e0:	002df380 	call	2df38 <__modsi3>
   251e4:	10800c04 	addi	r2,r2,48
   251e8:	a809883a 	mov	r4,r21
   251ec:	80bfffc5 	stb	r2,-1(r16)
   251f0:	01400284 	movi	r5,10
   251f4:	002deb80 	call	2deb8 <__divsi3>
   251f8:	a9001908 	cmpgei	r4,r21,100
   251fc:	8023883a 	mov	r17,r16
   25200:	102b883a 	mov	r21,r2
   25204:	843fffc4 	addi	r16,r16,-1
   25208:	203ff31e 	bne	r4,zero,251d8 <___vfprintf_internal_r+0x191c>
   2520c:	800d883a 	mov	r6,r16
   25210:	11000c04 	addi	r4,r2,48
   25214:	9021883a 	mov	r16,r18
   25218:	a025883a 	mov	r18,r20
   2521c:	8829883a 	mov	r20,r17
   25220:	a0bfff84 	addi	r2,r20,-2
   25224:	313fffc5 	stb	r4,-1(r6)
   25228:	d8c019c4 	addi	r3,sp,103
   2522c:	db000f17 	ldw	r12,60(sp)
   25230:	dc400717 	ldw	r17,28(sp)
   25234:	10c1cd2e 	bgeu	r2,r3,2596c <___vfprintf_internal_r+0x20b0>
   25238:	d8c016c4 	addi	r3,sp,91
   2523c:	00000106 	br	25244 <___vfprintf_internal_r+0x1988>
   25240:	11000003 	ldbu	r4,0(r2)
   25244:	19000005 	stb	r4,0(r3)
   25248:	10800044 	addi	r2,r2,1
   2524c:	d90019c4 	addi	r4,sp,103
   25250:	18c00044 	addi	r3,r3,1
   25254:	113ffa1e 	bne	r2,r4,25240 <___vfprintf_internal_r+0x1984>
   25258:	d8801a44 	addi	r2,sp,105
   2525c:	d8c016c4 	addi	r3,sp,91
   25260:	1505c83a 	sub	r2,r2,r20
   25264:	1885883a 	add	r2,r3,r2
   25268:	d8c01644 	addi	r3,sp,89
   2526c:	10c5c83a 	sub	r2,r2,r3
   25270:	d8801015 	stw	r2,64(sp)
   25274:	d8c00817 	ldw	r3,32(sp)
   25278:	d9001017 	ldw	r4,64(sp)
   2527c:	18800088 	cmpgei	r2,r3,2
   25280:	20eb883a 	add	r21,r4,r3
   25284:	10019226 	beq	r2,zero,258d0 <___vfprintf_internal_r+0x2014>
   25288:	d8800b17 	ldw	r2,44(sp)
   2528c:	a8ab883a 	add	r21,r21,r2
   25290:	a829883a 	mov	r20,r21
   25294:	a800010e 	bge	r21,zero,2529c <___vfprintf_internal_r+0x19e0>
   25298:	0029883a 	mov	r20,zero
   2529c:	d8000715 	stw	zero,28(sp)
   252a0:	00008e06 	br	254dc <___vfprintf_internal_r+0x1c20>
   252a4:	880f883a 	mov	r7,r17
   252a8:	10800044 	addi	r2,r2,1
   252ac:	1d47883a 	add	r3,r3,r21
   252b0:	b1c00015 	stw	r7,0(r22)
   252b4:	003a7906 	br	23c9c <___vfprintf_internal_r+0x3e0>
   252b8:	d9801a04 	addi	r6,sp,104
   252bc:	900b883a 	mov	r5,r18
   252c0:	9809883a 	mov	r4,r19
   252c4:	002a72c0 	call	2a72c <__sprint_r>
   252c8:	103a8b1e 	bne	r2,zero,23cf8 <___vfprintf_internal_r+0x43c>
   252cc:	d8c01c17 	ldw	r3,112(sp)
   252d0:	dd802704 	addi	r22,sp,156
   252d4:	003c8b06 	br	24504 <___vfprintf_internal_r+0xc48>
   252d8:	d9801a04 	addi	r6,sp,104
   252dc:	900b883a 	mov	r5,r18
   252e0:	9809883a 	mov	r4,r19
   252e4:	da000e15 	stw	r8,56(sp)
   252e8:	002a72c0 	call	2a72c <__sprint_r>
   252ec:	103a821e 	bne	r2,zero,23cf8 <___vfprintf_internal_r+0x43c>
   252f0:	d8c01c17 	ldw	r3,112(sp)
   252f4:	da000e17 	ldw	r8,56(sp)
   252f8:	dd802704 	addi	r22,sp,156
   252fc:	003a5e06 	br	23c78 <___vfprintf_internal_r+0x3bc>
   25300:	8809883a 	mov	r4,r17
   25304:	db000415 	stw	r12,16(sp)
   25308:	d8c00615 	stw	r3,24(sp)
   2530c:	002a4dc0 	call	2a4dc <strlen>
   25310:	db000417 	ldw	r12,16(sp)
   25314:	102b883a 	mov	r21,r2
   25318:	1029883a 	mov	r20,r2
   2531c:	003a2c06 	br	23bd0 <___vfprintf_internal_r+0x314>
   25320:	d8800d17 	ldw	r2,52(sp)
   25324:	d9000b17 	ldw	r4,44(sp)
   25328:	b0800015 	stw	r2,0(r22)
   2532c:	d8801b17 	ldw	r2,108(sp)
   25330:	20c7883a 	add	r3,r4,r3
   25334:	b1000115 	stw	r4,4(r22)
   25338:	10800044 	addi	r2,r2,1
   2533c:	d8c01c15 	stw	r3,112(sp)
   25340:	d8801b15 	stw	r2,108(sp)
   25344:	11000208 	cmpgei	r4,r2,8
   25348:	2000bf1e 	bne	r4,zero,25648 <___vfprintf_internal_r+0x1d8c>
   2534c:	b5800204 	addi	r22,r22,8
   25350:	283d3c0e 	bge	r5,zero,24844 <___vfprintf_internal_r+0xf88>
   25354:	01c000f4 	movhi	r7,3
   25358:	293ffc08 	cmpgei	r4,r5,-16
   2535c:	39cdd204 	addi	r7,r7,14152
   25360:	0179c83a 	sub	fp,zero,r5
   25364:	2001361e 	bne	r4,zero,25840 <___vfprintf_internal_r+0x1f84>
   25368:	dc000715 	stw	r16,28(sp)
   2536c:	05400404 	movi	r21,16
   25370:	9021883a 	mov	r16,r18
   25374:	3825883a 	mov	r18,r7
   25378:	00000406 	br	2538c <___vfprintf_internal_r+0x1ad0>
   2537c:	b5800204 	addi	r22,r22,8
   25380:	e73ffc04 	addi	fp,fp,-16
   25384:	e1800448 	cmpgei	r6,fp,17
   25388:	30012a26 	beq	r6,zero,25834 <___vfprintf_internal_r+0x1f78>
   2538c:	10800044 	addi	r2,r2,1
   25390:	18c00404 	addi	r3,r3,16
   25394:	b4800015 	stw	r18,0(r22)
   25398:	b5400115 	stw	r21,4(r22)
   2539c:	d8c01c15 	stw	r3,112(sp)
   253a0:	d8801b15 	stw	r2,108(sp)
   253a4:	11800208 	cmpgei	r6,r2,8
   253a8:	303ff426 	beq	r6,zero,2537c <___vfprintf_internal_r+0x1ac0>
   253ac:	d9801a04 	addi	r6,sp,104
   253b0:	800b883a 	mov	r5,r16
   253b4:	9809883a 	mov	r4,r19
   253b8:	002a72c0 	call	2a72c <__sprint_r>
   253bc:	10015f1e 	bne	r2,zero,2593c <___vfprintf_internal_r+0x2080>
   253c0:	d8c01c17 	ldw	r3,112(sp)
   253c4:	d8801b17 	ldw	r2,108(sp)
   253c8:	dd802704 	addi	r22,sp,156
   253cc:	003fec06 	br	25380 <___vfprintf_internal_r+0x1ac4>
   253d0:	800f883a 	mov	r7,r16
   253d4:	dc000717 	ldw	r16,28(sp)
   253d8:	8817883a 	mov	r11,r17
   253dc:	aa000044 	addi	r8,r21,1
   253e0:	e0800204 	addi	r2,fp,8
   253e4:	1ac7883a 	add	r3,r3,r11
   253e8:	e1c00015 	stw	r7,0(fp)
   253ec:	e2c00115 	stw	r11,4(fp)
   253f0:	d8c01c15 	stw	r3,112(sp)
   253f4:	da001b15 	stw	r8,108(sp)
   253f8:	41000208 	cmpgei	r4,r8,8
   253fc:	203eb31e 	bne	r4,zero,24ecc <___vfprintf_internal_r+0x1610>
   25400:	42000044 	addi	r8,r8,1
   25404:	15800204 	addi	r22,r2,8
   25408:	1039883a 	mov	fp,r2
   2540c:	003d5106 	br	24954 <___vfprintf_internal_r+0x1098>
   25410:	d8801804 	addi	r2,sp,96
   25414:	d8800315 	stw	r2,12(sp)
   25418:	d9400917 	ldw	r5,36(sp)
   2541c:	d8801504 	addi	r2,sp,84
   25420:	d8800215 	stw	r2,8(sp)
   25424:	d8801404 	addi	r2,sp,80
   25428:	da000015 	stw	r8,0(sp)
   2542c:	d8800115 	stw	r2,4(sp)
   25430:	01c000c4 	movi	r7,3
   25434:	a00d883a 	mov	r6,r20
   25438:	9809883a 	mov	r4,r19
   2543c:	db000815 	stw	r12,32(sp)
   25440:	da000715 	stw	r8,28(sp)
   25444:	0025ebc0 	call	25ebc <_dtoa_r>
   25448:	da000717 	ldw	r8,28(sp)
   2544c:	1023883a 	mov	r17,r2
   25450:	db000817 	ldw	r12,32(sp)
   25454:	1207883a 	add	r3,r2,r8
   25458:	88800007 	ldb	r2,0(r17)
   2545c:	10800c20 	cmpeqi	r2,r2,48
   25460:	1000661e 	bne	r2,zero,255fc <___vfprintf_internal_r+0x1d40>
   25464:	d8801417 	ldw	r2,80(sp)
   25468:	1893883a 	add	r9,r3,r2
   2546c:	d9000917 	ldw	r4,36(sp)
   25470:	000d883a 	mov	r6,zero
   25474:	000f883a 	mov	r7,zero
   25478:	a00b883a 	mov	r5,r20
   2547c:	da401115 	stw	r9,68(sp)
   25480:	da000815 	stw	r8,32(sp)
   25484:	db000715 	stw	r12,28(sp)
   25488:	002f4c40 	call	2f4c4 <__eqdf2>
   2548c:	db000717 	ldw	r12,28(sp)
   25490:	da000817 	ldw	r8,32(sp)
   25494:	da401117 	ldw	r9,68(sp)
   25498:	1000981e 	bne	r2,zero,256fc <___vfprintf_internal_r+0x1e40>
   2549c:	4805883a 	mov	r2,r9
   254a0:	d8c01417 	ldw	r3,80(sp)
   254a4:	1445c83a 	sub	r2,r2,r17
   254a8:	ad4011d8 	cmpnei	r21,r21,71
   254ac:	d8c00715 	stw	r3,28(sp)
   254b0:	d8800815 	stw	r2,32(sp)
   254b4:	a83f3426 	beq	r21,zero,25188 <___vfprintf_internal_r+0x18cc>
   254b8:	d8800f17 	ldw	r2,60(sp)
   254bc:	103f3726 	beq	r2,zero,2519c <___vfprintf_internal_r+0x18e0>
   254c0:	d8c00717 	ldw	r3,28(sp)
   254c4:	6080004c 	andi	r2,r12,1
   254c8:	1204b03a 	or	r2,r2,r8
   254cc:	00c1130e 	bge	zero,r3,2591c <___vfprintf_internal_r+0x2060>
   254d0:	10010e1e 	bne	r2,zero,2590c <___vfprintf_internal_r+0x2050>
   254d4:	dd400717 	ldw	r21,28(sp)
   254d8:	a829883a 	mov	r20,r21
   254dc:	d8800607 	ldb	r2,24(sp)
   254e0:	10008f26 	beq	r2,zero,25720 <___vfprintf_internal_r+0x1e64>
   254e4:	00800b44 	movi	r2,45
   254e8:	d8801345 	stb	r2,77(sp)
   254ec:	d8800e17 	ldw	r2,56(sp)
   254f0:	0011883a 	mov	r8,zero
   254f4:	d8800615 	stw	r2,24(sp)
   254f8:	003b9206 	br	24344 <___vfprintf_internal_r+0xa88>
   254fc:	044000f4 	movhi	r17,3
   25500:	8c4dc104 	addi	r17,r17,14084
   25504:	003a8b06 	br	23f34 <___vfprintf_internal_r+0x678>
   25508:	d8800617 	ldw	r2,24(sp)
   2550c:	d8c00615 	stw	r3,24(sp)
   25510:	15000017 	ldw	r20,0(r2)
   25514:	a02bd7fa 	srai	r21,r20,31
   25518:	a805883a 	mov	r2,r21
   2551c:	003ae306 	br	240ac <___vfprintf_internal_r+0x7f0>
   25520:	d8800617 	ldw	r2,24(sp)
   25524:	002b883a 	mov	r21,zero
   25528:	d8c00615 	stw	r3,24(sp)
   2552c:	15000017 	ldw	r20,0(r2)
   25530:	0005883a 	mov	r2,zero
   25534:	003a2406 	br	23dc8 <___vfprintf_internal_r+0x50c>
   25538:	d8800617 	ldw	r2,24(sp)
   2553c:	002b883a 	mov	r21,zero
   25540:	d8c00615 	stw	r3,24(sp)
   25544:	15000017 	ldw	r20,0(r2)
   25548:	00800044 	movi	r2,1
   2554c:	003a1e06 	br	23dc8 <___vfprintf_internal_r+0x50c>
   25550:	d8800617 	ldw	r2,24(sp)
   25554:	002b883a 	mov	r21,zero
   25558:	d8c00615 	stw	r3,24(sp)
   2555c:	15000017 	ldw	r20,0(r2)
   25560:	003af406 	br	24134 <___vfprintf_internal_r+0x878>
   25564:	800f883a 	mov	r7,r16
   25568:	dc000e17 	ldw	r16,56(sp)
   2556c:	10800044 	addi	r2,r2,1
   25570:	1d47883a 	add	r3,r3,r21
   25574:	d8801b15 	stw	r2,108(sp)
   25578:	b1c00015 	stw	r7,0(r22)
   2557c:	b5400115 	stw	r21,4(r22)
   25580:	d8c01c15 	stw	r3,112(sp)
   25584:	10800208 	cmpgei	r2,r2,8
   25588:	10003a1e 	bne	r2,zero,25674 <___vfprintf_internal_r+0x1db8>
   2558c:	b5800204 	addi	r22,r22,8
   25590:	003d6c06 	br	24b44 <___vfprintf_internal_r+0x1288>
