
task2.elf:     file format elf32-littlenios2
task2.elf
architecture: nios2:r1, flags 0x00000112:
EXEC_P, HAS_SYMS, D_PAGED
start address 0x00800020

Program Header:
    LOAD off    0x00001000 vaddr 0x00800000 paddr 0x00800000 align 2**12
         filesz 0x00000020 memsz 0x00000020 flags r-x
    LOAD off    0x00001020 vaddr 0x00800020 paddr 0x00800020 align 2**12
         filesz 0x0000f0a4 memsz 0x0000f0a4 flags r-x
    LOAD off    0x000100c4 vaddr 0x0080f0c4 paddr 0x0080fae4 align 2**12
         filesz 0x00000a20 memsz 0x00000a20 flags rw-
    LOAD off    0x00011504 vaddr 0x00810504 paddr 0x00810504 align 2**12
         filesz 0x00000000 memsz 0x00000048 flags rw-

Sections:
Idx Name          Size      VMA       LMA       File off  Algn
  0 .entry        00000020  00800000  00800000  00001000  2**5
                  CONTENTS, ALLOC, LOAD, READONLY, CODE
  1 .exceptions   00000000  00800020  00800020  00010ae4  2**0
                  CONTENTS
  2 .text         0000ea2c  00800020  00800020  00001020  2**2
                  CONTENTS, ALLOC, LOAD, READONLY, CODE
  3 .rodata       00000678  0080ea4c  0080ea4c  0000fa4c  2**2
                  CONTENTS, ALLOC, LOAD, READONLY, DATA
  4 .rwdata       00000a20  0080f0c4  0080fae4  000100c4  2**2
                  CONTENTS, ALLOC, LOAD, DATA, SMALL_DATA
  5 .bss          00000048  00810504  00810504  00011504  2**2
                  ALLOC, SMALL_DATA
  6 .sdram        00000000  0081054c  0081054c  00010ae4  2**0
                  CONTENTS
  7 .comment      0000002d  00000000  00000000  00010ae4  2**0
                  CONTENTS, READONLY
  8 .debug_aranges 00000d58  00000000  00000000  00010b18  2**3
                  CONTENTS, READONLY, DEBUGGING, OCTETS
  9 .debug_info   00028963  00000000  00000000  00011870  2**0
                  CONTENTS, READONLY, DEBUGGING, OCTETS
 10 .debug_abbrev 0000998d  00000000  00000000  0003a1d3  2**0
                  CONTENTS, READONLY, DEBUGGING, OCTETS
 11 .debug_line   000159e5  00000000  00000000  00043b60  2**0
                  CONTENTS, READONLY, DEBUGGING, OCTETS
 12 .debug_frame  00001b28  00000000  00000000  00059548  2**2
                  CONTENTS, READONLY, DEBUGGING, OCTETS
 13 .debug_str    0000324c  00000000  00000000  0005b070  2**0
                  CONTENTS, READONLY, DEBUGGING, OCTETS
 14 .debug_loc    0001faa5  00000000  00000000  0005e2bc  2**0
                  CONTENTS, READONLY, DEBUGGING, OCTETS
 15 .debug_alt_sim_info 00000030  00000000  00000000  0007dd64  2**2
                  CONTENTS, READONLY, DEBUGGING, OCTETS
 16 .debug_ranges 00002450  00000000  00000000  0007dd98  2**3
                  CONTENTS, READONLY, DEBUGGING, OCTETS
 17 .thread_model 00000003  00000000  00000000  00082be2  2**0
                  CONTENTS, READONLY
 18 .cpu          00000003  00000000  00000000  00082be5  2**0
                  CONTENTS, READONLY
 19 .qsys         00000001  00000000  00000000  00082be8  2**0
                  CONTENTS, READONLY
 20 .simulation_enabled 00000001  00000000  00000000  00082be9  2**0
                  CONTENTS, READONLY
 21 .sysid_hash   00000004  00000000  00000000  00082bea  2**0
                  CONTENTS, READONLY
 22 .sysid_base   00000004  00000000  00000000  00082bee  2**0
                  CONTENTS, READONLY
 23 .sysid_time   00000004  00000000  00000000  00082bf2  2**0
                  CONTENTS, READONLY
 24 .stderr_dev   00000009  00000000  00000000  00082bf6  2**0
                  CONTENTS, READONLY
 25 .stdin_dev    00000009  00000000  00000000  00082bff  2**0
                  CONTENTS, READONLY
 26 .stdout_dev   00000009  00000000  00000000  00082c08  2**0
                  CONTENTS, READONLY
 27 .sopc_system_name 00000003  00000000  00000000  00082c11  2**0
                  CONTENTS, READONLY
 28 .quartus_project_dir 0000003b  00000000  00000000  00082c14  2**0
                  CONTENTS, READONLY
 29 .jdi          000041d9  00000000  00000000  00082c4f  2**0
                  CONTENTS, READONLY
 30 .sopcinfo     000350ce  00000000  00000000  00086e28  2**0
                  CONTENTS, READONLY
SYMBOL TABLE:
00800000 l    d  .entry	00000000 .entry
00800020 l    d  .exceptions	00000000 .exceptions
00800020 l    d  .text	00000000 .text
0080ea4c l    d  .rodata	00000000 .rodata
0080f0c4 l    d  .rwdata	00000000 .rwdata
00810504 l    d  .bss	00000000 .bss
0081054c l    d  .sdram	00000000 .sdram
00000000 l    d  .comment	00000000 .comment
00000000 l    d  .debug_aranges	00000000 .debug_aranges
00000000 l    d  .debug_info	00000000 .debug_info
00000000 l    d  .debug_abbrev	00000000 .debug_abbrev
00000000 l    d  .debug_line	00000000 .debug_line
00000000 l    d  .debug_frame	00000000 .debug_frame
00000000 l    d  .debug_str	00000000 .debug_str
00000000 l    d  .debug_loc	00000000 .debug_loc
00000000 l    d  .debug_alt_sim_info	00000000 .debug_alt_sim_info
00000000 l    d  .debug_ranges	00000000 .debug_ranges
00000000 l    df *ABS*	00000000 ../task2_bsp//obj/HAL/src/crt0.o
00800068 l       .text	00000000 alt_after_alt_main
00000000 l    df *ABS*	00000000 hello_world_small.c
00000000 l    df *ABS*	00000000 asprintf.c
00000000 l    df *ABS*	00000000 impure.c
0080f0c4 l     O .rwdata	00000424 impure_data
00000000 l    df *ABS*	00000000 malloc.c
00000000 l    df *ABS*	00000000 mallocr.c
00000000 l    df *ABS*	00000000 memset.c
00000000 l    df *ABS*	00000000 sbrkr.c
00000000 l    df *ABS*	00000000 vfprintf.c
0080eacc l     O .rodata	00000010 blanks.1
0080eabc l     O .rodata	00000010 zeroes.0
00000000 l    df *ABS*	00000000 dtoa.c
00802c68 l     F .text	00000220 quorem
00000000 l    df *ABS*	00000000 mallocr.c
00000000 l    df *ABS*	00000000 int_errno.c
00000000 l    df *ABS*	00000000 localeconv.c
00000000 l    df *ABS*	00000000 memchr.c
00000000 l    df *ABS*	00000000 memcpy.c
00000000 l    df *ABS*	00000000 mprec.c
0080eb80 l     O .rodata	0000000c p05.0
00000000 l    df *ABS*	00000000 strlen.c
00000000 l    df *ABS*	00000000 vfprintf.c
0080ecb4 l     O .rodata	00000010 blanks.1
0080eca4 l     O .rodata	00000010 zeroes.0
00000000 l    df *ABS*	00000000 assert.c
00000000 l    df *ABS*	00000000 mallocr.c
00000000 l    df *ABS*	00000000 fiprintf.c
00000000 l    df *ABS*	00000000 locale.c
00000000 l    df *ABS*	00000000 mbtowc_r.c
00000000 l    df *ABS*	00000000 memmove.c
00000000 l    df *ABS*	00000000 mallocr.c
00000000 l    df *ABS*	00000000 strcmp.c
00000000 l    df *ABS*	00000000 vfiprintfr_1.c
00000000 l    df *ABS*	00000000 wctomb_r.c
00000000 l    df *ABS*	00000000 abort.c
00000000 l    df *ABS*	00000000 ctype_.c
00000000 l    df *ABS*	00000000 signal.c
00000000 l    df *ABS*	00000000 signalr.c
00000000 l    df *ABS*	00000000 vfprintf.c
008080ec l     F .text	000000f4 __sprint_r.part.0
00809558 l     F .text	000000c0 __sbprintf
0080efa8 l     O .rodata	00000010 blanks.1
0080ef98 l     O .rodata	00000010 zeroes.0
00000000 l    df *ABS*	00000000 wsetup.c
00000000 l    df *ABS*	00000000 fflush.c
00000000 l    df *ABS*	00000000 findfp.c
00809a88 l     F .text	00000008 __fp_lock
00809a9c l     F .text	00000008 __fp_unlock
00809aa4 l     F .text	00000168 __sinit.part.0
00000000 l    df *ABS*	00000000 fputwc.c
00000000 l    df *ABS*	00000000 fvwrite.c
00000000 l    df *ABS*	00000000 fwalk.c
00000000 l    df *ABS*	00000000 makebuf.c
00000000 l    df *ABS*	00000000 stdio.c
00000000 l    df *ABS*	00000000 wbuf.c
00000000 l    df *ABS*	00000000 wcrtomb.c
00000000 l    df *ABS*	00000000 writer.c
00000000 l    df *ABS*	00000000 closer.c
00000000 l    df *ABS*	00000000 fclose.c
0080acd4 l     F .text	000000c0 _fclose_r.part.0
00000000 l    df *ABS*	00000000 fstatr.c
00000000 l    df *ABS*	00000000 isattyr.c
00000000 l    df *ABS*	00000000 lseekr.c
00000000 l    df *ABS*	00000000 readr.c
00000000 l    df *ABS*	00000000 libgcc2.c
00000000 l    df *ABS*	00000000 libgcc2.c
00000000 l    df *ABS*	00000000 lib2-divmod.c
00000000 l    df *ABS*	00000000 lib2-mul.c
00000000 l    df *ABS*	00000000 adddf3.c
00000000 l    df *ABS*	00000000 divdf3.c
00000000 l    df *ABS*	00000000 eqdf2.c
00000000 l    df *ABS*	00000000 gedf2.c
00000000 l    df *ABS*	00000000 ledf2.c
00000000 l    df *ABS*	00000000 muldf3.c
00000000 l    df *ABS*	00000000 subdf3.c
00000000 l    df *ABS*	00000000 unorddf2.c
00000000 l    df *ABS*	00000000 fixdfsi.c
00000000 l    df *ABS*	00000000 floatsidf.c
00000000 l    df *ABS*	00000000 floatunsidf.c
00000000 l    df *ABS*	00000000 libgcc2.c
00000000 l    df *ABS*	00000000 libgcc2.c
00000000 l    df *ABS*	00000000 alt_close.c
00000000 l    df *ABS*	00000000 alt_errno.c
00000000 l    df *ABS*	00000000 alt_fstat.c
00000000 l    df *ABS*	00000000 alt_getchar.c
00000000 l    df *ABS*	00000000 alt_getpid.c
00000000 l    df *ABS*	00000000 alt_isatty.c
00000000 l    df *ABS*	00000000 alt_kill.c
00000000 l    df *ABS*	00000000 alt_load.c
00000000 l    df *ABS*	00000000 alt_lseek.c
00000000 l    df *ABS*	00000000 alt_main.c
00000000 l    df *ABS*	00000000 alt_malloc_lock.c
00000000 l    df *ABS*	00000000 alt_putstr.c
00000000 l    df *ABS*	00000000 alt_read.c
00000000 l    df *ABS*	00000000 alt_sbrk.c
0080fac8 l     O .rwdata	00000004 heap_end
00000000 l    df *ABS*	00000000 alt_write.c
00000000 l    df *ABS*	00000000 alt_sys_init.c
00000000 l    df *ABS*	00000000 altera_avalon_jtag_uart_read.c
00000000 l    df *ABS*	00000000 altera_avalon_jtag_uart_write.c
00000000 l    df *ABS*	00000000 alt_dcache_flush_all.c
00000000 l    df *ABS*	00000000 alt_dev.c
0080e98c l     F .text	00000008 alt_dev_null_write
00000000 l    df *ABS*	00000000 alt_do_ctors.c
00000000 l    df *ABS*	00000000 alt_icache_flush_all.c
00000000 l    df *ABS*	00000000 altera_nios2_gen2_irq.c
00000000 l    df *ABS*	00000000 alt_icache_flush.c
00805c7c g     F .text	00000070 _mprec_log10
00805d68 g     F .text	00000060 __any_on
0080aed4 g     F .text	00000058 _isatty_r
0080eb8c g     O .rodata	00000028 __mprec_tinytens
0080e75c g     F .text	00000030 alt_main
0080af2c g     F .text	00000064 _lseek_r
0080fae4 g       *ABS*	00000000 __flash_rwdata_start
0080cfd4 g     F .text	00000080 .hidden __eqdf2
0081054c g       *ABS*	00000000 __alt_heap_start
00808088 g     F .text	00000060 _kill_r
0080ab24 g     F .text	0000006c _wcrtomb_r
00807bf8 g     F .text	00000098 _signal_r
0080a960 g     F .text	0000005c __sseek
00809dec g     F .text	00000010 __sinit
0080a9c4 g     F .text	00000148 __swbuf_r
008072b8 g     F .text	00000074 _setlocale_r
00809c0c g     F .text	00000078 __sfmoreglue
0080e790 g     F .text	00000004 __malloc_unlock
008073fc g     F .text	0000012c memmove
00809dd8 g     F .text	00000014 _cleanup
00804bd8 g     F .text	000000a4 _Balloc
00800168 g     F .text	00000054 read_chars
0080e794 g     F .text	00000038 alt_putstr
0080d054 g     F .text	000000e8 .hidden __gtdf2
0080facc g     O .rwdata	00000004 jtag_uart
0080e9e8 g     F .text	00000008 altera_nios2_gen2_irq_init
00800000 g     F .entry	0000001c __reset
008049e8 g     F .text	00000008 __localeconv_l
00800020 g       *ABS*	00000000 __flash_exceptions_start
0080ae74 g     F .text	00000060 _fstat_r
00810510 g     O .bss	00000004 errno
0080a8d8 g     F .text	00000008 __seofread
00806024 g     F .text	00001100 ___svfiprintf_internal_r
0081051c g     O .bss	00000004 alt_argv
00817ab4 g       *ABS*	00000000 _gp
008000c8 g     F .text	000000a0 generate_text
0080e594 g     F .text	00000008 getpid
0080fa5c g     O .rwdata	00000030 alt_fd_list
00804ad8 g     F .text	00000100 memcpy
00809a90 g     F .text	0000000c _cleanup_r
0080e358 g     F .text	000000b8 .hidden __floatsidf
0080d13c g     F .text	000000e8 .hidden __ltdf2
00805bd8 g     F .text	000000a4 __ratio
0080953c g     F .text	0000001c __vfiprintf_internal
0080e8ec g     F .text	00000058 altera_avalon_jtag_uart_read
00800290 g     F .text	00000010 malloc
0080bccc g     F .text	00000064 .hidden __udivsi3
0080e59c g     F .text	00000008 isatty
00807c90 g     F .text	000000c4 _raise_r
00807124 g     F .text	00000064 __assert_func
0080ebdc g     O .rodata	000000c8 __mprec_tens
0080e9f0 g     F .text	0000005c alt_icache_flush
0081050c g     O .bss	00000004 __malloc_top_pad
008080e8 g     F .text	00000004 _getpid_r
008049f0 g     F .text	0000000c _localeconv_r
0080a034 g     F .text	000004c8 __sfvwrite_r
00805048 g     F .text	000000b0 __i2b
00807d54 g     F .text	000000bc __sigtramp_r
00800b80 g     F .text	00000058 _sbrk_r
0080af90 g     F .text	00000064 _read_r
0080fad0 g     O .rwdata	00000004 alt_max_fd
0080ad94 g     F .text	00000070 _fclose_r
00809a04 g     F .text	00000084 fflush
00810508 g     O .bss	00000004 __malloc_max_sbrked_mem
0080bdb4 g     F .text	000008f0 .hidden __adddf3
0080596c g     F .text	00000108 __b2d
0080b614 g     F .text	000005c4 .hidden __umoddi3
0080e71c g     F .text	00000040 lseek
0080fab4 g     O .rwdata	00000004 _global_impure_ptr
00807528 g     F .text	00000564 _realloc_r
0081054c g       *ABS*	00000000 __bss_end
0080e554 g     F .text	00000040 alt_getchar
0080aff4 g     F .text	00000620 .hidden __udivdi3
00809f98 g     F .text	00000024 _fputwc_r
0080ebb4 g     O .rodata	00000028 __mprec_bigtens
00804dfc g     F .text	00000138 __s2b
00807b84 g     F .text	00000018 abort
0080e410 g     F .text	00000090 .hidden __floatunsidf
0080568c g     F .text	00000058 __mcmp
00809e0c g     F .text	00000014 __fp_lock_all
0080fa8c g     O .rwdata	00000028 alt_dev_null
0080e974 g     F .text	00000018 alt_dcache_flush_all
00804f34 g     F .text	00000064 __hi0bits
0080e2d8 g     F .text	00000080 .hidden __fixdfsi
0080006c g     F .text	0000005c print_text
0080fae4 g       *ABS*	00000000 __ram_rwdata_end
0080fad4 g     O .rwdata	00000008 alt_dev_list
0080e86c g     F .text	0000005c write
0080f0c4 g       *ABS*	00000000 __ram_rodata_end
0080e534 g     F .text	00000020 fstat
0080e5a4 g     F .text	000000f4 kill
0080d13c g     F .text	000000e8 .hidden __ledf2
008053bc g     F .text	00000148 __pow5mult
008081f8 g     F .text	00001344 ___vfiprintf_internal_r
0080bd30 g     F .text	0000005c .hidden __umodsi3
0081054c g       *ABS*	00000000 end
0080ea4c g       *ABS*	00000000 __CTOR_LIST__
01000000 g       *ABS*	00000000 __alt_stack_pointer
0080e4a0 g     F .text	00000054 .hidden __clzsi2
0080e944 g     F .text	00000030 altera_avalon_jtag_uart_write
008001c0 g     F .text	00000060 _asprintf_r
00809dfc g     F .text	00000004 __sfp_lock_acquire
00804a08 g     F .text	000000d0 memchr
008046ec g     F .text	000002fc _free_r
0080ee18 g     O .rodata	00000180 _ctype_b
0080732c g     F .text	0000000c __locale_mb_cur_max
0080fabc g     O .rwdata	00000004 __malloc_sbrk_base
00800020 g     F .text	0000004c _start
00805504 g     F .text	00000188 __lshift
00807ecc g     F .text	000000a0 signal
0080e7cc g     F .text	00000054 read
0080e8e8 g     F .text	00000004 alt_sys_init
00805e60 g     F .text	000001c4 __ssprint_r
008050f8 g     F .text	000002c4 __multiply
0080bd8c g     F .text	00000028 .hidden __mulsi3
0080f0c4 g       *ABS*	00000000 __ram_rwdata_start
0080ea4c g       *ABS*	00000000 __ram_rodata_start
00810524 g     O .bss	00000028 __malloc_current_mallinfo
00805a74 g     F .text	00000164 __d2b
0080ac7c g     F .text	00000058 _close_r
0081054c g       *ABS*	00000000 __alt_stack_base
00809618 g     F .text	00000164 __swsetup_r
0080c6a4 g     F .text	00000930 .hidden __divdf3
00809c84 g     F .text	00000154 __sfp
00805cec g     F .text	0000007c __copybits
0080f4e8 g     O .rwdata	00000408 __malloc_av_
00809e08 g     F .text	00000004 __sinit_lock_release
0080d224 g     F .text	000007ac .hidden __muldf3
0080a884 g     F .text	00000054 __sread
0080e78c g     F .text	00000004 __malloc_lock
0080e820 g     F .text	0000004c sbrk
00800bd8 g     F .text	00002090 ___svfprintf_internal_r
008099a4 g     F .text	00000060 _fflush_r
0080719c g     F .text	000000c4 _calloc_r
00810504 g       *ABS*	00000000 __bss_start
00800a90 g     F .text	000000f0 memset
008001bc g     F .text	00000004 main
00810518 g     O .bss	00000004 alt_envp
00810504 g     O .bss	00000004 __malloc_max_total_mem
0080ab0c g     F .text	00000018 __swbuf
0080a9bc g     F .text	00000008 __sclose
01000000 g       *ABS*	00000000 __alt_heap_limit
0080ae04 g     F .text	00000070 fclose
00802e88 g     F .text	00001748 _dtoa_r
008002b0 g     F .text	000007e0 _malloc_r
00807b54 g     F .text	00000030 __ascii_wctomb
0080fac4 g     O .rwdata	00000004 alt_errno
00807260 g     F .text	00000020 _fiprintf_r
00807f6c g     F .text	00000060 _init_signal
0080a4fc g     F .text	00000098 _fwalk
008073ac g     F .text	0000000c _mbtowc_r
0080bbd8 g     F .text	00000080 .hidden __divsi3
008045d0 g     F .text	0000011c _malloc_trim_r
0080ea4c g       *ABS*	00000000 __CTOR_END__
00807a8c g     F .text	000000b8 strcmp
0080ea4c g       *ABS*	00000000 __flash_rodata_start
0080cfd4 g     F .text	00000080 .hidden __nedf2
0080e8c8 g     F .text	00000020 alt_irq_init
0080efb8 g     O .rodata	00000100 .hidden __clz_tab
00800220 g     F .text	00000070 asprintf
00810514 g     O .bss	00000004 _PathLocale
0080ac18 g     F .text	00000064 _write_r
00807338 g     F .text	00000074 setlocale
0080fab8 g     O .rwdata	00000004 _impure_ptr
00810520 g     O .bss	00000004 alt_argc
0080977c g     F .text	00000228 __sflush_r
008073b8 g     F .text	00000044 __ascii_mbtowc
00805910 g     F .text	0000005c __ulp
00809e20 g     F .text	00000014 __fp_unlock_all
0080fadc g     O .rwdata	00000008 alt_fs_list
00800020 g       *ABS*	00000000 __ram_exceptions_start
008049fc g     F .text	0000000c localeconv
0080a7ec g     F .text	00000098 __swhatbuf_r
0080fae4 g       *ABS*	00000000 _edata
0081054c g       *ABS*	00000000 _end
00809e34 g     F .text	00000164 __fputwc
00800020 g       *ABS*	00000000 __ram_exceptions_end
0080a8e0 g     F .text	00000080 __swrite
0080fac0 g     O .rwdata	00000004 __malloc_trim_threshold
00807280 g     F .text	00000038 fiprintf
00807b44 g     F .text	00000004 _vfiprintf_r
0080a594 g     F .text	000000a8 _fwalk_reent
008056e4 g     F .text	0000022c __mdiff
0080bc58 g     F .text	00000074 .hidden __modsi3
01000000 g       *ABS*	00000000 __alt_data_end
00809e00 g     F .text	00000004 __sfp_lock_release
00800000 g       *ABS*	00000000 __alt_mem_sdram
0080ed14 g     O .rodata	00000101 _ctype_
0080e284 g     F .text	00000054 .hidden __unorddf2
0080001c g       .entry	00000000 _exit
0080a63c g     F .text	000001b0 __smakebuf_r
00805dc8 g     F .text	00000098 strlen
00807b9c g     F .text	0000005c _init_signal_r
0080d054 g     F .text	000000e8 .hidden __gedf2
00807188 g     F .text	00000014 __assert
008081e0 g     F .text	00000018 __sprint_r
0080e9dc g     F .text	0000000c alt_icache_flush_all
00807b48 g     F .text	0000000c _wctomb_r
0080d9d0 g     F .text	000008b4 .hidden __subdf3
00804f98 g     F .text	000000b0 __lo0bits
0080e994 g     F .text	00000048 _do_ctors
00807fcc g     F .text	000000bc __sigtramp
0080ab90 g     F .text	00000088 wcrtomb
0080e4f4 g     F .text	00000040 close
0080f8f0 g     O .rwdata	0000016c __global_locale
0080e698 g     F .text	00000084 alt_load
00809fbc g     F .text	00000078 fputwc
00807e10 g     F .text	000000bc raise
008002a0 g     F .text	00000010 free
00809e04 g     F .text	00000004 __sinit_lock_acquire
00804ca0 g     F .text	0000015c __multadd
00804c7c g     F .text	00000024 _Bfree



Disassembly of section .entry:

00800000 <__reset>:
#if NIOS2_ICACHE_SIZE > 0 && defined(ALT_ALLOW_CODE_AT_RESET) && (!defined(ALT_SIM_OPTIMIZE) || defined(NIOS2_ECC_PRESENT))
    /* Assume the instruction cache size is always a power of two. */
#if NIOS2_ICACHE_SIZE > 0x8000
    movhi r2, %hi(NIOS2_ICACHE_SIZE)
#else
    movui r2, NIOS2_ICACHE_SIZE
  800000:	00840014 	movui	r2,4096
#endif

0:
    initi r2
  800004:	1001483a 	initi	r2
    addi r2, r2, -NIOS2_ICACHE_LINE_SIZE
  800008:	10bff804 	addi	r2,r2,-32
    bgt r2, zero, 0b
  80000c:	00bffd16 	blt	zero,r2,800004 <__reset+0x4>
 * Jump to the _start entry point in the .text section if reset code
 * is allowed or if optimizing for RTL simulation.
 */
#if defined(ALT_ALLOW_CODE_AT_RESET) || defined(ALT_SIM_OPTIMIZE)
    /* Jump to the _start entry point in the .text section. */
    movhi r1, %hi(_start)
  800010:	00402034 	movhi	at,128
    ori r1, r1, %lo(_start)
  800014:	08400814 	ori	at,at,32
    jmp r1
  800018:	0800683a 	jmp	at

0080001c <_exit>:
  80001c:	00000000 	call	0 <__alt_mem_sdram-0x800000>

Disassembly of section .text:

00800020 <_start>:

    /* Assume the data cache size is always a power of two. */
#if NIOS2_DCACHE_SIZE > 0x8000
    movhi r2, %hi(NIOS2_DCACHE_SIZE)
#else
    movui r2, NIOS2_DCACHE_SIZE
  800020:	00820014 	movui	r2,2048
#endif

0:
    initd 0(r2)
  800024:	10000033 	initd	0(r2)
#ifdef NIOS2_ECC_PRESENT
    addi r2, r2, -4
#else
    addi r2, r2, -NIOS2_DCACHE_LINE_SIZE
  800028:	10bff804 	addi	r2,r2,-32
#endif
    bgt r2, zero, 0b
  80002c:	00bffd16 	blt	zero,r2,800024 <_start+0x4>

    /*
     * Now that the caches are initialized, set up the stack pointer and global pointer.
     * The values provided by the linker are assumed to be correctly aligned.
     */
    movhi sp, %hi(__alt_stack_pointer)
  800030:	06c04034 	movhi	sp,256
    ori sp, sp, %lo(__alt_stack_pointer)
  800034:	dec00014 	ori	sp,sp,0
    movhi gp, %hi(_gp)
  800038:	06802074 	movhi	gp,129
    ori gp, gp, %lo(_gp)
  80003c:	d69ead14 	ori	gp,gp,31412
 */
#ifndef ALT_SIM_OPTIMIZE
    /* Log that the BSS is about to be cleared. */
    ALT_LOG_PUTS(alt_log_msg_bss)

    movhi r2, %hi(__bss_start)
  800040:	00802074 	movhi	r2,129
    ori r2, r2, %lo(__bss_start)
  800044:	10814114 	ori	r2,r2,1284

    movhi r3, %hi(__bss_end)
  800048:	00c02074 	movhi	r3,129
    ori r3, r3, %lo(__bss_end)
  80004c:	18c15314 	ori	r3,r3,1356

    beq r2, r3, 1f
  800050:	10c00326 	beq	r2,r3,800060 <_start+0x40>

0:
    stw zero, (r2)
  800054:	10000015 	stw	zero,0(r2)
    addi r2, r2, 4
  800058:	10800104 	addi	r2,r2,4
    bltu r2, r3, 0b
  80005c:	10fffd36 	bltu	r2,r3,800054 <_start+0x34>
     * section aren't defined until alt_load() has been called).
     */
    mov   et, zero
#endif

    call alt_load
  800060:	080e6980 	call	80e698 <alt_load>

    /* Log that alt_main is about to be called. */
    ALT_LOG_PUTS(alt_log_msg_alt_main)

    /* Call the C entry point. It should never return. */
    call alt_main
  800064:	080e75c0 	call	80e75c <alt_main>

00800068 <alt_after_alt_main>:

    /* Wait in infinite loop in case alt_main does return. */
alt_after_alt_main:
    br alt_after_alt_main
  800068:	003fff06 	br	800068 <alt_after_alt_main>

0080006c <print_text>:
#include <stdio.h>
#include <string.h>
#define CHARLIM 256		// Maximum character length of what the user places in memory.  Increase to allow longer sequences
#define QUITLETTER '~' 		// Letter to kill all processing

void print_text(char *text, const int length) {
  80006c:	defffc04 	addi	sp,sp,-16
	char *printMsg;
	asprintf(&printMsg, "<--> Detected %d characters: %s <--> \n %c", length, text, 0x4); 	// Print out the strings
  800070:	280d883a 	mov	r6,r5
  800074:	00800104 	movi	r2,4
  800078:	01402074 	movhi	r5,129
void print_text(char *text, const int length) {
  80007c:	dc000215 	stw	r16,8(sp)
	asprintf(&printMsg, "<--> Detected %d characters: %s <--> \n %c", length, text, 0x4); 	// Print out the strings
  800080:	200f883a 	mov	r7,r4
  800084:	297a9304 	addi	r5,r5,-5556
void print_text(char *text, const int length) {
  800088:	2021883a 	mov	r16,r4
	asprintf(&printMsg, "<--> Detected %d characters: %s <--> \n %c", length, text, 0x4); 	// Print out the strings
  80008c:	d8800015 	stw	r2,0(sp)
  800090:	d9000104 	addi	r4,sp,4
void print_text(char *text, const int length) {
  800094:	dfc00315 	stw	ra,12(sp)
	asprintf(&printMsg, "<--> Detected %d characters: %s <--> \n %c", length, text, 0x4); 	// Print out the strings
  800098:	08002200 	call	800220 <asprintf>
	alt_putstr(printMsg);
  80009c:	d9000117 	ldw	r4,4(sp)
  8000a0:	080e7940 	call	80e794 <alt_putstr>
	free(printMsg);
  8000a4:	d9000117 	ldw	r4,4(sp)
  8000a8:	08002a00 	call	8002a0 <free>
	memset(text, 0, 2*CHARLIM);								// Empty the text buffer for next input
  8000ac:	01808004 	movi	r6,512
  8000b0:	000b883a 	mov	r5,zero
  8000b4:	8009883a 	mov	r4,r16
}
  8000b8:	dfc00317 	ldw	ra,12(sp)
  8000bc:	dc000217 	ldw	r16,8(sp)
  8000c0:	dec00404 	addi	sp,sp,16
	memset(text, 0, 2*CHARLIM);								// Empty the text buffer for next input
  8000c4:	0800a901 	jmpi	800a90 <memset>

008000c8 <generate_text>:

char generate_text(char curr, int *length, char *text, int *running) {
  8000c8:	2005883a 	mov	r2,r4
	if(curr == '\n') return curr;								// If the line is empty, return nothing.
  8000cc:	21003fcc 	andi	r4,r4,255
  8000d0:	2100201c 	xori	r4,r4,128
  8000d4:	213fe004 	addi	r4,r4,-128
  8000d8:	210002a0 	cmpeqi	r4,r4,10
  8000dc:	2000211e 	bne	r4,zero,800164 <generate_text+0x9c>
char generate_text(char curr, int *length, char *text, int *running) {
  8000e0:	defffb04 	addi	sp,sp,-20
  8000e4:	dcc00315 	stw	r19,12(sp)
  8000e8:	dc800215 	stw	r18,8(sp)
  8000ec:	dc400115 	stw	r17,4(sp)
  8000f0:	dc000015 	stw	r16,0(sp)
  8000f4:	dfc00415 	stw	ra,16(sp)
  8000f8:	2823883a 	mov	r17,r5
  8000fc:	3025883a 	mov	r18,r6
  800100:	3827883a 	mov	r19,r7
	int idx = 0;										// Keep track of how many characters have been sent down for later printing
  800104:	0021883a 	mov	r16,zero
	char newCurr = curr;

	while (newCurr != EOF && newCurr != '\n'){						// Keep reading characters until we get to the end of the line
  800108:	10c03fcc 	andi	r3,r2,255
  80010c:	18c0201c 	xori	r3,r3,128
  800110:	18ffe004 	addi	r3,r3,-128
  800114:	193fffe0 	cmpeqi	r4,r3,-1
  800118:	2000021e 	bne	r4,zero,800124 <generate_text+0x5c>
  80011c:	19000298 	cmpnei	r4,r3,10
  800120:	2000081e 	bne	r4,zero,800144 <generate_text+0x7c>
		if (newCurr == QUITLETTER) { *running = 0; }					// If quitting letter is encountered, setting running to 0
		text[idx] = newCurr;								// Add the next letter to the text buffer
		idx++;										// Keep track of the number of characters read
		newCurr = alt_getchar();							// Get the next character
	}
	*length = idx;
  800124:	8c000015 	stw	r16,0(r17)

	return newCurr;
}
  800128:	dfc00417 	ldw	ra,16(sp)
  80012c:	dcc00317 	ldw	r19,12(sp)
  800130:	dc800217 	ldw	r18,8(sp)
  800134:	dc400117 	ldw	r17,4(sp)
  800138:	dc000017 	ldw	r16,0(sp)
  80013c:	dec00504 	addi	sp,sp,20
  800140:	f800283a 	ret
		if (newCurr == QUITLETTER) { *running = 0; }					// If quitting letter is encountered, setting running to 0
  800144:	18c01f98 	cmpnei	r3,r3,126
  800148:	1800011e 	bne	r3,zero,800150 <generate_text+0x88>
  80014c:	98000015 	stw	zero,0(r19)
		text[idx] = newCurr;								// Add the next letter to the text buffer
  800150:	9407883a 	add	r3,r18,r16
  800154:	18800005 	stb	r2,0(r3)
		idx++;										// Keep track of the number of characters read
  800158:	84000044 	addi	r16,r16,1
		newCurr = alt_getchar();							// Get the next character
  80015c:	080e5540 	call	80e554 <alt_getchar>
  800160:	003fe906 	br	800108 <generate_text+0x40>
}
  800164:	f800283a 	ret

00800168 <read_chars>:

int read_chars() {
  800168:	deff7d04 	addi	sp,sp,-524
	char text[2*CHARLIM];									// The buffer for the printing text
	char prevLetter = '!';
	int length = 0;
	int running = 1;
  80016c:	00800044 	movi	r2,1
int read_chars() {
  800170:	dfc08215 	stw	ra,520(sp)
	int length = 0;
  800174:	d8000015 	stw	zero,0(sp)
	int running = 1;
  800178:	d8800115 	stw	r2,4(sp)

	while (running) {									// Keep running until QUITLETTER is encountered
		prevLetter = alt_getchar();							// Extract the first character (and create a hold until one arrives)
  80017c:	080e5540 	call	80e554 <alt_getchar>
		prevLetter = generate_text(prevLetter, &length, text, &running);		// Process input text
  800180:	11003fcc 	andi	r4,r2,255
  800184:	2100201c 	xori	r4,r4,128
  800188:	d9c00104 	addi	r7,sp,4
  80018c:	d9800204 	addi	r6,sp,8
  800190:	d80b883a 	mov	r5,sp
  800194:	213fe004 	addi	r4,r4,-128
  800198:	08000c80 	call	8000c8 <generate_text>
		print_text(text, length);							// Print input text
  80019c:	d9400017 	ldw	r5,0(sp)
  8001a0:	d9000204 	addi	r4,sp,8
  8001a4:	080006c0 	call	80006c <print_text>
	while (running) {									// Keep running until QUITLETTER is encountered
  8001a8:	d8800117 	ldw	r2,4(sp)
  8001ac:	103ff31e 	bne	r2,zero,80017c <read_chars+0x14>
	}

	return 0;
}
  8001b0:	dfc08217 	ldw	ra,520(sp)
  8001b4:	dec08304 	addi	sp,sp,524
  8001b8:	f800283a 	ret

008001bc <main>:

int main() {
	return read_chars();
  8001bc:	08001681 	jmpi	800168 <read_chars>

008001c0 <_asprintf_r>:
  8001c0:	deffe304 	addi	sp,sp,-116
  8001c4:	dc001a15 	stw	r16,104(sp)
  8001c8:	2821883a 	mov	r16,r5
  8001cc:	dfc01b15 	stw	ra,108(sp)
  8001d0:	d9c01c15 	stw	r7,112(sp)
  8001d4:	00bffff4 	movhi	r2,65535
  8001d8:	1080a204 	addi	r2,r2,648
  8001dc:	d9c01c04 	addi	r7,sp,112
  8001e0:	d80b883a 	mov	r5,sp
  8001e4:	d8000015 	stw	zero,0(sp)
  8001e8:	d8000215 	stw	zero,8(sp)
  8001ec:	d8800315 	stw	r2,12(sp)
  8001f0:	d8000415 	stw	zero,16(sp)
  8001f4:	d8000515 	stw	zero,20(sp)
  8001f8:	0800bd80 	call	800bd8 <___svfprintf_internal_r>
  8001fc:	10000416 	blt	r2,zero,800210 <_asprintf_r+0x50>
  800200:	d8c00017 	ldw	r3,0(sp)
  800204:	18000005 	stb	zero,0(r3)
  800208:	d8c00417 	ldw	r3,16(sp)
  80020c:	80c00015 	stw	r3,0(r16)
  800210:	dfc01b17 	ldw	ra,108(sp)
  800214:	dc001a17 	ldw	r16,104(sp)
  800218:	dec01d04 	addi	sp,sp,116
  80021c:	f800283a 	ret

00800220 <asprintf>:
  800220:	deffe204 	addi	sp,sp,-120
  800224:	dc001a15 	stw	r16,104(sp)
  800228:	2021883a 	mov	r16,r4
  80022c:	dfc01b15 	stw	ra,108(sp)
  800230:	d9801c15 	stw	r6,112(sp)
  800234:	d9c01d15 	stw	r7,116(sp)
  800238:	00802074 	movhi	r2,129
  80023c:	113eae17 	ldw	r4,-1352(r2)
  800240:	00bffff4 	movhi	r2,65535
  800244:	1080a204 	addi	r2,r2,648
  800248:	280d883a 	mov	r6,r5
  80024c:	d9c01c04 	addi	r7,sp,112
  800250:	d80b883a 	mov	r5,sp
  800254:	d8000015 	stw	zero,0(sp)
  800258:	d8000215 	stw	zero,8(sp)
  80025c:	d8800315 	stw	r2,12(sp)
  800260:	d8000415 	stw	zero,16(sp)
  800264:	d8000515 	stw	zero,20(sp)
  800268:	0800bd80 	call	800bd8 <___svfprintf_internal_r>
  80026c:	10000416 	blt	r2,zero,800280 <asprintf+0x60>
  800270:	d8c00017 	ldw	r3,0(sp)
  800274:	18000005 	stb	zero,0(r3)
  800278:	d8c00417 	ldw	r3,16(sp)
  80027c:	80c00015 	stw	r3,0(r16)
  800280:	dfc01b17 	ldw	ra,108(sp)
  800284:	dc001a17 	ldw	r16,104(sp)
  800288:	dec01e04 	addi	sp,sp,120
  80028c:	f800283a 	ret

00800290 <malloc>:
  800290:	00802074 	movhi	r2,129
  800294:	200b883a 	mov	r5,r4
  800298:	113eae17 	ldw	r4,-1352(r2)
  80029c:	08002b01 	jmpi	8002b0 <_malloc_r>

008002a0 <free>:
  8002a0:	00802074 	movhi	r2,129
  8002a4:	200b883a 	mov	r5,r4
  8002a8:	113eae17 	ldw	r4,-1352(r2)
  8002ac:	08046ec1 	jmpi	8046ec <_free_r>

008002b0 <_malloc_r>:
  8002b0:	defff604 	addi	sp,sp,-40
  8002b4:	dc400115 	stw	r17,4(sp)
  8002b8:	2c4002c4 	addi	r17,r5,11
  8002bc:	dc800215 	stw	r18,8(sp)
  8002c0:	dfc00915 	stw	ra,36(sp)
  8002c4:	df000815 	stw	fp,32(sp)
  8002c8:	ddc00715 	stw	r23,28(sp)
  8002cc:	dd800615 	stw	r22,24(sp)
  8002d0:	dd400515 	stw	r21,20(sp)
  8002d4:	dd000415 	stw	r20,16(sp)
  8002d8:	dcc00315 	stw	r19,12(sp)
  8002dc:	dc000015 	stw	r16,0(sp)
  8002e0:	888005e8 	cmpgeui	r2,r17,23
  8002e4:	2025883a 	mov	r18,r4
  8002e8:	10001b1e 	bne	r2,zero,800358 <_malloc_r+0xa8>
  8002ec:	29400468 	cmpgeui	r5,r5,17
  8002f0:	2800821e 	bne	r5,zero,8004fc <_malloc_r+0x24c>
  8002f4:	080e78c0 	call	80e78c <__malloc_lock>
  8002f8:	04400404 	movi	r17,16
  8002fc:	00800604 	movi	r2,24
  800300:	01c00084 	movi	r7,2
  800304:	04c02074 	movhi	r19,129
  800308:	9cfd3a04 	addi	r19,r19,-2840
  80030c:	9885883a 	add	r2,r19,r2
  800310:	14000117 	ldw	r16,4(r2)
  800314:	10fffe04 	addi	r3,r2,-8
  800318:	80c08b26 	beq	r16,r3,800548 <_malloc_r+0x298>
  80031c:	80800117 	ldw	r2,4(r16)
  800320:	81000317 	ldw	r4,12(r16)
  800324:	00ffff04 	movi	r3,-4
  800328:	10c4703a 	and	r2,r2,r3
  80032c:	81400217 	ldw	r5,8(r16)
  800330:	8085883a 	add	r2,r16,r2
  800334:	10c00117 	ldw	r3,4(r2)
  800338:	29000315 	stw	r4,12(r5)
  80033c:	21400215 	stw	r5,8(r4)
  800340:	18c00054 	ori	r3,r3,1
  800344:	10c00115 	stw	r3,4(r2)
  800348:	9009883a 	mov	r4,r18
  80034c:	080e7900 	call	80e790 <__malloc_unlock>
  800350:	80800204 	addi	r2,r16,8
  800354:	00006c06 	br	800508 <_malloc_r+0x258>
  800358:	00bffe04 	movi	r2,-8
  80035c:	88a2703a 	and	r17,r17,r2
  800360:	88006616 	blt	r17,zero,8004fc <_malloc_r+0x24c>
  800364:	89406536 	bltu	r17,r5,8004fc <_malloc_r+0x24c>
  800368:	080e78c0 	call	80e78c <__malloc_lock>
  80036c:	88807e28 	cmpgeui	r2,r17,504
  800370:	10012226 	beq	r2,zero,8007fc <_malloc_r+0x54c>
  800374:	8804d27a 	srli	r2,r17,9
  800378:	10006f26 	beq	r2,zero,800538 <_malloc_r+0x288>
  80037c:	10c00168 	cmpgeui	r3,r2,5
  800380:	1800fe1e 	bne	r3,zero,80077c <_malloc_r+0x4cc>
  800384:	8804d1ba 	srli	r2,r17,6
  800388:	11c00e44 	addi	r7,r2,57
  80038c:	380890fa 	slli	r4,r7,3
  800390:	12000e04 	addi	r8,r2,56
  800394:	04c02074 	movhi	r19,129
  800398:	9cfd3a04 	addi	r19,r19,-2840
  80039c:	9909883a 	add	r4,r19,r4
  8003a0:	24000117 	ldw	r16,4(r4)
  8003a4:	213ffe04 	addi	r4,r4,-8
  8003a8:	24000b26 	beq	r4,r16,8003d8 <_malloc_r+0x128>
  8003ac:	01bfff04 	movi	r6,-4
  8003b0:	00000306 	br	8003c0 <_malloc_r+0x110>
  8003b4:	1800d60e 	bge	r3,zero,800710 <_malloc_r+0x460>
  8003b8:	84000317 	ldw	r16,12(r16)
  8003bc:	24000626 	beq	r4,r16,8003d8 <_malloc_r+0x128>
  8003c0:	80800117 	ldw	r2,4(r16)
  8003c4:	1184703a 	and	r2,r2,r6
  8003c8:	1447c83a 	sub	r3,r2,r17
  8003cc:	19400408 	cmpgei	r5,r3,16
  8003d0:	283ff826 	beq	r5,zero,8003b4 <_malloc_r+0x104>
  8003d4:	400f883a 	mov	r7,r8
  8003d8:	9c000417 	ldw	r16,16(r19)
  8003dc:	02402074 	movhi	r9,129
  8003e0:	4a7d3c04 	addi	r9,r9,-2832
  8003e4:	82405f26 	beq	r16,r9,800564 <_malloc_r+0x2b4>
  8003e8:	80c00117 	ldw	r3,4(r16)
  8003ec:	00bfff04 	movi	r2,-4
  8003f0:	1884703a 	and	r2,r3,r2
  8003f4:	1447c83a 	sub	r3,r2,r17
  8003f8:	19000410 	cmplti	r4,r3,16
  8003fc:	20010a26 	beq	r4,zero,800828 <_malloc_r+0x578>
  800400:	9a400515 	stw	r9,20(r19)
  800404:	9a400415 	stw	r9,16(r19)
  800408:	1800ff0e 	bge	r3,zero,800808 <_malloc_r+0x558>
  80040c:	10c08028 	cmpgeui	r3,r2,512
  800410:	1800c11e 	bne	r3,zero,800718 <_malloc_r+0x468>
  800414:	1006d0fa 	srli	r3,r2,3
  800418:	1008d17a 	srli	r4,r2,5
  80041c:	00800044 	movi	r2,1
  800420:	18c00044 	addi	r3,r3,1
  800424:	180690fa 	slli	r3,r3,3
  800428:	99400117 	ldw	r5,4(r19)
  80042c:	1104983a 	sll	r2,r2,r4
  800430:	98c7883a 	add	r3,r19,r3
  800434:	19000017 	ldw	r4,0(r3)
  800438:	1144b03a 	or	r2,r2,r5
  80043c:	197ffe04 	addi	r5,r3,-8
  800440:	81400315 	stw	r5,12(r16)
  800444:	81000215 	stw	r4,8(r16)
  800448:	98800115 	stw	r2,4(r19)
  80044c:	1c000015 	stw	r16,0(r3)
  800450:	24000315 	stw	r16,12(r4)
  800454:	3807d0ba 	srai	r3,r7,2
  800458:	01000044 	movi	r4,1
  80045c:	20c8983a 	sll	r4,r4,r3
  800460:	11004536 	bltu	r2,r4,800578 <_malloc_r+0x2c8>
  800464:	2086703a 	and	r3,r4,r2
  800468:	18000a1e 	bne	r3,zero,800494 <_malloc_r+0x1e4>
  80046c:	00ffff04 	movi	r3,-4
  800470:	2109883a 	add	r4,r4,r4
  800474:	38ce703a 	and	r7,r7,r3
  800478:	2086703a 	and	r3,r4,r2
  80047c:	39c00104 	addi	r7,r7,4
  800480:	1800041e 	bne	r3,zero,800494 <_malloc_r+0x1e4>
  800484:	2109883a 	add	r4,r4,r4
  800488:	2086703a 	and	r3,r4,r2
  80048c:	39c00104 	addi	r7,r7,4
  800490:	183ffc26 	beq	r3,zero,800484 <_malloc_r+0x1d4>
  800494:	02bfff04 	movi	r10,-4
  800498:	381690fa 	slli	r11,r7,3
  80049c:	3819883a 	mov	r12,r7
  8004a0:	9ad7883a 	add	r11,r19,r11
  8004a4:	5811883a 	mov	r8,r11
  8004a8:	40800317 	ldw	r2,12(r8)
  8004ac:	4080bc26 	beq	r8,r2,8007a0 <_malloc_r+0x4f0>
  8004b0:	10c00117 	ldw	r3,4(r2)
  8004b4:	1021883a 	mov	r16,r2
  8004b8:	10800317 	ldw	r2,12(r2)
  8004bc:	1a86703a 	and	r3,r3,r10
  8004c0:	1c4bc83a 	sub	r5,r3,r17
  8004c4:	29800410 	cmplti	r6,r5,16
  8004c8:	3000ba26 	beq	r6,zero,8007b4 <_malloc_r+0x504>
  8004cc:	283ff716 	blt	r5,zero,8004ac <_malloc_r+0x1fc>
  8004d0:	80c7883a 	add	r3,r16,r3
  8004d4:	19400117 	ldw	r5,4(r3)
  8004d8:	81800217 	ldw	r6,8(r16)
  8004dc:	9009883a 	mov	r4,r18
  8004e0:	29400054 	ori	r5,r5,1
  8004e4:	19400115 	stw	r5,4(r3)
  8004e8:	30800315 	stw	r2,12(r6)
  8004ec:	11800215 	stw	r6,8(r2)
  8004f0:	080e7900 	call	80e790 <__malloc_unlock>
  8004f4:	80800204 	addi	r2,r16,8
  8004f8:	00000306 	br	800508 <_malloc_r+0x258>
  8004fc:	00800304 	movi	r2,12
  800500:	90800015 	stw	r2,0(r18)
  800504:	0005883a 	mov	r2,zero
  800508:	dfc00917 	ldw	ra,36(sp)
  80050c:	df000817 	ldw	fp,32(sp)
  800510:	ddc00717 	ldw	r23,28(sp)
  800514:	dd800617 	ldw	r22,24(sp)
  800518:	dd400517 	ldw	r21,20(sp)
  80051c:	dd000417 	ldw	r20,16(sp)
  800520:	dcc00317 	ldw	r19,12(sp)
  800524:	dc800217 	ldw	r18,8(sp)
  800528:	dc400117 	ldw	r17,4(sp)
  80052c:	dc000017 	ldw	r16,0(sp)
  800530:	dec00a04 	addi	sp,sp,40
  800534:	f800283a 	ret
  800538:	01008004 	movi	r4,512
  80053c:	01c01004 	movi	r7,64
  800540:	02000fc4 	movi	r8,63
  800544:	003f9306 	br	800394 <_malloc_r+0xe4>
  800548:	14000317 	ldw	r16,12(r2)
  80054c:	39c00084 	addi	r7,r7,2
  800550:	143f721e 	bne	r2,r16,80031c <_malloc_r+0x6c>
  800554:	9c000417 	ldw	r16,16(r19)
  800558:	02402074 	movhi	r9,129
  80055c:	4a7d3c04 	addi	r9,r9,-2832
  800560:	827fa11e 	bne	r16,r9,8003e8 <_malloc_r+0x138>
  800564:	3807d0ba 	srai	r3,r7,2
  800568:	01000044 	movi	r4,1
  80056c:	98800117 	ldw	r2,4(r19)
  800570:	20c8983a 	sll	r4,r4,r3
  800574:	113fbb2e 	bgeu	r2,r4,800464 <_malloc_r+0x1b4>
  800578:	9c000217 	ldw	r16,8(r19)
  80057c:	00bfff04 	movi	r2,-4
  800580:	85400117 	ldw	r21,4(r16)
  800584:	a8ac703a 	and	r22,r21,r2
  800588:	b4400336 	bltu	r22,r17,800598 <_malloc_r+0x2e8>
  80058c:	b445c83a 	sub	r2,r22,r17
  800590:	10c00408 	cmpgei	r3,r2,16
  800594:	1800541e 	bne	r3,zero,8006e8 <_malloc_r+0x438>
  800598:	00802074 	movhi	r2,129
  80059c:	10beaf17 	ldw	r2,-1348(r2)
  8005a0:	00c02074 	movhi	r3,129
  8005a4:	1d414317 	ldw	r21,1292(r3)
  8005a8:	10bfffd8 	cmpnei	r2,r2,-1
  8005ac:	85b9883a 	add	fp,r16,r22
  8005b0:	8d6b883a 	add	r21,r17,r21
  8005b4:	1000d626 	beq	r2,zero,800910 <_malloc_r+0x660>
  8005b8:	ad4403c4 	addi	r21,r21,4111
  8005bc:	00bc0004 	movi	r2,-4096
  8005c0:	a8aa703a 	and	r21,r21,r2
  8005c4:	a80b883a 	mov	r5,r21
  8005c8:	9009883a 	mov	r4,r18
  8005cc:	0800b800 	call	800b80 <_sbrk_r>
  8005d0:	102f883a 	mov	r23,r2
  8005d4:	10bfffd8 	cmpnei	r2,r2,-1
  8005d8:	1000a826 	beq	r2,zero,80087c <_malloc_r+0x5cc>
  8005dc:	bf00a636 	bltu	r23,fp,800878 <_malloc_r+0x5c8>
  8005e0:	00802074 	movhi	r2,129
  8005e4:	15014917 	ldw	r20,1316(r2)
  8005e8:	ad29883a 	add	r20,r21,r20
  8005ec:	15014915 	stw	r20,1316(r2)
  8005f0:	a007883a 	mov	r3,r20
  8005f4:	e5c0ec26 	beq	fp,r23,8009a8 <_malloc_r+0x6f8>
  8005f8:	00802074 	movhi	r2,129
  8005fc:	10beaf17 	ldw	r2,-1348(r2)
  800600:	10bfffd8 	cmpnei	r2,r2,-1
  800604:	1000ef26 	beq	r2,zero,8009c4 <_malloc_r+0x714>
  800608:	bf39c83a 	sub	fp,r23,fp
  80060c:	e0c7883a 	add	r3,fp,r3
  800610:	00802074 	movhi	r2,129
  800614:	10c14915 	stw	r3,1316(r2)
  800618:	bf0001cc 	andi	fp,r23,7
  80061c:	e000c526 	beq	fp,zero,800934 <_malloc_r+0x684>
  800620:	bf2fc83a 	sub	r23,r23,fp
  800624:	bdc00204 	addi	r23,r23,8
  800628:	05040204 	movi	r20,4104
  80062c:	a729c83a 	sub	r20,r20,fp
  800630:	bd6b883a 	add	r21,r23,r21
  800634:	a569c83a 	sub	r20,r20,r21
  800638:	a503ffcc 	andi	r20,r20,4095
  80063c:	a00b883a 	mov	r5,r20
  800640:	9009883a 	mov	r4,r18
  800644:	0800b800 	call	800b80 <_sbrk_r>
  800648:	10ffffe0 	cmpeqi	r3,r2,-1
  80064c:	1800f31e 	bne	r3,zero,800a1c <_malloc_r+0x76c>
  800650:	15c5c83a 	sub	r2,r2,r23
  800654:	152b883a 	add	r21,r2,r20
  800658:	00802074 	movhi	r2,129
  80065c:	11414917 	ldw	r5,1316(r2)
  800660:	9dc00215 	stw	r23,8(r19)
  800664:	ad400054 	ori	r21,r21,1
  800668:	a169883a 	add	r20,r20,r5
  80066c:	15014915 	stw	r20,1316(r2)
  800670:	bd400115 	stw	r21,4(r23)
  800674:	84c0d626 	beq	r16,r19,8009d0 <_malloc_r+0x720>
  800678:	b0800428 	cmpgeui	r2,r22,16
  80067c:	1000d626 	beq	r2,zero,8009d8 <_malloc_r+0x728>
  800680:	80c00117 	ldw	r3,4(r16)
  800684:	013ffe04 	movi	r4,-8
  800688:	b0bffd04 	addi	r2,r22,-12
  80068c:	1104703a 	and	r2,r2,r4
  800690:	18c0004c 	andi	r3,r3,1
  800694:	1886b03a 	or	r3,r3,r2
  800698:	80c00115 	stw	r3,4(r16)
  80069c:	01000144 	movi	r4,5
  8006a0:	8087883a 	add	r3,r16,r2
  8006a4:	19000115 	stw	r4,4(r3)
  8006a8:	19000215 	stw	r4,8(r3)
  8006ac:	10800428 	cmpgeui	r2,r2,16
  8006b0:	1000df1e 	bne	r2,zero,800a30 <_malloc_r+0x780>
  8006b4:	bd400117 	ldw	r21,4(r23)
  8006b8:	b821883a 	mov	r16,r23
  8006bc:	00802074 	movhi	r2,129
  8006c0:	10814217 	ldw	r2,1288(r2)
  8006c4:	1500022e 	bgeu	r2,r20,8006d0 <_malloc_r+0x420>
  8006c8:	00802074 	movhi	r2,129
  8006cc:	15014215 	stw	r20,1288(r2)
  8006d0:	00802074 	movhi	r2,129
  8006d4:	10814117 	ldw	r2,1284(r2)
  8006d8:	15006a2e 	bgeu	r2,r20,800884 <_malloc_r+0x5d4>
  8006dc:	00802074 	movhi	r2,129
  8006e0:	15014115 	stw	r20,1284(r2)
  8006e4:	00006706 	br	800884 <_malloc_r+0x5d4>
  8006e8:	88c00054 	ori	r3,r17,1
  8006ec:	80c00115 	stw	r3,4(r16)
  8006f0:	8463883a 	add	r17,r16,r17
  8006f4:	10800054 	ori	r2,r2,1
  8006f8:	9c400215 	stw	r17,8(r19)
  8006fc:	88800115 	stw	r2,4(r17)
  800700:	9009883a 	mov	r4,r18
  800704:	080e7900 	call	80e790 <__malloc_unlock>
  800708:	80800204 	addi	r2,r16,8
  80070c:	003f7e06 	br	800508 <_malloc_r+0x258>
  800710:	81000317 	ldw	r4,12(r16)
  800714:	003f0506 	br	80032c <_malloc_r+0x7c>
  800718:	1006d27a 	srli	r3,r2,9
  80071c:	19000168 	cmpgeui	r4,r3,5
  800720:	20005026 	beq	r4,zero,800864 <_malloc_r+0x5b4>
  800724:	19000568 	cmpgeui	r4,r3,21
  800728:	20008c1e 	bne	r4,zero,80095c <_malloc_r+0x6ac>
  80072c:	19401704 	addi	r5,r3,92
  800730:	280a90fa 	slli	r5,r5,3
  800734:	190016c4 	addi	r4,r3,91
  800738:	994b883a 	add	r5,r19,r5
  80073c:	28c00017 	ldw	r3,0(r5)
  800740:	297ffe04 	addi	r5,r5,-8
  800744:	28c07426 	beq	r5,r3,800918 <_malloc_r+0x668>
  800748:	01bfff04 	movi	r6,-4
  80074c:	19000117 	ldw	r4,4(r3)
  800750:	2188703a 	and	r4,r4,r6
  800754:	1100022e 	bgeu	r2,r4,800760 <_malloc_r+0x4b0>
  800758:	18c00217 	ldw	r3,8(r3)
  80075c:	28fffb1e 	bne	r5,r3,80074c <_malloc_r+0x49c>
  800760:	19400317 	ldw	r5,12(r3)
  800764:	98800117 	ldw	r2,4(r19)
  800768:	81400315 	stw	r5,12(r16)
  80076c:	80c00215 	stw	r3,8(r16)
  800770:	2c000215 	stw	r16,8(r5)
  800774:	1c000315 	stw	r16,12(r3)
  800778:	003f3606 	br	800454 <_malloc_r+0x1a4>
  80077c:	10c00568 	cmpgeui	r3,r2,21
  800780:	18004a26 	beq	r3,zero,8008ac <_malloc_r+0x5fc>
  800784:	10c01568 	cmpgeui	r3,r2,85
  800788:	18007b1e 	bne	r3,zero,800978 <_malloc_r+0x6c8>
  80078c:	8804d33a 	srli	r2,r17,12
  800790:	11c01bc4 	addi	r7,r2,111
  800794:	380890fa 	slli	r4,r7,3
  800798:	12001b84 	addi	r8,r2,110
  80079c:	003efd06 	br	800394 <_malloc_r+0xe4>
  8007a0:	63000044 	addi	r12,r12,1
  8007a4:	608000cc 	andi	r2,r12,3
  8007a8:	42000204 	addi	r8,r8,8
  8007ac:	103f3e1e 	bne	r2,zero,8004a8 <_malloc_r+0x1f8>
  8007b0:	00004506 	br	8008c8 <_malloc_r+0x618>
  8007b4:	81000217 	ldw	r4,8(r16)
  8007b8:	89800054 	ori	r6,r17,1
  8007bc:	81800115 	stw	r6,4(r16)
  8007c0:	20800315 	stw	r2,12(r4)
  8007c4:	11000215 	stw	r4,8(r2)
  8007c8:	8463883a 	add	r17,r16,r17
  8007cc:	9c400515 	stw	r17,20(r19)
  8007d0:	9c400415 	stw	r17,16(r19)
  8007d4:	28800054 	ori	r2,r5,1
  8007d8:	88800115 	stw	r2,4(r17)
  8007dc:	8a400315 	stw	r9,12(r17)
  8007e0:	8a400215 	stw	r9,8(r17)
  8007e4:	80c7883a 	add	r3,r16,r3
  8007e8:	19400015 	stw	r5,0(r3)
  8007ec:	9009883a 	mov	r4,r18
  8007f0:	080e7900 	call	80e790 <__malloc_unlock>
  8007f4:	80800204 	addi	r2,r16,8
  8007f8:	003f4306 	br	800508 <_malloc_r+0x258>
  8007fc:	880ed0fa 	srli	r7,r17,3
  800800:	88800204 	addi	r2,r17,8
  800804:	003ebf06 	br	800304 <_malloc_r+0x54>
  800808:	8085883a 	add	r2,r16,r2
  80080c:	10c00117 	ldw	r3,4(r2)
  800810:	9009883a 	mov	r4,r18
  800814:	18c00054 	ori	r3,r3,1
  800818:	10c00115 	stw	r3,4(r2)
  80081c:	080e7900 	call	80e790 <__malloc_unlock>
  800820:	80800204 	addi	r2,r16,8
  800824:	003f3806 	br	800508 <_malloc_r+0x258>
  800828:	89000054 	ori	r4,r17,1
  80082c:	81000115 	stw	r4,4(r16)
  800830:	8463883a 	add	r17,r16,r17
  800834:	9c400515 	stw	r17,20(r19)
  800838:	9c400415 	stw	r17,16(r19)
  80083c:	19000054 	ori	r4,r3,1
  800840:	89000115 	stw	r4,4(r17)
  800844:	8085883a 	add	r2,r16,r2
  800848:	8a400315 	stw	r9,12(r17)
  80084c:	8a400215 	stw	r9,8(r17)
  800850:	10c00015 	stw	r3,0(r2)
  800854:	9009883a 	mov	r4,r18
  800858:	080e7900 	call	80e790 <__malloc_unlock>
  80085c:	80800204 	addi	r2,r16,8
  800860:	003f2906 	br	800508 <_malloc_r+0x258>
  800864:	1006d1ba 	srli	r3,r2,6
  800868:	19400e44 	addi	r5,r3,57
  80086c:	280a90fa 	slli	r5,r5,3
  800870:	19000e04 	addi	r4,r3,56
  800874:	003fb006 	br	800738 <_malloc_r+0x488>
  800878:	84c04626 	beq	r16,r19,800994 <_malloc_r+0x6e4>
  80087c:	9c000217 	ldw	r16,8(r19)
  800880:	85400117 	ldw	r21,4(r16)
  800884:	00bfff04 	movi	r2,-4
  800888:	a8aa703a 	and	r21,r21,r2
  80088c:	ac45c83a 	sub	r2,r21,r17
  800890:	ac400236 	bltu	r21,r17,80089c <_malloc_r+0x5ec>
  800894:	10c00408 	cmpgei	r3,r2,16
  800898:	183f931e 	bne	r3,zero,8006e8 <_malloc_r+0x438>
  80089c:	9009883a 	mov	r4,r18
  8008a0:	080e7900 	call	80e790 <__malloc_unlock>
  8008a4:	0005883a 	mov	r2,zero
  8008a8:	003f1706 	br	800508 <_malloc_r+0x258>
  8008ac:	11c01704 	addi	r7,r2,92
  8008b0:	380890fa 	slli	r4,r7,3
  8008b4:	120016c4 	addi	r8,r2,91
  8008b8:	003eb606 	br	800394 <_malloc_r+0xe4>
  8008bc:	58800217 	ldw	r2,8(r11)
  8008c0:	39ffffc4 	addi	r7,r7,-1
  8008c4:	12c0701e 	bne	r2,r11,800a88 <_malloc_r+0x7d8>
  8008c8:	388000cc 	andi	r2,r7,3
  8008cc:	5afffe04 	addi	r11,r11,-8
  8008d0:	103ffa1e 	bne	r2,zero,8008bc <_malloc_r+0x60c>
  8008d4:	98c00117 	ldw	r3,4(r19)
  8008d8:	0104303a 	nor	r2,zero,r4
  8008dc:	10c4703a 	and	r2,r2,r3
  8008e0:	98800115 	stw	r2,4(r19)
  8008e4:	2109883a 	add	r4,r4,r4
  8008e8:	113f2336 	bltu	r2,r4,800578 <_malloc_r+0x2c8>
  8008ec:	203f2226 	beq	r4,zero,800578 <_malloc_r+0x2c8>
  8008f0:	2086703a 	and	r3,r4,r2
  8008f4:	1800041e 	bne	r3,zero,800908 <_malloc_r+0x658>
  8008f8:	2109883a 	add	r4,r4,r4
  8008fc:	2086703a 	and	r3,r4,r2
  800900:	63000104 	addi	r12,r12,4
  800904:	183ffc26 	beq	r3,zero,8008f8 <_malloc_r+0x648>
  800908:	600f883a 	mov	r7,r12
  80090c:	003ee206 	br	800498 <_malloc_r+0x1e8>
  800910:	ad400404 	addi	r21,r21,16
  800914:	003f2b06 	br	8005c4 <_malloc_r+0x314>
  800918:	2009d0ba 	srai	r4,r4,2
  80091c:	00800044 	movi	r2,1
  800920:	99800117 	ldw	r6,4(r19)
  800924:	1104983a 	sll	r2,r2,r4
  800928:	1184b03a 	or	r2,r2,r6
  80092c:	98800115 	stw	r2,4(r19)
  800930:	003f8d06 	br	800768 <_malloc_r+0x4b8>
  800934:	bd69883a 	add	r20,r23,r21
  800938:	0529c83a 	sub	r20,zero,r20
  80093c:	a503ffcc 	andi	r20,r20,4095
  800940:	a00b883a 	mov	r5,r20
  800944:	9009883a 	mov	r4,r18
  800948:	0800b800 	call	800b80 <_sbrk_r>
  80094c:	10ffffe0 	cmpeqi	r3,r2,-1
  800950:	183f3f26 	beq	r3,zero,800650 <_malloc_r+0x3a0>
  800954:	0029883a 	mov	r20,zero
  800958:	003f3f06 	br	800658 <_malloc_r+0x3a8>
  80095c:	19001568 	cmpgeui	r4,r3,85
  800960:	2000201e 	bne	r4,zero,8009e4 <_malloc_r+0x734>
  800964:	1006d33a 	srli	r3,r2,12
  800968:	19401bc4 	addi	r5,r3,111
  80096c:	280a90fa 	slli	r5,r5,3
  800970:	19001b84 	addi	r4,r3,110
  800974:	003f7006 	br	800738 <_malloc_r+0x488>
  800978:	10c05568 	cmpgeui	r3,r2,341
  80097c:	1800201e 	bne	r3,zero,800a00 <_malloc_r+0x750>
  800980:	8804d3fa 	srli	r2,r17,15
  800984:	11c01e04 	addi	r7,r2,120
  800988:	380890fa 	slli	r4,r7,3
  80098c:	12001dc4 	addi	r8,r2,119
  800990:	003e8006 	br	800394 <_malloc_r+0xe4>
  800994:	00802074 	movhi	r2,129
  800998:	10c14917 	ldw	r3,1316(r2)
  80099c:	a8c7883a 	add	r3,r21,r3
  8009a0:	10c14915 	stw	r3,1316(r2)
  8009a4:	003f1406 	br	8005f8 <_malloc_r+0x348>
  8009a8:	e083ffcc 	andi	r2,fp,4095
  8009ac:	103f121e 	bne	r2,zero,8005f8 <_malloc_r+0x348>
  8009b0:	9c000217 	ldw	r16,8(r19)
  8009b4:	b56b883a 	add	r21,r22,r21
  8009b8:	ad400054 	ori	r21,r21,1
  8009bc:	85400115 	stw	r21,4(r16)
  8009c0:	003f3e06 	br	8006bc <_malloc_r+0x40c>
  8009c4:	00802074 	movhi	r2,129
  8009c8:	15feaf15 	stw	r23,-1348(r2)
  8009cc:	003f1206 	br	800618 <_malloc_r+0x368>
  8009d0:	b821883a 	mov	r16,r23
  8009d4:	003f3906 	br	8006bc <_malloc_r+0x40c>
  8009d8:	00800044 	movi	r2,1
  8009dc:	b8800115 	stw	r2,4(r23)
  8009e0:	003fae06 	br	80089c <_malloc_r+0x5ec>
  8009e4:	19005568 	cmpgeui	r4,r3,341
  8009e8:	2000191e 	bne	r4,zero,800a50 <_malloc_r+0x7a0>
  8009ec:	1006d3fa 	srli	r3,r2,15
  8009f0:	19401e04 	addi	r5,r3,120
  8009f4:	280a90fa 	slli	r5,r5,3
  8009f8:	19001dc4 	addi	r4,r3,119
  8009fc:	003f4e06 	br	800738 <_malloc_r+0x488>
  800a00:	10815568 	cmpgeui	r2,r2,1365
  800a04:	1000191e 	bne	r2,zero,800a6c <_malloc_r+0x7bc>
  800a08:	8804d4ba 	srli	r2,r17,18
  800a0c:	11c01f44 	addi	r7,r2,125
  800a10:	380890fa 	slli	r4,r7,3
  800a14:	12001f04 	addi	r8,r2,124
  800a18:	003e5e06 	br	800394 <_malloc_r+0xe4>
  800a1c:	e73ffe04 	addi	fp,fp,-8
  800a20:	af2b883a 	add	r21,r21,fp
  800a24:	adebc83a 	sub	r21,r21,r23
  800a28:	0029883a 	mov	r20,zero
  800a2c:	003f0a06 	br	800658 <_malloc_r+0x3a8>
  800a30:	81400204 	addi	r5,r16,8
  800a34:	9009883a 	mov	r4,r18
  800a38:	08046ec0 	call	8046ec <_free_r>
  800a3c:	9c000217 	ldw	r16,8(r19)
  800a40:	00802074 	movhi	r2,129
  800a44:	15014917 	ldw	r20,1316(r2)
  800a48:	85400117 	ldw	r21,4(r16)
  800a4c:	003f1b06 	br	8006bc <_malloc_r+0x40c>
  800a50:	18c15568 	cmpgeui	r3,r3,1365
  800a54:	1800091e 	bne	r3,zero,800a7c <_malloc_r+0x7cc>
  800a58:	1006d4ba 	srli	r3,r2,18
  800a5c:	19401f44 	addi	r5,r3,125
  800a60:	280a90fa 	slli	r5,r5,3
  800a64:	19001f04 	addi	r4,r3,124
  800a68:	003f3306 	br	800738 <_malloc_r+0x488>
  800a6c:	0100fe04 	movi	r4,1016
  800a70:	01c01fc4 	movi	r7,127
  800a74:	02001f84 	movi	r8,126
  800a78:	003e4606 	br	800394 <_malloc_r+0xe4>
  800a7c:	0140fe04 	movi	r5,1016
  800a80:	01001f84 	movi	r4,126
  800a84:	003f2c06 	br	800738 <_malloc_r+0x488>
  800a88:	98800117 	ldw	r2,4(r19)
  800a8c:	003f9506 	br	8008e4 <_malloc_r+0x634>

00800a90 <memset>:
  800a90:	20c000cc 	andi	r3,r4,3
  800a94:	2005883a 	mov	r2,r4
  800a98:	18003626 	beq	r3,zero,800b74 <memset+0xe4>
  800a9c:	31ffffc4 	addi	r7,r6,-1
  800aa0:	30003326 	beq	r6,zero,800b70 <memset+0xe0>
  800aa4:	2811883a 	mov	r8,r5
  800aa8:	2007883a 	mov	r3,r4
  800aac:	00000306 	br	800abc <memset+0x2c>
  800ab0:	39ffffc4 	addi	r7,r7,-1
  800ab4:	39bfffe0 	cmpeqi	r6,r7,-1
  800ab8:	30002d1e 	bne	r6,zero,800b70 <memset+0xe0>
  800abc:	18c00044 	addi	r3,r3,1
  800ac0:	198000cc 	andi	r6,r3,3
  800ac4:	1a3fffc5 	stb	r8,-1(r3)
  800ac8:	303ff91e 	bne	r6,zero,800ab0 <memset+0x20>
  800acc:	39000130 	cmpltui	r4,r7,4
  800ad0:	2000221e 	bne	r4,zero,800b5c <memset+0xcc>
  800ad4:	29003fcc 	andi	r4,r5,255
  800ad8:	200c923a 	slli	r6,r4,8
  800adc:	3a000430 	cmpltui	r8,r7,16
  800ae0:	3108b03a 	or	r4,r6,r4
  800ae4:	200c943a 	slli	r6,r4,16
  800ae8:	310cb03a 	or	r6,r6,r4
  800aec:	40000e1e 	bne	r8,zero,800b28 <memset+0x98>
  800af0:	393ffc04 	addi	r4,r7,-16
  800af4:	2008d13a 	srli	r4,r4,4
  800af8:	21000044 	addi	r4,r4,1
  800afc:	2008913a 	slli	r4,r4,4
  800b00:	1909883a 	add	r4,r3,r4
  800b04:	19800015 	stw	r6,0(r3)
  800b08:	19800115 	stw	r6,4(r3)
  800b0c:	19800215 	stw	r6,8(r3)
  800b10:	19800315 	stw	r6,12(r3)
  800b14:	18c00404 	addi	r3,r3,16
  800b18:	20fffa1e 	bne	r4,r3,800b04 <memset+0x74>
  800b1c:	3900030c 	andi	r4,r7,12
  800b20:	39c003cc 	andi	r7,r7,15
  800b24:	20000d26 	beq	r4,zero,800b5c <memset+0xcc>
  800b28:	1811883a 	mov	r8,r3
  800b2c:	42000104 	addi	r8,r8,4
  800b30:	3a09c83a 	sub	r4,r7,r8
  800b34:	1909883a 	add	r4,r3,r4
  800b38:	21000128 	cmpgeui	r4,r4,4
  800b3c:	41bfff15 	stw	r6,-4(r8)
  800b40:	203ffa1e 	bne	r4,zero,800b2c <memset+0x9c>
  800b44:	393fff04 	addi	r4,r7,-4
  800b48:	2008d0ba 	srli	r4,r4,2
  800b4c:	39c000cc 	andi	r7,r7,3
  800b50:	21000044 	addi	r4,r4,1
  800b54:	200890ba 	slli	r4,r4,2
  800b58:	1907883a 	add	r3,r3,r4
  800b5c:	38000426 	beq	r7,zero,800b70 <memset+0xe0>
  800b60:	19cf883a 	add	r7,r3,r7
  800b64:	18c00044 	addi	r3,r3,1
  800b68:	197fffc5 	stb	r5,-1(r3)
  800b6c:	38fffd1e 	bne	r7,r3,800b64 <memset+0xd4>
  800b70:	f800283a 	ret
  800b74:	2007883a 	mov	r3,r4
  800b78:	300f883a 	mov	r7,r6
  800b7c:	003fd306 	br	800acc <memset+0x3c>

00800b80 <_sbrk_r>:
  800b80:	defffe04 	addi	sp,sp,-8
  800b84:	dc000015 	stw	r16,0(sp)
  800b88:	00802074 	movhi	r2,129
  800b8c:	2021883a 	mov	r16,r4
  800b90:	2809883a 	mov	r4,r5
  800b94:	dfc00115 	stw	ra,4(sp)
  800b98:	10014415 	stw	zero,1296(r2)
  800b9c:	080e8200 	call	80e820 <sbrk>
  800ba0:	10ffffd8 	cmpnei	r3,r2,-1
  800ba4:	18000426 	beq	r3,zero,800bb8 <_sbrk_r+0x38>
  800ba8:	dfc00117 	ldw	ra,4(sp)
  800bac:	dc000017 	ldw	r16,0(sp)
  800bb0:	dec00204 	addi	sp,sp,8
  800bb4:	f800283a 	ret
  800bb8:	00c02074 	movhi	r3,129
  800bbc:	18c14417 	ldw	r3,1296(r3)
  800bc0:	183ff926 	beq	r3,zero,800ba8 <_sbrk_r+0x28>
  800bc4:	80c00015 	stw	r3,0(r16)
  800bc8:	dfc00117 	ldw	ra,4(sp)
  800bcc:	dc000017 	ldw	r16,0(sp)
  800bd0:	dec00204 	addi	sp,sp,8
  800bd4:	f800283a 	ret

00800bd8 <___svfprintf_internal_r>:
  800bd8:	deffbf04 	addi	sp,sp,-260
  800bdc:	dfc04015 	stw	ra,256(sp)
  800be0:	dd803d15 	stw	r22,244(sp)
  800be4:	dcc03a15 	stw	r19,232(sp)
  800be8:	dc803915 	stw	r18,228(sp)
  800bec:	2027883a 	mov	r19,r4
  800bf0:	2825883a 	mov	r18,r5
  800bf4:	302d883a 	mov	r22,r6
  800bf8:	d9c00615 	stw	r7,24(sp)
  800bfc:	df003f15 	stw	fp,252(sp)
  800c00:	ddc03e15 	stw	r23,248(sp)
  800c04:	dd403c15 	stw	r21,240(sp)
  800c08:	dd003b15 	stw	r20,236(sp)
  800c0c:	dc403815 	stw	r17,224(sp)
  800c10:	dc003715 	stw	r16,220(sp)
  800c14:	08049f00 	call	8049f0 <_localeconv_r>
  800c18:	10800017 	ldw	r2,0(r2)
  800c1c:	1009883a 	mov	r4,r2
  800c20:	d8800d15 	stw	r2,52(sp)
  800c24:	0805dc80 	call	805dc8 <strlen>
  800c28:	90c0030b 	ldhu	r3,12(r18)
  800c2c:	d8800c15 	stw	r2,48(sp)
  800c30:	18c0200c 	andi	r3,r3,128
  800c34:	18000226 	beq	r3,zero,800c40 <___svfprintf_internal_r+0x68>
  800c38:	90800417 	ldw	r2,16(r18)
  800c3c:	10051426 	beq	r2,zero,802090 <___svfprintf_internal_r+0x14b8>
  800c40:	d8802704 	addi	r2,sp,156
  800c44:	b02f883a 	mov	r23,r22
  800c48:	d8801a15 	stw	r2,104(sp)
  800c4c:	d8001c15 	stw	zero,112(sp)
  800c50:	d8001b15 	stw	zero,108(sp)
  800c54:	d8000815 	stw	zero,32(sp)
  800c58:	d8000915 	stw	zero,36(sp)
  800c5c:	d8000a15 	stw	zero,40(sp)
  800c60:	d8000b15 	stw	zero,44(sp)
  800c64:	d8001015 	stw	zero,64(sp)
  800c68:	d8000515 	stw	zero,20(sp)
  800c6c:	102d883a 	mov	r22,r2
  800c70:	b8800007 	ldb	r2,0(r23)
  800c74:	1000d726 	beq	r2,zero,800fd4 <___svfprintf_internal_r+0x3fc>
  800c78:	b821883a 	mov	r16,r23
  800c7c:	00000306 	br	800c8c <___svfprintf_internal_r+0xb4>
  800c80:	80800047 	ldb	r2,1(r16)
  800c84:	84000044 	addi	r16,r16,1
  800c88:	10010826 	beq	r2,zero,8010ac <___svfprintf_internal_r+0x4d4>
  800c8c:	10800958 	cmpnei	r2,r2,37
  800c90:	103ffb1e 	bne	r2,zero,800c80 <___svfprintf_internal_r+0xa8>
  800c94:	85e3c83a 	sub	r17,r16,r23
  800c98:	85c1061e 	bne	r16,r23,8010b4 <___svfprintf_internal_r+0x4dc>
  800c9c:	80800003 	ldbu	r2,0(r16)
  800ca0:	10803fcc 	andi	r2,r2,255
  800ca4:	1080201c 	xori	r2,r2,128
  800ca8:	10bfe004 	addi	r2,r2,-128
  800cac:	1000c926 	beq	r2,zero,800fd4 <___svfprintf_internal_r+0x3fc>
  800cb0:	82c00047 	ldb	r11,1(r16)
  800cb4:	85c00044 	addi	r23,r16,1
  800cb8:	d8001345 	stb	zero,77(sp)
  800cbc:	0009883a 	mov	r4,zero
  800cc0:	000b883a 	mov	r5,zero
  800cc4:	023fffc4 	movi	r8,-1
  800cc8:	0021883a 	mov	r16,zero
  800ccc:	0019883a 	mov	r12,zero
  800cd0:	bdc00044 	addi	r23,r23,1
  800cd4:	5839883a 	mov	fp,r11
  800cd8:	e0bff804 	addi	r2,fp,-32
  800cdc:	10c01668 	cmpgeui	r3,r2,89
  800ce0:	18006c1e 	bne	r3,zero,800e94 <___svfprintf_internal_r+0x2bc>
  800ce4:	100490ba 	slli	r2,r2,2
  800ce8:	00c02034 	movhi	r3,128
  800cec:	10c7883a 	add	r3,r2,r3
  800cf0:	18833e17 	ldw	r2,3320(r3)
  800cf4:	1000683a 	jmp	r2
  800cf8:	00801600 	call	80160 <__alt_mem_sdram-0x77fea0>
  800cfc:	00800e94 	movui	r2,58
  800d00:	00800e94 	movui	r2,58
  800d04:	008015f4 	movhi	r2,87
  800d08:	00800e94 	movui	r2,58
  800d0c:	00800e94 	movui	r2,58
  800d10:	00800e94 	movui	r2,58
  800d14:	00800e94 	movui	r2,58
  800d18:	00800e94 	movui	r2,58
  800d1c:	00800e94 	movui	r2,58
  800d20:	008015cc 	andi	r2,zero,87
  800d24:	008015bc 	xorhi	r2,zero,86
  800d28:	00800e94 	movui	r2,58
  800d2c:	008015a4 	muli	r2,zero,86
  800d30:	00801558 	cmpnei	r2,zero,85
  800d34:	00800e94 	movui	r2,58
  800d38:	0080154c 	andi	r2,zero,85
  800d3c:	00800e5c 	xori	r2,zero,57
  800d40:	00800e5c 	xori	r2,zero,57
  800d44:	00800e5c 	xori	r2,zero,57
  800d48:	00800e5c 	xori	r2,zero,57
  800d4c:	00800e5c 	xori	r2,zero,57
  800d50:	00800e5c 	xori	r2,zero,57
  800d54:	00800e5c 	xori	r2,zero,57
  800d58:	00800e5c 	xori	r2,zero,57
  800d5c:	00800e5c 	xori	r2,zero,57
  800d60:	00800e94 	movui	r2,58
  800d64:	00800e94 	movui	r2,58
  800d68:	00800e94 	movui	r2,58
  800d6c:	00800e94 	movui	r2,58
  800d70:	00800e94 	movui	r2,58
  800d74:	00800e94 	movui	r2,58
  800d78:	00800e94 	movui	r2,58
  800d7c:	00800e94 	movui	r2,58
  800d80:	00800e94 	movui	r2,58
  800d84:	00800e94 	movui	r2,58
  800d88:	00801440 	call	80144 <__alt_mem_sdram-0x77febc>
  800d8c:	00801110 	cmplti	r2,zero,68
  800d90:	00800e94 	movui	r2,58
  800d94:	00801110 	cmplti	r2,zero,68
  800d98:	00800e94 	movui	r2,58
  800d9c:	00800e94 	movui	r2,58
  800da0:	00800e94 	movui	r2,58
  800da4:	00800e94 	movui	r2,58
  800da8:	00801434 	movhi	r2,80
  800dac:	00800e94 	movui	r2,58
  800db0:	00800e94 	movui	r2,58
  800db4:	00801044 	movi	r2,65
  800db8:	00800e94 	movui	r2,58
  800dbc:	00800e94 	movui	r2,58
  800dc0:	00800e94 	movui	r2,58
  800dc4:	00800e94 	movui	r2,58
  800dc8:	00800e94 	movui	r2,58
  800dcc:	0080101c 	xori	r2,zero,64
  800dd0:	00800e94 	movui	r2,58
  800dd4:	00800e94 	movui	r2,58
  800dd8:	008016f4 	movhi	r2,91
  800ddc:	00800e94 	movui	r2,58
  800de0:	00800e94 	movui	r2,58
  800de4:	00800e94 	movui	r2,58
  800de8:	00800e94 	movui	r2,58
  800dec:	00800e94 	movui	r2,58
  800df0:	00800e94 	movui	r2,58
  800df4:	00800e94 	movui	r2,58
  800df8:	00800e94 	movui	r2,58
  800dfc:	00800e94 	movui	r2,58
  800e00:	00800e94 	movui	r2,58
  800e04:	008016cc 	andi	r2,zero,91
  800e08:	00801318 	cmpnei	r2,zero,76
  800e0c:	00801110 	cmplti	r2,zero,68
  800e10:	00801110 	cmplti	r2,zero,68
  800e14:	00801110 	cmplti	r2,zero,68
  800e18:	0080138c 	andi	r2,zero,78
  800e1c:	00801318 	cmpnei	r2,zero,76
  800e20:	00800e94 	movui	r2,58
  800e24:	00800e94 	movui	r2,58
  800e28:	00801420 	cmpeqi	r2,zero,80
  800e2c:	00800e94 	movui	r2,58
  800e30:	008013e4 	muli	r2,zero,79
  800e34:	00801048 	cmpgei	r2,zero,65
  800e38:	008013a4 	muli	r2,zero,78
  800e3c:	00801398 	cmpnei	r2,zero,78
  800e40:	00800e94 	movui	r2,58
  800e44:	00801674 	movhi	r2,89
  800e48:	00800e94 	movui	r2,58
  800e4c:	00801020 	cmpeqi	r2,zero,64
  800e50:	00800e94 	movui	r2,58
  800e54:	00800e94 	movui	r2,58
  800e58:	0080162c 	andhi	r2,zero,88
  800e5c:	0021883a 	mov	r16,zero
  800e60:	e0fff404 	addi	r3,fp,-48
  800e64:	800490ba 	slli	r2,r16,2
  800e68:	bf000007 	ldb	fp,0(r23)
  800e6c:	bdc00044 	addi	r23,r23,1
  800e70:	1421883a 	add	r16,r2,r16
  800e74:	8421883a 	add	r16,r16,r16
  800e78:	1c21883a 	add	r16,r3,r16
  800e7c:	e0fff404 	addi	r3,fp,-48
  800e80:	188002b0 	cmpltui	r2,r3,10
  800e84:	103ff71e 	bne	r2,zero,800e64 <___svfprintf_internal_r+0x28c>
  800e88:	e0bff804 	addi	r2,fp,-32
  800e8c:	10c01668 	cmpgeui	r3,r2,89
  800e90:	183f9426 	beq	r3,zero,800ce4 <___svfprintf_internal_r+0x10c>
  800e94:	21003fcc 	andi	r4,r4,255
  800e98:	2006931e 	bne	r4,zero,8028e8 <___svfprintf_internal_r+0x1d10>
  800e9c:	e0004d26 	beq	fp,zero,800fd4 <___svfprintf_internal_r+0x3fc>
  800ea0:	df001d05 	stb	fp,116(sp)
  800ea4:	d8001345 	stb	zero,77(sp)
  800ea8:	05000044 	movi	r20,1
  800eac:	05400044 	movi	r21,1
  800eb0:	dc401d04 	addi	r17,sp,116
  800eb4:	db000415 	stw	r12,16(sp)
  800eb8:	0011883a 	mov	r8,zero
  800ebc:	d8000715 	stw	zero,28(sp)
  800ec0:	d8800417 	ldw	r2,16(sp)
  800ec4:	1380008c 	andi	r14,r2,2
  800ec8:	70000126 	beq	r14,zero,800ed0 <___svfprintf_internal_r+0x2f8>
  800ecc:	a5000084 	addi	r20,r20,2
  800ed0:	d8800417 	ldw	r2,16(sp)
  800ed4:	d8c01c17 	ldw	r3,112(sp)
  800ed8:	1340210c 	andi	r13,r2,132
  800edc:	6800021e 	bne	r13,zero,800ee8 <___svfprintf_internal_r+0x310>
  800ee0:	850fc83a 	sub	r7,r16,r20
  800ee4:	01c32b16 	blt	zero,r7,801b94 <___svfprintf_internal_r+0xfbc>
  800ee8:	d8801347 	ldb	r2,77(sp)
  800eec:	10000c26 	beq	r2,zero,800f20 <___svfprintf_internal_r+0x348>
  800ef0:	d8801b17 	ldw	r2,108(sp)
  800ef4:	d9001344 	addi	r4,sp,77
  800ef8:	18c00044 	addi	r3,r3,1
  800efc:	10800044 	addi	r2,r2,1
  800f00:	b1000015 	stw	r4,0(r22)
  800f04:	01000044 	movi	r4,1
  800f08:	d8801b15 	stw	r2,108(sp)
  800f0c:	b1000115 	stw	r4,4(r22)
  800f10:	d8c01c15 	stw	r3,112(sp)
  800f14:	10800208 	cmpgei	r2,r2,8
  800f18:	10035f1e 	bne	r2,zero,801c98 <___svfprintf_internal_r+0x10c0>
  800f1c:	b5800204 	addi	r22,r22,8
  800f20:	70000c26 	beq	r14,zero,800f54 <___svfprintf_internal_r+0x37c>
  800f24:	d8801b17 	ldw	r2,108(sp)
  800f28:	d9001384 	addi	r4,sp,78
  800f2c:	18c00084 	addi	r3,r3,2
  800f30:	10800044 	addi	r2,r2,1
  800f34:	b1000015 	stw	r4,0(r22)
  800f38:	01000084 	movi	r4,2
  800f3c:	d8801b15 	stw	r2,108(sp)
  800f40:	b1000115 	stw	r4,4(r22)
  800f44:	d8c01c15 	stw	r3,112(sp)
  800f48:	10800208 	cmpgei	r2,r2,8
  800f4c:	1003601e 	bne	r2,zero,801cd0 <___svfprintf_internal_r+0x10f8>
  800f50:	b5800204 	addi	r22,r22,8
  800f54:	6b402018 	cmpnei	r13,r13,128
  800f58:	68024126 	beq	r13,zero,801860 <___svfprintf_internal_r+0xc88>
  800f5c:	4551c83a 	sub	r8,r8,r21
  800f60:	02027916 	blt	zero,r8,801948 <___svfprintf_internal_r+0xd70>
  800f64:	d8800417 	ldw	r2,16(sp)
  800f68:	1080400c 	andi	r2,r2,256
  800f6c:	1001f31e 	bne	r2,zero,80173c <___svfprintf_internal_r+0xb64>
  800f70:	d8801b17 	ldw	r2,108(sp)
  800f74:	1d47883a 	add	r3,r3,r21
  800f78:	b4400015 	stw	r17,0(r22)
  800f7c:	10800044 	addi	r2,r2,1
  800f80:	b5400115 	stw	r21,4(r22)
  800f84:	d8801b15 	stw	r2,108(sp)
  800f88:	d8c01c15 	stw	r3,112(sp)
  800f8c:	10800208 	cmpgei	r2,r2,8
  800f90:	1002f61e 	bne	r2,zero,801b6c <___svfprintf_internal_r+0xf94>
  800f94:	b5800204 	addi	r22,r22,8
  800f98:	d8800417 	ldw	r2,16(sp)
  800f9c:	1440010c 	andi	r17,r2,4
  800fa0:	88000226 	beq	r17,zero,800fac <___svfprintf_internal_r+0x3d4>
  800fa4:	8523c83a 	sub	r17,r16,r20
  800fa8:	0440ac16 	blt	zero,r17,80125c <___svfprintf_internal_r+0x684>
  800fac:	8500010e 	bge	r16,r20,800fb4 <___svfprintf_internal_r+0x3dc>
  800fb0:	a021883a 	mov	r16,r20
  800fb4:	d8800517 	ldw	r2,20(sp)
  800fb8:	1405883a 	add	r2,r2,r16
  800fbc:	d8800515 	stw	r2,20(sp)
  800fc0:	1802a81e 	bne	r3,zero,801a64 <___svfprintf_internal_r+0xe8c>
  800fc4:	b8800007 	ldb	r2,0(r23)
  800fc8:	d8001b15 	stw	zero,108(sp)
  800fcc:	dd802704 	addi	r22,sp,156
  800fd0:	103f291e 	bne	r2,zero,800c78 <___svfprintf_internal_r+0xa0>
  800fd4:	d8801c17 	ldw	r2,112(sp)
  800fd8:	1006451e 	bne	r2,zero,8028f0 <___svfprintf_internal_r+0x1d18>
  800fdc:	9080030b 	ldhu	r2,12(r18)
  800fe0:	1080100c 	andi	r2,r2,64
  800fe4:	1006e61e 	bne	r2,zero,802b80 <___svfprintf_internal_r+0x1fa8>
  800fe8:	d8800517 	ldw	r2,20(sp)
  800fec:	dfc04017 	ldw	ra,256(sp)
  800ff0:	df003f17 	ldw	fp,252(sp)
  800ff4:	ddc03e17 	ldw	r23,248(sp)
  800ff8:	dd803d17 	ldw	r22,244(sp)
  800ffc:	dd403c17 	ldw	r21,240(sp)
  801000:	dd003b17 	ldw	r20,236(sp)
  801004:	dcc03a17 	ldw	r19,232(sp)
  801008:	dc803917 	ldw	r18,228(sp)
  80100c:	dc403817 	ldw	r17,224(sp)
  801010:	dc003717 	ldw	r16,220(sp)
  801014:	dec04104 	addi	sp,sp,260
  801018:	f800283a 	ret
  80101c:	63000414 	ori	r12,r12,16
  801020:	6080080c 	andi	r2,r12,32
  801024:	10008126 	beq	r2,zero,80122c <___svfprintf_internal_r+0x654>
  801028:	d8c00617 	ldw	r3,24(sp)
  80102c:	00800044 	movi	r2,1
  801030:	1d000017 	ldw	r20,0(r3)
  801034:	1d400117 	ldw	r21,4(r3)
  801038:	18c00204 	addi	r3,r3,8
  80103c:	d8c00615 	stw	r3,24(sp)
  801040:	00000906 	br	801068 <___svfprintf_internal_r+0x490>
  801044:	63000414 	ori	r12,r12,16
  801048:	6080080c 	andi	r2,r12,32
  80104c:	10006b26 	beq	r2,zero,8011fc <___svfprintf_internal_r+0x624>
  801050:	d8c00617 	ldw	r3,24(sp)
  801054:	0005883a 	mov	r2,zero
  801058:	1d000017 	ldw	r20,0(r3)
  80105c:	1d400117 	ldw	r21,4(r3)
  801060:	18c00204 	addi	r3,r3,8
  801064:	d8c00615 	stw	r3,24(sp)
  801068:	d8001345 	stb	zero,77(sp)
  80106c:	40ffffe0 	cmpeqi	r3,r8,-1
  801070:	001b883a 	mov	r13,zero
  801074:	18010d1e 	bne	r3,zero,8014ac <___svfprintf_internal_r+0x8d4>
  801078:	047fdfc4 	movi	r17,-129
  80107c:	6448703a 	and	r4,r12,r17
  801080:	a546b03a 	or	r3,r20,r21
  801084:	d9000415 	stw	r4,16(sp)
  801088:	1802c01e 	bne	r3,zero,801b8c <___svfprintf_internal_r+0xfb4>
  80108c:	40025f1e 	bne	r8,zero,801a0c <___svfprintf_internal_r+0xe34>
  801090:	1003821e 	bne	r2,zero,801e9c <___svfprintf_internal_r+0x12c4>
  801094:	6540004c 	andi	r21,r12,1
  801098:	a803be26 	beq	r21,zero,801f94 <___svfprintf_internal_r+0x13bc>
  80109c:	00800c04 	movi	r2,48
  8010a0:	d88026c5 	stb	r2,155(sp)
  8010a4:	dc4026c4 	addi	r17,sp,155
  8010a8:	00011e06 	br	801524 <___svfprintf_internal_r+0x94c>
  8010ac:	85e3c83a 	sub	r17,r16,r23
  8010b0:	85ffc826 	beq	r16,r23,800fd4 <___svfprintf_internal_r+0x3fc>
  8010b4:	d8c01c17 	ldw	r3,112(sp)
  8010b8:	d8801b17 	ldw	r2,108(sp)
  8010bc:	b5c00015 	stw	r23,0(r22)
  8010c0:	1c47883a 	add	r3,r3,r17
  8010c4:	10800044 	addi	r2,r2,1
  8010c8:	d8801b15 	stw	r2,108(sp)
  8010cc:	b4400115 	stw	r17,4(r22)
  8010d0:	d8c01c15 	stw	r3,112(sp)
  8010d4:	10800208 	cmpgei	r2,r2,8
  8010d8:	1000061e 	bne	r2,zero,8010f4 <___svfprintf_internal_r+0x51c>
  8010dc:	b5800204 	addi	r22,r22,8
  8010e0:	d8c00517 	ldw	r3,20(sp)
  8010e4:	80800003 	ldbu	r2,0(r16)
  8010e8:	1c47883a 	add	r3,r3,r17
  8010ec:	d8c00515 	stw	r3,20(sp)
  8010f0:	003eeb06 	br	800ca0 <___svfprintf_internal_r+0xc8>
  8010f4:	d9801a04 	addi	r6,sp,104
  8010f8:	900b883a 	mov	r5,r18
  8010fc:	9809883a 	mov	r4,r19
  801100:	0805e600 	call	805e60 <__ssprint_r>
  801104:	103fb51e 	bne	r2,zero,800fdc <___svfprintf_internal_r+0x404>
  801108:	dd802704 	addi	r22,sp,156
  80110c:	003ff406 	br	8010e0 <___svfprintf_internal_r+0x508>
  801110:	21003fcc 	andi	r4,r4,255
  801114:	2006641e 	bne	r4,zero,802aa8 <___svfprintf_internal_r+0x1ed0>
  801118:	d8c00617 	ldw	r3,24(sp)
  80111c:	6080020c 	andi	r2,r12,8
  801120:	19000204 	addi	r4,r3,8
  801124:	d9000e15 	stw	r4,56(sp)
  801128:	1003b01e 	bne	r2,zero,801fec <___svfprintf_internal_r+0x1414>
  80112c:	d8800617 	ldw	r2,24(sp)
  801130:	10c00017 	ldw	r3,0(r2)
  801134:	10800117 	ldw	r2,4(r2)
  801138:	d8c00915 	stw	r3,36(sp)
  80113c:	d8800a15 	stw	r2,40(sp)
  801140:	dd400a17 	ldw	r21,40(sp)
  801144:	dd000917 	ldw	r20,36(sp)
  801148:	00a00034 	movhi	r2,32768
  80114c:	10bfffc4 	addi	r2,r2,-1
  801150:	a8a2703a 	and	r17,r21,r2
  801154:	01dffc34 	movhi	r7,32752
  801158:	01bfffc4 	movi	r6,-1
  80115c:	39ffffc4 	addi	r7,r7,-1
  801160:	a009883a 	mov	r4,r20
  801164:	880b883a 	mov	r5,r17
  801168:	da000615 	stw	r8,24(sp)
  80116c:	db000415 	stw	r12,16(sp)
  801170:	080e2840 	call	80e284 <__unorddf2>
  801174:	db000417 	ldw	r12,16(sp)
  801178:	da000617 	ldw	r8,24(sp)
  80117c:	1004621e 	bne	r2,zero,802308 <___svfprintf_internal_r+0x1730>
  801180:	01dffc34 	movhi	r7,32752
  801184:	01bfffc4 	movi	r6,-1
  801188:	39ffffc4 	addi	r7,r7,-1
  80118c:	a009883a 	mov	r4,r20
  801190:	880b883a 	mov	r5,r17
  801194:	080d13c0 	call	80d13c <__ledf2>
  801198:	db000417 	ldw	r12,16(sp)
  80119c:	da000617 	ldw	r8,24(sp)
  8011a0:	0084590e 	bge	zero,r2,802308 <___svfprintf_internal_r+0x1730>
  8011a4:	000d883a 	mov	r6,zero
  8011a8:	000f883a 	mov	r7,zero
  8011ac:	a009883a 	mov	r4,r20
  8011b0:	a80b883a 	mov	r5,r21
  8011b4:	080d13c0 	call	80d13c <__ledf2>
  8011b8:	db000417 	ldw	r12,16(sp)
  8011bc:	1005ac16 	blt	r2,zero,802870 <___svfprintf_internal_r+0x1c98>
  8011c0:	db401343 	ldbu	r13,77(sp)
  8011c4:	e0801210 	cmplti	r2,fp,72
  8011c8:	1005051e 	bne	r2,zero,8025e0 <___svfprintf_internal_r+0x1a08>
  8011cc:	04402074 	movhi	r17,129
  8011d0:	8c7a9f04 	addi	r17,r17,-5508
  8011d4:	00bfdfc4 	movi	r2,-129
  8011d8:	6084703a 	and	r2,r12,r2
  8011dc:	d8800415 	stw	r2,16(sp)
  8011e0:	d8800e17 	ldw	r2,56(sp)
  8011e4:	050000c4 	movi	r20,3
  8011e8:	054000c4 	movi	r21,3
  8011ec:	d8800615 	stw	r2,24(sp)
  8011f0:	0011883a 	mov	r8,zero
  8011f4:	d8000715 	stw	zero,28(sp)
  8011f8:	0000ce06 	br	801534 <___svfprintf_internal_r+0x95c>
  8011fc:	d9000617 	ldw	r4,24(sp)
  801200:	6080040c 	andi	r2,r12,16
  801204:	20c00104 	addi	r3,r4,4
  801208:	1003641e 	bne	r2,zero,801f9c <___svfprintf_internal_r+0x13c4>
  80120c:	6080100c 	andi	r2,r12,64
  801210:	10053c26 	beq	r2,zero,802704 <___svfprintf_internal_r+0x1b2c>
  801214:	d8800617 	ldw	r2,24(sp)
  801218:	002b883a 	mov	r21,zero
  80121c:	d8c00615 	stw	r3,24(sp)
  801220:	1500000b 	ldhu	r20,0(r2)
  801224:	0005883a 	mov	r2,zero
  801228:	003f8f06 	br	801068 <___svfprintf_internal_r+0x490>
  80122c:	d9000617 	ldw	r4,24(sp)
  801230:	6080040c 	andi	r2,r12,16
  801234:	20c00104 	addi	r3,r4,4
  801238:	1003621e 	bne	r2,zero,801fc4 <___svfprintf_internal_r+0x13ec>
  80123c:	6080100c 	andi	r2,r12,64
  801240:	10052526 	beq	r2,zero,8026d8 <___svfprintf_internal_r+0x1b00>
  801244:	d8800617 	ldw	r2,24(sp)
  801248:	002b883a 	mov	r21,zero
  80124c:	d8c00615 	stw	r3,24(sp)
  801250:	1500000b 	ldhu	r20,0(r2)
  801254:	00800044 	movi	r2,1
  801258:	003f8306 	br	801068 <___svfprintf_internal_r+0x490>
  80125c:	03002074 	movhi	r12,129
  801260:	89000450 	cmplti	r4,r17,17
  801264:	d8801b17 	ldw	r2,108(sp)
  801268:	633ab304 	addi	r12,r12,-5428
  80126c:	20001b1e 	bne	r4,zero,8012dc <___svfprintf_internal_r+0x704>
  801270:	05400404 	movi	r21,16
  801274:	6039883a 	mov	fp,r12
  801278:	00000406 	br	80128c <___svfprintf_internal_r+0x6b4>
  80127c:	8c7ffc04 	addi	r17,r17,-16
  801280:	89000448 	cmpgei	r4,r17,17
  801284:	b5800204 	addi	r22,r22,8
  801288:	20001326 	beq	r4,zero,8012d8 <___svfprintf_internal_r+0x700>
  80128c:	10800044 	addi	r2,r2,1
  801290:	18c00404 	addi	r3,r3,16
  801294:	b7000015 	stw	fp,0(r22)
  801298:	b5400115 	stw	r21,4(r22)
  80129c:	d8c01c15 	stw	r3,112(sp)
  8012a0:	d8801b15 	stw	r2,108(sp)
  8012a4:	11000208 	cmpgei	r4,r2,8
  8012a8:	203ff426 	beq	r4,zero,80127c <___svfprintf_internal_r+0x6a4>
  8012ac:	d9801a04 	addi	r6,sp,104
  8012b0:	900b883a 	mov	r5,r18
  8012b4:	9809883a 	mov	r4,r19
  8012b8:	0805e600 	call	805e60 <__ssprint_r>
  8012bc:	103f471e 	bne	r2,zero,800fdc <___svfprintf_internal_r+0x404>
  8012c0:	8c7ffc04 	addi	r17,r17,-16
  8012c4:	89000448 	cmpgei	r4,r17,17
  8012c8:	d8c01c17 	ldw	r3,112(sp)
  8012cc:	d8801b17 	ldw	r2,108(sp)
  8012d0:	dd802704 	addi	r22,sp,156
  8012d4:	203fed1e 	bne	r4,zero,80128c <___svfprintf_internal_r+0x6b4>
  8012d8:	e019883a 	mov	r12,fp
  8012dc:	10800044 	addi	r2,r2,1
  8012e0:	1c47883a 	add	r3,r3,r17
  8012e4:	d8801b15 	stw	r2,108(sp)
  8012e8:	b3000015 	stw	r12,0(r22)
  8012ec:	b4400115 	stw	r17,4(r22)
  8012f0:	d8c01c15 	stw	r3,112(sp)
  8012f4:	10800210 	cmplti	r2,r2,8
  8012f8:	103f2c1e 	bne	r2,zero,800fac <___svfprintf_internal_r+0x3d4>
  8012fc:	d9801a04 	addi	r6,sp,104
  801300:	900b883a 	mov	r5,r18
  801304:	9809883a 	mov	r4,r19
  801308:	0805e600 	call	805e60 <__ssprint_r>
  80130c:	103f331e 	bne	r2,zero,800fdc <___svfprintf_internal_r+0x404>
  801310:	d8c01c17 	ldw	r3,112(sp)
  801314:	003f2506 	br	800fac <___svfprintf_internal_r+0x3d4>
  801318:	21003fcc 	andi	r4,r4,255
  80131c:	2005e41e 	bne	r4,zero,802ab0 <___svfprintf_internal_r+0x1ed8>
  801320:	6080080c 	andi	r2,r12,32
  801324:	10004b26 	beq	r2,zero,801454 <___svfprintf_internal_r+0x87c>
  801328:	d8c00617 	ldw	r3,24(sp)
  80132c:	18800117 	ldw	r2,4(r3)
  801330:	1d000017 	ldw	r20,0(r3)
  801334:	18c00204 	addi	r3,r3,8
  801338:	d8c00615 	stw	r3,24(sp)
  80133c:	102b883a 	mov	r21,r2
  801340:	10005016 	blt	r2,zero,801484 <___svfprintf_internal_r+0x8ac>
  801344:	40bfffd8 	cmpnei	r2,r8,-1
  801348:	db401343 	ldbu	r13,77(sp)
  80134c:	10000626 	beq	r2,zero,801368 <___svfprintf_internal_r+0x790>
  801350:	047fdfc4 	movi	r17,-129
  801354:	6446703a 	and	r3,r12,r17
  801358:	a544b03a 	or	r2,r20,r21
  80135c:	d8c00415 	stw	r3,16(sp)
  801360:	1002cd26 	beq	r2,zero,801e98 <___svfprintf_internal_r+0x12c0>
  801364:	db000417 	ldw	r12,16(sp)
  801368:	a803781e 	bne	r21,zero,80214c <___svfprintf_internal_r+0x1574>
  80136c:	a08002a8 	cmpgeui	r2,r20,10
  801370:	1003761e 	bne	r2,zero,80214c <___svfprintf_internal_r+0x1574>
  801374:	a5000c04 	addi	r20,r20,48
  801378:	dd0026c5 	stb	r20,155(sp)
  80137c:	db000415 	stw	r12,16(sp)
  801380:	05400044 	movi	r21,1
  801384:	dc4026c4 	addi	r17,sp,155
  801388:	00006606 	br	801524 <___svfprintf_internal_r+0x94c>
  80138c:	bac00007 	ldb	r11,0(r23)
  801390:	63001014 	ori	r12,r12,64
  801394:	003e4e06 	br	800cd0 <___svfprintf_internal_r+0xf8>
  801398:	bac00007 	ldb	r11,0(r23)
  80139c:	63000814 	ori	r12,r12,32
  8013a0:	003e4b06 	br	800cd0 <___svfprintf_internal_r+0xf8>
  8013a4:	d8c00617 	ldw	r3,24(sp)
  8013a8:	00800c04 	movi	r2,48
  8013ac:	d8801385 	stb	r2,78(sp)
  8013b0:	00801e04 	movi	r2,120
  8013b4:	01002074 	movhi	r4,129
  8013b8:	d88013c5 	stb	r2,79(sp)
  8013bc:	18800104 	addi	r2,r3,4
  8013c0:	d8800615 	stw	r2,24(sp)
  8013c4:	20baa204 	addi	r2,r4,-5496
  8013c8:	d8800b15 	stw	r2,44(sp)
  8013cc:	1d000017 	ldw	r20,0(r3)
  8013d0:	002b883a 	mov	r21,zero
  8013d4:	63000094 	ori	r12,r12,2
  8013d8:	00800084 	movi	r2,2
  8013dc:	07001e04 	movi	fp,120
  8013e0:	003f2106 	br	801068 <___svfprintf_internal_r+0x490>
  8013e4:	21003fcc 	andi	r4,r4,255
  8013e8:	2005ab1e 	bne	r4,zero,802a98 <___svfprintf_internal_r+0x1ec0>
  8013ec:	d9000617 	ldw	r4,24(sp)
  8013f0:	6080080c 	andi	r2,r12,32
  8013f4:	20c00017 	ldw	r3,0(r4)
  8013f8:	21000104 	addi	r4,r4,4
  8013fc:	d9000615 	stw	r4,24(sp)
  801400:	1002eb1e 	bne	r2,zero,801fb0 <___svfprintf_internal_r+0x13d8>
  801404:	6080040c 	andi	r2,r12,16
  801408:	1003781e 	bne	r2,zero,8021ec <___svfprintf_internal_r+0x1614>
  80140c:	6300100c 	andi	r12,r12,64
  801410:	60037626 	beq	r12,zero,8021ec <___svfprintf_internal_r+0x1614>
  801414:	d8800517 	ldw	r2,20(sp)
  801418:	1880000d 	sth	r2,0(r3)
  80141c:	003e1406 	br	800c70 <___svfprintf_internal_r+0x98>
  801420:	bac00007 	ldb	r11,0(r23)
  801424:	58801b18 	cmpnei	r2,r11,108
  801428:	10031026 	beq	r2,zero,80206c <___svfprintf_internal_r+0x1494>
  80142c:	63000414 	ori	r12,r12,16
  801430:	003e2706 	br	800cd0 <___svfprintf_internal_r+0xf8>
  801434:	bac00007 	ldb	r11,0(r23)
  801438:	63000214 	ori	r12,r12,8
  80143c:	003e2406 	br	800cd0 <___svfprintf_internal_r+0xf8>
  801440:	21003fcc 	andi	r4,r4,255
  801444:	2005921e 	bne	r4,zero,802a90 <___svfprintf_internal_r+0x1eb8>
  801448:	63000414 	ori	r12,r12,16
  80144c:	6080080c 	andi	r2,r12,32
  801450:	103fb51e 	bne	r2,zero,801328 <___svfprintf_internal_r+0x750>
  801454:	d9000617 	ldw	r4,24(sp)
  801458:	6080040c 	andi	r2,r12,16
  80145c:	20c00104 	addi	r3,r4,4
  801460:	1002dd1e 	bne	r2,zero,801fd8 <___svfprintf_internal_r+0x1400>
  801464:	6080100c 	andi	r2,r12,64
  801468:	1004ac26 	beq	r2,zero,80271c <___svfprintf_internal_r+0x1b44>
  80146c:	d8800617 	ldw	r2,24(sp)
  801470:	d8c00615 	stw	r3,24(sp)
  801474:	1500000f 	ldh	r20,0(r2)
  801478:	a02bd7fa 	srai	r21,r20,31
  80147c:	a805883a 	mov	r2,r21
  801480:	103fb00e 	bge	r2,zero,801344 <___svfprintf_internal_r+0x76c>
  801484:	a004c03a 	cmpne	r2,r20,zero
  801488:	056bc83a 	sub	r21,zero,r21
  80148c:	a8abc83a 	sub	r21,r21,r2
  801490:	00800b44 	movi	r2,45
  801494:	d8801345 	stb	r2,77(sp)
  801498:	40ffffe0 	cmpeqi	r3,r8,-1
  80149c:	0529c83a 	sub	r20,zero,r20
  8014a0:	03400b44 	movi	r13,45
  8014a4:	00800044 	movi	r2,1
  8014a8:	183ef326 	beq	r3,zero,801078 <___svfprintf_internal_r+0x4a0>
  8014ac:	10c00060 	cmpeqi	r3,r2,1
  8014b0:	183fad1e 	bne	r3,zero,801368 <___svfprintf_internal_r+0x790>
  8014b4:	108000a0 	cmpeqi	r2,r2,2
  8014b8:	1001591e 	bne	r2,zero,801a20 <___svfprintf_internal_r+0xe48>
  8014bc:	dc402704 	addi	r17,sp,156
  8014c0:	a006d0fa 	srli	r3,r20,3
  8014c4:	a808977a 	slli	r4,r21,29
  8014c8:	a82ad0fa 	srli	r21,r21,3
  8014cc:	a50001cc 	andi	r20,r20,7
  8014d0:	a0800c04 	addi	r2,r20,48
  8014d4:	20e8b03a 	or	r20,r4,r3
  8014d8:	88bfffc5 	stb	r2,-1(r17)
  8014dc:	a546b03a 	or	r3,r20,r21
  8014e0:	880b883a 	mov	r5,r17
  8014e4:	8c7fffc4 	addi	r17,r17,-1
  8014e8:	183ff51e 	bne	r3,zero,8014c0 <___svfprintf_internal_r+0x8e8>
  8014ec:	60c0004c 	andi	r3,r12,1
  8014f0:	18015826 	beq	r3,zero,801a54 <___svfprintf_internal_r+0xe7c>
  8014f4:	10803fcc 	andi	r2,r2,255
  8014f8:	1080201c 	xori	r2,r2,128
  8014fc:	10bfe004 	addi	r2,r2,-128
  801500:	10800c18 	cmpnei	r2,r2,48
  801504:	10015326 	beq	r2,zero,801a54 <___svfprintf_internal_r+0xe7c>
  801508:	00800c04 	movi	r2,48
  80150c:	297fff84 	addi	r5,r5,-2
  801510:	88bfffc5 	stb	r2,-1(r17)
  801514:	d8802704 	addi	r2,sp,156
  801518:	116bc83a 	sub	r21,r2,r5
  80151c:	db000415 	stw	r12,16(sp)
  801520:	2823883a 	mov	r17,r5
  801524:	4029883a 	mov	r20,r8
  801528:	4540010e 	bge	r8,r21,801530 <___svfprintf_internal_r+0x958>
  80152c:	a829883a 	mov	r20,r21
  801530:	d8000715 	stw	zero,28(sp)
  801534:	6b403fcc 	andi	r13,r13,255
  801538:	6b40201c 	xori	r13,r13,128
  80153c:	6b7fe004 	addi	r13,r13,-128
  801540:	683e5f26 	beq	r13,zero,800ec0 <___svfprintf_internal_r+0x2e8>
  801544:	a5000044 	addi	r20,r20,1
  801548:	003e5d06 	br	800ec0 <___svfprintf_internal_r+0x2e8>
  80154c:	bac00007 	ldb	r11,0(r23)
  801550:	63002014 	ori	r12,r12,128
  801554:	003dde06 	br	800cd0 <___svfprintf_internal_r+0xf8>
  801558:	bf000007 	ldb	fp,0(r23)
  80155c:	b8800044 	addi	r2,r23,1
  801560:	e0c00aa0 	cmpeqi	r3,fp,42
  801564:	1805ac1e 	bne	r3,zero,802c18 <___svfprintf_internal_r+0x2040>
  801568:	e0fff404 	addi	r3,fp,-48
  80156c:	198002b0 	cmpltui	r6,r3,10
  801570:	102f883a 	mov	r23,r2
  801574:	0011883a 	mov	r8,zero
  801578:	303dd726 	beq	r6,zero,800cd8 <___svfprintf_internal_r+0x100>
  80157c:	400490ba 	slli	r2,r8,2
  801580:	bf000007 	ldb	fp,0(r23)
  801584:	bdc00044 	addi	r23,r23,1
  801588:	1211883a 	add	r8,r2,r8
  80158c:	4211883a 	add	r8,r8,r8
  801590:	40d1883a 	add	r8,r8,r3
  801594:	e0fff404 	addi	r3,fp,-48
  801598:	188002b0 	cmpltui	r2,r3,10
  80159c:	103ff71e 	bne	r2,zero,80157c <___svfprintf_internal_r+0x9a4>
  8015a0:	003dcd06 	br	800cd8 <___svfprintf_internal_r+0x100>
  8015a4:	bf000003 	ldbu	fp,0(r23)
  8015a8:	e2c03fcc 	andi	r11,fp,255
  8015ac:	5ac0201c 	xori	r11,r11,128
  8015b0:	63000114 	ori	r12,r12,4
  8015b4:	5affe004 	addi	r11,r11,-128
  8015b8:	003dc506 	br	800cd0 <___svfprintf_internal_r+0xf8>
  8015bc:	bac00007 	ldb	r11,0(r23)
  8015c0:	01000044 	movi	r4,1
  8015c4:	01400ac4 	movi	r5,43
  8015c8:	003dc106 	br	800cd0 <___svfprintf_internal_r+0xf8>
  8015cc:	d8800617 	ldw	r2,24(sp)
  8015d0:	bf000003 	ldbu	fp,0(r23)
  8015d4:	14000017 	ldw	r16,0(r2)
  8015d8:	10800104 	addi	r2,r2,4
  8015dc:	80029216 	blt	r16,zero,802028 <___svfprintf_internal_r+0x1450>
  8015e0:	d8800615 	stw	r2,24(sp)
  8015e4:	e2c03fcc 	andi	r11,fp,255
  8015e8:	5ac0201c 	xori	r11,r11,128
  8015ec:	5affe004 	addi	r11,r11,-128
  8015f0:	003db706 	br	800cd0 <___svfprintf_internal_r+0xf8>
  8015f4:	bac00007 	ldb	r11,0(r23)
  8015f8:	63000054 	ori	r12,r12,1
  8015fc:	003db406 	br	800cd0 <___svfprintf_internal_r+0xf8>
  801600:	28803fcc 	andi	r2,r5,255
  801604:	1080201c 	xori	r2,r2,128
  801608:	10bfe004 	addi	r2,r2,-128
  80160c:	bf000003 	ldbu	fp,0(r23)
  801610:	103ff41e 	bne	r2,zero,8015e4 <___svfprintf_internal_r+0xa0c>
  801614:	e2c03fcc 	andi	r11,fp,255
  801618:	5ac0201c 	xori	r11,r11,128
  80161c:	01000044 	movi	r4,1
  801620:	01400804 	movi	r5,32
  801624:	5affe004 	addi	r11,r11,-128
  801628:	003da906 	br	800cd0 <___svfprintf_internal_r+0xf8>
  80162c:	21003fcc 	andi	r4,r4,255
  801630:	20051b1e 	bne	r4,zero,802aa0 <___svfprintf_internal_r+0x1ec8>
  801634:	00802074 	movhi	r2,129
  801638:	10baa204 	addi	r2,r2,-5496
  80163c:	d8800b15 	stw	r2,44(sp)
  801640:	6080080c 	andi	r2,r12,32
  801644:	10003226 	beq	r2,zero,801710 <___svfprintf_internal_r+0xb38>
  801648:	d8800617 	ldw	r2,24(sp)
  80164c:	15000017 	ldw	r20,0(r2)
  801650:	15400117 	ldw	r21,4(r2)
  801654:	10800204 	addi	r2,r2,8
  801658:	d8800615 	stw	r2,24(sp)
  80165c:	6080004c 	andi	r2,r12,1
  801660:	10000226 	beq	r2,zero,80166c <___svfprintf_internal_r+0xa94>
  801664:	a544b03a 	or	r2,r20,r21
  801668:	1002691e 	bne	r2,zero,802010 <___svfprintf_internal_r+0x1438>
  80166c:	00800084 	movi	r2,2
  801670:	003e7d06 	br	801068 <___svfprintf_internal_r+0x490>
  801674:	d8800617 	ldw	r2,24(sp)
  801678:	d8001345 	stb	zero,77(sp)
  80167c:	14400017 	ldw	r17,0(r2)
  801680:	10c00104 	addi	r3,r2,4
  801684:	88039226 	beq	r17,zero,8024d0 <___svfprintf_internal_r+0x18f8>
  801688:	40bfffe0 	cmpeqi	r2,r8,-1
  80168c:	1002a71e 	bne	r2,zero,80212c <___svfprintf_internal_r+0x1554>
  801690:	400d883a 	mov	r6,r8
  801694:	000b883a 	mov	r5,zero
  801698:	8809883a 	mov	r4,r17
  80169c:	d8c00715 	stw	r3,28(sp)
  8016a0:	db000615 	stw	r12,24(sp)
  8016a4:	da000415 	stw	r8,16(sp)
  8016a8:	0804a080 	call	804a08 <memchr>
  8016ac:	da000417 	ldw	r8,16(sp)
  8016b0:	db000617 	ldw	r12,24(sp)
  8016b4:	d8c00717 	ldw	r3,28(sp)
  8016b8:	1004e326 	beq	r2,zero,802a48 <___svfprintf_internal_r+0x1e70>
  8016bc:	146bc83a 	sub	r21,r2,r17
  8016c0:	a829883a 	mov	r20,r21
  8016c4:	d8c00615 	stw	r3,24(sp)
  8016c8:	003dfa06 	br	800eb4 <___svfprintf_internal_r+0x2dc>
  8016cc:	d8c00617 	ldw	r3,24(sp)
  8016d0:	d8001345 	stb	zero,77(sp)
  8016d4:	05000044 	movi	r20,1
  8016d8:	18800017 	ldw	r2,0(r3)
  8016dc:	18c00104 	addi	r3,r3,4
  8016e0:	d8c00615 	stw	r3,24(sp)
  8016e4:	d8801d05 	stb	r2,116(sp)
  8016e8:	05400044 	movi	r21,1
  8016ec:	dc401d04 	addi	r17,sp,116
  8016f0:	003df006 	br	800eb4 <___svfprintf_internal_r+0x2dc>
  8016f4:	21003fcc 	andi	r4,r4,255
  8016f8:	2004e31e 	bne	r4,zero,802a88 <___svfprintf_internal_r+0x1eb0>
  8016fc:	00802074 	movhi	r2,129
  801700:	10baa704 	addi	r2,r2,-5476
  801704:	d8800b15 	stw	r2,44(sp)
  801708:	6080080c 	andi	r2,r12,32
  80170c:	103fce1e 	bne	r2,zero,801648 <___svfprintf_internal_r+0xa70>
  801710:	d9000617 	ldw	r4,24(sp)
  801714:	6080040c 	andi	r2,r12,16
  801718:	20c00104 	addi	r3,r4,4
  80171c:	1002381e 	bne	r2,zero,802000 <___svfprintf_internal_r+0x1428>
  801720:	6080100c 	andi	r2,r12,64
  801724:	1003f226 	beq	r2,zero,8026f0 <___svfprintf_internal_r+0x1b18>
  801728:	d8800617 	ldw	r2,24(sp)
  80172c:	002b883a 	mov	r21,zero
  801730:	d8c00615 	stw	r3,24(sp)
  801734:	1500000b 	ldhu	r20,0(r2)
  801738:	003fc806 	br	80165c <___svfprintf_internal_r+0xa84>
  80173c:	e2c01990 	cmplti	r11,fp,102
  801740:	5800ce1e 	bne	r11,zero,801a7c <___svfprintf_internal_r+0xea4>
  801744:	d9000917 	ldw	r4,36(sp)
  801748:	d9400a17 	ldw	r5,40(sp)
  80174c:	000d883a 	mov	r6,zero
  801750:	000f883a 	mov	r7,zero
  801754:	d8c00e15 	stw	r3,56(sp)
  801758:	080cfd40 	call	80cfd4 <__eqdf2>
  80175c:	d8c00e17 	ldw	r3,56(sp)
  801760:	1001671e 	bne	r2,zero,801d00 <___svfprintf_internal_r+0x1128>
  801764:	d8801b17 	ldw	r2,108(sp)
  801768:	01002074 	movhi	r4,129
  80176c:	213aae04 	addi	r4,r4,-5448
  801770:	10800044 	addi	r2,r2,1
  801774:	18c00044 	addi	r3,r3,1
  801778:	b1000015 	stw	r4,0(r22)
  80177c:	01000044 	movi	r4,1
  801780:	d8801b15 	stw	r2,108(sp)
  801784:	b1000115 	stw	r4,4(r22)
  801788:	d8c01c15 	stw	r3,112(sp)
  80178c:	10800208 	cmpgei	r2,r2,8
  801790:	1003351e 	bne	r2,zero,802468 <___svfprintf_internal_r+0x1890>
  801794:	b5800204 	addi	r22,r22,8
  801798:	d8801417 	ldw	r2,80(sp)
  80179c:	d9000817 	ldw	r4,32(sp)
  8017a0:	11000316 	blt	r2,r4,8017b0 <___svfprintf_internal_r+0xbd8>
  8017a4:	d8800417 	ldw	r2,16(sp)
  8017a8:	1080004c 	andi	r2,r2,1
  8017ac:	103dfa26 	beq	r2,zero,800f98 <___svfprintf_internal_r+0x3c0>
  8017b0:	d8800d17 	ldw	r2,52(sp)
  8017b4:	d9000c17 	ldw	r4,48(sp)
  8017b8:	b0800015 	stw	r2,0(r22)
  8017bc:	d8801b17 	ldw	r2,108(sp)
  8017c0:	1907883a 	add	r3,r3,r4
  8017c4:	b1000115 	stw	r4,4(r22)
  8017c8:	10800044 	addi	r2,r2,1
  8017cc:	d8801b15 	stw	r2,108(sp)
  8017d0:	d8c01c15 	stw	r3,112(sp)
  8017d4:	10800208 	cmpgei	r2,r2,8
  8017d8:	1003351e 	bne	r2,zero,8024b0 <___svfprintf_internal_r+0x18d8>
  8017dc:	b5800204 	addi	r22,r22,8
  8017e0:	d8800817 	ldw	r2,32(sp)
  8017e4:	157fffc4 	addi	r21,r2,-1
  8017e8:	057deb0e 	bge	zero,r21,800f98 <___svfprintf_internal_r+0x3c0>
  8017ec:	01c02074 	movhi	r7,129
  8017f0:	a9000450 	cmplti	r4,r21,17
  8017f4:	d8801b17 	ldw	r2,108(sp)
  8017f8:	39faaf04 	addi	r7,r7,-5444
  8017fc:	2003161e 	bne	r4,zero,802458 <___svfprintf_internal_r+0x1880>
  801800:	07000404 	movi	fp,16
  801804:	3823883a 	mov	r17,r7
  801808:	00000406 	br	80181c <___svfprintf_internal_r+0xc44>
  80180c:	b5800204 	addi	r22,r22,8
  801810:	ad7ffc04 	addi	r21,r21,-16
  801814:	a9000448 	cmpgei	r4,r21,17
  801818:	20030e26 	beq	r4,zero,802454 <___svfprintf_internal_r+0x187c>
  80181c:	10800044 	addi	r2,r2,1
  801820:	18c00404 	addi	r3,r3,16
  801824:	b4400015 	stw	r17,0(r22)
  801828:	b7000115 	stw	fp,4(r22)
  80182c:	d8c01c15 	stw	r3,112(sp)
  801830:	d8801b15 	stw	r2,108(sp)
  801834:	11000208 	cmpgei	r4,r2,8
  801838:	203ff426 	beq	r4,zero,80180c <___svfprintf_internal_r+0xc34>
  80183c:	d9801a04 	addi	r6,sp,104
  801840:	900b883a 	mov	r5,r18
  801844:	9809883a 	mov	r4,r19
  801848:	0805e600 	call	805e60 <__ssprint_r>
  80184c:	103de31e 	bne	r2,zero,800fdc <___svfprintf_internal_r+0x404>
  801850:	d8c01c17 	ldw	r3,112(sp)
  801854:	d8801b17 	ldw	r2,108(sp)
  801858:	dd802704 	addi	r22,sp,156
  80185c:	003fec06 	br	801810 <___svfprintf_internal_r+0xc38>
  801860:	8519c83a 	sub	r12,r16,r20
  801864:	033dbd0e 	bge	zero,r12,800f5c <___svfprintf_internal_r+0x384>
  801868:	01c02074 	movhi	r7,129
  80186c:	61000450 	cmplti	r4,r12,17
  801870:	d8801b17 	ldw	r2,108(sp)
  801874:	39faaf04 	addi	r7,r7,-5444
  801878:	2000281e 	bne	r4,zero,80191c <___svfprintf_internal_r+0xd44>
  80187c:	dc400e15 	stw	r17,56(sp)
  801880:	dc000f15 	stw	r16,60(sp)
  801884:	b009883a 	mov	r4,r22
  801888:	03400404 	movi	r13,16
  80188c:	a02d883a 	mov	r22,r20
  801890:	6021883a 	mov	r16,r12
  801894:	4029883a 	mov	r20,r8
  801898:	3823883a 	mov	r17,r7
  80189c:	00000406 	br	8018b0 <___svfprintf_internal_r+0xcd8>
  8018a0:	843ffc04 	addi	r16,r16,-16
  8018a4:	81400448 	cmpgei	r5,r16,17
  8018a8:	21000204 	addi	r4,r4,8
  8018ac:	28001426 	beq	r5,zero,801900 <___svfprintf_internal_r+0xd28>
  8018b0:	10800044 	addi	r2,r2,1
  8018b4:	18c00404 	addi	r3,r3,16
  8018b8:	24400015 	stw	r17,0(r4)
  8018bc:	23400115 	stw	r13,4(r4)
  8018c0:	d8c01c15 	stw	r3,112(sp)
  8018c4:	d8801b15 	stw	r2,108(sp)
  8018c8:	11400208 	cmpgei	r5,r2,8
  8018cc:	283ff426 	beq	r5,zero,8018a0 <___svfprintf_internal_r+0xcc8>
  8018d0:	d9801a04 	addi	r6,sp,104
  8018d4:	900b883a 	mov	r5,r18
  8018d8:	9809883a 	mov	r4,r19
  8018dc:	0805e600 	call	805e60 <__ssprint_r>
  8018e0:	103dbe1e 	bne	r2,zero,800fdc <___svfprintf_internal_r+0x404>
  8018e4:	843ffc04 	addi	r16,r16,-16
  8018e8:	81400448 	cmpgei	r5,r16,17
  8018ec:	d8c01c17 	ldw	r3,112(sp)
  8018f0:	d8801b17 	ldw	r2,108(sp)
  8018f4:	d9002704 	addi	r4,sp,156
  8018f8:	03400404 	movi	r13,16
  8018fc:	283fec1e 	bne	r5,zero,8018b0 <___svfprintf_internal_r+0xcd8>
  801900:	8019883a 	mov	r12,r16
  801904:	880f883a 	mov	r7,r17
  801908:	dc000f17 	ldw	r16,60(sp)
  80190c:	dc400e17 	ldw	r17,56(sp)
  801910:	a011883a 	mov	r8,r20
  801914:	b029883a 	mov	r20,r22
  801918:	202d883a 	mov	r22,r4
  80191c:	10800044 	addi	r2,r2,1
  801920:	1b07883a 	add	r3,r3,r12
  801924:	d8801b15 	stw	r2,108(sp)
  801928:	b1c00015 	stw	r7,0(r22)
  80192c:	b3000115 	stw	r12,4(r22)
  801930:	d8c01c15 	stw	r3,112(sp)
  801934:	10800208 	cmpgei	r2,r2,8
  801938:	1002d31e 	bne	r2,zero,802488 <___svfprintf_internal_r+0x18b0>
  80193c:	4551c83a 	sub	r8,r8,r21
  801940:	b5800204 	addi	r22,r22,8
  801944:	023d870e 	bge	zero,r8,800f64 <___svfprintf_internal_r+0x38c>
  801948:	01c02074 	movhi	r7,129
  80194c:	41000450 	cmplti	r4,r8,17
  801950:	d8801b17 	ldw	r2,108(sp)
  801954:	39faaf04 	addi	r7,r7,-5444
  801958:	2000221e 	bne	r4,zero,8019e4 <___svfprintf_internal_r+0xe0c>
  80195c:	dc400e15 	stw	r17,56(sp)
  801960:	dc000f15 	stw	r16,60(sp)
  801964:	03000404 	movi	r12,16
  801968:	4021883a 	mov	r16,r8
  80196c:	3823883a 	mov	r17,r7
  801970:	00000406 	br	801984 <___svfprintf_internal_r+0xdac>
  801974:	843ffc04 	addi	r16,r16,-16
  801978:	81000448 	cmpgei	r4,r16,17
  80197c:	b5800204 	addi	r22,r22,8
  801980:	20001426 	beq	r4,zero,8019d4 <___svfprintf_internal_r+0xdfc>
  801984:	10800044 	addi	r2,r2,1
  801988:	18c00404 	addi	r3,r3,16
  80198c:	b4400015 	stw	r17,0(r22)
  801990:	b3000115 	stw	r12,4(r22)
  801994:	d8c01c15 	stw	r3,112(sp)
  801998:	d8801b15 	stw	r2,108(sp)
  80199c:	11000208 	cmpgei	r4,r2,8
  8019a0:	203ff426 	beq	r4,zero,801974 <___svfprintf_internal_r+0xd9c>
  8019a4:	d9801a04 	addi	r6,sp,104
  8019a8:	900b883a 	mov	r5,r18
  8019ac:	9809883a 	mov	r4,r19
  8019b0:	0805e600 	call	805e60 <__ssprint_r>
  8019b4:	103d891e 	bne	r2,zero,800fdc <___svfprintf_internal_r+0x404>
  8019b8:	843ffc04 	addi	r16,r16,-16
  8019bc:	81000448 	cmpgei	r4,r16,17
  8019c0:	d8c01c17 	ldw	r3,112(sp)
  8019c4:	d8801b17 	ldw	r2,108(sp)
  8019c8:	dd802704 	addi	r22,sp,156
  8019cc:	03000404 	movi	r12,16
  8019d0:	203fec1e 	bne	r4,zero,801984 <___svfprintf_internal_r+0xdac>
  8019d4:	8011883a 	mov	r8,r16
  8019d8:	880f883a 	mov	r7,r17
  8019dc:	dc000f17 	ldw	r16,60(sp)
  8019e0:	dc400e17 	ldw	r17,56(sp)
  8019e4:	10800044 	addi	r2,r2,1
  8019e8:	1a07883a 	add	r3,r3,r8
  8019ec:	d8801b15 	stw	r2,108(sp)
  8019f0:	b1c00015 	stw	r7,0(r22)
  8019f4:	b2000115 	stw	r8,4(r22)
  8019f8:	d8c01c15 	stw	r3,112(sp)
  8019fc:	10800208 	cmpgei	r2,r2,8
  801a00:	10014a1e 	bne	r2,zero,801f2c <___svfprintf_internal_r+0x1354>
  801a04:	b5800204 	addi	r22,r22,8
  801a08:	003d5606 	br	800f64 <___svfprintf_internal_r+0x38c>
  801a0c:	10c00060 	cmpeqi	r3,r2,1
  801a10:	1803cf1e 	bne	r3,zero,802950 <___svfprintf_internal_r+0x1d78>
  801a14:	108000a0 	cmpeqi	r2,r2,2
  801a18:	db000417 	ldw	r12,16(sp)
  801a1c:	103ea726 	beq	r2,zero,8014bc <___svfprintf_internal_r+0x8e4>
  801a20:	d9000b17 	ldw	r4,44(sp)
  801a24:	dc402704 	addi	r17,sp,156
  801a28:	a08003cc 	andi	r2,r20,15
  801a2c:	a806973a 	slli	r3,r21,28
  801a30:	a028d13a 	srli	r20,r20,4
  801a34:	2085883a 	add	r2,r4,r2
  801a38:	10800003 	ldbu	r2,0(r2)
  801a3c:	a82ad13a 	srli	r21,r21,4
  801a40:	1d28b03a 	or	r20,r3,r20
  801a44:	88bfffc5 	stb	r2,-1(r17)
  801a48:	a544b03a 	or	r2,r20,r21
  801a4c:	8c7fffc4 	addi	r17,r17,-1
  801a50:	103ff51e 	bne	r2,zero,801a28 <___svfprintf_internal_r+0xe50>
  801a54:	d8802704 	addi	r2,sp,156
  801a58:	146bc83a 	sub	r21,r2,r17
  801a5c:	db000415 	stw	r12,16(sp)
  801a60:	003eb006 	br	801524 <___svfprintf_internal_r+0x94c>
  801a64:	d9801a04 	addi	r6,sp,104
  801a68:	900b883a 	mov	r5,r18
  801a6c:	9809883a 	mov	r4,r19
  801a70:	0805e600 	call	805e60 <__ssprint_r>
  801a74:	103d5326 	beq	r2,zero,800fc4 <___svfprintf_internal_r+0x3ec>
  801a78:	003d5806 	br	800fdc <___svfprintf_internal_r+0x404>
  801a7c:	d8800817 	ldw	r2,32(sp)
  801a80:	da001b17 	ldw	r8,108(sp)
  801a84:	18c00044 	addi	r3,r3,1
  801a88:	10800088 	cmpgei	r2,r2,2
  801a8c:	45400044 	addi	r21,r8,1
  801a90:	b7000204 	addi	fp,r22,8
  801a94:	1000f326 	beq	r2,zero,801e64 <___svfprintf_internal_r+0x128c>
  801a98:	00800044 	movi	r2,1
  801a9c:	b0800115 	stw	r2,4(r22)
  801aa0:	b4400015 	stw	r17,0(r22)
  801aa4:	d8c01c15 	stw	r3,112(sp)
  801aa8:	dd401b15 	stw	r21,108(sp)
  801aac:	a8800210 	cmplti	r2,r21,8
  801ab0:	10012626 	beq	r2,zero,801f4c <___svfprintf_internal_r+0x1374>
  801ab4:	d8800c17 	ldw	r2,48(sp)
  801ab8:	d9000d17 	ldw	r4,52(sp)
  801abc:	ad400044 	addi	r21,r21,1
  801ac0:	1887883a 	add	r3,r3,r2
  801ac4:	e0800115 	stw	r2,4(fp)
  801ac8:	e1000015 	stw	r4,0(fp)
  801acc:	d8c01c15 	stw	r3,112(sp)
  801ad0:	dd401b15 	stw	r21,108(sp)
  801ad4:	a8800208 	cmpgei	r2,r21,8
  801ad8:	1001251e 	bne	r2,zero,801f70 <___svfprintf_internal_r+0x1398>
  801adc:	e7000204 	addi	fp,fp,8
  801ae0:	d9000917 	ldw	r4,36(sp)
  801ae4:	d9400a17 	ldw	r5,40(sp)
  801ae8:	aa000044 	addi	r8,r21,1
  801aec:	000d883a 	mov	r6,zero
  801af0:	000f883a 	mov	r7,zero
  801af4:	d8c00e15 	stw	r3,56(sp)
  801af8:	da000715 	stw	r8,28(sp)
  801afc:	080cfd40 	call	80cfd4 <__eqdf2>
  801b00:	d8c00817 	ldw	r3,32(sp)
  801b04:	da000717 	ldw	r8,28(sp)
  801b08:	e5800204 	addi	r22,fp,8
  801b0c:	1affffc4 	addi	r11,r3,-1
  801b10:	d8c00e17 	ldw	r3,56(sp)
  801b14:	1000e526 	beq	r2,zero,801eac <___svfprintf_internal_r+0x12d4>
  801b18:	8a400044 	addi	r9,r17,1
  801b1c:	1ac7883a 	add	r3,r3,r11
  801b20:	da001b15 	stw	r8,108(sp)
  801b24:	e2400015 	stw	r9,0(fp)
  801b28:	e2c00115 	stw	r11,4(fp)
  801b2c:	d8c01c15 	stw	r3,112(sp)
  801b30:	42000208 	cmpgei	r8,r8,8
  801b34:	4001b01e 	bne	r8,zero,8021f8 <___svfprintf_internal_r+0x1620>
  801b38:	e0800404 	addi	r2,fp,16
  801b3c:	aa000084 	addi	r8,r21,2
  801b40:	b039883a 	mov	fp,r22
  801b44:	102d883a 	mov	r22,r2
  801b48:	d9001017 	ldw	r4,64(sp)
  801b4c:	d8801644 	addi	r2,sp,89
  801b50:	da001b15 	stw	r8,108(sp)
  801b54:	20c7883a 	add	r3,r4,r3
  801b58:	e0800015 	stw	r2,0(fp)
  801b5c:	e1000115 	stw	r4,4(fp)
  801b60:	d8c01c15 	stw	r3,112(sp)
  801b64:	42000210 	cmplti	r8,r8,8
  801b68:	403d0b1e 	bne	r8,zero,800f98 <___svfprintf_internal_r+0x3c0>
  801b6c:	d9801a04 	addi	r6,sp,104
  801b70:	900b883a 	mov	r5,r18
  801b74:	9809883a 	mov	r4,r19
  801b78:	0805e600 	call	805e60 <__ssprint_r>
  801b7c:	103d171e 	bne	r2,zero,800fdc <___svfprintf_internal_r+0x404>
  801b80:	d8c01c17 	ldw	r3,112(sp)
  801b84:	dd802704 	addi	r22,sp,156
  801b88:	003d0306 	br	800f98 <___svfprintf_internal_r+0x3c0>
  801b8c:	db000417 	ldw	r12,16(sp)
  801b90:	003e4606 	br	8014ac <___svfprintf_internal_r+0x8d4>
  801b94:	03002074 	movhi	r12,129
  801b98:	39000450 	cmplti	r4,r7,17
  801b9c:	d8801b17 	ldw	r2,108(sp)
  801ba0:	633ab304 	addi	r12,r12,-5428
  801ba4:	2000321e 	bne	r4,zero,801c70 <___svfprintf_internal_r+0x1098>
  801ba8:	dc401115 	stw	r17,68(sp)
  801bac:	b009883a 	mov	r4,r22
  801bb0:	9023883a 	mov	r17,r18
  801bb4:	a82d883a 	mov	r22,r21
  801bb8:	ddc01215 	stw	r23,72(sp)
  801bbc:	03c00404 	movi	r15,16
  801bc0:	a02f883a 	mov	r23,r20
  801bc4:	db800e15 	stw	r14,56(sp)
  801bc8:	8029883a 	mov	r20,r16
  801bcc:	db400f15 	stw	r13,60(sp)
  801bd0:	402b883a 	mov	r21,r8
  801bd4:	3821883a 	mov	r16,r7
  801bd8:	6025883a 	mov	r18,r12
  801bdc:	00000406 	br	801bf0 <___svfprintf_internal_r+0x1018>
  801be0:	843ffc04 	addi	r16,r16,-16
  801be4:	81800448 	cmpgei	r6,r16,17
  801be8:	21000204 	addi	r4,r4,8
  801bec:	30001426 	beq	r6,zero,801c40 <___svfprintf_internal_r+0x1068>
  801bf0:	10800044 	addi	r2,r2,1
  801bf4:	18c00404 	addi	r3,r3,16
  801bf8:	24800015 	stw	r18,0(r4)
  801bfc:	23c00115 	stw	r15,4(r4)
  801c00:	d8c01c15 	stw	r3,112(sp)
  801c04:	d8801b15 	stw	r2,108(sp)
  801c08:	11800208 	cmpgei	r6,r2,8
  801c0c:	303ff426 	beq	r6,zero,801be0 <___svfprintf_internal_r+0x1008>
  801c10:	d9801a04 	addi	r6,sp,104
  801c14:	880b883a 	mov	r5,r17
  801c18:	9809883a 	mov	r4,r19
  801c1c:	0805e600 	call	805e60 <__ssprint_r>
  801c20:	1001b71e 	bne	r2,zero,802300 <___svfprintf_internal_r+0x1728>
  801c24:	843ffc04 	addi	r16,r16,-16
  801c28:	81800448 	cmpgei	r6,r16,17
  801c2c:	d8c01c17 	ldw	r3,112(sp)
  801c30:	d8801b17 	ldw	r2,108(sp)
  801c34:	d9002704 	addi	r4,sp,156
  801c38:	03c00404 	movi	r15,16
  801c3c:	303fec1e 	bne	r6,zero,801bf0 <___svfprintf_internal_r+0x1018>
  801c40:	800f883a 	mov	r7,r16
  801c44:	9019883a 	mov	r12,r18
  801c48:	a021883a 	mov	r16,r20
  801c4c:	8825883a 	mov	r18,r17
  801c50:	b829883a 	mov	r20,r23
  801c54:	db800e17 	ldw	r14,56(sp)
  801c58:	db400f17 	ldw	r13,60(sp)
  801c5c:	ddc01217 	ldw	r23,72(sp)
  801c60:	dc401117 	ldw	r17,68(sp)
  801c64:	a811883a 	mov	r8,r21
  801c68:	b02b883a 	mov	r21,r22
  801c6c:	202d883a 	mov	r22,r4
  801c70:	10800044 	addi	r2,r2,1
  801c74:	19c7883a 	add	r3,r3,r7
  801c78:	d8801b15 	stw	r2,108(sp)
  801c7c:	b3000015 	stw	r12,0(r22)
  801c80:	b1c00115 	stw	r7,4(r22)
  801c84:	d8c01c15 	stw	r3,112(sp)
  801c88:	10800208 	cmpgei	r2,r2,8
  801c8c:	1001651e 	bne	r2,zero,802224 <___svfprintf_internal_r+0x164c>
  801c90:	b5800204 	addi	r22,r22,8
  801c94:	003c9406 	br	800ee8 <___svfprintf_internal_r+0x310>
  801c98:	d9801a04 	addi	r6,sp,104
  801c9c:	900b883a 	mov	r5,r18
  801ca0:	9809883a 	mov	r4,r19
  801ca4:	da001115 	stw	r8,68(sp)
  801ca8:	db400f15 	stw	r13,60(sp)
  801cac:	db800e15 	stw	r14,56(sp)
  801cb0:	0805e600 	call	805e60 <__ssprint_r>
  801cb4:	103cc91e 	bne	r2,zero,800fdc <___svfprintf_internal_r+0x404>
  801cb8:	d8c01c17 	ldw	r3,112(sp)
  801cbc:	da001117 	ldw	r8,68(sp)
  801cc0:	db400f17 	ldw	r13,60(sp)
  801cc4:	db800e17 	ldw	r14,56(sp)
  801cc8:	dd802704 	addi	r22,sp,156
  801ccc:	003c9406 	br	800f20 <___svfprintf_internal_r+0x348>
  801cd0:	d9801a04 	addi	r6,sp,104
  801cd4:	900b883a 	mov	r5,r18
  801cd8:	9809883a 	mov	r4,r19
  801cdc:	da000f15 	stw	r8,60(sp)
  801ce0:	db400e15 	stw	r13,56(sp)
  801ce4:	0805e600 	call	805e60 <__ssprint_r>
  801ce8:	103cbc1e 	bne	r2,zero,800fdc <___svfprintf_internal_r+0x404>
  801cec:	d8c01c17 	ldw	r3,112(sp)
  801cf0:	da000f17 	ldw	r8,60(sp)
  801cf4:	db400e17 	ldw	r13,56(sp)
  801cf8:	dd802704 	addi	r22,sp,156
  801cfc:	003c9506 	br	800f54 <___svfprintf_internal_r+0x37c>
  801d00:	d9401417 	ldw	r5,80(sp)
  801d04:	0141550e 	bge	zero,r5,80225c <___svfprintf_internal_r+0x1684>
  801d08:	d8800717 	ldw	r2,28(sp)
  801d0c:	d9000817 	ldw	r4,32(sp)
  801d10:	102b883a 	mov	r21,r2
  801d14:	2080c716 	blt	r4,r2,802034 <___svfprintf_internal_r+0x145c>
  801d18:	05400a0e 	bge	zero,r21,801d44 <___svfprintf_internal_r+0x116c>
  801d1c:	d8801b17 	ldw	r2,108(sp)
  801d20:	1d47883a 	add	r3,r3,r21
  801d24:	b4400015 	stw	r17,0(r22)
  801d28:	10800044 	addi	r2,r2,1
  801d2c:	d8801b15 	stw	r2,108(sp)
  801d30:	b5400115 	stw	r21,4(r22)
  801d34:	d8c01c15 	stw	r3,112(sp)
  801d38:	10800208 	cmpgei	r2,r2,8
  801d3c:	10032c1e 	bne	r2,zero,8029f0 <___svfprintf_internal_r+0x1e18>
  801d40:	b5800204 	addi	r22,r22,8
  801d44:	a800d016 	blt	r21,zero,802088 <___svfprintf_internal_r+0x14b0>
  801d48:	d8800717 	ldw	r2,28(sp)
  801d4c:	156bc83a 	sub	r21,r2,r21
  801d50:	0540d816 	blt	zero,r21,8020b4 <___svfprintf_internal_r+0x14dc>
  801d54:	dd401417 	ldw	r21,80(sp)
  801d58:	d8800817 	ldw	r2,32(sp)
  801d5c:	a880b80e 	bge	r21,r2,802040 <___svfprintf_internal_r+0x1468>
  801d60:	d8800d17 	ldw	r2,52(sp)
  801d64:	d9000c17 	ldw	r4,48(sp)
  801d68:	b0800015 	stw	r2,0(r22)
  801d6c:	d8801b17 	ldw	r2,108(sp)
  801d70:	1907883a 	add	r3,r3,r4
  801d74:	b1000115 	stw	r4,4(r22)
  801d78:	10800044 	addi	r2,r2,1
  801d7c:	d8801b15 	stw	r2,108(sp)
  801d80:	d8c01c15 	stw	r3,112(sp)
  801d84:	10800208 	cmpgei	r2,r2,8
  801d88:	1002bd1e 	bne	r2,zero,802880 <___svfprintf_internal_r+0x1ca8>
  801d8c:	b5800204 	addi	r22,r22,8
  801d90:	d9000817 	ldw	r4,32(sp)
  801d94:	d9400717 	ldw	r5,28(sp)
  801d98:	2545c83a 	sub	r2,r4,r21
  801d9c:	2149c83a 	sub	r4,r4,r5
  801da0:	102b883a 	mov	r21,r2
  801da4:	2080010e 	bge	r4,r2,801dac <___svfprintf_internal_r+0x11d4>
  801da8:	202b883a 	mov	r21,r4
  801dac:	05400c0e 	bge	zero,r21,801de0 <___svfprintf_internal_r+0x1208>
  801db0:	d9000717 	ldw	r4,28(sp)
  801db4:	1d47883a 	add	r3,r3,r21
  801db8:	b5400115 	stw	r21,4(r22)
  801dbc:	8913883a 	add	r9,r17,r4
  801dc0:	d9001b17 	ldw	r4,108(sp)
  801dc4:	b2400015 	stw	r9,0(r22)
  801dc8:	d8c01c15 	stw	r3,112(sp)
  801dcc:	21000044 	addi	r4,r4,1
  801dd0:	d9001b15 	stw	r4,108(sp)
  801dd4:	21000208 	cmpgei	r4,r4,8
  801dd8:	20030e1e 	bne	r4,zero,802a14 <___svfprintf_internal_r+0x1e3c>
  801ddc:	b5800204 	addi	r22,r22,8
  801de0:	a800010e 	bge	r21,zero,801de8 <___svfprintf_internal_r+0x1210>
  801de4:	002b883a 	mov	r21,zero
  801de8:	156bc83a 	sub	r21,r2,r21
  801dec:	057c6a0e 	bge	zero,r21,800f98 <___svfprintf_internal_r+0x3c0>
  801df0:	01c02074 	movhi	r7,129
  801df4:	a9000450 	cmplti	r4,r21,17
  801df8:	d8801b17 	ldw	r2,108(sp)
  801dfc:	39faaf04 	addi	r7,r7,-5444
  801e00:	2001951e 	bne	r4,zero,802458 <___svfprintf_internal_r+0x1880>
  801e04:	07000404 	movi	fp,16
  801e08:	3823883a 	mov	r17,r7
  801e0c:	00000406 	br	801e20 <___svfprintf_internal_r+0x1248>
  801e10:	b5800204 	addi	r22,r22,8
  801e14:	ad7ffc04 	addi	r21,r21,-16
  801e18:	a9000448 	cmpgei	r4,r21,17
  801e1c:	20018d26 	beq	r4,zero,802454 <___svfprintf_internal_r+0x187c>
  801e20:	10800044 	addi	r2,r2,1
  801e24:	18c00404 	addi	r3,r3,16
  801e28:	b4400015 	stw	r17,0(r22)
  801e2c:	b7000115 	stw	fp,4(r22)
  801e30:	d8c01c15 	stw	r3,112(sp)
  801e34:	d8801b15 	stw	r2,108(sp)
  801e38:	11000208 	cmpgei	r4,r2,8
  801e3c:	203ff426 	beq	r4,zero,801e10 <___svfprintf_internal_r+0x1238>
  801e40:	d9801a04 	addi	r6,sp,104
  801e44:	900b883a 	mov	r5,r18
  801e48:	9809883a 	mov	r4,r19
  801e4c:	0805e600 	call	805e60 <__ssprint_r>
  801e50:	103c621e 	bne	r2,zero,800fdc <___svfprintf_internal_r+0x404>
  801e54:	d8c01c17 	ldw	r3,112(sp)
  801e58:	d8801b17 	ldw	r2,108(sp)
  801e5c:	dd802704 	addi	r22,sp,156
  801e60:	003fec06 	br	801e14 <___svfprintf_internal_r+0x123c>
  801e64:	d8800417 	ldw	r2,16(sp)
  801e68:	1080004c 	andi	r2,r2,1
  801e6c:	103f0a1e 	bne	r2,zero,801a98 <___svfprintf_internal_r+0xec0>
  801e70:	00800044 	movi	r2,1
  801e74:	dd401b15 	stw	r21,108(sp)
  801e78:	b4400015 	stw	r17,0(r22)
  801e7c:	b0800115 	stw	r2,4(r22)
  801e80:	d8c01c15 	stw	r3,112(sp)
  801e84:	ad400208 	cmpgei	r21,r21,8
  801e88:	a800db1e 	bne	r21,zero,8021f8 <___svfprintf_internal_r+0x1620>
  801e8c:	42000084 	addi	r8,r8,2
  801e90:	b5800404 	addi	r22,r22,16
  801e94:	003f2c06 	br	801b48 <___svfprintf_internal_r+0xf70>
  801e98:	4002ad1e 	bne	r8,zero,802950 <___svfprintf_internal_r+0x1d78>
  801e9c:	0011883a 	mov	r8,zero
  801ea0:	002b883a 	mov	r21,zero
  801ea4:	dc402704 	addi	r17,sp,156
  801ea8:	003d9e06 	br	801524 <___svfprintf_internal_r+0x94c>
  801eac:	02ff260e 	bge	zero,r11,801b48 <___svfprintf_internal_r+0xf70>
  801eb0:	58800450 	cmplti	r2,r11,17
  801eb4:	01c02074 	movhi	r7,129
  801eb8:	10034d1e 	bne	r2,zero,802bf0 <___svfprintf_internal_r+0x2018>
  801ebc:	39faaf04 	addi	r7,r7,-5444
  801ec0:	dc000715 	stw	r16,28(sp)
  801ec4:	05800404 	movi	r22,16
  801ec8:	5823883a 	mov	r17,r11
  801ecc:	3821883a 	mov	r16,r7
  801ed0:	402b883a 	mov	r21,r8
  801ed4:	00000506 	br	801eec <___svfprintf_internal_r+0x1314>
  801ed8:	e7000204 	addi	fp,fp,8
  801edc:	8c7ffc04 	addi	r17,r17,-16
  801ee0:	88800448 	cmpgei	r2,r17,17
  801ee4:	1001ae26 	beq	r2,zero,8025a0 <___svfprintf_internal_r+0x19c8>
  801ee8:	ad400044 	addi	r21,r21,1
  801eec:	18c00404 	addi	r3,r3,16
  801ef0:	e4000015 	stw	r16,0(fp)
  801ef4:	e5800115 	stw	r22,4(fp)
  801ef8:	d8c01c15 	stw	r3,112(sp)
  801efc:	dd401b15 	stw	r21,108(sp)
  801f00:	a8800208 	cmpgei	r2,r21,8
  801f04:	103ff426 	beq	r2,zero,801ed8 <___svfprintf_internal_r+0x1300>
  801f08:	d9801a04 	addi	r6,sp,104
  801f0c:	900b883a 	mov	r5,r18
  801f10:	9809883a 	mov	r4,r19
  801f14:	0805e600 	call	805e60 <__ssprint_r>
  801f18:	103c301e 	bne	r2,zero,800fdc <___svfprintf_internal_r+0x404>
  801f1c:	dd401b17 	ldw	r21,108(sp)
  801f20:	d8c01c17 	ldw	r3,112(sp)
  801f24:	df002704 	addi	fp,sp,156
  801f28:	003fec06 	br	801edc <___svfprintf_internal_r+0x1304>
  801f2c:	d9801a04 	addi	r6,sp,104
  801f30:	900b883a 	mov	r5,r18
  801f34:	9809883a 	mov	r4,r19
  801f38:	0805e600 	call	805e60 <__ssprint_r>
  801f3c:	103c271e 	bne	r2,zero,800fdc <___svfprintf_internal_r+0x404>
  801f40:	d8c01c17 	ldw	r3,112(sp)
  801f44:	dd802704 	addi	r22,sp,156
  801f48:	003c0606 	br	800f64 <___svfprintf_internal_r+0x38c>
  801f4c:	d9801a04 	addi	r6,sp,104
  801f50:	900b883a 	mov	r5,r18
  801f54:	9809883a 	mov	r4,r19
  801f58:	0805e600 	call	805e60 <__ssprint_r>
  801f5c:	103c1f1e 	bne	r2,zero,800fdc <___svfprintf_internal_r+0x404>
  801f60:	d8c01c17 	ldw	r3,112(sp)
  801f64:	dd401b17 	ldw	r21,108(sp)
  801f68:	df002704 	addi	fp,sp,156
  801f6c:	003ed106 	br	801ab4 <___svfprintf_internal_r+0xedc>
  801f70:	d9801a04 	addi	r6,sp,104
  801f74:	900b883a 	mov	r5,r18
  801f78:	9809883a 	mov	r4,r19
  801f7c:	0805e600 	call	805e60 <__ssprint_r>
  801f80:	103c161e 	bne	r2,zero,800fdc <___svfprintf_internal_r+0x404>
  801f84:	d8c01c17 	ldw	r3,112(sp)
  801f88:	dd401b17 	ldw	r21,108(sp)
  801f8c:	df002704 	addi	fp,sp,156
  801f90:	003ed306 	br	801ae0 <___svfprintf_internal_r+0xf08>
  801f94:	dc402704 	addi	r17,sp,156
  801f98:	003d6206 	br	801524 <___svfprintf_internal_r+0x94c>
  801f9c:	25000017 	ldw	r20,0(r4)
  801fa0:	002b883a 	mov	r21,zero
  801fa4:	d8c00615 	stw	r3,24(sp)
  801fa8:	0005883a 	mov	r2,zero
  801fac:	003c2e06 	br	801068 <___svfprintf_internal_r+0x490>
  801fb0:	d9000517 	ldw	r4,20(sp)
  801fb4:	2005d7fa 	srai	r2,r4,31
  801fb8:	19000015 	stw	r4,0(r3)
  801fbc:	18800115 	stw	r2,4(r3)
  801fc0:	003b2b06 	br	800c70 <___svfprintf_internal_r+0x98>
  801fc4:	25000017 	ldw	r20,0(r4)
  801fc8:	002b883a 	mov	r21,zero
  801fcc:	d8c00615 	stw	r3,24(sp)
  801fd0:	00800044 	movi	r2,1
  801fd4:	003c2406 	br	801068 <___svfprintf_internal_r+0x490>
  801fd8:	25000017 	ldw	r20,0(r4)
  801fdc:	d8c00615 	stw	r3,24(sp)
  801fe0:	a02bd7fa 	srai	r21,r20,31
  801fe4:	a805883a 	mov	r2,r21
  801fe8:	003cd506 	br	801340 <___svfprintf_internal_r+0x768>
  801fec:	18800017 	ldw	r2,0(r3)
  801ff0:	d8800915 	stw	r2,36(sp)
  801ff4:	18800117 	ldw	r2,4(r3)
  801ff8:	d8800a15 	stw	r2,40(sp)
  801ffc:	003c5006 	br	801140 <___svfprintf_internal_r+0x568>
  802000:	25000017 	ldw	r20,0(r4)
  802004:	002b883a 	mov	r21,zero
  802008:	d8c00615 	stw	r3,24(sp)
  80200c:	003d9306 	br	80165c <___svfprintf_internal_r+0xa84>
  802010:	00800c04 	movi	r2,48
  802014:	d8801385 	stb	r2,78(sp)
  802018:	df0013c5 	stb	fp,79(sp)
  80201c:	63000094 	ori	r12,r12,2
  802020:	00800084 	movi	r2,2
  802024:	003c1006 	br	801068 <___svfprintf_internal_r+0x490>
  802028:	0421c83a 	sub	r16,zero,r16
  80202c:	d8800615 	stw	r2,24(sp)
  802030:	003d5d06 	br	8015a8 <___svfprintf_internal_r+0x9d0>
  802034:	202b883a 	mov	r21,r4
  802038:	057f3816 	blt	zero,r21,801d1c <___svfprintf_internal_r+0x1144>
  80203c:	003f4106 	br	801d44 <___svfprintf_internal_r+0x116c>
  802040:	d8800417 	ldw	r2,16(sp)
  802044:	1080004c 	andi	r2,r2,1
  802048:	103f451e 	bne	r2,zero,801d60 <___svfprintf_internal_r+0x1188>
  80204c:	d9000817 	ldw	r4,32(sp)
  802050:	d9400717 	ldw	r5,28(sp)
  802054:	2545c83a 	sub	r2,r4,r21
  802058:	2179c83a 	sub	fp,r4,r5
  80205c:	102b883a 	mov	r21,r2
  802060:	e0bf5f0e 	bge	fp,r2,801de0 <___svfprintf_internal_r+0x1208>
  802064:	e02b883a 	mov	r21,fp
  802068:	003f5d06 	br	801de0 <___svfprintf_internal_r+0x1208>
  80206c:	bf000043 	ldbu	fp,1(r23)
  802070:	63000814 	ori	r12,r12,32
  802074:	bdc00044 	addi	r23,r23,1
  802078:	e2c03fcc 	andi	r11,fp,255
  80207c:	5ac0201c 	xori	r11,r11,128
  802080:	5affe004 	addi	r11,r11,-128
  802084:	003b1206 	br	800cd0 <___svfprintf_internal_r+0xf8>
  802088:	002b883a 	mov	r21,zero
  80208c:	003f2e06 	br	801d48 <___svfprintf_internal_r+0x1170>
  802090:	01401004 	movi	r5,64
  802094:	9809883a 	mov	r4,r19
  802098:	08002b00 	call	8002b0 <_malloc_r>
  80209c:	90800015 	stw	r2,0(r18)
  8020a0:	90800415 	stw	r2,16(r18)
  8020a4:	1002eb26 	beq	r2,zero,802c54 <___svfprintf_internal_r+0x207c>
  8020a8:	00801004 	movi	r2,64
  8020ac:	90800515 	stw	r2,20(r18)
  8020b0:	003ae306 	br	800c40 <___svfprintf_internal_r+0x68>
  8020b4:	01c02074 	movhi	r7,129
  8020b8:	a9000450 	cmplti	r4,r21,17
  8020bc:	d8801b17 	ldw	r2,108(sp)
  8020c0:	39faaf04 	addi	r7,r7,-5444
  8020c4:	2001e01e 	bne	r4,zero,802848 <___svfprintf_internal_r+0x1c70>
  8020c8:	dc000e15 	stw	r16,56(sp)
  8020cc:	07000404 	movi	fp,16
  8020d0:	3821883a 	mov	r16,r7
  8020d4:	00000406 	br	8020e8 <___svfprintf_internal_r+0x1510>
  8020d8:	b5800204 	addi	r22,r22,8
  8020dc:	ad7ffc04 	addi	r21,r21,-16
  8020e0:	a9000448 	cmpgei	r4,r21,17
  8020e4:	2001d626 	beq	r4,zero,802840 <___svfprintf_internal_r+0x1c68>
  8020e8:	10800044 	addi	r2,r2,1
  8020ec:	18c00404 	addi	r3,r3,16
  8020f0:	b4000015 	stw	r16,0(r22)
  8020f4:	b7000115 	stw	fp,4(r22)
  8020f8:	d8c01c15 	stw	r3,112(sp)
  8020fc:	d8801b15 	stw	r2,108(sp)
  802100:	11000208 	cmpgei	r4,r2,8
  802104:	203ff426 	beq	r4,zero,8020d8 <___svfprintf_internal_r+0x1500>
  802108:	d9801a04 	addi	r6,sp,104
  80210c:	900b883a 	mov	r5,r18
  802110:	9809883a 	mov	r4,r19
  802114:	0805e600 	call	805e60 <__ssprint_r>
  802118:	103bb01e 	bne	r2,zero,800fdc <___svfprintf_internal_r+0x404>
  80211c:	d8c01c17 	ldw	r3,112(sp)
  802120:	d8801b17 	ldw	r2,108(sp)
  802124:	dd802704 	addi	r22,sp,156
  802128:	003fec06 	br	8020dc <___svfprintf_internal_r+0x1504>
  80212c:	8809883a 	mov	r4,r17
  802130:	db000415 	stw	r12,16(sp)
  802134:	d8c00615 	stw	r3,24(sp)
  802138:	0805dc80 	call	805dc8 <strlen>
  80213c:	db000417 	ldw	r12,16(sp)
  802140:	102b883a 	mov	r21,r2
  802144:	1029883a 	mov	r20,r2
  802148:	003b5a06 	br	800eb4 <___svfprintf_internal_r+0x2dc>
  80214c:	dc402704 	addi	r17,sp,156
  802150:	a805883a 	mov	r2,r21
  802154:	dc000715 	stw	r16,28(sp)
  802158:	902b883a 	mov	r21,r18
  80215c:	8821883a 	mov	r16,r17
  802160:	db000415 	stw	r12,16(sp)
  802164:	a023883a 	mov	r17,r20
  802168:	da000e15 	stw	r8,56(sp)
  80216c:	9829883a 	mov	r20,r19
  802170:	1025883a 	mov	r18,r2
  802174:	6827883a 	mov	r19,r13
  802178:	8809883a 	mov	r4,r17
  80217c:	900b883a 	mov	r5,r18
  802180:	01800284 	movi	r6,10
  802184:	000f883a 	mov	r7,zero
  802188:	080b6140 	call	80b614 <__umoddi3>
  80218c:	10800c04 	addi	r2,r2,48
  802190:	8809883a 	mov	r4,r17
  802194:	900b883a 	mov	r5,r18
  802198:	01800284 	movi	r6,10
  80219c:	000f883a 	mov	r7,zero
  8021a0:	80bfffc5 	stb	r2,-1(r16)
  8021a4:	080aff40 	call	80aff4 <__udivdi3>
  8021a8:	900d883a 	mov	r6,r18
  8021ac:	880f883a 	mov	r7,r17
  8021b0:	843fffc4 	addi	r16,r16,-1
  8021b4:	1023883a 	mov	r17,r2
  8021b8:	1825883a 	mov	r18,r3
  8021bc:	303fee1e 	bne	r6,zero,802178 <___svfprintf_internal_r+0x15a0>
  8021c0:	39c002a8 	cmpgeui	r7,r7,10
  8021c4:	383fec1e 	bne	r7,zero,802178 <___svfprintf_internal_r+0x15a0>
  8021c8:	8023883a 	mov	r17,r16
  8021cc:	d8802704 	addi	r2,sp,156
  8021d0:	981b883a 	mov	r13,r19
  8021d4:	a825883a 	mov	r18,r21
  8021d8:	dc000717 	ldw	r16,28(sp)
  8021dc:	da000e17 	ldw	r8,56(sp)
  8021e0:	a027883a 	mov	r19,r20
  8021e4:	146bc83a 	sub	r21,r2,r17
  8021e8:	003cce06 	br	801524 <___svfprintf_internal_r+0x94c>
  8021ec:	d8800517 	ldw	r2,20(sp)
  8021f0:	18800015 	stw	r2,0(r3)
  8021f4:	003a9e06 	br	800c70 <___svfprintf_internal_r+0x98>
  8021f8:	d9801a04 	addi	r6,sp,104
  8021fc:	900b883a 	mov	r5,r18
  802200:	9809883a 	mov	r4,r19
  802204:	0805e600 	call	805e60 <__ssprint_r>
  802208:	103b741e 	bne	r2,zero,800fdc <___svfprintf_internal_r+0x404>
  80220c:	da001b17 	ldw	r8,108(sp)
  802210:	d8c01c17 	ldw	r3,112(sp)
  802214:	dd802904 	addi	r22,sp,164
  802218:	42000044 	addi	r8,r8,1
  80221c:	df002704 	addi	fp,sp,156
  802220:	003e4906 	br	801b48 <___svfprintf_internal_r+0xf70>
  802224:	d9801a04 	addi	r6,sp,104
  802228:	900b883a 	mov	r5,r18
  80222c:	9809883a 	mov	r4,r19
  802230:	da001115 	stw	r8,68(sp)
  802234:	db400f15 	stw	r13,60(sp)
  802238:	db800e15 	stw	r14,56(sp)
  80223c:	0805e600 	call	805e60 <__ssprint_r>
  802240:	103b661e 	bne	r2,zero,800fdc <___svfprintf_internal_r+0x404>
  802244:	d8c01c17 	ldw	r3,112(sp)
  802248:	da001117 	ldw	r8,68(sp)
  80224c:	db400f17 	ldw	r13,60(sp)
  802250:	db800e17 	ldw	r14,56(sp)
  802254:	dd802704 	addi	r22,sp,156
  802258:	003b2306 	br	800ee8 <___svfprintf_internal_r+0x310>
  80225c:	d8801b17 	ldw	r2,108(sp)
  802260:	01002074 	movhi	r4,129
  802264:	213aae04 	addi	r4,r4,-5448
  802268:	10800044 	addi	r2,r2,1
  80226c:	18c00044 	addi	r3,r3,1
  802270:	b1000015 	stw	r4,0(r22)
  802274:	01000044 	movi	r4,1
  802278:	d8801b15 	stw	r2,108(sp)
  80227c:	b1000115 	stw	r4,4(r22)
  802280:	d8c01c15 	stw	r3,112(sp)
  802284:	10800208 	cmpgei	r2,r2,8
  802288:	1001861e 	bne	r2,zero,8028a4 <___svfprintf_internal_r+0x1ccc>
  80228c:	b5800204 	addi	r22,r22,8
  802290:	2800971e 	bne	r5,zero,8024f0 <___svfprintf_internal_r+0x1918>
  802294:	d8800417 	ldw	r2,16(sp)
  802298:	d9000817 	ldw	r4,32(sp)
  80229c:	1080004c 	andi	r2,r2,1
  8022a0:	1104b03a 	or	r2,r2,r4
  8022a4:	103b3c26 	beq	r2,zero,800f98 <___svfprintf_internal_r+0x3c0>
  8022a8:	d8800d17 	ldw	r2,52(sp)
  8022ac:	d9000c17 	ldw	r4,48(sp)
  8022b0:	b0800015 	stw	r2,0(r22)
  8022b4:	d8801b17 	ldw	r2,108(sp)
  8022b8:	20c7883a 	add	r3,r4,r3
  8022bc:	b1000115 	stw	r4,4(r22)
  8022c0:	10800044 	addi	r2,r2,1
  8022c4:	d8c01c15 	stw	r3,112(sp)
  8022c8:	d8801b15 	stw	r2,108(sp)
  8022cc:	11000208 	cmpgei	r4,r2,8
  8022d0:	20018c1e 	bne	r4,zero,802904 <___svfprintf_internal_r+0x1d2c>
  8022d4:	b5800204 	addi	r22,r22,8
  8022d8:	d9000817 	ldw	r4,32(sp)
  8022dc:	10800044 	addi	r2,r2,1
  8022e0:	d8801b15 	stw	r2,108(sp)
  8022e4:	20c7883a 	add	r3,r4,r3
  8022e8:	b4400015 	stw	r17,0(r22)
  8022ec:	b1000115 	stw	r4,4(r22)
  8022f0:	d8c01c15 	stw	r3,112(sp)
  8022f4:	10800208 	cmpgei	r2,r2,8
  8022f8:	103b2626 	beq	r2,zero,800f94 <___svfprintf_internal_r+0x3bc>
  8022fc:	003e1b06 	br	801b6c <___svfprintf_internal_r+0xf94>
  802300:	8825883a 	mov	r18,r17
  802304:	003b3506 	br	800fdc <___svfprintf_internal_r+0x404>
  802308:	d9000917 	ldw	r4,36(sp)
  80230c:	d9400a17 	ldw	r5,40(sp)
  802310:	da000615 	stw	r8,24(sp)
  802314:	200d883a 	mov	r6,r4
  802318:	280f883a 	mov	r7,r5
  80231c:	db000415 	stw	r12,16(sp)
  802320:	080e2840 	call	80e284 <__unorddf2>
  802324:	db000417 	ldw	r12,16(sp)
  802328:	da000617 	ldw	r8,24(sp)
  80232c:	10021e1e 	bne	r2,zero,802ba8 <___svfprintf_internal_r+0x1fd0>
  802330:	057ff7c4 	movi	r21,-33
  802334:	40bfffe0 	cmpeqi	r2,r8,-1
  802338:	e56a703a 	and	r21,fp,r21
  80233c:	1001c01e 	bne	r2,zero,802a40 <___svfprintf_internal_r+0x1e68>
  802340:	a88011d8 	cmpnei	r2,r21,71
  802344:	10004026 	beq	r2,zero,802448 <___svfprintf_internal_r+0x1870>
  802348:	60804014 	ori	r2,r12,256
  80234c:	d8800415 	stw	r2,16(sp)
  802350:	d8800a17 	ldw	r2,40(sp)
  802354:	10015c16 	blt	r2,zero,8028c8 <___svfprintf_internal_r+0x1cf0>
  802358:	dd000a17 	ldw	r20,40(sp)
  80235c:	d8000605 	stb	zero,24(sp)
  802360:	e08019a0 	cmpeqi	r2,fp,102
  802364:	d8800f15 	stw	r2,60(sp)
  802368:	1000a01e 	bne	r2,zero,8025ec <___svfprintf_internal_r+0x1a14>
  80236c:	e08011a0 	cmpeqi	r2,fp,70
  802370:	10009e1e 	bne	r2,zero,8025ec <___svfprintf_internal_r+0x1a14>
  802374:	a8801158 	cmpnei	r2,r21,69
  802378:	10017c26 	beq	r2,zero,80296c <___svfprintf_internal_r+0x1d94>
  80237c:	d8801804 	addi	r2,sp,96
  802380:	d8800315 	stw	r2,12(sp)
  802384:	d9400917 	ldw	r5,36(sp)
  802388:	d8801504 	addi	r2,sp,84
  80238c:	d8800215 	stw	r2,8(sp)
  802390:	d8801404 	addi	r2,sp,80
  802394:	da000015 	stw	r8,0(sp)
  802398:	9809883a 	mov	r4,r19
  80239c:	d8800115 	stw	r2,4(sp)
  8023a0:	01c00084 	movi	r7,2
  8023a4:	a00d883a 	mov	r6,r20
  8023a8:	db000815 	stw	r12,32(sp)
  8023ac:	da000715 	stw	r8,28(sp)
  8023b0:	0802e880 	call	802e88 <_dtoa_r>
  8023b4:	da000717 	ldw	r8,28(sp)
  8023b8:	e10019d8 	cmpnei	r4,fp,103
  8023bc:	db000817 	ldw	r12,32(sp)
  8023c0:	1023883a 	mov	r17,r2
  8023c4:	4007883a 	mov	r3,r8
  8023c8:	20017c1e 	bne	r4,zero,8029bc <___svfprintf_internal_r+0x1de4>
  8023cc:	6080004c 	andi	r2,r12,1
  8023d0:	10017c1e 	bne	r2,zero,8029c4 <___svfprintf_internal_r+0x1dec>
  8023d4:	d8801417 	ldw	r2,80(sp)
  8023d8:	ad4011e0 	cmpeqi	r21,r21,71
  8023dc:	d8800715 	stw	r2,28(sp)
  8023e0:	d8801817 	ldw	r2,96(sp)
  8023e4:	1445c83a 	sub	r2,r2,r17
  8023e8:	d8800815 	stw	r2,32(sp)
  8023ec:	a800d226 	beq	r21,zero,802738 <___svfprintf_internal_r+0x1b60>
  8023f0:	d8c00717 	ldw	r3,28(sp)
  8023f4:	18bfff50 	cmplti	r2,r3,-3
  8023f8:	1000ce1e 	bne	r2,zero,802734 <___svfprintf_internal_r+0x1b5c>
  8023fc:	40c0cd16 	blt	r8,r3,802734 <___svfprintf_internal_r+0x1b5c>
  802400:	d8800717 	ldw	r2,28(sp)
  802404:	d8c00817 	ldw	r3,32(sp)
  802408:	10c19316 	blt	r2,r3,802a58 <___svfprintf_internal_r+0x1e80>
  80240c:	6300004c 	andi	r12,r12,1
  802410:	6001d41e 	bne	r12,zero,802b64 <___svfprintf_internal_r+0x1f8c>
  802414:	1029883a 	mov	r20,r2
  802418:	1000010e 	bge	r2,zero,802420 <___svfprintf_internal_r+0x1848>
  80241c:	0029883a 	mov	r20,zero
  802420:	dd400717 	ldw	r21,28(sp)
  802424:	070019c4 	movi	fp,103
  802428:	d8800607 	ldb	r2,24(sp)
  80242c:	10016b26 	beq	r2,zero,8029dc <___svfprintf_internal_r+0x1e04>
  802430:	00800b44 	movi	r2,45
  802434:	d8801345 	stb	r2,77(sp)
  802438:	d8800e17 	ldw	r2,56(sp)
  80243c:	0011883a 	mov	r8,zero
  802440:	d8800615 	stw	r2,24(sp)
  802444:	003c3f06 	br	801544 <___svfprintf_internal_r+0x96c>
  802448:	403fbf1e 	bne	r8,zero,802348 <___svfprintf_internal_r+0x1770>
  80244c:	02000044 	movi	r8,1
  802450:	003fbd06 	br	802348 <___svfprintf_internal_r+0x1770>
  802454:	880f883a 	mov	r7,r17
  802458:	10800044 	addi	r2,r2,1
  80245c:	1d47883a 	add	r3,r3,r21
  802460:	b1c00015 	stw	r7,0(r22)
  802464:	003ac606 	br	800f80 <___svfprintf_internal_r+0x3a8>
  802468:	d9801a04 	addi	r6,sp,104
  80246c:	900b883a 	mov	r5,r18
  802470:	9809883a 	mov	r4,r19
  802474:	0805e600 	call	805e60 <__ssprint_r>
  802478:	103ad81e 	bne	r2,zero,800fdc <___svfprintf_internal_r+0x404>
  80247c:	d8c01c17 	ldw	r3,112(sp)
  802480:	dd802704 	addi	r22,sp,156
  802484:	003cc406 	br	801798 <___svfprintf_internal_r+0xbc0>
  802488:	d9801a04 	addi	r6,sp,104
  80248c:	900b883a 	mov	r5,r18
  802490:	9809883a 	mov	r4,r19
  802494:	da000e15 	stw	r8,56(sp)
  802498:	0805e600 	call	805e60 <__ssprint_r>
  80249c:	103acf1e 	bne	r2,zero,800fdc <___svfprintf_internal_r+0x404>
  8024a0:	d8c01c17 	ldw	r3,112(sp)
  8024a4:	da000e17 	ldw	r8,56(sp)
  8024a8:	dd802704 	addi	r22,sp,156
  8024ac:	003aab06 	br	800f5c <___svfprintf_internal_r+0x384>
  8024b0:	d9801a04 	addi	r6,sp,104
  8024b4:	900b883a 	mov	r5,r18
  8024b8:	9809883a 	mov	r4,r19
  8024bc:	0805e600 	call	805e60 <__ssprint_r>
  8024c0:	103ac61e 	bne	r2,zero,800fdc <___svfprintf_internal_r+0x404>
  8024c4:	d8c01c17 	ldw	r3,112(sp)
  8024c8:	dd802704 	addi	r22,sp,156
  8024cc:	003cc406 	br	8017e0 <___svfprintf_internal_r+0xc08>
  8024d0:	408001f0 	cmpltui	r2,r8,7
  8024d4:	402b883a 	mov	r21,r8
  8024d8:	10010126 	beq	r2,zero,8028e0 <___svfprintf_internal_r+0x1d08>
  8024dc:	04402074 	movhi	r17,129
  8024e0:	a829883a 	mov	r20,r21
  8024e4:	d8c00615 	stw	r3,24(sp)
  8024e8:	8c7aac04 	addi	r17,r17,-5456
  8024ec:	003a7106 	br	800eb4 <___svfprintf_internal_r+0x2dc>
  8024f0:	d8800d17 	ldw	r2,52(sp)
  8024f4:	d9000c17 	ldw	r4,48(sp)
  8024f8:	b0800015 	stw	r2,0(r22)
  8024fc:	d8801b17 	ldw	r2,108(sp)
  802500:	20c7883a 	add	r3,r4,r3
  802504:	b1000115 	stw	r4,4(r22)
  802508:	10800044 	addi	r2,r2,1
  80250c:	d8c01c15 	stw	r3,112(sp)
  802510:	d8801b15 	stw	r2,108(sp)
  802514:	11000208 	cmpgei	r4,r2,8
  802518:	2000fa1e 	bne	r4,zero,802904 <___svfprintf_internal_r+0x1d2c>
  80251c:	b5800204 	addi	r22,r22,8
  802520:	283f6d0e 	bge	r5,zero,8022d8 <___svfprintf_internal_r+0x1700>
  802524:	01c02074 	movhi	r7,129
  802528:	293ffc08 	cmpgei	r4,r5,-16
  80252c:	39faaf04 	addi	r7,r7,-5444
  802530:	0179c83a 	sub	fp,zero,r5
  802534:	2001631e 	bne	r4,zero,802ac4 <___svfprintf_internal_r+0x1eec>
  802538:	dc000715 	stw	r16,28(sp)
  80253c:	05400404 	movi	r21,16
  802540:	9021883a 	mov	r16,r18
  802544:	3825883a 	mov	r18,r7
  802548:	00000406 	br	80255c <___svfprintf_internal_r+0x1984>
  80254c:	b5800204 	addi	r22,r22,8
  802550:	e73ffc04 	addi	fp,fp,-16
  802554:	e1800448 	cmpgei	r6,fp,17
  802558:	30015726 	beq	r6,zero,802ab8 <___svfprintf_internal_r+0x1ee0>
  80255c:	10800044 	addi	r2,r2,1
  802560:	18c00404 	addi	r3,r3,16
  802564:	b4800015 	stw	r18,0(r22)
  802568:	b5400115 	stw	r21,4(r22)
  80256c:	d8c01c15 	stw	r3,112(sp)
  802570:	d8801b15 	stw	r2,108(sp)
  802574:	11800208 	cmpgei	r6,r2,8
  802578:	303ff426 	beq	r6,zero,80254c <___svfprintf_internal_r+0x1974>
  80257c:	d9801a04 	addi	r6,sp,104
  802580:	800b883a 	mov	r5,r16
  802584:	9809883a 	mov	r4,r19
  802588:	0805e600 	call	805e60 <__ssprint_r>
  80258c:	1001961e 	bne	r2,zero,802be8 <___svfprintf_internal_r+0x2010>
  802590:	d8c01c17 	ldw	r3,112(sp)
  802594:	d8801b17 	ldw	r2,108(sp)
  802598:	dd802704 	addi	r22,sp,156
  80259c:	003fec06 	br	802550 <___svfprintf_internal_r+0x1978>
  8025a0:	800f883a 	mov	r7,r16
  8025a4:	dc000717 	ldw	r16,28(sp)
  8025a8:	8817883a 	mov	r11,r17
  8025ac:	aa000044 	addi	r8,r21,1
  8025b0:	e0800204 	addi	r2,fp,8
  8025b4:	1ac7883a 	add	r3,r3,r11
  8025b8:	e1c00015 	stw	r7,0(fp)
  8025bc:	e2c00115 	stw	r11,4(fp)
  8025c0:	d8c01c15 	stw	r3,112(sp)
  8025c4:	da001b15 	stw	r8,108(sp)
  8025c8:	41000208 	cmpgei	r4,r8,8
  8025cc:	203f0a1e 	bne	r4,zero,8021f8 <___svfprintf_internal_r+0x1620>
  8025d0:	42000044 	addi	r8,r8,1
  8025d4:	15800204 	addi	r22,r2,8
  8025d8:	1039883a 	mov	fp,r2
  8025dc:	003d5a06 	br	801b48 <___svfprintf_internal_r+0xf70>
  8025e0:	04402074 	movhi	r17,129
  8025e4:	8c7a9e04 	addi	r17,r17,-5512
  8025e8:	003afa06 	br	8011d4 <___svfprintf_internal_r+0x5fc>
  8025ec:	d8801804 	addi	r2,sp,96
  8025f0:	d8800315 	stw	r2,12(sp)
  8025f4:	d9400917 	ldw	r5,36(sp)
  8025f8:	d8801504 	addi	r2,sp,84
  8025fc:	d8800215 	stw	r2,8(sp)
  802600:	d8801404 	addi	r2,sp,80
  802604:	da000015 	stw	r8,0(sp)
  802608:	d8800115 	stw	r2,4(sp)
  80260c:	01c000c4 	movi	r7,3
  802610:	a00d883a 	mov	r6,r20
  802614:	9809883a 	mov	r4,r19
  802618:	db000815 	stw	r12,32(sp)
  80261c:	da000715 	stw	r8,28(sp)
  802620:	0802e880 	call	802e88 <_dtoa_r>
  802624:	da000717 	ldw	r8,28(sp)
  802628:	1023883a 	mov	r17,r2
  80262c:	db000817 	ldw	r12,32(sp)
  802630:	1207883a 	add	r3,r2,r8
  802634:	88800007 	ldb	r2,0(r17)
  802638:	10800c20 	cmpeqi	r2,r2,48
  80263c:	1001321e 	bne	r2,zero,802b08 <___svfprintf_internal_r+0x1f30>
  802640:	d8801417 	ldw	r2,80(sp)
  802644:	1893883a 	add	r9,r3,r2
  802648:	d9000917 	ldw	r4,36(sp)
  80264c:	000d883a 	mov	r6,zero
  802650:	000f883a 	mov	r7,zero
  802654:	a00b883a 	mov	r5,r20
  802658:	da401115 	stw	r9,68(sp)
  80265c:	da000815 	stw	r8,32(sp)
  802660:	db000715 	stw	r12,28(sp)
  802664:	080cfd40 	call	80cfd4 <__eqdf2>
  802668:	db000717 	ldw	r12,28(sp)
  80266c:	da000817 	ldw	r8,32(sp)
  802670:	da401117 	ldw	r9,68(sp)
  802674:	10009826 	beq	r2,zero,8028d8 <___svfprintf_internal_r+0x1d00>
  802678:	d8801817 	ldw	r2,96(sp)
  80267c:	1240062e 	bgeu	r2,r9,802698 <___svfprintf_internal_r+0x1ac0>
  802680:	01000c04 	movi	r4,48
  802684:	10c00044 	addi	r3,r2,1
  802688:	d8c01815 	stw	r3,96(sp)
  80268c:	11000005 	stb	r4,0(r2)
  802690:	d8801817 	ldw	r2,96(sp)
  802694:	127ffb36 	bltu	r2,r9,802684 <___svfprintf_internal_r+0x1aac>
  802698:	d8c01417 	ldw	r3,80(sp)
  80269c:	1445c83a 	sub	r2,r2,r17
  8026a0:	ad4011d8 	cmpnei	r21,r21,71
  8026a4:	d8c00715 	stw	r3,28(sp)
  8026a8:	d8800815 	stw	r2,32(sp)
  8026ac:	a83f5026 	beq	r21,zero,8023f0 <___svfprintf_internal_r+0x1818>
  8026b0:	d8800f17 	ldw	r2,60(sp)
  8026b4:	10002026 	beq	r2,zero,802738 <___svfprintf_internal_r+0x1b60>
  8026b8:	d8c00717 	ldw	r3,28(sp)
  8026bc:	6080004c 	andi	r2,r12,1
  8026c0:	1204b03a 	or	r2,r2,r8
  8026c4:	00c0c10e 	bge	zero,r3,8029cc <___svfprintf_internal_r+0x1df4>
  8026c8:	10013f1e 	bne	r2,zero,802bc8 <___svfprintf_internal_r+0x1ff0>
  8026cc:	dd400717 	ldw	r21,28(sp)
  8026d0:	a829883a 	mov	r20,r21
  8026d4:	003f5406 	br	802428 <___svfprintf_internal_r+0x1850>
  8026d8:	d8800617 	ldw	r2,24(sp)
  8026dc:	002b883a 	mov	r21,zero
  8026e0:	d8c00615 	stw	r3,24(sp)
  8026e4:	15000017 	ldw	r20,0(r2)
  8026e8:	00800044 	movi	r2,1
  8026ec:	003a5e06 	br	801068 <___svfprintf_internal_r+0x490>
  8026f0:	d8800617 	ldw	r2,24(sp)
  8026f4:	002b883a 	mov	r21,zero
  8026f8:	d8c00615 	stw	r3,24(sp)
  8026fc:	15000017 	ldw	r20,0(r2)
  802700:	003bd606 	br	80165c <___svfprintf_internal_r+0xa84>
  802704:	d8800617 	ldw	r2,24(sp)
  802708:	002b883a 	mov	r21,zero
  80270c:	d8c00615 	stw	r3,24(sp)
  802710:	15000017 	ldw	r20,0(r2)
  802714:	0005883a 	mov	r2,zero
  802718:	003a5306 	br	801068 <___svfprintf_internal_r+0x490>
  80271c:	d8800617 	ldw	r2,24(sp)
  802720:	d8c00615 	stw	r3,24(sp)
  802724:	15000017 	ldw	r20,0(r2)
  802728:	a02bd7fa 	srai	r21,r20,31
  80272c:	a805883a 	mov	r2,r21
  802730:	003b0306 	br	801340 <___svfprintf_internal_r+0x768>
  802734:	e73fff84 	addi	fp,fp,-2
  802738:	d8800717 	ldw	r2,28(sp)
  80273c:	df001645 	stb	fp,89(sp)
  802740:	157fffc4 	addi	r21,r2,-1
  802744:	dd401415 	stw	r21,80(sp)
  802748:	a8008316 	blt	r21,zero,802958 <___svfprintf_internal_r+0x1d80>
  80274c:	00800ac4 	movi	r2,43
  802750:	d8801685 	stb	r2,90(sp)
  802754:	a8800290 	cmplti	r2,r21,10
  802758:	1000fb1e 	bne	r2,zero,802b48 <___svfprintf_internal_r+0x1f70>
  80275c:	d98019c4 	addi	r6,sp,103
  802760:	9029883a 	mov	r20,r18
  802764:	dc400715 	stw	r17,28(sp)
  802768:	8025883a 	mov	r18,r16
  80276c:	db000f15 	stw	r12,60(sp)
  802770:	3021883a 	mov	r16,r6
  802774:	a809883a 	mov	r4,r21
  802778:	01400284 	movi	r5,10
  80277c:	080bc580 	call	80bc58 <__modsi3>
  802780:	10800c04 	addi	r2,r2,48
  802784:	a809883a 	mov	r4,r21
  802788:	80bfffc5 	stb	r2,-1(r16)
  80278c:	01400284 	movi	r5,10
  802790:	080bbd80 	call	80bbd8 <__divsi3>
  802794:	a9001908 	cmpgei	r4,r21,100
  802798:	8023883a 	mov	r17,r16
  80279c:	102b883a 	mov	r21,r2
  8027a0:	843fffc4 	addi	r16,r16,-1
  8027a4:	203ff31e 	bne	r4,zero,802774 <___svfprintf_internal_r+0x1b9c>
  8027a8:	800d883a 	mov	r6,r16
  8027ac:	11000c04 	addi	r4,r2,48
  8027b0:	9021883a 	mov	r16,r18
  8027b4:	a025883a 	mov	r18,r20
  8027b8:	8829883a 	mov	r20,r17
  8027bc:	a0bfff84 	addi	r2,r20,-2
  8027c0:	313fffc5 	stb	r4,-1(r6)
  8027c4:	d8c019c4 	addi	r3,sp,103
  8027c8:	db000f17 	ldw	r12,60(sp)
  8027cc:	dc400717 	ldw	r17,28(sp)
  8027d0:	10c11d2e 	bgeu	r2,r3,802c48 <___svfprintf_internal_r+0x2070>
  8027d4:	d8c016c4 	addi	r3,sp,91
  8027d8:	00000106 	br	8027e0 <___svfprintf_internal_r+0x1c08>
  8027dc:	11000003 	ldbu	r4,0(r2)
  8027e0:	19000005 	stb	r4,0(r3)
  8027e4:	10800044 	addi	r2,r2,1
  8027e8:	d90019c4 	addi	r4,sp,103
  8027ec:	18c00044 	addi	r3,r3,1
  8027f0:	113ffa1e 	bne	r2,r4,8027dc <___svfprintf_internal_r+0x1c04>
  8027f4:	d8801a44 	addi	r2,sp,105
  8027f8:	d8c016c4 	addi	r3,sp,91
  8027fc:	1505c83a 	sub	r2,r2,r20
  802800:	1885883a 	add	r2,r3,r2
  802804:	d8c01644 	addi	r3,sp,89
  802808:	10c5c83a 	sub	r2,r2,r3
  80280c:	d8801015 	stw	r2,64(sp)
  802810:	d8c00817 	ldw	r3,32(sp)
  802814:	d9001017 	ldw	r4,64(sp)
  802818:	18800088 	cmpgei	r2,r3,2
  80281c:	192b883a 	add	r21,r3,r4
  802820:	1000da26 	beq	r2,zero,802b8c <___svfprintf_internal_r+0x1fb4>
  802824:	d8800c17 	ldw	r2,48(sp)
  802828:	a8ab883a 	add	r21,r21,r2
  80282c:	a829883a 	mov	r20,r21
  802830:	a800010e 	bge	r21,zero,802838 <___svfprintf_internal_r+0x1c60>
  802834:	0029883a 	mov	r20,zero
  802838:	d8000715 	stw	zero,28(sp)
  80283c:	003efa06 	br	802428 <___svfprintf_internal_r+0x1850>
  802840:	800f883a 	mov	r7,r16
  802844:	dc000e17 	ldw	r16,56(sp)
  802848:	10800044 	addi	r2,r2,1
  80284c:	1d47883a 	add	r3,r3,r21
  802850:	d8801b15 	stw	r2,108(sp)
  802854:	b1c00015 	stw	r7,0(r22)
  802858:	b5400115 	stw	r21,4(r22)
  80285c:	d8c01c15 	stw	r3,112(sp)
  802860:	10800208 	cmpgei	r2,r2,8
  802864:	1000321e 	bne	r2,zero,802930 <___svfprintf_internal_r+0x1d58>
  802868:	b5800204 	addi	r22,r22,8
  80286c:	003d3906 	br	801d54 <___svfprintf_internal_r+0x117c>
  802870:	00800b44 	movi	r2,45
  802874:	d8801345 	stb	r2,77(sp)
  802878:	03400b44 	movi	r13,45
  80287c:	003a5106 	br	8011c4 <___svfprintf_internal_r+0x5ec>
  802880:	d9801a04 	addi	r6,sp,104
  802884:	900b883a 	mov	r5,r18
  802888:	9809883a 	mov	r4,r19
  80288c:	0805e600 	call	805e60 <__ssprint_r>
  802890:	1039d21e 	bne	r2,zero,800fdc <___svfprintf_internal_r+0x404>
  802894:	dd401417 	ldw	r21,80(sp)
  802898:	d8c01c17 	ldw	r3,112(sp)
  80289c:	dd802704 	addi	r22,sp,156
  8028a0:	003d3b06 	br	801d90 <___svfprintf_internal_r+0x11b8>
  8028a4:	d9801a04 	addi	r6,sp,104
  8028a8:	900b883a 	mov	r5,r18
  8028ac:	9809883a 	mov	r4,r19
  8028b0:	0805e600 	call	805e60 <__ssprint_r>
  8028b4:	1039c91e 	bne	r2,zero,800fdc <___svfprintf_internal_r+0x404>
  8028b8:	d9401417 	ldw	r5,80(sp)
  8028bc:	d8c01c17 	ldw	r3,112(sp)
  8028c0:	dd802704 	addi	r22,sp,156
  8028c4:	003e7206 	br	802290 <___svfprintf_internal_r+0x16b8>
  8028c8:	1520003c 	xorhi	r20,r2,32768
  8028cc:	00800b44 	movi	r2,45
  8028d0:	d8800605 	stb	r2,24(sp)
  8028d4:	003ea206 	br	802360 <___svfprintf_internal_r+0x1788>
  8028d8:	4805883a 	mov	r2,r9
  8028dc:	003f6e06 	br	802698 <___svfprintf_internal_r+0x1ac0>
  8028e0:	05400184 	movi	r21,6
  8028e4:	003efd06 	br	8024dc <___svfprintf_internal_r+0x1904>
  8028e8:	d9401345 	stb	r5,77(sp)
  8028ec:	00396b06 	br	800e9c <___svfprintf_internal_r+0x2c4>
  8028f0:	d9801a04 	addi	r6,sp,104
  8028f4:	900b883a 	mov	r5,r18
  8028f8:	9809883a 	mov	r4,r19
  8028fc:	0805e600 	call	805e60 <__ssprint_r>
  802900:	0039b606 	br	800fdc <___svfprintf_internal_r+0x404>
  802904:	d9801a04 	addi	r6,sp,104
  802908:	900b883a 	mov	r5,r18
  80290c:	9809883a 	mov	r4,r19
  802910:	0805e600 	call	805e60 <__ssprint_r>
  802914:	1039b11e 	bne	r2,zero,800fdc <___svfprintf_internal_r+0x404>
  802918:	d9401417 	ldw	r5,80(sp)
  80291c:	d8c01c17 	ldw	r3,112(sp)
  802920:	d8801b17 	ldw	r2,108(sp)
  802924:	dd802704 	addi	r22,sp,156
  802928:	283e6b0e 	bge	r5,zero,8022d8 <___svfprintf_internal_r+0x1700>
  80292c:	003efd06 	br	802524 <___svfprintf_internal_r+0x194c>
  802930:	d9801a04 	addi	r6,sp,104
  802934:	900b883a 	mov	r5,r18
  802938:	9809883a 	mov	r4,r19
  80293c:	0805e600 	call	805e60 <__ssprint_r>
  802940:	1039a61e 	bne	r2,zero,800fdc <___svfprintf_internal_r+0x404>
  802944:	d8c01c17 	ldw	r3,112(sp)
  802948:	dd802704 	addi	r22,sp,156
  80294c:	003d0106 	br	801d54 <___svfprintf_internal_r+0x117c>
  802950:	db000417 	ldw	r12,16(sp)
  802954:	003a8706 	br	801374 <___svfprintf_internal_r+0x79c>
  802958:	05400044 	movi	r21,1
  80295c:	a8abc83a 	sub	r21,r21,r2
  802960:	00800b44 	movi	r2,45
  802964:	d8801685 	stb	r2,90(sp)
  802968:	003f7a06 	br	802754 <___svfprintf_internal_r+0x1b7c>
  80296c:	d8801804 	addi	r2,sp,96
  802970:	d8800315 	stw	r2,12(sp)
  802974:	d9400917 	ldw	r5,36(sp)
  802978:	d8801504 	addi	r2,sp,84
  80297c:	40c00044 	addi	r3,r8,1
  802980:	d8800215 	stw	r2,8(sp)
  802984:	d8801404 	addi	r2,sp,80
  802988:	d8c00015 	stw	r3,0(sp)
  80298c:	d8800115 	stw	r2,4(sp)
  802990:	01c00084 	movi	r7,2
  802994:	a00d883a 	mov	r6,r20
  802998:	9809883a 	mov	r4,r19
  80299c:	db001115 	stw	r12,68(sp)
  8029a0:	da000815 	stw	r8,32(sp)
  8029a4:	d8c00715 	stw	r3,28(sp)
  8029a8:	0802e880 	call	802e88 <_dtoa_r>
  8029ac:	d8c00717 	ldw	r3,28(sp)
  8029b0:	da000817 	ldw	r8,32(sp)
  8029b4:	db001117 	ldw	r12,68(sp)
  8029b8:	1023883a 	mov	r17,r2
  8029bc:	e08011d8 	cmpnei	r2,fp,71
  8029c0:	103e8226 	beq	r2,zero,8023cc <___svfprintf_internal_r+0x17f4>
  8029c4:	88d3883a 	add	r9,r17,r3
  8029c8:	003f1f06 	br	802648 <___svfprintf_internal_r+0x1a70>
  8029cc:	1000821e 	bne	r2,zero,802bd8 <___svfprintf_internal_r+0x2000>
  8029d0:	05000044 	movi	r20,1
  8029d4:	05400044 	movi	r21,1
  8029d8:	003e9306 	br	802428 <___svfprintf_internal_r+0x1850>
  8029dc:	d8800e17 	ldw	r2,56(sp)
  8029e0:	db401343 	ldbu	r13,77(sp)
  8029e4:	0011883a 	mov	r8,zero
  8029e8:	d8800615 	stw	r2,24(sp)
  8029ec:	003ad106 	br	801534 <___svfprintf_internal_r+0x95c>
  8029f0:	d9801a04 	addi	r6,sp,104
  8029f4:	900b883a 	mov	r5,r18
  8029f8:	9809883a 	mov	r4,r19
  8029fc:	0805e600 	call	805e60 <__ssprint_r>
  802a00:	1039761e 	bne	r2,zero,800fdc <___svfprintf_internal_r+0x404>
  802a04:	d8c01c17 	ldw	r3,112(sp)
  802a08:	dd802704 	addi	r22,sp,156
  802a0c:	a83cce0e 	bge	r21,zero,801d48 <___svfprintf_internal_r+0x1170>
  802a10:	003d9d06 	br	802088 <___svfprintf_internal_r+0x14b0>
  802a14:	d9801a04 	addi	r6,sp,104
  802a18:	900b883a 	mov	r5,r18
  802a1c:	9809883a 	mov	r4,r19
  802a20:	0805e600 	call	805e60 <__ssprint_r>
  802a24:	10396d1e 	bne	r2,zero,800fdc <___svfprintf_internal_r+0x404>
  802a28:	d8801417 	ldw	r2,80(sp)
  802a2c:	d9000817 	ldw	r4,32(sp)
  802a30:	d8c01c17 	ldw	r3,112(sp)
  802a34:	dd802704 	addi	r22,sp,156
  802a38:	2085c83a 	sub	r2,r4,r2
  802a3c:	003ce806 	br	801de0 <___svfprintf_internal_r+0x1208>
  802a40:	02000184 	movi	r8,6
  802a44:	003e4006 	br	802348 <___svfprintf_internal_r+0x1770>
  802a48:	4029883a 	mov	r20,r8
  802a4c:	d8c00615 	stw	r3,24(sp)
  802a50:	402b883a 	mov	r21,r8
  802a54:	00391706 	br	800eb4 <___svfprintf_internal_r+0x2dc>
  802a58:	d8800817 	ldw	r2,32(sp)
  802a5c:	d8c00c17 	ldw	r3,48(sp)
  802a60:	10eb883a 	add	r21,r2,r3
  802a64:	d8800717 	ldw	r2,28(sp)
  802a68:	00800316 	blt	zero,r2,802a78 <___svfprintf_internal_r+0x1ea0>
  802a6c:	d8800717 	ldw	r2,28(sp)
  802a70:	a8abc83a 	sub	r21,r21,r2
  802a74:	ad400044 	addi	r21,r21,1
  802a78:	a829883a 	mov	r20,r21
  802a7c:	a8003e16 	blt	r21,zero,802b78 <___svfprintf_internal_r+0x1fa0>
  802a80:	070019c4 	movi	fp,103
  802a84:	003e6806 	br	802428 <___svfprintf_internal_r+0x1850>
  802a88:	d9401345 	stb	r5,77(sp)
  802a8c:	003b1b06 	br	8016fc <___svfprintf_internal_r+0xb24>
  802a90:	d9401345 	stb	r5,77(sp)
  802a94:	003a6c06 	br	801448 <___svfprintf_internal_r+0x870>
  802a98:	d9401345 	stb	r5,77(sp)
  802a9c:	003a5306 	br	8013ec <___svfprintf_internal_r+0x814>
  802aa0:	d9401345 	stb	r5,77(sp)
  802aa4:	003ae306 	br	801634 <___svfprintf_internal_r+0xa5c>
  802aa8:	d9401345 	stb	r5,77(sp)
  802aac:	00399a06 	br	801118 <___svfprintf_internal_r+0x540>
  802ab0:	d9401345 	stb	r5,77(sp)
  802ab4:	003a1a06 	br	801320 <___svfprintf_internal_r+0x748>
  802ab8:	900f883a 	mov	r7,r18
  802abc:	8025883a 	mov	r18,r16
  802ac0:	dc000717 	ldw	r16,28(sp)
  802ac4:	10800044 	addi	r2,r2,1
  802ac8:	1f07883a 	add	r3,r3,fp
  802acc:	b1c00015 	stw	r7,0(r22)
  802ad0:	b7000115 	stw	fp,4(r22)
  802ad4:	d8c01c15 	stw	r3,112(sp)
  802ad8:	d8801b15 	stw	r2,108(sp)
  802adc:	11000208 	cmpgei	r4,r2,8
  802ae0:	203dfc26 	beq	r4,zero,8022d4 <___svfprintf_internal_r+0x16fc>
  802ae4:	d9801a04 	addi	r6,sp,104
  802ae8:	900b883a 	mov	r5,r18
  802aec:	9809883a 	mov	r4,r19
  802af0:	0805e600 	call	805e60 <__ssprint_r>
  802af4:	1039391e 	bne	r2,zero,800fdc <___svfprintf_internal_r+0x404>
  802af8:	d8c01c17 	ldw	r3,112(sp)
  802afc:	d8801b17 	ldw	r2,108(sp)
  802b00:	dd802704 	addi	r22,sp,156
  802b04:	003df406 	br	8022d8 <___svfprintf_internal_r+0x1700>
  802b08:	d9000917 	ldw	r4,36(sp)
  802b0c:	000d883a 	mov	r6,zero
  802b10:	000f883a 	mov	r7,zero
  802b14:	a00b883a 	mov	r5,r20
  802b18:	d8c01115 	stw	r3,68(sp)
  802b1c:	da000815 	stw	r8,32(sp)
  802b20:	db000715 	stw	r12,28(sp)
  802b24:	080cfd40 	call	80cfd4 <__eqdf2>
  802b28:	db000717 	ldw	r12,28(sp)
  802b2c:	da000817 	ldw	r8,32(sp)
  802b30:	d8c01117 	ldw	r3,68(sp)
  802b34:	103ec226 	beq	r2,zero,802640 <___svfprintf_internal_r+0x1a68>
  802b38:	00800044 	movi	r2,1
  802b3c:	1205c83a 	sub	r2,r2,r8
  802b40:	d8801415 	stw	r2,80(sp)
  802b44:	003ebf06 	br	802644 <___svfprintf_internal_r+0x1a6c>
  802b48:	00800c04 	movi	r2,48
  802b4c:	ad400c04 	addi	r21,r21,48
  802b50:	d88016c5 	stb	r2,91(sp)
  802b54:	00800104 	movi	r2,4
  802b58:	dd401705 	stb	r21,92(sp)
  802b5c:	d8801015 	stw	r2,64(sp)
  802b60:	003f2b06 	br	802810 <___svfprintf_internal_r+0x1c38>
  802b64:	d8800717 	ldw	r2,28(sp)
  802b68:	d8c00c17 	ldw	r3,48(sp)
  802b6c:	10eb883a 	add	r21,r2,r3
  802b70:	a829883a 	mov	r20,r21
  802b74:	a83fc20e 	bge	r21,zero,802a80 <___svfprintf_internal_r+0x1ea8>
  802b78:	0029883a 	mov	r20,zero
  802b7c:	003fc006 	br	802a80 <___svfprintf_internal_r+0x1ea8>
  802b80:	00bfffc4 	movi	r2,-1
  802b84:	d8800515 	stw	r2,20(sp)
  802b88:	00391706 	br	800fe8 <___svfprintf_internal_r+0x410>
  802b8c:	6080004c 	andi	r2,r12,1
  802b90:	d8800715 	stw	r2,28(sp)
  802b94:	103f231e 	bne	r2,zero,802824 <___svfprintf_internal_r+0x1c4c>
  802b98:	a829883a 	mov	r20,r21
  802b9c:	a83e220e 	bge	r21,zero,802428 <___svfprintf_internal_r+0x1850>
  802ba0:	0029883a 	mov	r20,zero
  802ba4:	003e2006 	br	802428 <___svfprintf_internal_r+0x1850>
  802ba8:	d8800a17 	ldw	r2,40(sp)
  802bac:	10001616 	blt	r2,zero,802c08 <___svfprintf_internal_r+0x2030>
  802bb0:	db401343 	ldbu	r13,77(sp)
  802bb4:	e0801210 	cmplti	r2,fp,72
  802bb8:	1000101e 	bne	r2,zero,802bfc <___svfprintf_internal_r+0x2024>
  802bbc:	04402074 	movhi	r17,129
  802bc0:	8c7aa104 	addi	r17,r17,-5500
  802bc4:	00398306 	br	8011d4 <___svfprintf_internal_r+0x5fc>
  802bc8:	d8800c17 	ldw	r2,48(sp)
  802bcc:	18ab883a 	add	r21,r3,r2
  802bd0:	aa2b883a 	add	r21,r21,r8
  802bd4:	003ff006 	br	802b98 <___svfprintf_internal_r+0x1fc0>
  802bd8:	d8800c17 	ldw	r2,48(sp)
  802bdc:	15400044 	addi	r21,r2,1
  802be0:	aa2b883a 	add	r21,r21,r8
  802be4:	003fec06 	br	802b98 <___svfprintf_internal_r+0x1fc0>
  802be8:	8025883a 	mov	r18,r16
  802bec:	0038fb06 	br	800fdc <___svfprintf_internal_r+0x404>
  802bf0:	b005883a 	mov	r2,r22
  802bf4:	39faaf04 	addi	r7,r7,-5444
  802bf8:	003e6e06 	br	8025b4 <___svfprintf_internal_r+0x19dc>
  802bfc:	04402074 	movhi	r17,129
  802c00:	8c7aa004 	addi	r17,r17,-5504
  802c04:	00397306 	br	8011d4 <___svfprintf_internal_r+0x5fc>
  802c08:	00800b44 	movi	r2,45
  802c0c:	d8801345 	stb	r2,77(sp)
  802c10:	03400b44 	movi	r13,45
  802c14:	003fe706 	br	802bb4 <___svfprintf_internal_r+0x1fdc>
  802c18:	d8c00617 	ldw	r3,24(sp)
  802c1c:	1a000017 	ldw	r8,0(r3)
  802c20:	18c00104 	addi	r3,r3,4
  802c24:	4000010e 	bge	r8,zero,802c2c <___svfprintf_internal_r+0x2054>
  802c28:	023fffc4 	movi	r8,-1
  802c2c:	bf000043 	ldbu	fp,1(r23)
  802c30:	d8c00615 	stw	r3,24(sp)
  802c34:	102f883a 	mov	r23,r2
  802c38:	e2c03fcc 	andi	r11,fp,255
  802c3c:	5ac0201c 	xori	r11,r11,128
  802c40:	5affe004 	addi	r11,r11,-128
  802c44:	00382206 	br	800cd0 <___svfprintf_internal_r+0xf8>
  802c48:	00800084 	movi	r2,2
  802c4c:	d8801015 	stw	r2,64(sp)
  802c50:	003eef06 	br	802810 <___svfprintf_internal_r+0x1c38>
  802c54:	00800304 	movi	r2,12
  802c58:	98800015 	stw	r2,0(r19)
  802c5c:	00bfffc4 	movi	r2,-1
  802c60:	d8800515 	stw	r2,20(sp)
  802c64:	0038e006 	br	800fe8 <___svfprintf_internal_r+0x410>

00802c68 <quorem>:
  802c68:	defff204 	addi	sp,sp,-56
  802c6c:	dc400515 	stw	r17,20(sp)
  802c70:	20800417 	ldw	r2,16(r4)
  802c74:	2c400417 	ldw	r17,16(r5)
  802c78:	dfc00d15 	stw	ra,52(sp)
  802c7c:	df000c15 	stw	fp,48(sp)
  802c80:	ddc00b15 	stw	r23,44(sp)
  802c84:	dd800a15 	stw	r22,40(sp)
  802c88:	dd400915 	stw	r21,36(sp)
  802c8c:	dd000815 	stw	r20,32(sp)
  802c90:	dcc00715 	stw	r19,28(sp)
  802c94:	dc800615 	stw	r18,24(sp)
  802c98:	dc000415 	stw	r16,16(sp)
  802c9c:	d9000115 	stw	r4,4(sp)
  802ca0:	d9400215 	stw	r5,8(sp)
  802ca4:	14407616 	blt	r2,r17,802e80 <quorem+0x218>
  802ca8:	8c7fffc4 	addi	r17,r17,-1
  802cac:	882a90ba 	slli	r21,r17,2
  802cb0:	2f000504 	addi	fp,r5,20
  802cb4:	25800504 	addi	r22,r4,20
  802cb8:	e565883a 	add	r18,fp,r21
  802cbc:	b545883a 	add	r2,r22,r21
  802cc0:	95c00017 	ldw	r23,0(r18)
  802cc4:	15000017 	ldw	r20,0(r2)
  802cc8:	dd800015 	stw	r22,0(sp)
  802ccc:	bdc00044 	addi	r23,r23,1
  802cd0:	b80b883a 	mov	r5,r23
  802cd4:	a009883a 	mov	r4,r20
  802cd8:	d8800315 	stw	r2,12(sp)
  802cdc:	080bccc0 	call	80bccc <__udivsi3>
  802ce0:	1021883a 	mov	r16,r2
  802ce4:	a5c02f36 	bltu	r20,r23,802da4 <quorem+0x13c>
  802ce8:	e029883a 	mov	r20,fp
  802cec:	002b883a 	mov	r21,zero
  802cf0:	002f883a 	mov	r23,zero
  802cf4:	a4c00017 	ldw	r19,0(r20)
  802cf8:	800b883a 	mov	r5,r16
  802cfc:	b5800104 	addi	r22,r22,4
  802d00:	993fffcc 	andi	r4,r19,65535
  802d04:	080bd8c0 	call	80bd8c <__mulsi3>
  802d08:	9808d43a 	srli	r4,r19,16
  802d0c:	800b883a 	mov	r5,r16
  802d10:	156b883a 	add	r21,r2,r21
  802d14:	080bd8c0 	call	80bd8c <__mulsi3>
  802d18:	b0ffff17 	ldw	r3,-4(r22)
  802d1c:	a80ad43a 	srli	r5,r21,16
  802d20:	a93fffcc 	andi	r4,r21,65535
  802d24:	19bfffcc 	andi	r6,r3,65535
  802d28:	b909c83a 	sub	r4,r23,r4
  802d2c:	2189883a 	add	r4,r4,r6
  802d30:	1806d43a 	srli	r3,r3,16
  802d34:	1145883a 	add	r2,r2,r5
  802d38:	200bd43a 	srai	r5,r4,16
  802d3c:	11bfffcc 	andi	r6,r2,65535
  802d40:	1987c83a 	sub	r3,r3,r6
  802d44:	1947883a 	add	r3,r3,r5
  802d48:	180a943a 	slli	r5,r3,16
  802d4c:	213fffcc 	andi	r4,r4,65535
  802d50:	a5000104 	addi	r20,r20,4
  802d54:	2908b03a 	or	r4,r5,r4
  802d58:	b13fff15 	stw	r4,-4(r22)
  802d5c:	102ad43a 	srli	r21,r2,16
  802d60:	182fd43a 	srai	r23,r3,16
  802d64:	953fe32e 	bgeu	r18,r20,802cf4 <quorem+0x8c>
  802d68:	d8c00317 	ldw	r3,12(sp)
  802d6c:	18800017 	ldw	r2,0(r3)
  802d70:	10000c1e 	bne	r2,zero,802da4 <quorem+0x13c>
  802d74:	d8800017 	ldw	r2,0(sp)
  802d78:	1d7fff04 	addi	r21,r3,-4
  802d7c:	15400436 	bltu	r2,r21,802d90 <quorem+0x128>
  802d80:	00000606 	br	802d9c <quorem+0x134>
  802d84:	d8800017 	ldw	r2,0(sp)
  802d88:	8c7fffc4 	addi	r17,r17,-1
  802d8c:	1540032e 	bgeu	r2,r21,802d9c <quorem+0x134>
  802d90:	a8800017 	ldw	r2,0(r21)
  802d94:	ad7fff04 	addi	r21,r21,-4
  802d98:	103ffa26 	beq	r2,zero,802d84 <quorem+0x11c>
  802d9c:	d8800117 	ldw	r2,4(sp)
  802da0:	14400415 	stw	r17,16(r2)
  802da4:	d9400217 	ldw	r5,8(sp)
  802da8:	d9000117 	ldw	r4,4(sp)
  802dac:	080568c0 	call	80568c <__mcmp>
  802db0:	10002616 	blt	r2,zero,802e4c <quorem+0x1e4>
  802db4:	d9400017 	ldw	r5,0(sp)
  802db8:	84000044 	addi	r16,r16,1
  802dbc:	0007883a 	mov	r3,zero
  802dc0:	e1000017 	ldw	r4,0(fp)
  802dc4:	29800017 	ldw	r6,0(r5)
  802dc8:	29400104 	addi	r5,r5,4
  802dcc:	20bfffcc 	andi	r2,r4,65535
  802dd0:	1887c83a 	sub	r3,r3,r2
  802dd4:	30bfffcc 	andi	r2,r6,65535
  802dd8:	1885883a 	add	r2,r3,r2
  802ddc:	2008d43a 	srli	r4,r4,16
  802de0:	3006d43a 	srli	r3,r6,16
  802de4:	100fd43a 	srai	r7,r2,16
  802de8:	11bfffcc 	andi	r6,r2,65535
  802dec:	1907c83a 	sub	r3,r3,r4
  802df0:	19c7883a 	add	r3,r3,r7
  802df4:	1804943a 	slli	r2,r3,16
  802df8:	e7000104 	addi	fp,fp,4
  802dfc:	1807d43a 	srai	r3,r3,16
  802e00:	1184b03a 	or	r2,r2,r6
  802e04:	28bfff15 	stw	r2,-4(r5)
  802e08:	973fed2e 	bgeu	r18,fp,802dc0 <quorem+0x158>
  802e0c:	880490ba 	slli	r2,r17,2
  802e10:	d9000017 	ldw	r4,0(sp)
  802e14:	2085883a 	add	r2,r4,r2
  802e18:	10c00017 	ldw	r3,0(r2)
  802e1c:	18000b1e 	bne	r3,zero,802e4c <quorem+0x1e4>
  802e20:	10bfff04 	addi	r2,r2,-4
  802e24:	20800436 	bltu	r4,r2,802e38 <quorem+0x1d0>
  802e28:	00000606 	br	802e44 <quorem+0x1dc>
  802e2c:	d8c00017 	ldw	r3,0(sp)
  802e30:	8c7fffc4 	addi	r17,r17,-1
  802e34:	1880032e 	bgeu	r3,r2,802e44 <quorem+0x1dc>
  802e38:	10c00017 	ldw	r3,0(r2)
  802e3c:	10bfff04 	addi	r2,r2,-4
  802e40:	183ffa26 	beq	r3,zero,802e2c <quorem+0x1c4>
  802e44:	d8800117 	ldw	r2,4(sp)
  802e48:	14400415 	stw	r17,16(r2)
  802e4c:	8005883a 	mov	r2,r16
  802e50:	dfc00d17 	ldw	ra,52(sp)
  802e54:	df000c17 	ldw	fp,48(sp)
  802e58:	ddc00b17 	ldw	r23,44(sp)
  802e5c:	dd800a17 	ldw	r22,40(sp)
  802e60:	dd400917 	ldw	r21,36(sp)
  802e64:	dd000817 	ldw	r20,32(sp)
  802e68:	dcc00717 	ldw	r19,28(sp)
  802e6c:	dc800617 	ldw	r18,24(sp)
  802e70:	dc400517 	ldw	r17,20(sp)
  802e74:	dc000417 	ldw	r16,16(sp)
  802e78:	dec00e04 	addi	sp,sp,56
  802e7c:	f800283a 	ret
  802e80:	0005883a 	mov	r2,zero
  802e84:	003ff206 	br	802e50 <quorem+0x1e8>

00802e88 <_dtoa_r>:
  802e88:	20801017 	ldw	r2,64(r4)
  802e8c:	deffe204 	addi	sp,sp,-120
  802e90:	ddc01b15 	stw	r23,108(sp)
  802e94:	dcc01715 	stw	r19,92(sp)
  802e98:	dc801615 	stw	r18,88(sp)
  802e9c:	dc401515 	stw	r17,84(sp)
  802ea0:	dc001415 	stw	r16,80(sp)
  802ea4:	dfc01d15 	stw	ra,116(sp)
  802ea8:	df001c15 	stw	fp,112(sp)
  802eac:	dd801a15 	stw	r22,104(sp)
  802eb0:	dd401915 	stw	r21,100(sp)
  802eb4:	dd001815 	stw	r20,96(sp)
  802eb8:	d9c00215 	stw	r7,8(sp)
  802ebc:	dc002017 	ldw	r16,128(sp)
  802ec0:	202f883a 	mov	r23,r4
  802ec4:	3025883a 	mov	r18,r6
  802ec8:	2827883a 	mov	r19,r5
  802ecc:	3023883a 	mov	r17,r6
  802ed0:	10000826 	beq	r2,zero,802ef4 <_dtoa_r+0x6c>
  802ed4:	21801117 	ldw	r6,68(r4)
  802ed8:	00c00044 	movi	r3,1
  802edc:	100b883a 	mov	r5,r2
  802ee0:	1986983a 	sll	r3,r3,r6
  802ee4:	11800115 	stw	r6,4(r2)
  802ee8:	10c00215 	stw	r3,8(r2)
  802eec:	0804c7c0 	call	804c7c <_Bfree>
  802ef0:	b8001015 	stw	zero,64(r23)
  802ef4:	90018816 	blt	r18,zero,803518 <_dtoa_r+0x690>
  802ef8:	80000015 	stw	zero,0(r16)
  802efc:	909ffc2c 	andhi	r2,r18,32752
  802f00:	00dffc34 	movhi	r3,32752
  802f04:	10c18d26 	beq	r2,r3,80353c <_dtoa_r+0x6b4>
  802f08:	000d883a 	mov	r6,zero
  802f0c:	000f883a 	mov	r7,zero
  802f10:	9809883a 	mov	r4,r19
  802f14:	880b883a 	mov	r5,r17
  802f18:	080cfd40 	call	80cfd4 <__eqdf2>
  802f1c:	1000191e 	bne	r2,zero,802f84 <_dtoa_r+0xfc>
  802f20:	d8c01f17 	ldw	r3,124(sp)
  802f24:	00800044 	movi	r2,1
  802f28:	18800015 	stw	r2,0(r3)
  802f2c:	d8802117 	ldw	r2,132(sp)
  802f30:	1002f926 	beq	r2,zero,803b18 <_dtoa_r+0xc90>
  802f34:	d9002117 	ldw	r4,132(sp)
  802f38:	00802074 	movhi	r2,129
  802f3c:	10baae44 	addi	r2,r2,-5447
  802f40:	00c02074 	movhi	r3,129
  802f44:	20800015 	stw	r2,0(r4)
  802f48:	18baae04 	addi	r2,r3,-5448
  802f4c:	d8800115 	stw	r2,4(sp)
  802f50:	d8800117 	ldw	r2,4(sp)
  802f54:	dfc01d17 	ldw	ra,116(sp)
  802f58:	df001c17 	ldw	fp,112(sp)
  802f5c:	ddc01b17 	ldw	r23,108(sp)
  802f60:	dd801a17 	ldw	r22,104(sp)
  802f64:	dd401917 	ldw	r21,100(sp)
  802f68:	dd001817 	ldw	r20,96(sp)
  802f6c:	dcc01717 	ldw	r19,92(sp)
  802f70:	dc801617 	ldw	r18,88(sp)
  802f74:	dc401517 	ldw	r17,84(sp)
  802f78:	dc001417 	ldw	r16,80(sp)
  802f7c:	dec01e04 	addi	sp,sp,120
  802f80:	f800283a 	ret
  802f84:	d8801204 	addi	r2,sp,72
  802f88:	9020d53a 	srli	r16,r18,20
  802f8c:	d8800015 	stw	r2,0(sp)
  802f90:	d9c01304 	addi	r7,sp,76
  802f94:	980b883a 	mov	r5,r19
  802f98:	880d883a 	mov	r6,r17
  802f9c:	b809883a 	mov	r4,r23
  802fa0:	0805a740 	call	805a74 <__d2b>
  802fa4:	1039883a 	mov	fp,r2
  802fa8:	8001771e 	bne	r16,zero,803588 <_dtoa_r+0x700>
  802fac:	dd001217 	ldw	r20,72(sp)
  802fb0:	dc001317 	ldw	r16,76(sp)
  802fb4:	a421883a 	add	r16,r20,r16
  802fb8:	80810c84 	addi	r2,r16,1074
  802fbc:	10c00850 	cmplti	r3,r2,33
  802fc0:	1802e51e 	bne	r3,zero,803b58 <_dtoa_r+0xcd0>
  802fc4:	01001004 	movi	r4,64
  802fc8:	2085c83a 	sub	r2,r4,r2
  802fcc:	81010484 	addi	r4,r16,1042
  802fd0:	90a4983a 	sll	r18,r18,r2
  802fd4:	9908d83a 	srl	r4,r19,r4
  802fd8:	9108b03a 	or	r4,r18,r4
  802fdc:	080e4100 	call	80e410 <__floatunsidf>
  802fe0:	1009883a 	mov	r4,r2
  802fe4:	017f8434 	movhi	r5,65040
  802fe8:	00800044 	movi	r2,1
  802fec:	194b883a 	add	r5,r3,r5
  802ff0:	843fffc4 	addi	r16,r16,-1
  802ff4:	d8800a15 	stw	r2,40(sp)
  802ff8:	000d883a 	mov	r6,zero
  802ffc:	01cffe34 	movhi	r7,16376
  803000:	080d9d00 	call	80d9d0 <__subdf3>
  803004:	0198dbf4 	movhi	r6,25455
  803008:	01cff4f4 	movhi	r7,16339
  80300c:	3190d844 	addi	r6,r6,17249
  803010:	39e1e9c4 	addi	r7,r7,-30809
  803014:	1009883a 	mov	r4,r2
  803018:	180b883a 	mov	r5,r3
  80301c:	080d2240 	call	80d224 <__muldf3>
  803020:	01a2d874 	movhi	r6,35681
  803024:	01cff1f4 	movhi	r7,16327
  803028:	31b22cc4 	addi	r6,r6,-14157
  80302c:	39e28a04 	addi	r7,r7,-30168
  803030:	180b883a 	mov	r5,r3
  803034:	1009883a 	mov	r4,r2
  803038:	080bdb40 	call	80bdb4 <__adddf3>
  80303c:	8009883a 	mov	r4,r16
  803040:	102b883a 	mov	r21,r2
  803044:	1825883a 	mov	r18,r3
  803048:	080e3580 	call	80e358 <__floatsidf>
  80304c:	019427f4 	movhi	r6,20639
  803050:	01cff4f4 	movhi	r7,16339
  803054:	319e7ec4 	addi	r6,r6,31227
  803058:	39d104c4 	addi	r7,r7,17427
  80305c:	1009883a 	mov	r4,r2
  803060:	180b883a 	mov	r5,r3
  803064:	080d2240 	call	80d224 <__muldf3>
  803068:	100d883a 	mov	r6,r2
  80306c:	180f883a 	mov	r7,r3
  803070:	a809883a 	mov	r4,r21
  803074:	900b883a 	mov	r5,r18
  803078:	080bdb40 	call	80bdb4 <__adddf3>
  80307c:	1009883a 	mov	r4,r2
  803080:	180b883a 	mov	r5,r3
  803084:	1025883a 	mov	r18,r2
  803088:	182d883a 	mov	r22,r3
  80308c:	080e2d80 	call	80e2d8 <__fixdfsi>
  803090:	000d883a 	mov	r6,zero
  803094:	000f883a 	mov	r7,zero
  803098:	9009883a 	mov	r4,r18
  80309c:	b00b883a 	mov	r5,r22
  8030a0:	102b883a 	mov	r21,r2
  8030a4:	d8800315 	stw	r2,12(sp)
  8030a8:	080d13c0 	call	80d13c <__ledf2>
  8030ac:	10028f16 	blt	r2,zero,803aec <_dtoa_r+0xc64>
  8030b0:	dc800317 	ldw	r18,12(sp)
  8030b4:	a421c83a 	sub	r16,r20,r16
  8030b8:	85bfffc4 	addi	r22,r16,-1
  8030bc:	908005e8 	cmpgeui	r2,r18,23
  8030c0:	1002821e 	bne	r2,zero,803acc <_dtoa_r+0xc44>
  8030c4:	900690fa 	slli	r3,r18,3
  8030c8:	00802074 	movhi	r2,129
  8030cc:	10baf704 	addi	r2,r2,-5156
  8030d0:	10c5883a 	add	r2,r2,r3
  8030d4:	11800017 	ldw	r6,0(r2)
  8030d8:	11c00117 	ldw	r7,4(r2)
  8030dc:	9809883a 	mov	r4,r19
  8030e0:	880b883a 	mov	r5,r17
  8030e4:	080d13c0 	call	80d13c <__ledf2>
  8030e8:	1002550e 	bge	r2,zero,803a40 <_dtoa_r+0xbb8>
  8030ec:	90bfffc4 	addi	r2,r18,-1
  8030f0:	d8800315 	stw	r2,12(sp)
  8030f4:	d8000915 	stw	zero,36(sp)
  8030f8:	b0027716 	blt	r22,zero,803ad8 <_dtoa_r+0xc50>
  8030fc:	d8000615 	stw	zero,24(sp)
  803100:	d8800317 	ldw	r2,12(sp)
  803104:	1002510e 	bge	r2,zero,803a4c <_dtoa_r+0xbc4>
  803108:	d8800317 	ldw	r2,12(sp)
  80310c:	d8c00617 	ldw	r3,24(sp)
  803110:	d8000315 	stw	zero,12(sp)
  803114:	d8800415 	stw	r2,16(sp)
  803118:	1887c83a 	sub	r3,r3,r2
  80311c:	d8c00615 	stw	r3,24(sp)
  803120:	0087c83a 	sub	r3,zero,r2
  803124:	d8c00815 	stw	r3,32(sp)
  803128:	d8c00217 	ldw	r3,8(sp)
  80312c:	188002a8 	cmpgeui	r2,r3,10
  803130:	10024d1e 	bne	r2,zero,803a68 <_dtoa_r+0xbe0>
  803134:	18800190 	cmplti	r2,r3,6
  803138:	10028b1e 	bne	r2,zero,803b68 <_dtoa_r+0xce0>
  80313c:	18bfff04 	addi	r2,r3,-4
  803140:	d8800215 	stw	r2,8(sp)
  803144:	0021883a 	mov	r16,zero
  803148:	d8c00217 	ldw	r3,8(sp)
  80314c:	18800120 	cmpeqi	r2,r3,4
  803150:	10035d1e 	bne	r2,zero,803ec8 <_dtoa_r+0x1040>
  803154:	18800160 	cmpeqi	r2,r3,5
  803158:	10031b1e 	bne	r2,zero,803dc8 <_dtoa_r+0xf40>
  80315c:	188000a0 	cmpeqi	r2,r3,2
  803160:	10024d26 	beq	r2,zero,803a98 <_dtoa_r+0xc10>
  803164:	d8000715 	stw	zero,28(sp)
  803168:	d8801e17 	ldw	r2,120(sp)
  80316c:	0083260e 	bge	zero,r2,803e08 <_dtoa_r+0xf80>
  803170:	d8800b15 	stw	r2,44(sp)
  803174:	d8800515 	stw	r2,20(sp)
  803178:	100d883a 	mov	r6,r2
  80317c:	b8001115 	stw	zero,68(r23)
  803180:	30800610 	cmplti	r2,r6,24
  803184:	1004f11e 	bne	r2,zero,80454c <_dtoa_r+0x16c4>
  803188:	00c00044 	movi	r3,1
  80318c:	00800104 	movi	r2,4
  803190:	1085883a 	add	r2,r2,r2
  803194:	11000504 	addi	r4,r2,20
  803198:	180b883a 	mov	r5,r3
  80319c:	18c00044 	addi	r3,r3,1
  8031a0:	313ffb2e 	bgeu	r6,r4,803190 <_dtoa_r+0x308>
  8031a4:	b9401115 	stw	r5,68(r23)
  8031a8:	b809883a 	mov	r4,r23
  8031ac:	0804bd80 	call	804bd8 <_Balloc>
  8031b0:	d8800115 	stw	r2,4(sp)
  8031b4:	1004de26 	beq	r2,zero,804530 <_dtoa_r+0x16a8>
  8031b8:	d8800117 	ldw	r2,4(sp)
  8031bc:	b8801015 	stw	r2,64(r23)
  8031c0:	d8800517 	ldw	r2,20(sp)
  8031c4:	108003e8 	cmpgeui	r2,r2,15
  8031c8:	1001021e 	bne	r2,zero,8035d4 <_dtoa_r+0x74c>
  8031cc:	80010126 	beq	r16,zero,8035d4 <_dtoa_r+0x74c>
  8031d0:	d9000417 	ldw	r4,16(sp)
  8031d4:	01038b0e 	bge	zero,r4,804004 <_dtoa_r+0x117c>
  8031d8:	208003cc 	andi	r2,r4,15
  8031dc:	100690fa 	slli	r3,r2,3
  8031e0:	2029d13a 	srai	r20,r4,4
  8031e4:	00802074 	movhi	r2,129
  8031e8:	10baf704 	addi	r2,r2,-5156
  8031ec:	10c5883a 	add	r2,r2,r3
  8031f0:	a0c0040c 	andi	r3,r20,16
  8031f4:	12800017 	ldw	r10,0(r2)
  8031f8:	12400117 	ldw	r9,4(r2)
  8031fc:	18032c26 	beq	r3,zero,803eb0 <_dtoa_r+0x1028>
  803200:	00802074 	movhi	r2,129
  803204:	10baed04 	addi	r2,r2,-5196
  803208:	11800817 	ldw	r6,32(r2)
  80320c:	11c00917 	ldw	r7,36(r2)
  803210:	9809883a 	mov	r4,r19
  803214:	880b883a 	mov	r5,r17
  803218:	da400e15 	stw	r9,56(sp)
  80321c:	da800d15 	stw	r10,52(sp)
  803220:	080c6a40 	call	80c6a4 <__divdf3>
  803224:	da800d17 	ldw	r10,52(sp)
  803228:	da400e17 	ldw	r9,56(sp)
  80322c:	a50003cc 	andi	r20,r20,15
  803230:	d8800c15 	stw	r2,48(sp)
  803234:	1825883a 	mov	r18,r3
  803238:	054000c4 	movi	r21,3
  80323c:	a0001126 	beq	r20,zero,803284 <_dtoa_r+0x3fc>
  803240:	04002074 	movhi	r16,129
  803244:	843aed04 	addi	r16,r16,-5196
  803248:	5009883a 	mov	r4,r10
  80324c:	480b883a 	mov	r5,r9
  803250:	a180004c 	andi	r6,r20,1
  803254:	30000626 	beq	r6,zero,803270 <_dtoa_r+0x3e8>
  803258:	81800017 	ldw	r6,0(r16)
  80325c:	81c00117 	ldw	r7,4(r16)
  803260:	ad400044 	addi	r21,r21,1
  803264:	080d2240 	call	80d224 <__muldf3>
  803268:	1009883a 	mov	r4,r2
  80326c:	180b883a 	mov	r5,r3
  803270:	a029d07a 	srai	r20,r20,1
  803274:	84000204 	addi	r16,r16,8
  803278:	a03ff51e 	bne	r20,zero,803250 <_dtoa_r+0x3c8>
  80327c:	2015883a 	mov	r10,r4
  803280:	2813883a 	mov	r9,r5
  803284:	d9000c17 	ldw	r4,48(sp)
  803288:	900b883a 	mov	r5,r18
  80328c:	500d883a 	mov	r6,r10
  803290:	480f883a 	mov	r7,r9
  803294:	080c6a40 	call	80c6a4 <__divdf3>
  803298:	1021883a 	mov	r16,r2
  80329c:	1825883a 	mov	r18,r3
  8032a0:	d8800917 	ldw	r2,36(sp)
  8032a4:	10000626 	beq	r2,zero,8032c0 <_dtoa_r+0x438>
  8032a8:	000d883a 	mov	r6,zero
  8032ac:	01cffc34 	movhi	r7,16368
  8032b0:	8009883a 	mov	r4,r16
  8032b4:	900b883a 	mov	r5,r18
  8032b8:	080d13c0 	call	80d13c <__ledf2>
  8032bc:	10044416 	blt	r2,zero,8043d0 <_dtoa_r+0x1548>
  8032c0:	a809883a 	mov	r4,r21
  8032c4:	080e3580 	call	80e358 <__floatsidf>
  8032c8:	800d883a 	mov	r6,r16
  8032cc:	900f883a 	mov	r7,r18
  8032d0:	1009883a 	mov	r4,r2
  8032d4:	180b883a 	mov	r5,r3
  8032d8:	080d2240 	call	80d224 <__muldf3>
  8032dc:	000d883a 	mov	r6,zero
  8032e0:	01d00734 	movhi	r7,16412
  8032e4:	1009883a 	mov	r4,r2
  8032e8:	180b883a 	mov	r5,r3
  8032ec:	080bdb40 	call	80bdb4 <__adddf3>
  8032f0:	1029883a 	mov	r20,r2
  8032f4:	00bf3034 	movhi	r2,64704
  8032f8:	1885883a 	add	r2,r3,r2
  8032fc:	d8800c15 	stw	r2,48(sp)
  803300:	d8800517 	ldw	r2,20(sp)
  803304:	10032226 	beq	r2,zero,803f90 <_dtoa_r+0x1108>
  803308:	d8800417 	ldw	r2,16(sp)
  80330c:	d8801115 	stw	r2,68(sp)
  803310:	d8800517 	ldw	r2,20(sp)
  803314:	d8800d15 	stw	r2,52(sp)
  803318:	d8800d17 	ldw	r2,52(sp)
  80331c:	900b883a 	mov	r5,r18
  803320:	8009883a 	mov	r4,r16
  803324:	10bfffc4 	addi	r2,r2,-1
  803328:	100690fa 	slli	r3,r2,3
  80332c:	00802074 	movhi	r2,129
  803330:	10baf704 	addi	r2,r2,-5156
  803334:	10c5883a 	add	r2,r2,r3
  803338:	12800017 	ldw	r10,0(r2)
  80333c:	12c00117 	ldw	r11,4(r2)
  803340:	da800f15 	stw	r10,60(sp)
  803344:	dac00e15 	stw	r11,56(sp)
  803348:	080e2d80 	call	80e2d8 <__fixdfsi>
  80334c:	1009883a 	mov	r4,r2
  803350:	10800c04 	addi	r2,r2,48
  803354:	d8801015 	stw	r2,64(sp)
  803358:	080e3580 	call	80e358 <__floatsidf>
  80335c:	8009883a 	mov	r4,r16
  803360:	100d883a 	mov	r6,r2
  803364:	180f883a 	mov	r7,r3
  803368:	900b883a 	mov	r5,r18
  80336c:	080d9d00 	call	80d9d0 <__subdf3>
  803370:	d9000117 	ldw	r4,4(sp)
  803374:	dac00e17 	ldw	r11,56(sp)
  803378:	da800f17 	ldw	r10,60(sp)
  80337c:	1825883a 	mov	r18,r3
  803380:	d8c00717 	ldw	r3,28(sp)
  803384:	25400044 	addi	r21,r4,1
  803388:	1021883a 	mov	r16,r2
  80338c:	500d883a 	mov	r6,r10
  803390:	580f883a 	mov	r7,r11
  803394:	1803b626 	beq	r3,zero,804270 <_dtoa_r+0x13e8>
  803398:	0009883a 	mov	r4,zero
  80339c:	014ff834 	movhi	r5,16352
  8033a0:	080c6a40 	call	80c6a4 <__divdf3>
  8033a4:	d9c00c17 	ldw	r7,48(sp)
  8033a8:	a00d883a 	mov	r6,r20
  8033ac:	1009883a 	mov	r4,r2
  8033b0:	180b883a 	mov	r5,r3
  8033b4:	080d9d00 	call	80d9d0 <__subdf3>
  8033b8:	d9000117 	ldw	r4,4(sp)
  8033bc:	1029883a 	mov	r20,r2
  8033c0:	d8801017 	ldw	r2,64(sp)
  8033c4:	800d883a 	mov	r6,r16
  8033c8:	900f883a 	mov	r7,r18
  8033cc:	20800005 	stb	r2,0(r4)
  8033d0:	180b883a 	mov	r5,r3
  8033d4:	a009883a 	mov	r4,r20
  8033d8:	d8c00c15 	stw	r3,48(sp)
  8033dc:	080d0540 	call	80d054 <__gedf2>
  8033e0:	0083e716 	blt	zero,r2,804380 <_dtoa_r+0x14f8>
  8033e4:	0005883a 	mov	r2,zero
  8033e8:	dd800e15 	stw	r22,56(sp)
  8033ec:	dc400f15 	stw	r17,60(sp)
  8033f0:	dd800d17 	ldw	r22,52(sp)
  8033f4:	dc400c17 	ldw	r17,48(sp)
  8033f8:	ddc00d15 	stw	r23,52(sp)
  8033fc:	dcc00c15 	stw	r19,48(sp)
  803400:	1027883a 	mov	r19,r2
  803404:	00002606 	br	8034a0 <_dtoa_r+0x618>
  803408:	9cc00044 	addi	r19,r19,1
  80340c:	9d806d0e 	bge	r19,r22,8035c4 <_dtoa_r+0x73c>
  803410:	a009883a 	mov	r4,r20
  803414:	880b883a 	mov	r5,r17
  803418:	000d883a 	mov	r6,zero
  80341c:	01d00934 	movhi	r7,16420
  803420:	080d2240 	call	80d224 <__muldf3>
  803424:	000d883a 	mov	r6,zero
  803428:	01d00934 	movhi	r7,16420
  80342c:	8009883a 	mov	r4,r16
  803430:	900b883a 	mov	r5,r18
  803434:	1029883a 	mov	r20,r2
  803438:	1823883a 	mov	r17,r3
  80343c:	080d2240 	call	80d224 <__muldf3>
  803440:	180b883a 	mov	r5,r3
  803444:	1009883a 	mov	r4,r2
  803448:	1821883a 	mov	r16,r3
  80344c:	1025883a 	mov	r18,r2
  803450:	080e2d80 	call	80e2d8 <__fixdfsi>
  803454:	1009883a 	mov	r4,r2
  803458:	102f883a 	mov	r23,r2
  80345c:	080e3580 	call	80e358 <__floatsidf>
  803460:	9009883a 	mov	r4,r18
  803464:	800b883a 	mov	r5,r16
  803468:	100d883a 	mov	r6,r2
  80346c:	180f883a 	mov	r7,r3
  803470:	080d9d00 	call	80d9d0 <__subdf3>
  803474:	ad400044 	addi	r21,r21,1
  803478:	ba000c04 	addi	r8,r23,48
  80347c:	aa3fffc5 	stb	r8,-1(r21)
  803480:	a00d883a 	mov	r6,r20
  803484:	880f883a 	mov	r7,r17
  803488:	1009883a 	mov	r4,r2
  80348c:	180b883a 	mov	r5,r3
  803490:	1021883a 	mov	r16,r2
  803494:	1825883a 	mov	r18,r3
  803498:	080d13c0 	call	80d13c <__ledf2>
  80349c:	10040516 	blt	r2,zero,8044b4 <_dtoa_r+0x162c>
  8034a0:	800d883a 	mov	r6,r16
  8034a4:	900f883a 	mov	r7,r18
  8034a8:	0009883a 	mov	r4,zero
  8034ac:	014ffc34 	movhi	r5,16368
  8034b0:	080d9d00 	call	80d9d0 <__subdf3>
  8034b4:	a00d883a 	mov	r6,r20
  8034b8:	880f883a 	mov	r7,r17
  8034bc:	1009883a 	mov	r4,r2
  8034c0:	180b883a 	mov	r5,r3
  8034c4:	080d13c0 	call	80d13c <__ledf2>
  8034c8:	103fcf0e 	bge	r2,zero,803408 <_dtoa_r+0x580>
  8034cc:	d8801117 	ldw	r2,68(sp)
  8034d0:	ddc00d17 	ldw	r23,52(sp)
  8034d4:	d9000117 	ldw	r4,4(sp)
  8034d8:	10800044 	addi	r2,r2,1
  8034dc:	d8800415 	stw	r2,16(sp)
  8034e0:	a829883a 	mov	r20,r21
  8034e4:	00000106 	br	8034ec <_dtoa_r+0x664>
  8034e8:	a103da26 	beq	r20,r4,804454 <_dtoa_r+0x15cc>
  8034ec:	a0ffffc3 	ldbu	r3,-1(r20)
  8034f0:	a02b883a 	mov	r21,r20
  8034f4:	a53fffc4 	addi	r20,r20,-1
  8034f8:	18803fcc 	andi	r2,r3,255
  8034fc:	1080201c 	xori	r2,r2,128
  803500:	10bfe004 	addi	r2,r2,-128
  803504:	10800e60 	cmpeqi	r2,r2,57
  803508:	103ff71e 	bne	r2,zero,8034e8 <_dtoa_r+0x660>
  80350c:	18c00044 	addi	r3,r3,1
  803510:	a0c00005 	stb	r3,0(r20)
  803514:	00013f06 	br	803a14 <_dtoa_r+0xb8c>
  803518:	04600034 	movhi	r17,32768
  80351c:	8c7fffc4 	addi	r17,r17,-1
  803520:	9462703a 	and	r17,r18,r17
  803524:	00800044 	movi	r2,1
  803528:	8825883a 	mov	r18,r17
  80352c:	80800015 	stw	r2,0(r16)
  803530:	00dffc34 	movhi	r3,32752
  803534:	909ffc2c 	andhi	r2,r18,32752
  803538:	10fe731e 	bne	r2,r3,802f08 <_dtoa_r+0x80>
  80353c:	d9001f17 	ldw	r4,124(sp)
  803540:	00800434 	movhi	r2,16
  803544:	10bfffc4 	addi	r2,r2,-1
  803548:	9084703a 	and	r2,r18,r2
  80354c:	00c9c3c4 	movi	r3,9999
  803550:	20c00015 	stw	r3,0(r4)
  803554:	14e6b03a 	or	r19,r2,r19
  803558:	9800141e 	bne	r19,zero,8035ac <_dtoa_r+0x724>
  80355c:	d8802117 	ldw	r2,132(sp)
  803560:	10041226 	beq	r2,zero,8045ac <_dtoa_r+0x1724>
  803564:	00802074 	movhi	r2,129
  803568:	1007883a 	mov	r3,r2
  80356c:	18fab804 	addi	r3,r3,-5408
  803570:	00802074 	movhi	r2,129
  803574:	d8c00115 	stw	r3,4(sp)
  803578:	10baba04 	addi	r2,r2,-5400
  80357c:	d8c02117 	ldw	r3,132(sp)
  803580:	18800015 	stw	r2,0(r3)
  803584:	003e7206 	br	802f50 <_dtoa_r+0xc8>
  803588:	01400434 	movhi	r5,16
  80358c:	297fffc4 	addi	r5,r5,-1
  803590:	894a703a 	and	r5,r17,r5
  803594:	dd001217 	ldw	r20,72(sp)
  803598:	9809883a 	mov	r4,r19
  80359c:	294ffc34 	orhi	r5,r5,16368
  8035a0:	843f0044 	addi	r16,r16,-1023
  8035a4:	d8000a15 	stw	zero,40(sp)
  8035a8:	003e9306 	br	802ff8 <_dtoa_r+0x170>
  8035ac:	d8802117 	ldw	r2,132(sp)
  8035b0:	1001fe1e 	bne	r2,zero,803dac <_dtoa_r+0xf24>
  8035b4:	00802074 	movhi	r2,129
  8035b8:	10bab704 	addi	r2,r2,-5412
  8035bc:	d8800115 	stw	r2,4(sp)
  8035c0:	003e6306 	br	802f50 <_dtoa_r+0xc8>
  8035c4:	dd800e17 	ldw	r22,56(sp)
  8035c8:	ddc00d17 	ldw	r23,52(sp)
  8035cc:	dc400f17 	ldw	r17,60(sp)
  8035d0:	dcc00c17 	ldw	r19,48(sp)
  8035d4:	d8801317 	ldw	r2,76(sp)
  8035d8:	10006e16 	blt	r2,zero,803794 <_dtoa_r+0x90c>
  8035dc:	d9000417 	ldw	r4,16(sp)
  8035e0:	20c003c8 	cmpgei	r3,r4,15
  8035e4:	18006b1e 	bne	r3,zero,803794 <_dtoa_r+0x90c>
  8035e8:	200690fa 	slli	r3,r4,3
  8035ec:	00802074 	movhi	r2,129
  8035f0:	10baf704 	addi	r2,r2,-5156
  8035f4:	10c5883a 	add	r2,r2,r3
  8035f8:	14000017 	ldw	r16,0(r2)
  8035fc:	14800117 	ldw	r18,4(r2)
  803600:	d8801e17 	ldw	r2,120(sp)
  803604:	1000150e 	bge	r2,zero,80365c <_dtoa_r+0x7d4>
  803608:	d8800517 	ldw	r2,20(sp)
  80360c:	00801316 	blt	zero,r2,80365c <_dtoa_r+0x7d4>
  803610:	d8800517 	ldw	r2,20(sp)
  803614:	1002721e 	bne	r2,zero,803fe0 <_dtoa_r+0x1158>
  803618:	8009883a 	mov	r4,r16
  80361c:	000d883a 	mov	r6,zero
  803620:	01d00534 	movhi	r7,16404
  803624:	900b883a 	mov	r5,r18
  803628:	080d2240 	call	80d224 <__muldf3>
  80362c:	100d883a 	mov	r6,r2
  803630:	180f883a 	mov	r7,r3
  803634:	9809883a 	mov	r4,r19
  803638:	880b883a 	mov	r5,r17
  80363c:	080d13c0 	call	80d13c <__ledf2>
  803640:	0029883a 	mov	r20,zero
  803644:	0021883a 	mov	r16,zero
  803648:	00820216 	blt	zero,r2,803e54 <_dtoa_r+0xfcc>
  80364c:	d8801e17 	ldw	r2,120(sp)
  803650:	dd400117 	ldw	r21,4(sp)
  803654:	00a2303a 	nor	r17,zero,r2
  803658:	00020406 	br	803e6c <_dtoa_r+0xfe4>
  80365c:	800d883a 	mov	r6,r16
  803660:	900f883a 	mov	r7,r18
  803664:	9809883a 	mov	r4,r19
  803668:	880b883a 	mov	r5,r17
  80366c:	080c6a40 	call	80c6a4 <__divdf3>
  803670:	180b883a 	mov	r5,r3
  803674:	1009883a 	mov	r4,r2
  803678:	080e2d80 	call	80e2d8 <__fixdfsi>
  80367c:	1009883a 	mov	r4,r2
  803680:	102b883a 	mov	r21,r2
  803684:	080e3580 	call	80e358 <__floatsidf>
  803688:	800d883a 	mov	r6,r16
  80368c:	900f883a 	mov	r7,r18
  803690:	1009883a 	mov	r4,r2
  803694:	180b883a 	mov	r5,r3
  803698:	080d2240 	call	80d224 <__muldf3>
  80369c:	100d883a 	mov	r6,r2
  8036a0:	9809883a 	mov	r4,r19
  8036a4:	880b883a 	mov	r5,r17
  8036a8:	180f883a 	mov	r7,r3
  8036ac:	080d9d00 	call	80d9d0 <__subdf3>
  8036b0:	d9800117 	ldw	r6,4(sp)
  8036b4:	dd800517 	ldw	r22,20(sp)
  8036b8:	1009883a 	mov	r4,r2
  8036bc:	a8800c04 	addi	r2,r21,48
  8036c0:	30800005 	stb	r2,0(r6)
  8036c4:	b0800060 	cmpeqi	r2,r22,1
  8036c8:	180b883a 	mov	r5,r3
  8036cc:	35000044 	addi	r20,r6,1
  8036d0:	10029f1e 	bne	r2,zero,804150 <_dtoa_r+0x12c8>
  8036d4:	04400044 	movi	r17,1
  8036d8:	ddc00215 	stw	r23,8(sp)
  8036dc:	00001c06 	br	803750 <_dtoa_r+0x8c8>
  8036e0:	800d883a 	mov	r6,r16
  8036e4:	900f883a 	mov	r7,r18
  8036e8:	a809883a 	mov	r4,r21
  8036ec:	980b883a 	mov	r5,r19
  8036f0:	080c6a40 	call	80c6a4 <__divdf3>
  8036f4:	180b883a 	mov	r5,r3
  8036f8:	1009883a 	mov	r4,r2
  8036fc:	080e2d80 	call	80e2d8 <__fixdfsi>
  803700:	1009883a 	mov	r4,r2
  803704:	102f883a 	mov	r23,r2
  803708:	080e3580 	call	80e358 <__floatsidf>
  80370c:	800d883a 	mov	r6,r16
  803710:	900f883a 	mov	r7,r18
  803714:	1009883a 	mov	r4,r2
  803718:	180b883a 	mov	r5,r3
  80371c:	080d2240 	call	80d224 <__muldf3>
  803720:	a809883a 	mov	r4,r21
  803724:	980b883a 	mov	r5,r19
  803728:	100d883a 	mov	r6,r2
  80372c:	180f883a 	mov	r7,r3
  803730:	080d9d00 	call	80d9d0 <__subdf3>
  803734:	b9000c04 	addi	r4,r23,48
  803738:	a1000005 	stb	r4,0(r20)
  80373c:	8c400044 	addi	r17,r17,1
  803740:	a5000044 	addi	r20,r20,1
  803744:	1009883a 	mov	r4,r2
  803748:	180b883a 	mov	r5,r3
  80374c:	8d827e26 	beq	r17,r22,804148 <_dtoa_r+0x12c0>
  803750:	000d883a 	mov	r6,zero
  803754:	01d00934 	movhi	r7,16420
  803758:	080d2240 	call	80d224 <__muldf3>
  80375c:	000d883a 	mov	r6,zero
  803760:	000f883a 	mov	r7,zero
  803764:	1009883a 	mov	r4,r2
  803768:	180b883a 	mov	r5,r3
  80376c:	102b883a 	mov	r21,r2
  803770:	1827883a 	mov	r19,r3
  803774:	080cfd40 	call	80cfd4 <__eqdf2>
  803778:	103fd91e 	bne	r2,zero,8036e0 <_dtoa_r+0x858>
  80377c:	d8800417 	ldw	r2,16(sp)
  803780:	ddc00217 	ldw	r23,8(sp)
  803784:	a02b883a 	mov	r21,r20
  803788:	10800044 	addi	r2,r2,1
  80378c:	d8800415 	stw	r2,16(sp)
  803790:	0000a006 	br	803a14 <_dtoa_r+0xb8c>
  803794:	d8c00717 	ldw	r3,28(sp)
  803798:	1800e326 	beq	r3,zero,803b28 <_dtoa_r+0xca0>
  80379c:	d8c00217 	ldw	r3,8(sp)
  8037a0:	18c00088 	cmpgei	r3,r3,2
  8037a4:	1801e026 	beq	r3,zero,803f28 <_dtoa_r+0x10a0>
  8037a8:	d8800517 	ldw	r2,20(sp)
  8037ac:	153fffc4 	addi	r20,r2,-1
  8037b0:	d8800817 	ldw	r2,32(sp)
  8037b4:	1501bc0e 	bge	r2,r20,803ea8 <_dtoa_r+0x1020>
  8037b8:	d8800817 	ldw	r2,32(sp)
  8037bc:	d8c00317 	ldw	r3,12(sp)
  8037c0:	dd000815 	stw	r20,32(sp)
  8037c4:	a085c83a 	sub	r2,r20,r2
  8037c8:	1885883a 	add	r2,r3,r2
  8037cc:	d8800315 	stw	r2,12(sp)
  8037d0:	0029883a 	mov	r20,zero
  8037d4:	d8800517 	ldw	r2,20(sp)
  8037d8:	10028b16 	blt	r2,zero,804208 <_dtoa_r+0x1380>
  8037dc:	d8c00617 	ldw	r3,24(sp)
  8037e0:	b0ad883a 	add	r22,r22,r2
  8037e4:	1885883a 	add	r2,r3,r2
  8037e8:	1825883a 	mov	r18,r3
  8037ec:	d8800615 	stw	r2,24(sp)
  8037f0:	01400044 	movi	r5,1
  8037f4:	b809883a 	mov	r4,r23
  8037f8:	08050480 	call	805048 <__i2b>
  8037fc:	1021883a 	mov	r16,r2
  803800:	0480080e 	bge	zero,r18,803824 <_dtoa_r+0x99c>
  803804:	0580070e 	bge	zero,r22,803824 <_dtoa_r+0x99c>
  803808:	9005883a 	mov	r2,r18
  80380c:	b4819e16 	blt	r22,r18,803e88 <_dtoa_r+0x1000>
  803810:	d8c00617 	ldw	r3,24(sp)
  803814:	90a5c83a 	sub	r18,r18,r2
  803818:	b0adc83a 	sub	r22,r22,r2
  80381c:	1887c83a 	sub	r3,r3,r2
  803820:	d8c00615 	stw	r3,24(sp)
  803824:	d8800817 	ldw	r2,32(sp)
  803828:	10001426 	beq	r2,zero,80387c <_dtoa_r+0x9f4>
  80382c:	d8800717 	ldw	r2,28(sp)
  803830:	1001ee26 	beq	r2,zero,803fec <_dtoa_r+0x1164>
  803834:	05000e0e 	bge	zero,r20,803870 <_dtoa_r+0x9e8>
  803838:	800b883a 	mov	r5,r16
  80383c:	a00d883a 	mov	r6,r20
  803840:	b809883a 	mov	r4,r23
  803844:	08053bc0 	call	8053bc <__pow5mult>
  803848:	e00d883a 	mov	r6,fp
  80384c:	100b883a 	mov	r5,r2
  803850:	b809883a 	mov	r4,r23
  803854:	1021883a 	mov	r16,r2
  803858:	08050f80 	call	8050f8 <__multiply>
  80385c:	102b883a 	mov	r21,r2
  803860:	e00b883a 	mov	r5,fp
  803864:	b809883a 	mov	r4,r23
  803868:	0804c7c0 	call	804c7c <_Bfree>
  80386c:	a839883a 	mov	fp,r21
  803870:	d8800817 	ldw	r2,32(sp)
  803874:	150dc83a 	sub	r6,r2,r20
  803878:	15025e1e 	bne	r2,r20,8041f4 <_dtoa_r+0x136c>
  80387c:	01400044 	movi	r5,1
  803880:	b809883a 	mov	r4,r23
  803884:	08050480 	call	805048 <__i2b>
  803888:	d9800317 	ldw	r6,12(sp)
  80388c:	1029883a 	mov	r20,r2
  803890:	0180b716 	blt	zero,r6,803b70 <_dtoa_r+0xce8>
  803894:	d8800217 	ldw	r2,8(sp)
  803898:	10800088 	cmpgei	r2,r2,2
  80389c:	10014d26 	beq	r2,zero,803dd4 <_dtoa_r+0xf4c>
  8038a0:	0023883a 	mov	r17,zero
  8038a4:	d8c00317 	ldw	r3,12(sp)
  8038a8:	00800044 	movi	r2,1
  8038ac:	1800b81e 	bne	r3,zero,803b90 <_dtoa_r+0xd08>
  8038b0:	1585883a 	add	r2,r2,r22
  8038b4:	108007cc 	andi	r2,r2,31
  8038b8:	1000a526 	beq	r2,zero,803b50 <_dtoa_r+0xcc8>
  8038bc:	00c00804 	movi	r3,32
  8038c0:	1887c83a 	sub	r3,r3,r2
  8038c4:	19000150 	cmplti	r4,r3,5
  8038c8:	20033c1e 	bne	r4,zero,8045bc <_dtoa_r+0x1734>
  8038cc:	00c00704 	movi	r3,28
  8038d0:	1885c83a 	sub	r2,r3,r2
  8038d4:	d8c00617 	ldw	r3,24(sp)
  8038d8:	90a5883a 	add	r18,r18,r2
  8038dc:	b0ad883a 	add	r22,r22,r2
  8038e0:	1887883a 	add	r3,r3,r2
  8038e4:	d8c00615 	stw	r3,24(sp)
  8038e8:	d8800617 	ldw	r2,24(sp)
  8038ec:	00809216 	blt	zero,r2,803b38 <_dtoa_r+0xcb0>
  8038f0:	0580050e 	bge	zero,r22,803908 <_dtoa_r+0xa80>
  8038f4:	a00b883a 	mov	r5,r20
  8038f8:	b00d883a 	mov	r6,r22
  8038fc:	b809883a 	mov	r4,r23
  803900:	08055040 	call	805504 <__lshift>
  803904:	1029883a 	mov	r20,r2
  803908:	d8800917 	ldw	r2,36(sp)
  80390c:	1001151e 	bne	r2,zero,803d64 <_dtoa_r+0xedc>
  803910:	d8800517 	ldw	r2,20(sp)
  803914:	0081020e 	bge	zero,r2,803d20 <_dtoa_r+0xe98>
  803918:	d8800717 	ldw	r2,28(sp)
  80391c:	1000af1e 	bne	r2,zero,803bdc <_dtoa_r+0xd54>
  803920:	d8800417 	ldw	r2,16(sp)
  803924:	10800044 	addi	r2,r2,1
  803928:	d8800415 	stw	r2,16(sp)
  80392c:	dc800517 	ldw	r18,20(sp)
  803930:	dd400117 	ldw	r21,4(sp)
  803934:	04400044 	movi	r17,1
  803938:	00000706 	br	803958 <_dtoa_r+0xad0>
  80393c:	e00b883a 	mov	r5,fp
  803940:	000f883a 	mov	r7,zero
  803944:	01800284 	movi	r6,10
  803948:	b809883a 	mov	r4,r23
  80394c:	0804ca00 	call	804ca0 <__multadd>
  803950:	1039883a 	mov	fp,r2
  803954:	8c400044 	addi	r17,r17,1
  803958:	a00b883a 	mov	r5,r20
  80395c:	e009883a 	mov	r4,fp
  803960:	0802c680 	call	802c68 <quorem>
  803964:	14c00c04 	addi	r19,r2,48
  803968:	ac45883a 	add	r2,r21,r17
  80396c:	14ffffc5 	stb	r19,-1(r2)
  803970:	8cbff216 	blt	r17,r18,80393c <_dtoa_r+0xab4>
  803974:	d8800517 	ldw	r2,20(sp)
  803978:	0081510e 	bge	zero,r2,803ec0 <_dtoa_r+0x1038>
  80397c:	d8c00117 	ldw	r3,4(sp)
  803980:	0023883a 	mov	r17,zero
  803984:	18ab883a 	add	r21,r3,r2
  803988:	e00b883a 	mov	r5,fp
  80398c:	01800044 	movi	r6,1
  803990:	b809883a 	mov	r4,r23
  803994:	08055040 	call	805504 <__lshift>
  803998:	1009883a 	mov	r4,r2
  80399c:	a00b883a 	mov	r5,r20
  8039a0:	1039883a 	mov	fp,r2
  8039a4:	080568c0 	call	80568c <__mcmp>
  8039a8:	a93fffc3 	ldbu	r4,-1(r21)
  8039ac:	0081490e 	bge	zero,r2,803ed4 <_dtoa_r+0x104c>
  8039b0:	d9400117 	ldw	r5,4(sp)
  8039b4:	00000306 	br	8039c4 <_dtoa_r+0xb3c>
  8039b8:	19415426 	beq	r3,r5,803f0c <_dtoa_r+0x1084>
  8039bc:	193fffc3 	ldbu	r4,-1(r3)
  8039c0:	182b883a 	mov	r21,r3
  8039c4:	20803fcc 	andi	r2,r4,255
  8039c8:	1080201c 	xori	r2,r2,128
  8039cc:	10bfe004 	addi	r2,r2,-128
  8039d0:	10800e60 	cmpeqi	r2,r2,57
  8039d4:	a8ffffc4 	addi	r3,r21,-1
  8039d8:	103ff71e 	bne	r2,zero,8039b8 <_dtoa_r+0xb30>
  8039dc:	21000044 	addi	r4,r4,1
  8039e0:	19000005 	stb	r4,0(r3)
  8039e4:	a00b883a 	mov	r5,r20
  8039e8:	b809883a 	mov	r4,r23
  8039ec:	0804c7c0 	call	804c7c <_Bfree>
  8039f0:	80000826 	beq	r16,zero,803a14 <_dtoa_r+0xb8c>
  8039f4:	88000426 	beq	r17,zero,803a08 <_dtoa_r+0xb80>
  8039f8:	8c000326 	beq	r17,r16,803a08 <_dtoa_r+0xb80>
  8039fc:	880b883a 	mov	r5,r17
  803a00:	b809883a 	mov	r4,r23
  803a04:	0804c7c0 	call	804c7c <_Bfree>
  803a08:	800b883a 	mov	r5,r16
  803a0c:	b809883a 	mov	r4,r23
  803a10:	0804c7c0 	call	804c7c <_Bfree>
  803a14:	e00b883a 	mov	r5,fp
  803a18:	b809883a 	mov	r4,r23
  803a1c:	0804c7c0 	call	804c7c <_Bfree>
  803a20:	d8801f17 	ldw	r2,124(sp)
  803a24:	d8c00417 	ldw	r3,16(sp)
  803a28:	a8000005 	stb	zero,0(r21)
  803a2c:	10c00015 	stw	r3,0(r2)
  803a30:	d8802117 	ldw	r2,132(sp)
  803a34:	103d4626 	beq	r2,zero,802f50 <_dtoa_r+0xc8>
  803a38:	15400015 	stw	r21,0(r2)
  803a3c:	003d4406 	br	802f50 <_dtoa_r+0xc8>
  803a40:	d8000915 	stw	zero,36(sp)
  803a44:	b0002416 	blt	r22,zero,803ad8 <_dtoa_r+0xc50>
  803a48:	d8000615 	stw	zero,24(sp)
  803a4c:	d8800317 	ldw	r2,12(sp)
  803a50:	d8c00217 	ldw	r3,8(sp)
  803a54:	d8000815 	stw	zero,32(sp)
  803a58:	b0ad883a 	add	r22,r22,r2
  803a5c:	d8800415 	stw	r2,16(sp)
  803a60:	188002a8 	cmpgeui	r2,r3,10
  803a64:	103db326 	beq	r2,zero,803134 <_dtoa_r+0x2ac>
  803a68:	00800044 	movi	r2,1
  803a6c:	d8800715 	stw	r2,28(sp)
  803a70:	00bfffc4 	movi	r2,-1
  803a74:	04000044 	movi	r16,1
  803a78:	d8000215 	stw	zero,8(sp)
  803a7c:	d8800515 	stw	r2,20(sp)
  803a80:	d8001e15 	stw	zero,120(sp)
  803a84:	d8800517 	ldw	r2,20(sp)
  803a88:	b8001115 	stw	zero,68(r23)
  803a8c:	000b883a 	mov	r5,zero
  803a90:	d8800b15 	stw	r2,44(sp)
  803a94:	003dc406 	br	8031a8 <_dtoa_r+0x320>
  803a98:	188000e0 	cmpeqi	r2,r3,3
  803a9c:	d8000715 	stw	zero,28(sp)
  803aa0:	1002ac26 	beq	r2,zero,804554 <_dtoa_r+0x16cc>
  803aa4:	d8801e17 	ldw	r2,120(sp)
  803aa8:	d8c00417 	ldw	r3,16(sp)
  803aac:	10c5883a 	add	r2,r2,r3
  803ab0:	d8800b15 	stw	r2,44(sp)
  803ab4:	10800044 	addi	r2,r2,1
  803ab8:	d8800515 	stw	r2,20(sp)
  803abc:	100d883a 	mov	r6,r2
  803ac0:	00bdae16 	blt	zero,r2,80317c <_dtoa_r+0x2f4>
  803ac4:	01800044 	movi	r6,1
  803ac8:	003dac06 	br	80317c <_dtoa_r+0x2f4>
  803acc:	00800044 	movi	r2,1
  803ad0:	d8800915 	stw	r2,36(sp)
  803ad4:	b03d890e 	bge	r22,zero,8030fc <_dtoa_r+0x274>
  803ad8:	00800044 	movi	r2,1
  803adc:	1405c83a 	sub	r2,r2,r16
  803ae0:	d8800615 	stw	r2,24(sp)
  803ae4:	002d883a 	mov	r22,zero
  803ae8:	003d8506 	br	803100 <_dtoa_r+0x278>
  803aec:	a809883a 	mov	r4,r21
  803af0:	080e3580 	call	80e358 <__floatsidf>
  803af4:	900d883a 	mov	r6,r18
  803af8:	b00f883a 	mov	r7,r22
  803afc:	1009883a 	mov	r4,r2
  803b00:	180b883a 	mov	r5,r3
  803b04:	080cfd40 	call	80cfd4 <__eqdf2>
  803b08:	103d6926 	beq	r2,zero,8030b0 <_dtoa_r+0x228>
  803b0c:	a8bfffc4 	addi	r2,r21,-1
  803b10:	d8800315 	stw	r2,12(sp)
  803b14:	003d6606 	br	8030b0 <_dtoa_r+0x228>
  803b18:	00802074 	movhi	r2,129
  803b1c:	10baae04 	addi	r2,r2,-5448
  803b20:	d8800115 	stw	r2,4(sp)
  803b24:	003d0a06 	br	802f50 <_dtoa_r+0xc8>
  803b28:	dd000817 	ldw	r20,32(sp)
  803b2c:	dc800617 	ldw	r18,24(sp)
  803b30:	0021883a 	mov	r16,zero
  803b34:	003f3206 	br	803800 <_dtoa_r+0x978>
  803b38:	e00b883a 	mov	r5,fp
  803b3c:	100d883a 	mov	r6,r2
  803b40:	b809883a 	mov	r4,r23
  803b44:	08055040 	call	805504 <__lshift>
  803b48:	1039883a 	mov	fp,r2
  803b4c:	003f6806 	br	8038f0 <_dtoa_r+0xa68>
  803b50:	00800704 	movi	r2,28
  803b54:	003f5f06 	br	8038d4 <_dtoa_r+0xa4c>
  803b58:	01000804 	movi	r4,32
  803b5c:	2089c83a 	sub	r4,r4,r2
  803b60:	9908983a 	sll	r4,r19,r4
  803b64:	003d1d06 	br	802fdc <_dtoa_r+0x154>
  803b68:	04000044 	movi	r16,1
  803b6c:	003d7606 	br	803148 <_dtoa_r+0x2c0>
  803b70:	100b883a 	mov	r5,r2
  803b74:	b809883a 	mov	r4,r23
  803b78:	08053bc0 	call	8053bc <__pow5mult>
  803b7c:	d8c00217 	ldw	r3,8(sp)
  803b80:	1029883a 	mov	r20,r2
  803b84:	18c00090 	cmplti	r3,r3,2
  803b88:	1801511e 	bne	r3,zero,8040d0 <_dtoa_r+0x1248>
  803b8c:	0023883a 	mov	r17,zero
  803b90:	a0800417 	ldw	r2,16(r20)
  803b94:	10800104 	addi	r2,r2,4
  803b98:	100490ba 	slli	r2,r2,2
  803b9c:	a085883a 	add	r2,r20,r2
  803ba0:	11000017 	ldw	r4,0(r2)
  803ba4:	0804f340 	call	804f34 <__hi0bits>
  803ba8:	00c00804 	movi	r3,32
  803bac:	1885c83a 	sub	r2,r3,r2
  803bb0:	003f3f06 	br	8038b0 <_dtoa_r+0xa28>
  803bb4:	800b883a 	mov	r5,r16
  803bb8:	000f883a 	mov	r7,zero
  803bbc:	01800284 	movi	r6,10
  803bc0:	b809883a 	mov	r4,r23
  803bc4:	0804ca00 	call	804ca0 <__multadd>
  803bc8:	1021883a 	mov	r16,r2
  803bcc:	d8800b17 	ldw	r2,44(sp)
  803bd0:	00824b0e 	bge	zero,r2,804500 <_dtoa_r+0x1678>
  803bd4:	dd400415 	stw	r21,16(sp)
  803bd8:	d8800515 	stw	r2,20(sp)
  803bdc:	0480ac16 	blt	zero,r18,803e90 <_dtoa_r+0x1008>
  803be0:	8801731e 	bne	r17,zero,8041b0 <_dtoa_r+0x1328>
  803be4:	8025883a 	mov	r18,r16
  803be8:	dd800117 	ldw	r22,4(sp)
  803bec:	d9000517 	ldw	r4,20(sp)
  803bf0:	98c0004c 	andi	r3,r19,1
  803bf4:	b0bfffc4 	addi	r2,r22,-1
  803bf8:	1105883a 	add	r2,r2,r4
  803bfc:	d8800515 	stw	r2,20(sp)
  803c00:	d8800217 	ldw	r2,8(sp)
  803c04:	d8c00815 	stw	r3,32(sp)
  803c08:	1884b03a 	or	r2,r3,r2
  803c0c:	d8800715 	stw	r2,28(sp)
  803c10:	00002906 	br	803cb8 <_dtoa_r+0xe30>
  803c14:	e009883a 	mov	r4,fp
  803c18:	080568c0 	call	80568c <__mcmp>
  803c1c:	980b883a 	mov	r5,r19
  803c20:	b809883a 	mov	r4,r23
  803c24:	d8800315 	stw	r2,12(sp)
  803c28:	0804c7c0 	call	804c7c <_Bfree>
  803c2c:	d8800317 	ldw	r2,12(sp)
  803c30:	1000021e 	bne	r2,zero,803c3c <_dtoa_r+0xdb4>
  803c34:	d8c00717 	ldw	r3,28(sp)
  803c38:	18022326 	beq	r3,zero,8044c8 <_dtoa_r+0x1640>
  803c3c:	b4c00044 	addi	r19,r22,1
  803c40:	88012916 	blt	r17,zero,8040e8 <_dtoa_r+0x1260>
  803c44:	d8c00217 	ldw	r3,8(sp)
  803c48:	88e2b03a 	or	r17,r17,r3
  803c4c:	d8c00817 	ldw	r3,32(sp)
  803c50:	1c62b03a 	or	r17,r3,r17
  803c54:	88012426 	beq	r17,zero,8040e8 <_dtoa_r+0x1260>
  803c58:	00816f16 	blt	zero,r2,804218 <_dtoa_r+0x1390>
  803c5c:	d8800517 	ldw	r2,20(sp)
  803c60:	b5400005 	stb	r21,0(r22)
  803c64:	15817926 	beq	r2,r22,80424c <_dtoa_r+0x13c4>
  803c68:	e00b883a 	mov	r5,fp
  803c6c:	000f883a 	mov	r7,zero
  803c70:	01800284 	movi	r6,10
  803c74:	b809883a 	mov	r4,r23
  803c78:	0804ca00 	call	804ca0 <__multadd>
  803c7c:	1039883a 	mov	fp,r2
  803c80:	800b883a 	mov	r5,r16
  803c84:	000f883a 	mov	r7,zero
  803c88:	01800284 	movi	r6,10
  803c8c:	b809883a 	mov	r4,r23
  803c90:	84801f26 	beq	r16,r18,803d10 <_dtoa_r+0xe88>
  803c94:	0804ca00 	call	804ca0 <__multadd>
  803c98:	900b883a 	mov	r5,r18
  803c9c:	000f883a 	mov	r7,zero
  803ca0:	01800284 	movi	r6,10
  803ca4:	b809883a 	mov	r4,r23
  803ca8:	1021883a 	mov	r16,r2
  803cac:	0804ca00 	call	804ca0 <__multadd>
  803cb0:	1025883a 	mov	r18,r2
  803cb4:	982d883a 	mov	r22,r19
  803cb8:	a00b883a 	mov	r5,r20
  803cbc:	e009883a 	mov	r4,fp
  803cc0:	0802c680 	call	802c68 <quorem>
  803cc4:	800b883a 	mov	r5,r16
  803cc8:	e009883a 	mov	r4,fp
  803ccc:	102b883a 	mov	r21,r2
  803cd0:	d8800615 	stw	r2,24(sp)
  803cd4:	080568c0 	call	80568c <__mcmp>
  803cd8:	a00b883a 	mov	r5,r20
  803cdc:	900d883a 	mov	r6,r18
  803ce0:	b809883a 	mov	r4,r23
  803ce4:	1023883a 	mov	r17,r2
  803ce8:	08056e40 	call	8056e4 <__mdiff>
  803cec:	1027883a 	mov	r19,r2
  803cf0:	10800317 	ldw	r2,12(r2)
  803cf4:	ad400c04 	addi	r21,r21,48
  803cf8:	980b883a 	mov	r5,r19
  803cfc:	103fc526 	beq	r2,zero,803c14 <_dtoa_r+0xd8c>
  803d00:	b809883a 	mov	r4,r23
  803d04:	0804c7c0 	call	804c7c <_Bfree>
  803d08:	00800044 	movi	r2,1
  803d0c:	003fcb06 	br	803c3c <_dtoa_r+0xdb4>
  803d10:	0804ca00 	call	804ca0 <__multadd>
  803d14:	1021883a 	mov	r16,r2
  803d18:	1025883a 	mov	r18,r2
  803d1c:	003fe506 	br	803cb4 <_dtoa_r+0xe2c>
  803d20:	d8800217 	ldw	r2,8(sp)
  803d24:	108000d0 	cmplti	r2,r2,3
  803d28:	10003e26 	beq	r2,zero,803e24 <_dtoa_r+0xf9c>
  803d2c:	d8800717 	ldw	r2,28(sp)
  803d30:	103faa1e 	bne	r2,zero,803bdc <_dtoa_r+0xd54>
  803d34:	a00b883a 	mov	r5,r20
  803d38:	e009883a 	mov	r4,fp
  803d3c:	0802c680 	call	802c68 <quorem>
  803d40:	14c00c04 	addi	r19,r2,48
  803d44:	d8800117 	ldw	r2,4(sp)
  803d48:	0023883a 	mov	r17,zero
  803d4c:	15400044 	addi	r21,r2,1
  803d50:	14c00005 	stb	r19,0(r2)
  803d54:	d8800417 	ldw	r2,16(sp)
  803d58:	10800044 	addi	r2,r2,1
  803d5c:	d8800415 	stw	r2,16(sp)
  803d60:	003f0906 	br	803988 <_dtoa_r+0xb00>
  803d64:	a00b883a 	mov	r5,r20
  803d68:	e009883a 	mov	r4,fp
  803d6c:	080568c0 	call	80568c <__mcmp>
  803d70:	103ee70e 	bge	r2,zero,803910 <_dtoa_r+0xa88>
  803d74:	e00b883a 	mov	r5,fp
  803d78:	000f883a 	mov	r7,zero
  803d7c:	01800284 	movi	r6,10
  803d80:	b809883a 	mov	r4,r23
  803d84:	0804ca00 	call	804ca0 <__multadd>
  803d88:	d8c00417 	ldw	r3,16(sp)
  803d8c:	1039883a 	mov	fp,r2
  803d90:	d8800717 	ldw	r2,28(sp)
  803d94:	1d7fffc4 	addi	r21,r3,-1
  803d98:	103f861e 	bne	r2,zero,803bb4 <_dtoa_r+0xd2c>
  803d9c:	d8800b17 	ldw	r2,44(sp)
  803da0:	0081d20e 	bge	zero,r2,8044ec <_dtoa_r+0x1664>
  803da4:	d8800515 	stw	r2,20(sp)
  803da8:	003ee006 	br	80392c <_dtoa_r+0xaa4>
  803dac:	00802074 	movhi	r2,129
  803db0:	1007883a 	mov	r3,r2
  803db4:	18fab704 	addi	r3,r3,-5412
  803db8:	00802074 	movhi	r2,129
  803dbc:	d8c00115 	stw	r3,4(sp)
  803dc0:	10bab7c4 	addi	r2,r2,-5409
  803dc4:	003ded06 	br	80357c <_dtoa_r+0x6f4>
  803dc8:	00800044 	movi	r2,1
  803dcc:	d8800715 	stw	r2,28(sp)
  803dd0:	003f3406 	br	803aa4 <_dtoa_r+0xc1c>
  803dd4:	983eb21e 	bne	r19,zero,8038a0 <_dtoa_r+0xa18>
  803dd8:	00800434 	movhi	r2,16
  803ddc:	10bfffc4 	addi	r2,r2,-1
  803de0:	8884703a 	and	r2,r17,r2
  803de4:	103eae1e 	bne	r2,zero,8038a0 <_dtoa_r+0xa18>
  803de8:	8c5ffc2c 	andhi	r17,r17,32752
  803dec:	883eac26 	beq	r17,zero,8038a0 <_dtoa_r+0xa18>
  803df0:	d8800617 	ldw	r2,24(sp)
  803df4:	b5800044 	addi	r22,r22,1
  803df8:	04400044 	movi	r17,1
  803dfc:	10800044 	addi	r2,r2,1
  803e00:	d8800615 	stw	r2,24(sp)
  803e04:	003ea706 	br	8038a4 <_dtoa_r+0xa1c>
  803e08:	00800044 	movi	r2,1
  803e0c:	d8800515 	stw	r2,20(sp)
  803e10:	d8801e15 	stw	r2,120(sp)
  803e14:	003f1b06 	br	803a84 <_dtoa_r+0xbfc>
  803e18:	d8800b17 	ldw	r2,44(sp)
  803e1c:	dd400415 	stw	r21,16(sp)
  803e20:	d8800515 	stw	r2,20(sp)
  803e24:	d8800517 	ldw	r2,20(sp)
  803e28:	103e081e 	bne	r2,zero,80364c <_dtoa_r+0x7c4>
  803e2c:	a00b883a 	mov	r5,r20
  803e30:	b809883a 	mov	r4,r23
  803e34:	000f883a 	mov	r7,zero
  803e38:	01800144 	movi	r6,5
  803e3c:	0804ca00 	call	804ca0 <__multadd>
  803e40:	100b883a 	mov	r5,r2
  803e44:	e009883a 	mov	r4,fp
  803e48:	1029883a 	mov	r20,r2
  803e4c:	080568c0 	call	80568c <__mcmp>
  803e50:	00bdfe0e 	bge	zero,r2,80364c <_dtoa_r+0x7c4>
  803e54:	d8c00117 	ldw	r3,4(sp)
  803e58:	00800c44 	movi	r2,49
  803e5c:	18800005 	stb	r2,0(r3)
  803e60:	d8800417 	ldw	r2,16(sp)
  803e64:	1d400044 	addi	r21,r3,1
  803e68:	14400044 	addi	r17,r2,1
  803e6c:	a00b883a 	mov	r5,r20
  803e70:	b809883a 	mov	r4,r23
  803e74:	0804c7c0 	call	804c7c <_Bfree>
  803e78:	88800044 	addi	r2,r17,1
  803e7c:	d8800415 	stw	r2,16(sp)
  803e80:	803ee11e 	bne	r16,zero,803a08 <_dtoa_r+0xb80>
  803e84:	003ee306 	br	803a14 <_dtoa_r+0xb8c>
  803e88:	b005883a 	mov	r2,r22
  803e8c:	003e6006 	br	803810 <_dtoa_r+0x988>
  803e90:	800b883a 	mov	r5,r16
  803e94:	900d883a 	mov	r6,r18
  803e98:	b809883a 	mov	r4,r23
  803e9c:	08055040 	call	805504 <__lshift>
  803ea0:	1021883a 	mov	r16,r2
  803ea4:	003f4e06 	br	803be0 <_dtoa_r+0xd58>
  803ea8:	1529c83a 	sub	r20,r2,r20
  803eac:	003e4906 	br	8037d4 <_dtoa_r+0x94c>
  803eb0:	dcc00c15 	stw	r19,48(sp)
  803eb4:	8825883a 	mov	r18,r17
  803eb8:	05400084 	movi	r21,2
  803ebc:	003cdf06 	br	80323c <_dtoa_r+0x3b4>
  803ec0:	00800044 	movi	r2,1
  803ec4:	003ead06 	br	80397c <_dtoa_r+0xaf4>
  803ec8:	00800044 	movi	r2,1
  803ecc:	d8800715 	stw	r2,28(sp)
  803ed0:	003ca506 	br	803168 <_dtoa_r+0x2e0>
  803ed4:	1000021e 	bne	r2,zero,803ee0 <_dtoa_r+0x1058>
  803ed8:	98c0004c 	andi	r3,r19,1
  803edc:	183eb41e 	bne	r3,zero,8039b0 <_dtoa_r+0xb28>
  803ee0:	2005883a 	mov	r2,r4
  803ee4:	00000206 	br	803ef0 <_dtoa_r+0x1068>
  803ee8:	a8bfff83 	ldbu	r2,-2(r21)
  803eec:	182b883a 	mov	r21,r3
  803ef0:	10803fcc 	andi	r2,r2,255
  803ef4:	1080201c 	xori	r2,r2,128
  803ef8:	10bfe004 	addi	r2,r2,-128
  803efc:	10800c18 	cmpnei	r2,r2,48
  803f00:	a8ffffc4 	addi	r3,r21,-1
  803f04:	103ff826 	beq	r2,zero,803ee8 <_dtoa_r+0x1060>
  803f08:	003eb606 	br	8039e4 <_dtoa_r+0xb5c>
  803f0c:	d8c00117 	ldw	r3,4(sp)
  803f10:	00800c44 	movi	r2,49
  803f14:	18800005 	stb	r2,0(r3)
  803f18:	d8800417 	ldw	r2,16(sp)
  803f1c:	10800044 	addi	r2,r2,1
  803f20:	d8800415 	stw	r2,16(sp)
  803f24:	003eaf06 	br	8039e4 <_dtoa_r+0xb5c>
  803f28:	d8c00a17 	ldw	r3,40(sp)
  803f2c:	18011826 	beq	r3,zero,804390 <_dtoa_r+0x1508>
  803f30:	d8c00617 	ldw	r3,24(sp)
  803f34:	10810cc4 	addi	r2,r2,1075
  803f38:	b0ad883a 	add	r22,r22,r2
  803f3c:	1885883a 	add	r2,r3,r2
  803f40:	dd000817 	ldw	r20,32(sp)
  803f44:	1825883a 	mov	r18,r3
  803f48:	d8800615 	stw	r2,24(sp)
  803f4c:	003e2806 	br	8037f0 <_dtoa_r+0x968>
  803f50:	a809883a 	mov	r4,r21
  803f54:	080e3580 	call	80e358 <__floatsidf>
  803f58:	800d883a 	mov	r6,r16
  803f5c:	900f883a 	mov	r7,r18
  803f60:	1009883a 	mov	r4,r2
  803f64:	180b883a 	mov	r5,r3
  803f68:	080d2240 	call	80d224 <__muldf3>
  803f6c:	000d883a 	mov	r6,zero
  803f70:	01d00734 	movhi	r7,16412
  803f74:	1009883a 	mov	r4,r2
  803f78:	180b883a 	mov	r5,r3
  803f7c:	080bdb40 	call	80bdb4 <__adddf3>
  803f80:	1029883a 	mov	r20,r2
  803f84:	00bf3034 	movhi	r2,64704
  803f88:	1885883a 	add	r2,r3,r2
  803f8c:	d8800c15 	stw	r2,48(sp)
  803f90:	8009883a 	mov	r4,r16
  803f94:	900b883a 	mov	r5,r18
  803f98:	000d883a 	mov	r6,zero
  803f9c:	01d00534 	movhi	r7,16404
  803fa0:	080d9d00 	call	80d9d0 <__subdf3>
  803fa4:	dd400c17 	ldw	r21,48(sp)
  803fa8:	a00d883a 	mov	r6,r20
  803fac:	1009883a 	mov	r4,r2
  803fb0:	a80f883a 	mov	r7,r21
  803fb4:	180b883a 	mov	r5,r3
  803fb8:	1025883a 	mov	r18,r2
  803fbc:	1821883a 	mov	r16,r3
  803fc0:	080d0540 	call	80d054 <__gedf2>
  803fc4:	00812f16 	blt	zero,r2,804484 <_dtoa_r+0x15fc>
  803fc8:	a9e0003c 	xorhi	r7,r21,32768
  803fcc:	a00d883a 	mov	r6,r20
  803fd0:	9009883a 	mov	r4,r18
  803fd4:	800b883a 	mov	r5,r16
  803fd8:	080d13c0 	call	80d13c <__ledf2>
  803fdc:	103d7d0e 	bge	r2,zero,8035d4 <_dtoa_r+0x74c>
  803fe0:	0029883a 	mov	r20,zero
  803fe4:	0021883a 	mov	r16,zero
  803fe8:	003d9806 	br	80364c <_dtoa_r+0x7c4>
  803fec:	d9800817 	ldw	r6,32(sp)
  803ff0:	e00b883a 	mov	r5,fp
  803ff4:	b809883a 	mov	r4,r23
  803ff8:	08053bc0 	call	8053bc <__pow5mult>
  803ffc:	1039883a 	mov	fp,r2
  804000:	003e1e06 	br	80387c <_dtoa_r+0x9f4>
  804004:	d8800417 	ldw	r2,16(sp)
  804008:	1000ed26 	beq	r2,zero,8043c0 <_dtoa_r+0x1538>
  80400c:	00a9c83a 	sub	r20,zero,r2
  804010:	a08003cc 	andi	r2,r20,15
  804014:	100690fa 	slli	r3,r2,3
  804018:	00802074 	movhi	r2,129
  80401c:	10baf704 	addi	r2,r2,-5156
  804020:	10c5883a 	add	r2,r2,r3
  804024:	11800017 	ldw	r6,0(r2)
  804028:	11c00117 	ldw	r7,4(r2)
  80402c:	a029d13a 	srai	r20,r20,4
  804030:	9809883a 	mov	r4,r19
  804034:	880b883a 	mov	r5,r17
  804038:	080d2240 	call	80d224 <__muldf3>
  80403c:	1021883a 	mov	r16,r2
  804040:	1825883a 	mov	r18,r3
  804044:	a0013826 	beq	r20,zero,804528 <_dtoa_r+0x16a0>
  804048:	02002074 	movhi	r8,129
  80404c:	05400084 	movi	r21,2
  804050:	423aed04 	addi	r8,r8,-5196
  804054:	1009883a 	mov	r4,r2
  804058:	9805883a 	mov	r2,r19
  80405c:	180b883a 	mov	r5,r3
  804060:	dc000c15 	stw	r16,48(sp)
  804064:	8827883a 	mov	r19,r17
  804068:	0007883a 	mov	r3,zero
  80406c:	a823883a 	mov	r17,r21
  804070:	4021883a 	mov	r16,r8
  804074:	102b883a 	mov	r21,r2
  804078:	a180004c 	andi	r6,r20,1
  80407c:	30000726 	beq	r6,zero,80409c <_dtoa_r+0x1214>
  804080:	81800017 	ldw	r6,0(r16)
  804084:	81c00117 	ldw	r7,4(r16)
  804088:	8c400044 	addi	r17,r17,1
  80408c:	080d2240 	call	80d224 <__muldf3>
  804090:	180b883a 	mov	r5,r3
  804094:	1009883a 	mov	r4,r2
  804098:	00c00044 	movi	r3,1
  80409c:	a029d07a 	srai	r20,r20,1
  8040a0:	84000204 	addi	r16,r16,8
  8040a4:	a03ff41e 	bne	r20,zero,804078 <_dtoa_r+0x11f0>
  8040a8:	a805883a 	mov	r2,r21
  8040ac:	18c03fcc 	andi	r3,r3,255
  8040b0:	882b883a 	mov	r21,r17
  8040b4:	dc000c17 	ldw	r16,48(sp)
  8040b8:	9823883a 	mov	r17,r19
  8040bc:	1027883a 	mov	r19,r2
  8040c0:	183c7726 	beq	r3,zero,8032a0 <_dtoa_r+0x418>
  8040c4:	2021883a 	mov	r16,r4
  8040c8:	2825883a 	mov	r18,r5
  8040cc:	003c7406 	br	8032a0 <_dtoa_r+0x418>
  8040d0:	983eae1e 	bne	r19,zero,803b8c <_dtoa_r+0xd04>
  8040d4:	00800434 	movhi	r2,16
  8040d8:	10bfffc4 	addi	r2,r2,-1
  8040dc:	8884703a 	and	r2,r17,r2
  8040e0:	103f4126 	beq	r2,zero,803de8 <_dtoa_r+0xf60>
  8040e4:	003ea906 	br	803b8c <_dtoa_r+0xd04>
  8040e8:	9807883a 	mov	r3,r19
  8040ec:	a827883a 	mov	r19,r21
  8040f0:	182b883a 	mov	r21,r3
  8040f4:	d8c00417 	ldw	r3,16(sp)
  8040f8:	18c00044 	addi	r3,r3,1
  8040fc:	d8c00415 	stw	r3,16(sp)
  804100:	00800d0e 	bge	zero,r2,804138 <_dtoa_r+0x12b0>
  804104:	e00b883a 	mov	r5,fp
  804108:	b809883a 	mov	r4,r23
  80410c:	01800044 	movi	r6,1
  804110:	08055040 	call	805504 <__lshift>
  804114:	a00b883a 	mov	r5,r20
  804118:	1009883a 	mov	r4,r2
  80411c:	1039883a 	mov	fp,r2
  804120:	080568c0 	call	80568c <__mcmp>
  804124:	0080df0e 	bge	zero,r2,8044a4 <_dtoa_r+0x161c>
  804128:	98c00e60 	cmpeqi	r3,r19,57
  80412c:	1800ce1e 	bne	r3,zero,804468 <_dtoa_r+0x15e0>
  804130:	d8800617 	ldw	r2,24(sp)
  804134:	14c00c44 	addi	r19,r2,49
  804138:	8023883a 	mov	r17,r16
  80413c:	b4c00005 	stb	r19,0(r22)
  804140:	9021883a 	mov	r16,r18
  804144:	003e2706 	br	8039e4 <_dtoa_r+0xb5c>
  804148:	b82b883a 	mov	r21,r23
  80414c:	ddc00217 	ldw	r23,8(sp)
  804150:	200d883a 	mov	r6,r4
  804154:	280f883a 	mov	r7,r5
  804158:	080bdb40 	call	80bdb4 <__adddf3>
  80415c:	180b883a 	mov	r5,r3
  804160:	800d883a 	mov	r6,r16
  804164:	900f883a 	mov	r7,r18
  804168:	1009883a 	mov	r4,r2
  80416c:	1823883a 	mov	r17,r3
  804170:	1027883a 	mov	r19,r2
  804174:	080d0540 	call	80d054 <__gedf2>
  804178:	d8c00417 	ldw	r3,16(sp)
  80417c:	18c00044 	addi	r3,r3,1
  804180:	d8c00415 	stw	r3,16(sp)
  804184:	00808c16 	blt	zero,r2,8043b8 <_dtoa_r+0x1530>
  804188:	800d883a 	mov	r6,r16
  80418c:	900f883a 	mov	r7,r18
  804190:	9809883a 	mov	r4,r19
  804194:	880b883a 	mov	r5,r17
  804198:	080cfd40 	call	80cfd4 <__eqdf2>
  80419c:	1000021e 	bne	r2,zero,8041a8 <_dtoa_r+0x1320>
  8041a0:	ad40004c 	andi	r21,r21,1
  8041a4:	a800841e 	bne	r21,zero,8043b8 <_dtoa_r+0x1530>
  8041a8:	a02b883a 	mov	r21,r20
  8041ac:	003e1906 	br	803a14 <_dtoa_r+0xb8c>
  8041b0:	81400117 	ldw	r5,4(r16)
  8041b4:	b809883a 	mov	r4,r23
  8041b8:	0804bd80 	call	804bd8 <_Balloc>
  8041bc:	1023883a 	mov	r17,r2
  8041c0:	1000f326 	beq	r2,zero,804590 <_dtoa_r+0x1708>
  8041c4:	81800417 	ldw	r6,16(r16)
  8041c8:	81400304 	addi	r5,r16,12
  8041cc:	11000304 	addi	r4,r2,12
  8041d0:	31800084 	addi	r6,r6,2
  8041d4:	300c90ba 	slli	r6,r6,2
  8041d8:	0804ad80 	call	804ad8 <memcpy>
  8041dc:	01800044 	movi	r6,1
  8041e0:	880b883a 	mov	r5,r17
  8041e4:	b809883a 	mov	r4,r23
  8041e8:	08055040 	call	805504 <__lshift>
  8041ec:	1025883a 	mov	r18,r2
  8041f0:	003e7d06 	br	803be8 <_dtoa_r+0xd60>
  8041f4:	e00b883a 	mov	r5,fp
  8041f8:	b809883a 	mov	r4,r23
  8041fc:	08053bc0 	call	8053bc <__pow5mult>
  804200:	1039883a 	mov	fp,r2
  804204:	003d9d06 	br	80387c <_dtoa_r+0x9f4>
  804208:	d8800617 	ldw	r2,24(sp)
  80420c:	d8c00517 	ldw	r3,20(sp)
  804210:	10e5c83a 	sub	r18,r2,r3
  804214:	003d7606 	br	8037f0 <_dtoa_r+0x968>
  804218:	d8c00417 	ldw	r3,16(sp)
  80421c:	9805883a 	mov	r2,r19
  804220:	a827883a 	mov	r19,r21
  804224:	18c00044 	addi	r3,r3,1
  804228:	102b883a 	mov	r21,r2
  80422c:	d8c00415 	stw	r3,16(sp)
  804230:	98800e58 	cmpnei	r2,r19,57
  804234:	10008c26 	beq	r2,zero,804468 <_dtoa_r+0x15e0>
  804238:	98c00044 	addi	r3,r19,1
  80423c:	8023883a 	mov	r17,r16
  804240:	b0c00005 	stb	r3,0(r22)
  804244:	9021883a 	mov	r16,r18
  804248:	003de606 	br	8039e4 <_dtoa_r+0xb5c>
  80424c:	9805883a 	mov	r2,r19
  804250:	a827883a 	mov	r19,r21
  804254:	102b883a 	mov	r21,r2
  804258:	d8800417 	ldw	r2,16(sp)
  80425c:	8023883a 	mov	r17,r16
  804260:	9021883a 	mov	r16,r18
  804264:	10800044 	addi	r2,r2,1
  804268:	d8800415 	stw	r2,16(sp)
  80426c:	003dc606 	br	803988 <_dtoa_r+0xb00>
  804270:	d9400c17 	ldw	r5,48(sp)
  804274:	a009883a 	mov	r4,r20
  804278:	080d2240 	call	80d224 <__muldf3>
  80427c:	d9800d17 	ldw	r6,52(sp)
  804280:	d9400117 	ldw	r5,4(sp)
  804284:	d9001017 	ldw	r4,64(sp)
  804288:	d8800c15 	stw	r2,48(sp)
  80428c:	d8c00d15 	stw	r3,52(sp)
  804290:	29000005 	stb	r4,0(r5)
  804294:	31000058 	cmpnei	r4,r6,1
  804298:	29a9883a 	add	r20,r5,r6
  80429c:	2000a026 	beq	r4,zero,804520 <_dtoa_r+0x1698>
  8042a0:	dc400e15 	stw	r17,56(sp)
  8042a4:	8009883a 	mov	r4,r16
  8042a8:	900b883a 	mov	r5,r18
  8042ac:	a823883a 	mov	r17,r21
  8042b0:	000d883a 	mov	r6,zero
  8042b4:	01d00934 	movhi	r7,16420
  8042b8:	080d2240 	call	80d224 <__muldf3>
  8042bc:	180b883a 	mov	r5,r3
  8042c0:	1009883a 	mov	r4,r2
  8042c4:	1825883a 	mov	r18,r3
  8042c8:	102b883a 	mov	r21,r2
  8042cc:	080e2d80 	call	80e2d8 <__fixdfsi>
  8042d0:	1009883a 	mov	r4,r2
  8042d4:	1021883a 	mov	r16,r2
  8042d8:	080e3580 	call	80e358 <__floatsidf>
  8042dc:	a809883a 	mov	r4,r21
  8042e0:	900b883a 	mov	r5,r18
  8042e4:	100d883a 	mov	r6,r2
  8042e8:	180f883a 	mov	r7,r3
  8042ec:	8c400044 	addi	r17,r17,1
  8042f0:	84000c04 	addi	r16,r16,48
  8042f4:	080d9d00 	call	80d9d0 <__subdf3>
  8042f8:	8c3fffc5 	stb	r16,-1(r17)
  8042fc:	1009883a 	mov	r4,r2
  804300:	180b883a 	mov	r5,r3
  804304:	a47fea1e 	bne	r20,r17,8042b0 <_dtoa_r+0x1428>
  804308:	dc400e17 	ldw	r17,56(sp)
  80430c:	1021883a 	mov	r16,r2
  804310:	1825883a 	mov	r18,r3
  804314:	d9000c17 	ldw	r4,48(sp)
  804318:	d9400d17 	ldw	r5,52(sp)
  80431c:	000d883a 	mov	r6,zero
  804320:	01cff834 	movhi	r7,16352
  804324:	080bdb40 	call	80bdb4 <__adddf3>
  804328:	800d883a 	mov	r6,r16
  80432c:	900f883a 	mov	r7,r18
  804330:	1009883a 	mov	r4,r2
  804334:	180b883a 	mov	r5,r3
  804338:	080d13c0 	call	80d13c <__ledf2>
  80433c:	10005416 	blt	r2,zero,804490 <_dtoa_r+0x1608>
  804340:	d9800c17 	ldw	r6,48(sp)
  804344:	d9c00d17 	ldw	r7,52(sp)
  804348:	0009883a 	mov	r4,zero
  80434c:	014ff834 	movhi	r5,16352
  804350:	080d9d00 	call	80d9d0 <__subdf3>
  804354:	800d883a 	mov	r6,r16
  804358:	900f883a 	mov	r7,r18
  80435c:	1009883a 	mov	r4,r2
  804360:	180b883a 	mov	r5,r3
  804364:	080d0540 	call	80d054 <__gedf2>
  804368:	00bc9a0e 	bge	zero,r2,8035d4 <_dtoa_r+0x74c>
  80436c:	a0bfffc7 	ldb	r2,-1(r20)
  804370:	a02b883a 	mov	r21,r20
  804374:	a53fffc4 	addi	r20,r20,-1
  804378:	10800c20 	cmpeqi	r2,r2,48
  80437c:	103ffb1e 	bne	r2,zero,80436c <_dtoa_r+0x14e4>
  804380:	d8801117 	ldw	r2,68(sp)
  804384:	10800044 	addi	r2,r2,1
  804388:	d8800415 	stw	r2,16(sp)
  80438c:	003da106 	br	803a14 <_dtoa_r+0xb8c>
  804390:	d8c01217 	ldw	r3,72(sp)
  804394:	d9000617 	ldw	r4,24(sp)
  804398:	00800d84 	movi	r2,54
  80439c:	10c5c83a 	sub	r2,r2,r3
  8043a0:	b0ad883a 	add	r22,r22,r2
  8043a4:	2085883a 	add	r2,r4,r2
  8043a8:	dd000817 	ldw	r20,32(sp)
  8043ac:	2025883a 	mov	r18,r4
  8043b0:	d8800615 	stw	r2,24(sp)
  8043b4:	003d0e06 	br	8037f0 <_dtoa_r+0x968>
  8043b8:	d9000117 	ldw	r4,4(sp)
  8043bc:	003c4b06 	br	8034ec <_dtoa_r+0x664>
  8043c0:	9821883a 	mov	r16,r19
  8043c4:	8825883a 	mov	r18,r17
  8043c8:	05400084 	movi	r21,2
  8043cc:	003bb406 	br	8032a0 <_dtoa_r+0x418>
  8043d0:	d8800517 	ldw	r2,20(sp)
  8043d4:	103ede26 	beq	r2,zero,803f50 <_dtoa_r+0x10c8>
  8043d8:	d8800b17 	ldw	r2,44(sp)
  8043dc:	00bc7d0e 	bge	zero,r2,8035d4 <_dtoa_r+0x74c>
  8043e0:	900b883a 	mov	r5,r18
  8043e4:	8009883a 	mov	r4,r16
  8043e8:	000d883a 	mov	r6,zero
  8043ec:	01d00934 	movhi	r7,16420
  8043f0:	080d2240 	call	80d224 <__muldf3>
  8043f4:	a9000044 	addi	r4,r21,1
  8043f8:	1021883a 	mov	r16,r2
  8043fc:	1825883a 	mov	r18,r3
  804400:	080e3580 	call	80e358 <__floatsidf>
  804404:	800d883a 	mov	r6,r16
  804408:	900f883a 	mov	r7,r18
  80440c:	1009883a 	mov	r4,r2
  804410:	180b883a 	mov	r5,r3
  804414:	080d2240 	call	80d224 <__muldf3>
  804418:	1009883a 	mov	r4,r2
  80441c:	000d883a 	mov	r6,zero
  804420:	01d00734 	movhi	r7,16412
  804424:	180b883a 	mov	r5,r3
  804428:	080bdb40 	call	80bdb4 <__adddf3>
  80442c:	d9000417 	ldw	r4,16(sp)
  804430:	1029883a 	mov	r20,r2
  804434:	00bf3034 	movhi	r2,64704
  804438:	1887883a 	add	r3,r3,r2
  80443c:	d8800b17 	ldw	r2,44(sp)
  804440:	213fffc4 	addi	r4,r4,-1
  804444:	d9001115 	stw	r4,68(sp)
  804448:	d8c00c15 	stw	r3,48(sp)
  80444c:	d8800d15 	stw	r2,52(sp)
  804450:	003bb106 	br	803318 <_dtoa_r+0x490>
  804454:	d8800417 	ldw	r2,16(sp)
  804458:	00c00c44 	movi	r3,49
  80445c:	10800044 	addi	r2,r2,1
  804460:	d8800415 	stw	r2,16(sp)
  804464:	003c2a06 	br	803510 <_dtoa_r+0x688>
  804468:	00800e44 	movi	r2,57
  80446c:	8023883a 	mov	r17,r16
  804470:	d9400117 	ldw	r5,4(sp)
  804474:	b0800005 	stb	r2,0(r22)
  804478:	9021883a 	mov	r16,r18
  80447c:	01000e44 	movi	r4,57
  804480:	003d5006 	br	8039c4 <_dtoa_r+0xb3c>
  804484:	0029883a 	mov	r20,zero
  804488:	0021883a 	mov	r16,zero
  80448c:	003e7106 	br	803e54 <_dtoa_r+0xfcc>
  804490:	d8801117 	ldw	r2,68(sp)
  804494:	d9000117 	ldw	r4,4(sp)
  804498:	10800044 	addi	r2,r2,1
  80449c:	d8800415 	stw	r2,16(sp)
  8044a0:	003c1206 	br	8034ec <_dtoa_r+0x664>
  8044a4:	103f241e 	bne	r2,zero,804138 <_dtoa_r+0x12b0>
  8044a8:	9880004c 	andi	r2,r19,1
  8044ac:	103f1e1e 	bne	r2,zero,804128 <_dtoa_r+0x12a0>
  8044b0:	003f2106 	br	804138 <_dtoa_r+0x12b0>
  8044b4:	d8801117 	ldw	r2,68(sp)
  8044b8:	ddc00d17 	ldw	r23,52(sp)
  8044bc:	10800044 	addi	r2,r2,1
  8044c0:	d8800415 	stw	r2,16(sp)
  8044c4:	003d5306 	br	803a14 <_dtoa_r+0xb8c>
  8044c8:	d8c00417 	ldw	r3,16(sp)
  8044cc:	a8800e60 	cmpeqi	r2,r21,57
  8044d0:	a827883a 	mov	r19,r21
  8044d4:	18c00044 	addi	r3,r3,1
  8044d8:	d8c00415 	stw	r3,16(sp)
  8044dc:	b5400044 	addi	r21,r22,1
  8044e0:	103fe11e 	bne	r2,zero,804468 <_dtoa_r+0x15e0>
  8044e4:	047f1216 	blt	zero,r17,804130 <_dtoa_r+0x12a8>
  8044e8:	003f1306 	br	804138 <_dtoa_r+0x12b0>
  8044ec:	d8800217 	ldw	r2,8(sp)
  8044f0:	108000c8 	cmpgei	r2,r2,3
  8044f4:	103e481e 	bne	r2,zero,803e18 <_dtoa_r+0xf90>
  8044f8:	dd400415 	stw	r21,16(sp)
  8044fc:	003e0d06 	br	803d34 <_dtoa_r+0xeac>
  804500:	d8800217 	ldw	r2,8(sp)
  804504:	108000c8 	cmpgei	r2,r2,3
  804508:	103e431e 	bne	r2,zero,803e18 <_dtoa_r+0xf90>
  80450c:	d8800b17 	ldw	r2,44(sp)
  804510:	dd400415 	stw	r21,16(sp)
  804514:	d8800515 	stw	r2,20(sp)
  804518:	04bdb10e 	bge	zero,r18,803be0 <_dtoa_r+0xd58>
  80451c:	003e5c06 	br	803e90 <_dtoa_r+0x1008>
  804520:	a829883a 	mov	r20,r21
  804524:	003f7b06 	br	804314 <_dtoa_r+0x148c>
  804528:	05400084 	movi	r21,2
  80452c:	003b5c06 	br	8032a0 <_dtoa_r+0x418>
  804530:	01c02074 	movhi	r7,129
  804534:	01002074 	movhi	r4,129
  804538:	39fabb04 	addi	r7,r7,-5396
  80453c:	000d883a 	mov	r6,zero
  804540:	01406a84 	movi	r5,426
  804544:	213ac004 	addi	r4,r4,-5376
  804548:	08071240 	call	807124 <__assert_func>
  80454c:	000b883a 	mov	r5,zero
  804550:	003b1506 	br	8031a8 <_dtoa_r+0x320>
  804554:	b8001115 	stw	zero,68(r23)
  804558:	000b883a 	mov	r5,zero
  80455c:	b809883a 	mov	r4,r23
  804560:	0804bd80 	call	804bd8 <_Balloc>
  804564:	d8800115 	stw	r2,4(sp)
  804568:	103ff126 	beq	r2,zero,804530 <_dtoa_r+0x16a8>
  80456c:	d8800117 	ldw	r2,4(sp)
  804570:	d8001e15 	stw	zero,120(sp)
  804574:	b8801015 	stw	r2,64(r23)
  804578:	00bfffc4 	movi	r2,-1
  80457c:	d8800515 	stw	r2,20(sp)
  804580:	d8800b15 	stw	r2,44(sp)
  804584:	00800044 	movi	r2,1
  804588:	d8800715 	stw	r2,28(sp)
  80458c:	003c1106 	br	8035d4 <_dtoa_r+0x74c>
  804590:	01c02074 	movhi	r7,129
  804594:	01002074 	movhi	r4,129
  804598:	39fabb04 	addi	r7,r7,-5396
  80459c:	000d883a 	mov	r6,zero
  8045a0:	0140ba84 	movi	r5,746
  8045a4:	213ac004 	addi	r4,r4,-5376
  8045a8:	08071240 	call	807124 <__assert_func>
  8045ac:	00802074 	movhi	r2,129
  8045b0:	10bab804 	addi	r2,r2,-5408
  8045b4:	d8800115 	stw	r2,4(sp)
  8045b8:	003a6506 	br	802f50 <_dtoa_r+0xc8>
  8045bc:	18c00120 	cmpeqi	r3,r3,4
  8045c0:	183cc91e 	bne	r3,zero,8038e8 <_dtoa_r+0xa60>
  8045c4:	00c00f04 	movi	r3,60
  8045c8:	1885c83a 	sub	r2,r3,r2
  8045cc:	003cc106 	br	8038d4 <_dtoa_r+0xa4c>

008045d0 <_malloc_trim_r>:
  8045d0:	defffb04 	addi	sp,sp,-20
  8045d4:	dcc00315 	stw	r19,12(sp)
  8045d8:	04c02074 	movhi	r19,129
  8045dc:	dc800215 	stw	r18,8(sp)
  8045e0:	dc400115 	stw	r17,4(sp)
  8045e4:	dc000015 	stw	r16,0(sp)
  8045e8:	dfc00415 	stw	ra,16(sp)
  8045ec:	2821883a 	mov	r16,r5
  8045f0:	9cfd3a04 	addi	r19,r19,-2840
  8045f4:	2025883a 	mov	r18,r4
  8045f8:	080e78c0 	call	80e78c <__malloc_lock>
  8045fc:	98800217 	ldw	r2,8(r19)
  804600:	14400117 	ldw	r17,4(r2)
  804604:	00bfff04 	movi	r2,-4
  804608:	88a2703a 	and	r17,r17,r2
  80460c:	8c21c83a 	sub	r16,r17,r16
  804610:	8403fbc4 	addi	r16,r16,4079
  804614:	8020d33a 	srli	r16,r16,12
  804618:	843fffc4 	addi	r16,r16,-1
  80461c:	8020933a 	slli	r16,r16,12
  804620:	80840008 	cmpgei	r2,r16,4096
  804624:	10000626 	beq	r2,zero,804640 <_malloc_trim_r+0x70>
  804628:	000b883a 	mov	r5,zero
  80462c:	9009883a 	mov	r4,r18
  804630:	0800b800 	call	800b80 <_sbrk_r>
  804634:	98c00217 	ldw	r3,8(r19)
  804638:	1c47883a 	add	r3,r3,r17
  80463c:	10c00a26 	beq	r2,r3,804668 <_malloc_trim_r+0x98>
  804640:	9009883a 	mov	r4,r18
  804644:	080e7900 	call	80e790 <__malloc_unlock>
  804648:	0005883a 	mov	r2,zero
  80464c:	dfc00417 	ldw	ra,16(sp)
  804650:	dcc00317 	ldw	r19,12(sp)
  804654:	dc800217 	ldw	r18,8(sp)
  804658:	dc400117 	ldw	r17,4(sp)
  80465c:	dc000017 	ldw	r16,0(sp)
  804660:	dec00504 	addi	sp,sp,20
  804664:	f800283a 	ret
  804668:	040bc83a 	sub	r5,zero,r16
  80466c:	9009883a 	mov	r4,r18
  804670:	0800b800 	call	800b80 <_sbrk_r>
  804674:	10bfffd8 	cmpnei	r2,r2,-1
  804678:	10000d26 	beq	r2,zero,8046b0 <_malloc_trim_r+0xe0>
  80467c:	00802074 	movhi	r2,129
  804680:	10814917 	ldw	r2,1316(r2)
  804684:	98c00217 	ldw	r3,8(r19)
  804688:	8c23c83a 	sub	r17,r17,r16
  80468c:	8c400054 	ori	r17,r17,1
  804690:	1421c83a 	sub	r16,r2,r16
  804694:	1c400115 	stw	r17,4(r3)
  804698:	00802074 	movhi	r2,129
  80469c:	9009883a 	mov	r4,r18
  8046a0:	14014915 	stw	r16,1316(r2)
  8046a4:	080e7900 	call	80e790 <__malloc_unlock>
  8046a8:	00800044 	movi	r2,1
  8046ac:	003fe706 	br	80464c <_malloc_trim_r+0x7c>
  8046b0:	000b883a 	mov	r5,zero
  8046b4:	9009883a 	mov	r4,r18
  8046b8:	0800b800 	call	800b80 <_sbrk_r>
  8046bc:	99000217 	ldw	r4,8(r19)
  8046c0:	1107c83a 	sub	r3,r2,r4
  8046c4:	19400410 	cmplti	r5,r3,16
  8046c8:	283fdd1e 	bne	r5,zero,804640 <_malloc_trim_r+0x70>
  8046cc:	01402074 	movhi	r5,129
  8046d0:	297eaf17 	ldw	r5,-1348(r5)
  8046d4:	18c00054 	ori	r3,r3,1
  8046d8:	20c00115 	stw	r3,4(r4)
  8046dc:	1145c83a 	sub	r2,r2,r5
  8046e0:	01402074 	movhi	r5,129
  8046e4:	28814915 	stw	r2,1316(r5)
  8046e8:	003fd506 	br	804640 <_malloc_trim_r+0x70>

008046ec <_free_r>:
  8046ec:	28004f26 	beq	r5,zero,80482c <_free_r+0x140>
  8046f0:	defffd04 	addi	sp,sp,-12
  8046f4:	dc400115 	stw	r17,4(sp)
  8046f8:	dc000015 	stw	r16,0(sp)
  8046fc:	2023883a 	mov	r17,r4
  804700:	2821883a 	mov	r16,r5
  804704:	dfc00215 	stw	ra,8(sp)
  804708:	080e78c0 	call	80e78c <__malloc_lock>
  80470c:	81ffff17 	ldw	r7,-4(r16)
  804710:	00bfff84 	movi	r2,-2
  804714:	80fffe04 	addi	r3,r16,-8
  804718:	3884703a 	and	r2,r7,r2
  80471c:	01002074 	movhi	r4,129
  804720:	188d883a 	add	r6,r3,r2
  804724:	213d3a04 	addi	r4,r4,-2840
  804728:	31400117 	ldw	r5,4(r6)
  80472c:	22000217 	ldw	r8,8(r4)
  804730:	027fff04 	movi	r9,-4
  804734:	2a4a703a 	and	r5,r5,r9
  804738:	41806426 	beq	r8,r6,8048cc <_free_r+0x1e0>
  80473c:	31400115 	stw	r5,4(r6)
  804740:	39c0004c 	andi	r7,r7,1
  804744:	3151883a 	add	r8,r6,r5
  804748:	3800281e 	bne	r7,zero,8047ec <_free_r+0x100>
  80474c:	82bffe17 	ldw	r10,-8(r16)
  804750:	42000117 	ldw	r8,4(r8)
  804754:	01c02074 	movhi	r7,129
  804758:	1a87c83a 	sub	r3,r3,r10
  80475c:	1a400217 	ldw	r9,8(r3)
  804760:	39fd3c04 	addi	r7,r7,-2832
  804764:	1285883a 	add	r2,r2,r10
  804768:	4200004c 	andi	r8,r8,1
  80476c:	49c04c26 	beq	r9,r7,8048a0 <_free_r+0x1b4>
  804770:	1a800317 	ldw	r10,12(r3)
  804774:	4a800315 	stw	r10,12(r9)
  804778:	52400215 	stw	r9,8(r10)
  80477c:	40007126 	beq	r8,zero,804944 <_free_r+0x258>
  804780:	11400054 	ori	r5,r2,1
  804784:	19400115 	stw	r5,4(r3)
  804788:	30800015 	stw	r2,0(r6)
  80478c:	11408028 	cmpgeui	r5,r2,512
  804790:	28002c1e 	bne	r5,zero,804844 <_free_r+0x158>
  804794:	100ad0fa 	srli	r5,r2,3
  804798:	100cd17a 	srli	r6,r2,5
  80479c:	00800044 	movi	r2,1
  8047a0:	29400044 	addi	r5,r5,1
  8047a4:	280a90fa 	slli	r5,r5,3
  8047a8:	21c00117 	ldw	r7,4(r4)
  8047ac:	1184983a 	sll	r2,r2,r6
  8047b0:	214b883a 	add	r5,r4,r5
  8047b4:	29800017 	ldw	r6,0(r5)
  8047b8:	11c4b03a 	or	r2,r2,r7
  8047bc:	29fffe04 	addi	r7,r5,-8
  8047c0:	19c00315 	stw	r7,12(r3)
  8047c4:	19800215 	stw	r6,8(r3)
  8047c8:	20800115 	stw	r2,4(r4)
  8047cc:	28c00015 	stw	r3,0(r5)
  8047d0:	30c00315 	stw	r3,12(r6)
  8047d4:	8809883a 	mov	r4,r17
  8047d8:	dfc00217 	ldw	ra,8(sp)
  8047dc:	dc400117 	ldw	r17,4(sp)
  8047e0:	dc000017 	ldw	r16,0(sp)
  8047e4:	dec00304 	addi	sp,sp,12
  8047e8:	080e7901 	jmpi	80e790 <__malloc_unlock>
  8047ec:	41c00117 	ldw	r7,4(r8)
  8047f0:	39c0004c 	andi	r7,r7,1
  8047f4:	38000e1e 	bne	r7,zero,804830 <_free_r+0x144>
  8047f8:	01c02074 	movhi	r7,129
  8047fc:	1145883a 	add	r2,r2,r5
  804800:	39fd3c04 	addi	r7,r7,-2832
  804804:	31400217 	ldw	r5,8(r6)
  804808:	12400054 	ori	r9,r2,1
  80480c:	1891883a 	add	r8,r3,r2
  804810:	29c05226 	beq	r5,r7,80495c <_free_r+0x270>
  804814:	31800317 	ldw	r6,12(r6)
  804818:	29800315 	stw	r6,12(r5)
  80481c:	31400215 	stw	r5,8(r6)
  804820:	1a400115 	stw	r9,4(r3)
  804824:	40800015 	stw	r2,0(r8)
  804828:	003fd806 	br	80478c <_free_r+0xa0>
  80482c:	f800283a 	ret
  804830:	11400054 	ori	r5,r2,1
  804834:	817fff15 	stw	r5,-4(r16)
  804838:	30800015 	stw	r2,0(r6)
  80483c:	11408028 	cmpgeui	r5,r2,512
  804840:	283fd426 	beq	r5,zero,804794 <_free_r+0xa8>
  804844:	100ad27a 	srli	r5,r2,9
  804848:	29800168 	cmpgeui	r6,r5,5
  80484c:	3000341e 	bne	r6,zero,804920 <_free_r+0x234>
  804850:	100ad1ba 	srli	r5,r2,6
  804854:	29800e44 	addi	r6,r5,57
  804858:	300c90fa 	slli	r6,r6,3
  80485c:	29c00e04 	addi	r7,r5,56
  804860:	218d883a 	add	r6,r4,r6
  804864:	31400017 	ldw	r5,0(r6)
  804868:	31bffe04 	addi	r6,r6,-8
  80486c:	31404226 	beq	r6,r5,804978 <_free_r+0x28c>
  804870:	01ffff04 	movi	r7,-4
  804874:	29000117 	ldw	r4,4(r5)
  804878:	21c8703a 	and	r4,r4,r7
  80487c:	1100022e 	bgeu	r2,r4,804888 <_free_r+0x19c>
  804880:	29400217 	ldw	r5,8(r5)
  804884:	317ffb1e 	bne	r6,r5,804874 <_free_r+0x188>
  804888:	29800317 	ldw	r6,12(r5)
  80488c:	19800315 	stw	r6,12(r3)
  804890:	19400215 	stw	r5,8(r3)
  804894:	30c00215 	stw	r3,8(r6)
  804898:	28c00315 	stw	r3,12(r5)
  80489c:	003fcd06 	br	8047d4 <_free_r+0xe8>
  8048a0:	40004d1e 	bne	r8,zero,8049d8 <_free_r+0x2ec>
  8048a4:	31000317 	ldw	r4,12(r6)
  8048a8:	31800217 	ldw	r6,8(r6)
  8048ac:	2885883a 	add	r2,r5,r2
  8048b0:	11400054 	ori	r5,r2,1
  8048b4:	31000315 	stw	r4,12(r6)
  8048b8:	21800215 	stw	r6,8(r4)
  8048bc:	19400115 	stw	r5,4(r3)
  8048c0:	1887883a 	add	r3,r3,r2
  8048c4:	18800015 	stw	r2,0(r3)
  8048c8:	003fc206 	br	8047d4 <_free_r+0xe8>
  8048cc:	39c0004c 	andi	r7,r7,1
  8048d0:	1145883a 	add	r2,r2,r5
  8048d4:	3800071e 	bne	r7,zero,8048f4 <_free_r+0x208>
  8048d8:	81fffe17 	ldw	r7,-8(r16)
  8048dc:	19c7c83a 	sub	r3,r3,r7
  8048e0:	19400317 	ldw	r5,12(r3)
  8048e4:	19800217 	ldw	r6,8(r3)
  8048e8:	11c5883a 	add	r2,r2,r7
  8048ec:	31400315 	stw	r5,12(r6)
  8048f0:	29800215 	stw	r6,8(r5)
  8048f4:	01402074 	movhi	r5,129
  8048f8:	11800054 	ori	r6,r2,1
  8048fc:	297eb017 	ldw	r5,-1344(r5)
  804900:	19800115 	stw	r6,4(r3)
  804904:	20c00215 	stw	r3,8(r4)
  804908:	117fb236 	bltu	r2,r5,8047d4 <_free_r+0xe8>
  80490c:	00802074 	movhi	r2,129
  804910:	11414317 	ldw	r5,1292(r2)
  804914:	8809883a 	mov	r4,r17
  804918:	08045d00 	call	8045d0 <_malloc_trim_r>
  80491c:	003fad06 	br	8047d4 <_free_r+0xe8>
  804920:	29800568 	cmpgeui	r6,r5,21
  804924:	30000926 	beq	r6,zero,80494c <_free_r+0x260>
  804928:	29801568 	cmpgeui	r6,r5,85
  80492c:	3000191e 	bne	r6,zero,804994 <_free_r+0x2a8>
  804930:	100ad33a 	srli	r5,r2,12
  804934:	29801bc4 	addi	r6,r5,111
  804938:	300c90fa 	slli	r6,r6,3
  80493c:	29c01b84 	addi	r7,r5,110
  804940:	003fc706 	br	804860 <_free_r+0x174>
  804944:	1145883a 	add	r2,r2,r5
  804948:	003fae06 	br	804804 <_free_r+0x118>
  80494c:	29801704 	addi	r6,r5,92
  804950:	300c90fa 	slli	r6,r6,3
  804954:	29c016c4 	addi	r7,r5,91
  804958:	003fc106 	br	804860 <_free_r+0x174>
  80495c:	20c00515 	stw	r3,20(r4)
  804960:	20c00415 	stw	r3,16(r4)
  804964:	19c00315 	stw	r7,12(r3)
  804968:	19c00215 	stw	r7,8(r3)
  80496c:	1a400115 	stw	r9,4(r3)
  804970:	40800015 	stw	r2,0(r8)
  804974:	003f9706 	br	8047d4 <_free_r+0xe8>
  804978:	380fd0ba 	srai	r7,r7,2
  80497c:	00800044 	movi	r2,1
  804980:	22000117 	ldw	r8,4(r4)
  804984:	11ce983a 	sll	r7,r2,r7
  804988:	3a0eb03a 	or	r7,r7,r8
  80498c:	21c00115 	stw	r7,4(r4)
  804990:	003fbe06 	br	80488c <_free_r+0x1a0>
  804994:	29805568 	cmpgeui	r6,r5,341
  804998:	3000051e 	bne	r6,zero,8049b0 <_free_r+0x2c4>
  80499c:	100ad3fa 	srli	r5,r2,15
  8049a0:	29801e04 	addi	r6,r5,120
  8049a4:	300c90fa 	slli	r6,r6,3
  8049a8:	29c01dc4 	addi	r7,r5,119
  8049ac:	003fac06 	br	804860 <_free_r+0x174>
  8049b0:	29415568 	cmpgeui	r5,r5,1365
  8049b4:	2800051e 	bne	r5,zero,8049cc <_free_r+0x2e0>
  8049b8:	100ad4ba 	srli	r5,r2,18
  8049bc:	29801f44 	addi	r6,r5,125
  8049c0:	300c90fa 	slli	r6,r6,3
  8049c4:	29c01f04 	addi	r7,r5,124
  8049c8:	003fa506 	br	804860 <_free_r+0x174>
  8049cc:	0180fe04 	movi	r6,1016
  8049d0:	01c01f84 	movi	r7,126
  8049d4:	003fa206 	br	804860 <_free_r+0x174>
  8049d8:	11000054 	ori	r4,r2,1
  8049dc:	19000115 	stw	r4,4(r3)
  8049e0:	30800015 	stw	r2,0(r6)
  8049e4:	003f7b06 	br	8047d4 <_free_r+0xe8>

008049e8 <__localeconv_l>:
  8049e8:	20803c04 	addi	r2,r4,240
  8049ec:	f800283a 	ret

008049f0 <_localeconv_r>:
  8049f0:	00802074 	movhi	r2,129
  8049f4:	10be7804 	addi	r2,r2,-1568
  8049f8:	f800283a 	ret

008049fc <localeconv>:
  8049fc:	00802074 	movhi	r2,129
  804a00:	10be7804 	addi	r2,r2,-1568
  804a04:	f800283a 	ret

00804a08 <memchr>:
  804a08:	208000cc 	andi	r2,r4,3
  804a0c:	280f883a 	mov	r7,r5
  804a10:	10000e26 	beq	r2,zero,804a4c <memchr+0x44>
  804a14:	30bfffc4 	addi	r2,r6,-1
  804a18:	30001726 	beq	r6,zero,804a78 <memchr+0x70>
  804a1c:	29803fcc 	andi	r6,r5,255
  804a20:	00000606 	br	804a3c <memchr+0x34>
  804a24:	21000044 	addi	r4,r4,1
  804a28:	20c000cc 	andi	r3,r4,3
  804a2c:	18000826 	beq	r3,zero,804a50 <memchr+0x48>
  804a30:	10bfffc4 	addi	r2,r2,-1
  804a34:	10ffffe0 	cmpeqi	r3,r2,-1
  804a38:	18000f1e 	bne	r3,zero,804a78 <memchr+0x70>
  804a3c:	20c00003 	ldbu	r3,0(r4)
  804a40:	19bff81e 	bne	r3,r6,804a24 <memchr+0x1c>
  804a44:	2005883a 	mov	r2,r4
  804a48:	f800283a 	ret
  804a4c:	3005883a 	mov	r2,r6
  804a50:	10c00128 	cmpgeui	r3,r2,4
  804a54:	18000a1e 	bne	r3,zero,804a80 <memchr+0x78>
  804a58:	10001e26 	beq	r2,zero,804ad4 <memchr+0xcc>
  804a5c:	2087883a 	add	r3,r4,r2
  804a60:	39803fcc 	andi	r6,r7,255
  804a64:	2005883a 	mov	r2,r4
  804a68:	11000003 	ldbu	r4,0(r2)
  804a6c:	21bff626 	beq	r4,r6,804a48 <memchr+0x40>
  804a70:	10800044 	addi	r2,r2,1
  804a74:	18bffc1e 	bne	r3,r2,804a68 <memchr+0x60>
  804a78:	0005883a 	mov	r2,zero
  804a7c:	f800283a 	ret
  804a80:	29403fcc 	andi	r5,r5,255
  804a84:	280c923a 	slli	r6,r5,8
  804a88:	027fbff4 	movhi	r9,65279
  804a8c:	02202074 	movhi	r8,32897
  804a90:	314ab03a 	or	r5,r6,r5
  804a94:	280c943a 	slli	r6,r5,16
  804a98:	4a7fbfc4 	addi	r9,r9,-257
  804a9c:	42202004 	addi	r8,r8,-32640
  804aa0:	314cb03a 	or	r6,r6,r5
  804aa4:	20c00017 	ldw	r3,0(r4)
  804aa8:	30c6f03a 	xor	r3,r6,r3
  804aac:	1a4b883a 	add	r5,r3,r9
  804ab0:	00c6303a 	nor	r3,zero,r3
  804ab4:	28c6703a 	and	r3,r5,r3
  804ab8:	1a06703a 	and	r3,r3,r8
  804abc:	183fe71e 	bne	r3,zero,804a5c <memchr+0x54>
  804ac0:	10bfff04 	addi	r2,r2,-4
  804ac4:	10c00128 	cmpgeui	r3,r2,4
  804ac8:	21000104 	addi	r4,r4,4
  804acc:	183ff51e 	bne	r3,zero,804aa4 <memchr+0x9c>
  804ad0:	003fe106 	br	804a58 <memchr+0x50>
  804ad4:	f800283a 	ret

00804ad8 <memcpy>:
  804ad8:	30c00430 	cmpltui	r3,r6,16
  804adc:	2005883a 	mov	r2,r4
  804ae0:	18002d1e 	bne	r3,zero,804b98 <memcpy+0xc0>
  804ae4:	2906b03a 	or	r3,r5,r4
  804ae8:	18c000cc 	andi	r3,r3,3
  804aec:	1800351e 	bne	r3,zero,804bc4 <memcpy+0xec>
  804af0:	32fffc04 	addi	r11,r6,-16
  804af4:	5816d13a 	srli	r11,r11,4
  804af8:	280f883a 	mov	r7,r5
  804afc:	2007883a 	mov	r3,r4
  804b00:	5ac00044 	addi	r11,r11,1
  804b04:	5816913a 	slli	r11,r11,4
  804b08:	22d5883a 	add	r10,r4,r11
  804b0c:	39000117 	ldw	r4,4(r7)
  804b10:	3a400017 	ldw	r9,0(r7)
  804b14:	3a000217 	ldw	r8,8(r7)
  804b18:	19000115 	stw	r4,4(r3)
  804b1c:	39000317 	ldw	r4,12(r7)
  804b20:	1a400015 	stw	r9,0(r3)
  804b24:	1a000215 	stw	r8,8(r3)
  804b28:	19000315 	stw	r4,12(r3)
  804b2c:	18c00404 	addi	r3,r3,16
  804b30:	39c00404 	addi	r7,r7,16
  804b34:	50fff51e 	bne	r10,r3,804b0c <memcpy+0x34>
  804b38:	3100030c 	andi	r4,r6,12
  804b3c:	2acb883a 	add	r5,r5,r11
  804b40:	320003cc 	andi	r8,r6,15
  804b44:	20002226 	beq	r4,zero,804bd0 <memcpy+0xf8>
  804b48:	280f883a 	mov	r7,r5
  804b4c:	1813883a 	mov	r9,r3
  804b50:	39c00104 	addi	r7,r7,4
  804b54:	3abfff17 	ldw	r10,-4(r7)
  804b58:	41c9c83a 	sub	r4,r8,r7
  804b5c:	2909883a 	add	r4,r5,r4
  804b60:	4a800015 	stw	r10,0(r9)
  804b64:	21000128 	cmpgeui	r4,r4,4
  804b68:	4a400104 	addi	r9,r9,4
  804b6c:	203ff81e 	bne	r4,zero,804b50 <memcpy+0x78>
  804b70:	413fff04 	addi	r4,r8,-4
  804b74:	2008d0ba 	srli	r4,r4,2
  804b78:	318000cc 	andi	r6,r6,3
  804b7c:	31ffffc4 	addi	r7,r6,-1
  804b80:	21000044 	addi	r4,r4,1
  804b84:	200890ba 	slli	r4,r4,2
  804b88:	1907883a 	add	r3,r3,r4
  804b8c:	290b883a 	add	r5,r5,r4
  804b90:	3000041e 	bne	r6,zero,804ba4 <memcpy+0xcc>
  804b94:	f800283a 	ret
  804b98:	2007883a 	mov	r3,r4
  804b9c:	31ffffc4 	addi	r7,r6,-1
  804ba0:	303ffc26 	beq	r6,zero,804b94 <memcpy+0xbc>
  804ba4:	39c00044 	addi	r7,r7,1
  804ba8:	19cf883a 	add	r7,r3,r7
  804bac:	29800003 	ldbu	r6,0(r5)
  804bb0:	18c00044 	addi	r3,r3,1
  804bb4:	29400044 	addi	r5,r5,1
  804bb8:	19bfffc5 	stb	r6,-1(r3)
  804bbc:	38fffb1e 	bne	r7,r3,804bac <memcpy+0xd4>
  804bc0:	f800283a 	ret
  804bc4:	31ffffc4 	addi	r7,r6,-1
  804bc8:	2007883a 	mov	r3,r4
  804bcc:	003ff506 	br	804ba4 <memcpy+0xcc>
  804bd0:	400d883a 	mov	r6,r8
  804bd4:	003ff106 	br	804b9c <memcpy+0xc4>

00804bd8 <_Balloc>:
  804bd8:	20801317 	ldw	r2,76(r4)
  804bdc:	defffc04 	addi	sp,sp,-16
  804be0:	dc400115 	stw	r17,4(sp)
  804be4:	dc000015 	stw	r16,0(sp)
  804be8:	dfc00315 	stw	ra,12(sp)
  804bec:	dc800215 	stw	r18,8(sp)
  804bf0:	2021883a 	mov	r16,r4
  804bf4:	2823883a 	mov	r17,r5
  804bf8:	10000e26 	beq	r2,zero,804c34 <_Balloc+0x5c>
  804bfc:	880690ba 	slli	r3,r17,2
  804c00:	10c7883a 	add	r3,r2,r3
  804c04:	18800017 	ldw	r2,0(r3)
  804c08:	10001126 	beq	r2,zero,804c50 <_Balloc+0x78>
  804c0c:	11000017 	ldw	r4,0(r2)
  804c10:	19000015 	stw	r4,0(r3)
  804c14:	10000415 	stw	zero,16(r2)
  804c18:	10000315 	stw	zero,12(r2)
  804c1c:	dfc00317 	ldw	ra,12(sp)
  804c20:	dc800217 	ldw	r18,8(sp)
  804c24:	dc400117 	ldw	r17,4(sp)
  804c28:	dc000017 	ldw	r16,0(sp)
  804c2c:	dec00404 	addi	sp,sp,16
  804c30:	f800283a 	ret
  804c34:	01800844 	movi	r6,33
  804c38:	01400104 	movi	r5,4
  804c3c:	080719c0 	call	80719c <_calloc_r>
  804c40:	80801315 	stw	r2,76(r16)
  804c44:	103fed1e 	bne	r2,zero,804bfc <_Balloc+0x24>
  804c48:	0005883a 	mov	r2,zero
  804c4c:	003ff306 	br	804c1c <_Balloc+0x44>
  804c50:	04800044 	movi	r18,1
  804c54:	9464983a 	sll	r18,r18,r17
  804c58:	01400044 	movi	r5,1
  804c5c:	8009883a 	mov	r4,r16
  804c60:	91800144 	addi	r6,r18,5
  804c64:	300c90ba 	slli	r6,r6,2
  804c68:	080719c0 	call	80719c <_calloc_r>
  804c6c:	103ff626 	beq	r2,zero,804c48 <_Balloc+0x70>
  804c70:	14400115 	stw	r17,4(r2)
  804c74:	14800215 	stw	r18,8(r2)
  804c78:	003fe606 	br	804c14 <_Balloc+0x3c>

00804c7c <_Bfree>:
  804c7c:	28000726 	beq	r5,zero,804c9c <_Bfree+0x20>
  804c80:	28c00117 	ldw	r3,4(r5)
  804c84:	20801317 	ldw	r2,76(r4)
  804c88:	180690ba 	slli	r3,r3,2
  804c8c:	10c5883a 	add	r2,r2,r3
  804c90:	10c00017 	ldw	r3,0(r2)
  804c94:	28c00015 	stw	r3,0(r5)
  804c98:	11400015 	stw	r5,0(r2)
  804c9c:	f800283a 	ret

00804ca0 <__multadd>:
  804ca0:	defff704 	addi	sp,sp,-36
  804ca4:	dc800215 	stw	r18,8(sp)
  804ca8:	2c800417 	ldw	r18,16(r5)
  804cac:	ddc00715 	stw	r23,28(sp)
  804cb0:	dd800615 	stw	r22,24(sp)
  804cb4:	dd400515 	stw	r21,20(sp)
  804cb8:	dd000415 	stw	r20,16(sp)
  804cbc:	dcc00315 	stw	r19,12(sp)
  804cc0:	dc400115 	stw	r17,4(sp)
  804cc4:	dfc00815 	stw	ra,32(sp)
  804cc8:	dc000015 	stw	r16,0(sp)
  804ccc:	2827883a 	mov	r19,r5
  804cd0:	2029883a 	mov	r20,r4
  804cd4:	302b883a 	mov	r21,r6
  804cd8:	3823883a 	mov	r17,r7
  804cdc:	2d800504 	addi	r22,r5,20
  804ce0:	002f883a 	mov	r23,zero
  804ce4:	b4000017 	ldw	r16,0(r22)
  804ce8:	a80b883a 	mov	r5,r21
  804cec:	b5800104 	addi	r22,r22,4
  804cf0:	813fffcc 	andi	r4,r16,65535
  804cf4:	080bd8c0 	call	80bd8c <__mulsi3>
  804cf8:	8008d43a 	srli	r4,r16,16
  804cfc:	a80b883a 	mov	r5,r21
  804d00:	1461883a 	add	r16,r2,r17
  804d04:	080bd8c0 	call	80bd8c <__mulsi3>
  804d08:	800ed43a 	srli	r7,r16,16
  804d0c:	843fffcc 	andi	r16,r16,65535
  804d10:	bdc00044 	addi	r23,r23,1
  804d14:	11c5883a 	add	r2,r2,r7
  804d18:	1006943a 	slli	r3,r2,16
  804d1c:	1022d43a 	srli	r17,r2,16
  804d20:	1c21883a 	add	r16,r3,r16
  804d24:	b43fff15 	stw	r16,-4(r22)
  804d28:	bcbfee16 	blt	r23,r18,804ce4 <__multadd+0x44>
  804d2c:	88000826 	beq	r17,zero,804d50 <__multadd+0xb0>
  804d30:	98800217 	ldw	r2,8(r19)
  804d34:	9080120e 	bge	r18,r2,804d80 <__multadd+0xe0>
  804d38:	90800144 	addi	r2,r18,5
  804d3c:	100490ba 	slli	r2,r2,2
  804d40:	94800044 	addi	r18,r18,1
  804d44:	9885883a 	add	r2,r19,r2
  804d48:	14400015 	stw	r17,0(r2)
  804d4c:	9c800415 	stw	r18,16(r19)
  804d50:	9805883a 	mov	r2,r19
  804d54:	dfc00817 	ldw	ra,32(sp)
  804d58:	ddc00717 	ldw	r23,28(sp)
  804d5c:	dd800617 	ldw	r22,24(sp)
  804d60:	dd400517 	ldw	r21,20(sp)
  804d64:	dd000417 	ldw	r20,16(sp)
  804d68:	dcc00317 	ldw	r19,12(sp)
  804d6c:	dc800217 	ldw	r18,8(sp)
  804d70:	dc400117 	ldw	r17,4(sp)
  804d74:	dc000017 	ldw	r16,0(sp)
  804d78:	dec00904 	addi	sp,sp,36
  804d7c:	f800283a 	ret
  804d80:	99400117 	ldw	r5,4(r19)
  804d84:	a009883a 	mov	r4,r20
  804d88:	29400044 	addi	r5,r5,1
  804d8c:	0804bd80 	call	804bd8 <_Balloc>
  804d90:	1021883a 	mov	r16,r2
  804d94:	10001226 	beq	r2,zero,804de0 <__multadd+0x140>
  804d98:	99800417 	ldw	r6,16(r19)
  804d9c:	99400304 	addi	r5,r19,12
  804da0:	11000304 	addi	r4,r2,12
  804da4:	31800084 	addi	r6,r6,2
  804da8:	300c90ba 	slli	r6,r6,2
  804dac:	0804ad80 	call	804ad8 <memcpy>
  804db0:	98000926 	beq	r19,zero,804dd8 <__multadd+0x138>
  804db4:	98c00117 	ldw	r3,4(r19)
  804db8:	a0801317 	ldw	r2,76(r20)
  804dbc:	180690ba 	slli	r3,r3,2
  804dc0:	10c5883a 	add	r2,r2,r3
  804dc4:	10c00017 	ldw	r3,0(r2)
  804dc8:	98c00015 	stw	r3,0(r19)
  804dcc:	14c00015 	stw	r19,0(r2)
  804dd0:	8027883a 	mov	r19,r16
  804dd4:	003fd806 	br	804d38 <__multadd+0x98>
  804dd8:	8027883a 	mov	r19,r16
  804ddc:	003fd606 	br	804d38 <__multadd+0x98>
  804de0:	01c02074 	movhi	r7,129
  804de4:	01002074 	movhi	r4,129
  804de8:	39fabb04 	addi	r7,r7,-5396
  804dec:	000d883a 	mov	r6,zero
  804df0:	01402d44 	movi	r5,181
  804df4:	213ad004 	addi	r4,r4,-5312
  804df8:	08071240 	call	807124 <__assert_func>

00804dfc <__s2b>:
  804dfc:	defff904 	addi	sp,sp,-28
  804e00:	dc800215 	stw	r18,8(sp)
  804e04:	dc000015 	stw	r16,0(sp)
  804e08:	2025883a 	mov	r18,r4
  804e0c:	2821883a 	mov	r16,r5
  804e10:	39000204 	addi	r4,r7,8
  804e14:	01400244 	movi	r5,9
  804e18:	dcc00315 	stw	r19,12(sp)
  804e1c:	dc400115 	stw	r17,4(sp)
  804e20:	dfc00615 	stw	ra,24(sp)
  804e24:	3823883a 	mov	r17,r7
  804e28:	dd400515 	stw	r21,20(sp)
  804e2c:	dd000415 	stw	r20,16(sp)
  804e30:	3027883a 	mov	r19,r6
  804e34:	080bbd80 	call	80bbd8 <__divsi3>
  804e38:	88c00290 	cmplti	r3,r17,10
  804e3c:	1800341e 	bne	r3,zero,804f10 <__s2b+0x114>
  804e40:	00c00044 	movi	r3,1
  804e44:	000b883a 	mov	r5,zero
  804e48:	18c7883a 	add	r3,r3,r3
  804e4c:	29400044 	addi	r5,r5,1
  804e50:	18bffd16 	blt	r3,r2,804e48 <__s2b+0x4c>
  804e54:	9009883a 	mov	r4,r18
  804e58:	0804bd80 	call	804bd8 <_Balloc>
  804e5c:	100b883a 	mov	r5,r2
  804e60:	10002d26 	beq	r2,zero,804f18 <__s2b+0x11c>
  804e64:	d8800717 	ldw	r2,28(sp)
  804e68:	28800515 	stw	r2,20(r5)
  804e6c:	00800044 	movi	r2,1
  804e70:	28800415 	stw	r2,16(r5)
  804e74:	98800290 	cmplti	r2,r19,10
  804e78:	1000221e 	bne	r2,zero,804f04 <__s2b+0x108>
  804e7c:	85400244 	addi	r21,r16,9
  804e80:	a829883a 	mov	r20,r21
  804e84:	84e1883a 	add	r16,r16,r19
  804e88:	a1c00007 	ldb	r7,0(r20)
  804e8c:	01800284 	movi	r6,10
  804e90:	9009883a 	mov	r4,r18
  804e94:	39fff404 	addi	r7,r7,-48
  804e98:	0804ca00 	call	804ca0 <__multadd>
  804e9c:	a5000044 	addi	r20,r20,1
  804ea0:	100b883a 	mov	r5,r2
  804ea4:	a43ff81e 	bne	r20,r16,804e88 <__s2b+0x8c>
  804ea8:	9c3ffe04 	addi	r16,r19,-8
  804eac:	ac21883a 	add	r16,r21,r16
  804eb0:	9c400a0e 	bge	r19,r17,804edc <__s2b+0xe0>
  804eb4:	8ce3c83a 	sub	r17,r17,r19
  804eb8:	8463883a 	add	r17,r16,r17
  804ebc:	81c00007 	ldb	r7,0(r16)
  804ec0:	01800284 	movi	r6,10
  804ec4:	9009883a 	mov	r4,r18
  804ec8:	39fff404 	addi	r7,r7,-48
  804ecc:	0804ca00 	call	804ca0 <__multadd>
  804ed0:	84000044 	addi	r16,r16,1
  804ed4:	100b883a 	mov	r5,r2
  804ed8:	8c3ff81e 	bne	r17,r16,804ebc <__s2b+0xc0>
  804edc:	2805883a 	mov	r2,r5
  804ee0:	dfc00617 	ldw	ra,24(sp)
  804ee4:	dd400517 	ldw	r21,20(sp)
  804ee8:	dd000417 	ldw	r20,16(sp)
  804eec:	dcc00317 	ldw	r19,12(sp)
  804ef0:	dc800217 	ldw	r18,8(sp)
  804ef4:	dc400117 	ldw	r17,4(sp)
  804ef8:	dc000017 	ldw	r16,0(sp)
  804efc:	dec00704 	addi	sp,sp,28
  804f00:	f800283a 	ret
  804f04:	84000284 	addi	r16,r16,10
  804f08:	04c00244 	movi	r19,9
  804f0c:	003fe806 	br	804eb0 <__s2b+0xb4>
  804f10:	000b883a 	mov	r5,zero
  804f14:	003fcf06 	br	804e54 <__s2b+0x58>
  804f18:	01c02074 	movhi	r7,129
  804f1c:	01002074 	movhi	r4,129
  804f20:	39fabb04 	addi	r7,r7,-5396
  804f24:	000d883a 	mov	r6,zero
  804f28:	01403384 	movi	r5,206
  804f2c:	213ad004 	addi	r4,r4,-5312
  804f30:	08071240 	call	807124 <__assert_func>

00804f34 <__hi0bits>:
  804f34:	20bfffec 	andhi	r2,r4,65535
  804f38:	1000131e 	bne	r2,zero,804f88 <__hi0bits+0x54>
  804f3c:	2008943a 	slli	r4,r4,16
  804f40:	00800404 	movi	r2,16
  804f44:	20ffc02c 	andhi	r3,r4,65280
  804f48:	1800021e 	bne	r3,zero,804f54 <__hi0bits+0x20>
  804f4c:	2008923a 	slli	r4,r4,8
  804f50:	10800204 	addi	r2,r2,8
  804f54:	20fc002c 	andhi	r3,r4,61440
  804f58:	1800021e 	bne	r3,zero,804f64 <__hi0bits+0x30>
  804f5c:	2008913a 	slli	r4,r4,4
  804f60:	10800104 	addi	r2,r2,4
  804f64:	20f0002c 	andhi	r3,r4,49152
  804f68:	1800021e 	bne	r3,zero,804f74 <__hi0bits+0x40>
  804f6c:	200890ba 	slli	r4,r4,2
  804f70:	10800084 	addi	r2,r2,2
  804f74:	20000316 	blt	r4,zero,804f84 <__hi0bits+0x50>
  804f78:	2110002c 	andhi	r4,r4,16384
  804f7c:	10800044 	addi	r2,r2,1
  804f80:	20000326 	beq	r4,zero,804f90 <__hi0bits+0x5c>
  804f84:	f800283a 	ret
  804f88:	0005883a 	mov	r2,zero
  804f8c:	003fed06 	br	804f44 <__hi0bits+0x10>
  804f90:	00800804 	movi	r2,32
  804f94:	f800283a 	ret

00804f98 <__lo0bits>:
  804f98:	20c00017 	ldw	r3,0(r4)
  804f9c:	188001cc 	andi	r2,r3,7
  804fa0:	10000826 	beq	r2,zero,804fc4 <__lo0bits+0x2c>
  804fa4:	1880004c 	andi	r2,r3,1
  804fa8:	10001f1e 	bne	r2,zero,805028 <__lo0bits+0x90>
  804fac:	1880008c 	andi	r2,r3,2
  804fb0:	10002126 	beq	r2,zero,805038 <__lo0bits+0xa0>
  804fb4:	1806d07a 	srli	r3,r3,1
  804fb8:	00800044 	movi	r2,1
  804fbc:	20c00015 	stw	r3,0(r4)
  804fc0:	f800283a 	ret
  804fc4:	18bfffcc 	andi	r2,r3,65535
  804fc8:	10001426 	beq	r2,zero,80501c <__lo0bits+0x84>
  804fcc:	0005883a 	mov	r2,zero
  804fd0:	19403fcc 	andi	r5,r3,255
  804fd4:	2800021e 	bne	r5,zero,804fe0 <__lo0bits+0x48>
  804fd8:	1806d23a 	srli	r3,r3,8
  804fdc:	10800204 	addi	r2,r2,8
  804fe0:	194003cc 	andi	r5,r3,15
  804fe4:	2800021e 	bne	r5,zero,804ff0 <__lo0bits+0x58>
  804fe8:	1806d13a 	srli	r3,r3,4
  804fec:	10800104 	addi	r2,r2,4
  804ff0:	194000cc 	andi	r5,r3,3
  804ff4:	2800021e 	bne	r5,zero,805000 <__lo0bits+0x68>
  804ff8:	1806d0ba 	srli	r3,r3,2
  804ffc:	10800084 	addi	r2,r2,2
  805000:	1940004c 	andi	r5,r3,1
  805004:	2800031e 	bne	r5,zero,805014 <__lo0bits+0x7c>
  805008:	1806d07a 	srli	r3,r3,1
  80500c:	10800044 	addi	r2,r2,1
  805010:	18000726 	beq	r3,zero,805030 <__lo0bits+0x98>
  805014:	20c00015 	stw	r3,0(r4)
  805018:	f800283a 	ret
  80501c:	1806d43a 	srli	r3,r3,16
  805020:	00800404 	movi	r2,16
  805024:	003fea06 	br	804fd0 <__lo0bits+0x38>
  805028:	0005883a 	mov	r2,zero
  80502c:	f800283a 	ret
  805030:	00800804 	movi	r2,32
  805034:	f800283a 	ret
  805038:	1806d0ba 	srli	r3,r3,2
  80503c:	00800084 	movi	r2,2
  805040:	20c00015 	stw	r3,0(r4)
  805044:	f800283a 	ret

00805048 <__i2b>:
  805048:	20c01317 	ldw	r3,76(r4)
  80504c:	defffd04 	addi	sp,sp,-12
  805050:	dc400115 	stw	r17,4(sp)
  805054:	dc000015 	stw	r16,0(sp)
  805058:	dfc00215 	stw	ra,8(sp)
  80505c:	2021883a 	mov	r16,r4
  805060:	2823883a 	mov	r17,r5
  805064:	18000d26 	beq	r3,zero,80509c <__i2b+0x54>
  805068:	18800117 	ldw	r2,4(r3)
  80506c:	10001826 	beq	r2,zero,8050d0 <__i2b+0x88>
  805070:	11000017 	ldw	r4,0(r2)
  805074:	19000115 	stw	r4,4(r3)
  805078:	00c00044 	movi	r3,1
  80507c:	10000315 	stw	zero,12(r2)
  805080:	14400515 	stw	r17,20(r2)
  805084:	10c00415 	stw	r3,16(r2)
  805088:	dfc00217 	ldw	ra,8(sp)
  80508c:	dc400117 	ldw	r17,4(sp)
  805090:	dc000017 	ldw	r16,0(sp)
  805094:	dec00304 	addi	sp,sp,12
  805098:	f800283a 	ret
  80509c:	01800844 	movi	r6,33
  8050a0:	01400104 	movi	r5,4
  8050a4:	080719c0 	call	80719c <_calloc_r>
  8050a8:	80801315 	stw	r2,76(r16)
  8050ac:	1007883a 	mov	r3,r2
  8050b0:	103fed1e 	bne	r2,zero,805068 <__i2b+0x20>
  8050b4:	01c02074 	movhi	r7,129
  8050b8:	01002074 	movhi	r4,129
  8050bc:	39fabb04 	addi	r7,r7,-5396
  8050c0:	000d883a 	mov	r6,zero
  8050c4:	01405004 	movi	r5,320
  8050c8:	213ad004 	addi	r4,r4,-5312
  8050cc:	08071240 	call	807124 <__assert_func>
  8050d0:	01800704 	movi	r6,28
  8050d4:	01400044 	movi	r5,1
  8050d8:	8009883a 	mov	r4,r16
  8050dc:	080719c0 	call	80719c <_calloc_r>
  8050e0:	103ff426 	beq	r2,zero,8050b4 <__i2b+0x6c>
  8050e4:	00c00044 	movi	r3,1
  8050e8:	10c00115 	stw	r3,4(r2)
  8050ec:	00c00084 	movi	r3,2
  8050f0:	10c00215 	stw	r3,8(r2)
  8050f4:	003fe006 	br	805078 <__i2b+0x30>

008050f8 <__multiply>:
  8050f8:	defff004 	addi	sp,sp,-64
  8050fc:	dd800c15 	stw	r22,48(sp)
  805100:	dc400715 	stw	r17,28(sp)
  805104:	2d800417 	ldw	r22,16(r5)
  805108:	34400417 	ldw	r17,16(r6)
  80510c:	dc800815 	stw	r18,32(sp)
  805110:	dc000615 	stw	r16,24(sp)
  805114:	dfc00f15 	stw	ra,60(sp)
  805118:	df000e15 	stw	fp,56(sp)
  80511c:	ddc00d15 	stw	r23,52(sp)
  805120:	dd400b15 	stw	r21,44(sp)
  805124:	dd000a15 	stw	r20,40(sp)
  805128:	dcc00915 	stw	r19,36(sp)
  80512c:	2825883a 	mov	r18,r5
  805130:	3021883a 	mov	r16,r6
  805134:	b4400516 	blt	r22,r17,80514c <__multiply+0x54>
  805138:	8807883a 	mov	r3,r17
  80513c:	2821883a 	mov	r16,r5
  805140:	b023883a 	mov	r17,r22
  805144:	3025883a 	mov	r18,r6
  805148:	182d883a 	mov	r22,r3
  80514c:	80800217 	ldw	r2,8(r16)
  805150:	8d87883a 	add	r3,r17,r22
  805154:	d8c00015 	stw	r3,0(sp)
  805158:	81400117 	ldw	r5,4(r16)
  80515c:	10c0010e 	bge	r2,r3,805164 <__multiply+0x6c>
  805160:	29400044 	addi	r5,r5,1
  805164:	0804bd80 	call	804bd8 <_Balloc>
  805168:	d8800515 	stw	r2,20(sp)
  80516c:	10008c26 	beq	r2,zero,8053a0 <__multiply+0x2a8>
  805170:	d8800017 	ldw	r2,0(sp)
  805174:	102690ba 	slli	r19,r2,2
  805178:	d8800517 	ldw	r2,20(sp)
  80517c:	15000504 	addi	r20,r2,20
  805180:	a4c5883a 	add	r2,r20,r19
  805184:	d8800115 	stw	r2,4(sp)
  805188:	a0800a2e 	bgeu	r20,r2,8051b4 <__multiply+0xbc>
  80518c:	d8800117 	ldw	r2,4(sp)
  805190:	d8c00517 	ldw	r3,20(sp)
  805194:	000b883a 	mov	r5,zero
  805198:	a009883a 	mov	r4,r20
  80519c:	10cdc83a 	sub	r6,r2,r3
  8051a0:	31bffac4 	addi	r6,r6,-21
  8051a4:	300cd0ba 	srli	r6,r6,2
  8051a8:	31800044 	addi	r6,r6,1
  8051ac:	300c90ba 	slli	r6,r6,2
  8051b0:	0800a900 	call	800a90 <memset>
  8051b4:	b02c90ba 	slli	r22,r22,2
  8051b8:	882290ba 	slli	r17,r17,2
  8051bc:	94800504 	addi	r18,r18,20
  8051c0:	80800504 	addi	r2,r16,20
  8051c4:	9587883a 	add	r3,r18,r22
  8051c8:	d8800315 	stw	r2,12(sp)
  8051cc:	d8c00215 	stw	r3,8(sp)
  8051d0:	1463883a 	add	r17,r2,r17
  8051d4:	90c0542e 	bgeu	r18,r3,805328 <__multiply+0x230>
  8051d8:	80800544 	addi	r2,r16,21
  8051dc:	88806d36 	bltu	r17,r2,805394 <__multiply+0x29c>
  8051e0:	8c05c83a 	sub	r2,r17,r16
  8051e4:	10bffac4 	addi	r2,r2,-21
  8051e8:	1004d0ba 	srli	r2,r2,2
  8051ec:	10800044 	addi	r2,r2,1
  8051f0:	100490ba 	slli	r2,r2,2
  8051f4:	d8800415 	stw	r2,16(sp)
  8051f8:	00000606 	br	805214 <__multiply+0x11c>
  8051fc:	102ad43a 	srli	r21,r2,16
  805200:	a800271e 	bne	r21,zero,8052a0 <__multiply+0x1a8>
  805204:	d8800217 	ldw	r2,8(sp)
  805208:	94800104 	addi	r18,r18,4
  80520c:	a5000104 	addi	r20,r20,4
  805210:	9080452e 	bgeu	r18,r2,805328 <__multiply+0x230>
  805214:	90800017 	ldw	r2,0(r18)
  805218:	15ffffcc 	andi	r23,r2,65535
  80521c:	b83ff726 	beq	r23,zero,8051fc <__multiply+0x104>
  805220:	dd400317 	ldw	r21,12(sp)
  805224:	a02d883a 	mov	r22,r20
  805228:	0027883a 	mov	r19,zero
  80522c:	af000017 	ldw	fp,0(r21)
  805230:	b4000017 	ldw	r16,0(r22)
  805234:	b80b883a 	mov	r5,r23
  805238:	e13fffcc 	andi	r4,fp,65535
  80523c:	080bd8c0 	call	80bd8c <__mulsi3>
  805240:	e008d43a 	srli	r4,fp,16
  805244:	823fffcc 	andi	r8,r16,65535
  805248:	1205883a 	add	r2,r2,r8
  80524c:	b80b883a 	mov	r5,r23
  805250:	14e7883a 	add	r19,r2,r19
  805254:	8020d43a 	srli	r16,r16,16
  805258:	080bd8c0 	call	80bd8c <__mulsi3>
  80525c:	9808d43a 	srli	r4,r19,16
  805260:	1405883a 	add	r2,r2,r16
  805264:	98ffffcc 	andi	r3,r19,65535
  805268:	1105883a 	add	r2,r2,r4
  80526c:	1008943a 	slli	r4,r2,16
  805270:	b5800104 	addi	r22,r22,4
  805274:	ad400104 	addi	r21,r21,4
  805278:	20c6b03a 	or	r3,r4,r3
  80527c:	b0ffff15 	stw	r3,-4(r22)
  805280:	1026d43a 	srli	r19,r2,16
  805284:	ac7fe936 	bltu	r21,r17,80522c <__multiply+0x134>
  805288:	d8800417 	ldw	r2,16(sp)
  80528c:	a085883a 	add	r2,r20,r2
  805290:	14c00015 	stw	r19,0(r2)
  805294:	90800017 	ldw	r2,0(r18)
  805298:	102ad43a 	srli	r21,r2,16
  80529c:	a83fd926 	beq	r21,zero,805204 <__multiply+0x10c>
  8052a0:	a5c00017 	ldw	r23,0(r20)
  8052a4:	dd800317 	ldw	r22,12(sp)
  8052a8:	a027883a 	mov	r19,r20
  8052ac:	b821883a 	mov	r16,r23
  8052b0:	0039883a 	mov	fp,zero
  8052b4:	b100000b 	ldhu	r4,0(r22)
  8052b8:	a80b883a 	mov	r5,r21
  8052bc:	9cc00104 	addi	r19,r19,4
  8052c0:	080bd8c0 	call	80bd8c <__mulsi3>
  8052c4:	800cd43a 	srli	r6,r16,16
  8052c8:	b8ffffcc 	andi	r3,r23,65535
  8052cc:	b5800104 	addi	r22,r22,4
  8052d0:	118d883a 	add	r6,r2,r6
  8052d4:	3739883a 	add	fp,r6,fp
  8052d8:	e004943a 	slli	r2,fp,16
  8052dc:	9c000017 	ldw	r16,0(r19)
  8052e0:	a80b883a 	mov	r5,r21
  8052e4:	10c6b03a 	or	r3,r2,r3
  8052e8:	98ffff15 	stw	r3,-4(r19)
  8052ec:	b13fff8b 	ldhu	r4,-2(r22)
  8052f0:	080bd8c0 	call	80bd8c <__mulsi3>
  8052f4:	e00cd43a 	srli	r6,fp,16
  8052f8:	80ffffcc 	andi	r3,r16,65535
  8052fc:	10c7883a 	add	r3,r2,r3
  805300:	19af883a 	add	r23,r3,r6
  805304:	b838d43a 	srli	fp,r23,16
  805308:	b47fea36 	bltu	r22,r17,8052b4 <__multiply+0x1bc>
  80530c:	d8800417 	ldw	r2,16(sp)
  805310:	94800104 	addi	r18,r18,4
  805314:	a085883a 	add	r2,r20,r2
  805318:	15c00015 	stw	r23,0(r2)
  80531c:	d8800217 	ldw	r2,8(sp)
  805320:	a5000104 	addi	r20,r20,4
  805324:	90bfbb36 	bltu	r18,r2,805214 <__multiply+0x11c>
  805328:	d8800017 	ldw	r2,0(sp)
  80532c:	00800516 	blt	zero,r2,805344 <__multiply+0x24c>
  805330:	00000906 	br	805358 <__multiply+0x260>
  805334:	d8800017 	ldw	r2,0(sp)
  805338:	10bfffc4 	addi	r2,r2,-1
  80533c:	d8800015 	stw	r2,0(sp)
  805340:	10000526 	beq	r2,zero,805358 <__multiply+0x260>
  805344:	d8c00117 	ldw	r3,4(sp)
  805348:	18bfff17 	ldw	r2,-4(r3)
  80534c:	18ffff04 	addi	r3,r3,-4
  805350:	d8c00115 	stw	r3,4(sp)
  805354:	103ff726 	beq	r2,zero,805334 <__multiply+0x23c>
  805358:	d8800517 	ldw	r2,20(sp)
  80535c:	d8c00017 	ldw	r3,0(sp)
  805360:	10c00415 	stw	r3,16(r2)
  805364:	dfc00f17 	ldw	ra,60(sp)
  805368:	df000e17 	ldw	fp,56(sp)
  80536c:	ddc00d17 	ldw	r23,52(sp)
  805370:	dd800c17 	ldw	r22,48(sp)
  805374:	dd400b17 	ldw	r21,44(sp)
  805378:	dd000a17 	ldw	r20,40(sp)
  80537c:	dcc00917 	ldw	r19,36(sp)
  805380:	dc800817 	ldw	r18,32(sp)
  805384:	dc400717 	ldw	r17,28(sp)
  805388:	dc000617 	ldw	r16,24(sp)
  80538c:	dec01004 	addi	sp,sp,64
  805390:	f800283a 	ret
  805394:	00800104 	movi	r2,4
  805398:	d8800415 	stw	r2,16(sp)
  80539c:	003f9d06 	br	805214 <__multiply+0x11c>
  8053a0:	01c02074 	movhi	r7,129
  8053a4:	01002074 	movhi	r4,129
  8053a8:	39fabb04 	addi	r7,r7,-5396
  8053ac:	000d883a 	mov	r6,zero
  8053b0:	01405744 	movi	r5,349
  8053b4:	213ad004 	addi	r4,r4,-5312
  8053b8:	08071240 	call	807124 <__assert_func>

008053bc <__pow5mult>:
  8053bc:	defffb04 	addi	sp,sp,-20
  8053c0:	dcc00315 	stw	r19,12(sp)
  8053c4:	dc000015 	stw	r16,0(sp)
  8053c8:	dfc00415 	stw	ra,16(sp)
  8053cc:	dc800215 	stw	r18,8(sp)
  8053d0:	dc400115 	stw	r17,4(sp)
  8053d4:	308000cc 	andi	r2,r6,3
  8053d8:	3021883a 	mov	r16,r6
  8053dc:	2027883a 	mov	r19,r4
  8053e0:	10002d1e 	bne	r2,zero,805498 <__pow5mult+0xdc>
  8053e4:	2825883a 	mov	r18,r5
  8053e8:	8021d0ba 	srai	r16,r16,2
  8053ec:	80001926 	beq	r16,zero,805454 <__pow5mult+0x98>
  8053f0:	9c401217 	ldw	r17,72(r19)
  8053f4:	8800061e 	bne	r17,zero,805410 <__pow5mult+0x54>
  8053f8:	00002f06 	br	8054b8 <__pow5mult+0xfc>
  8053fc:	8021d07a 	srai	r16,r16,1
  805400:	80001426 	beq	r16,zero,805454 <__pow5mult+0x98>
  805404:	88800017 	ldw	r2,0(r17)
  805408:	10001a26 	beq	r2,zero,805474 <__pow5mult+0xb8>
  80540c:	1023883a 	mov	r17,r2
  805410:	8080004c 	andi	r2,r16,1
  805414:	103ff926 	beq	r2,zero,8053fc <__pow5mult+0x40>
  805418:	880d883a 	mov	r6,r17
  80541c:	900b883a 	mov	r5,r18
  805420:	9809883a 	mov	r4,r19
  805424:	08050f80 	call	8050f8 <__multiply>
  805428:	90001926 	beq	r18,zero,805490 <__pow5mult+0xd4>
  80542c:	91000117 	ldw	r4,4(r18)
  805430:	98c01317 	ldw	r3,76(r19)
  805434:	8021d07a 	srai	r16,r16,1
  805438:	200890ba 	slli	r4,r4,2
  80543c:	1907883a 	add	r3,r3,r4
  805440:	19000017 	ldw	r4,0(r3)
  805444:	91000015 	stw	r4,0(r18)
  805448:	1c800015 	stw	r18,0(r3)
  80544c:	1025883a 	mov	r18,r2
  805450:	803fec1e 	bne	r16,zero,805404 <__pow5mult+0x48>
  805454:	9005883a 	mov	r2,r18
  805458:	dfc00417 	ldw	ra,16(sp)
  80545c:	dcc00317 	ldw	r19,12(sp)
  805460:	dc800217 	ldw	r18,8(sp)
  805464:	dc400117 	ldw	r17,4(sp)
  805468:	dc000017 	ldw	r16,0(sp)
  80546c:	dec00504 	addi	sp,sp,20
  805470:	f800283a 	ret
  805474:	880d883a 	mov	r6,r17
  805478:	880b883a 	mov	r5,r17
  80547c:	9809883a 	mov	r4,r19
  805480:	08050f80 	call	8050f8 <__multiply>
  805484:	88800015 	stw	r2,0(r17)
  805488:	10000015 	stw	zero,0(r2)
  80548c:	003fdf06 	br	80540c <__pow5mult+0x50>
  805490:	1025883a 	mov	r18,r2
  805494:	003fd906 	br	8053fc <__pow5mult+0x40>
  805498:	100490ba 	slli	r2,r2,2
  80549c:	00c02074 	movhi	r3,129
  8054a0:	000f883a 	mov	r7,zero
  8054a4:	10c7883a 	add	r3,r2,r3
  8054a8:	19badf17 	ldw	r6,-5252(r3)
  8054ac:	0804ca00 	call	804ca0 <__multadd>
  8054b0:	1025883a 	mov	r18,r2
  8054b4:	003fcc06 	br	8053e8 <__pow5mult+0x2c>
  8054b8:	01400044 	movi	r5,1
  8054bc:	9809883a 	mov	r4,r19
  8054c0:	0804bd80 	call	804bd8 <_Balloc>
  8054c4:	1023883a 	mov	r17,r2
  8054c8:	10000726 	beq	r2,zero,8054e8 <__pow5mult+0x12c>
  8054cc:	00809c44 	movi	r2,625
  8054d0:	88800515 	stw	r2,20(r17)
  8054d4:	00800044 	movi	r2,1
  8054d8:	88800415 	stw	r2,16(r17)
  8054dc:	9c401215 	stw	r17,72(r19)
  8054e0:	88000015 	stw	zero,0(r17)
  8054e4:	003fca06 	br	805410 <__pow5mult+0x54>
  8054e8:	01c02074 	movhi	r7,129
  8054ec:	01002074 	movhi	r4,129
  8054f0:	39fabb04 	addi	r7,r7,-5396
  8054f4:	000d883a 	mov	r6,zero
  8054f8:	01405004 	movi	r5,320
  8054fc:	213ad004 	addi	r4,r4,-5312
  805500:	08071240 	call	807124 <__assert_func>

00805504 <__lshift>:
  805504:	defff804 	addi	sp,sp,-32
  805508:	dd800615 	stw	r22,24(sp)
  80550c:	dc000015 	stw	r16,0(sp)
  805510:	302dd17a 	srai	r22,r6,5
  805514:	2c000417 	ldw	r16,16(r5)
  805518:	28800217 	ldw	r2,8(r5)
  80551c:	dd000415 	stw	r20,16(sp)
  805520:	b421883a 	add	r16,r22,r16
  805524:	dcc00315 	stw	r19,12(sp)
  805528:	dc800215 	stw	r18,8(sp)
  80552c:	dc400115 	stw	r17,4(sp)
  805530:	dfc00715 	stw	ra,28(sp)
  805534:	dd400515 	stw	r21,20(sp)
  805538:	85000044 	addi	r20,r16,1
  80553c:	2827883a 	mov	r19,r5
  805540:	3025883a 	mov	r18,r6
  805544:	29400117 	ldw	r5,4(r5)
  805548:	2023883a 	mov	r17,r4
  80554c:	1500030e 	bge	r2,r20,80555c <__lshift+0x58>
  805550:	1085883a 	add	r2,r2,r2
  805554:	29400044 	addi	r5,r5,1
  805558:	153ffd16 	blt	r2,r20,805550 <__lshift+0x4c>
  80555c:	8809883a 	mov	r4,r17
  805560:	0804bd80 	call	804bd8 <_Balloc>
  805564:	102b883a 	mov	r21,r2
  805568:	10004126 	beq	r2,zero,805670 <__lshift+0x16c>
  80556c:	11000504 	addi	r4,r2,20
  805570:	0580050e 	bge	zero,r22,805588 <__lshift+0x84>
  805574:	b02c90ba 	slli	r22,r22,2
  805578:	000b883a 	mov	r5,zero
  80557c:	b00d883a 	mov	r6,r22
  805580:	0800a900 	call	800a90 <memset>
  805584:	1589883a 	add	r4,r2,r22
  805588:	9a000417 	ldw	r8,16(r19)
  80558c:	98c00504 	addi	r3,r19,20
  805590:	948007cc 	andi	r18,r18,31
  805594:	401090ba 	slli	r8,r8,2
  805598:	1a11883a 	add	r8,r3,r8
  80559c:	90002c26 	beq	r18,zero,805650 <__lshift+0x14c>
  8055a0:	01400804 	movi	r5,32
  8055a4:	2c8bc83a 	sub	r5,r5,r18
  8055a8:	2005883a 	mov	r2,r4
  8055ac:	000f883a 	mov	r7,zero
  8055b0:	19800017 	ldw	r6,0(r3)
  8055b4:	10800104 	addi	r2,r2,4
  8055b8:	18c00104 	addi	r3,r3,4
  8055bc:	348c983a 	sll	r6,r6,r18
  8055c0:	31ccb03a 	or	r6,r6,r7
  8055c4:	11bfff15 	stw	r6,-4(r2)
  8055c8:	19bfff17 	ldw	r6,-4(r3)
  8055cc:	314ed83a 	srl	r7,r6,r5
  8055d0:	1a3ff736 	bltu	r3,r8,8055b0 <__lshift+0xac>
  8055d4:	98800544 	addi	r2,r19,21
  8055d8:	40802336 	bltu	r8,r2,805668 <__lshift+0x164>
  8055dc:	44c7c83a 	sub	r3,r8,r19
  8055e0:	18fffac4 	addi	r3,r3,-21
  8055e4:	1806d0ba 	srli	r3,r3,2
  8055e8:	18c00044 	addi	r3,r3,1
  8055ec:	180690ba 	slli	r3,r3,2
  8055f0:	20c9883a 	add	r4,r4,r3
  8055f4:	21c00015 	stw	r7,0(r4)
  8055f8:	38000126 	beq	r7,zero,805600 <__lshift+0xfc>
  8055fc:	a021883a 	mov	r16,r20
  805600:	ac000415 	stw	r16,16(r21)
  805604:	98000726 	beq	r19,zero,805624 <__lshift+0x120>
  805608:	98c00117 	ldw	r3,4(r19)
  80560c:	88801317 	ldw	r2,76(r17)
  805610:	180690ba 	slli	r3,r3,2
  805614:	10c5883a 	add	r2,r2,r3
  805618:	10c00017 	ldw	r3,0(r2)
  80561c:	98c00015 	stw	r3,0(r19)
  805620:	14c00015 	stw	r19,0(r2)
  805624:	a805883a 	mov	r2,r21
  805628:	dfc00717 	ldw	ra,28(sp)
  80562c:	dd800617 	ldw	r22,24(sp)
  805630:	dd400517 	ldw	r21,20(sp)
  805634:	dd000417 	ldw	r20,16(sp)
  805638:	dcc00317 	ldw	r19,12(sp)
  80563c:	dc800217 	ldw	r18,8(sp)
  805640:	dc400117 	ldw	r17,4(sp)
  805644:	dc000017 	ldw	r16,0(sp)
  805648:	dec00804 	addi	sp,sp,32
  80564c:	f800283a 	ret
  805650:	18800017 	ldw	r2,0(r3)
  805654:	18c00104 	addi	r3,r3,4
  805658:	21000104 	addi	r4,r4,4
  80565c:	20bfff15 	stw	r2,-4(r4)
  805660:	1a3ffb36 	bltu	r3,r8,805650 <__lshift+0x14c>
  805664:	003fe606 	br	805600 <__lshift+0xfc>
  805668:	00c00104 	movi	r3,4
  80566c:	003fe006 	br	8055f0 <__lshift+0xec>
  805670:	01c02074 	movhi	r7,129
  805674:	01002074 	movhi	r4,129
  805678:	39fabb04 	addi	r7,r7,-5396
  80567c:	000d883a 	mov	r6,zero
  805680:	01407644 	movi	r5,473
  805684:	213ad004 	addi	r4,r4,-5312
  805688:	08071240 	call	807124 <__assert_func>

0080568c <__mcmp>:
  80568c:	21800417 	ldw	r6,16(r4)
  805690:	28c00417 	ldw	r3,16(r5)
  805694:	30c5c83a 	sub	r2,r6,r3
  805698:	30c00e1e 	bne	r6,r3,8056d4 <__mcmp+0x48>
  80569c:	180690ba 	slli	r3,r3,2
  8056a0:	21c00504 	addi	r7,r4,20
  8056a4:	29400504 	addi	r5,r5,20
  8056a8:	38c9883a 	add	r4,r7,r3
  8056ac:	28c7883a 	add	r3,r5,r3
  8056b0:	00000106 	br	8056b8 <__mcmp+0x2c>
  8056b4:	3900082e 	bgeu	r7,r4,8056d8 <__mcmp+0x4c>
  8056b8:	21bfff17 	ldw	r6,-4(r4)
  8056bc:	197fff17 	ldw	r5,-4(r3)
  8056c0:	213fff04 	addi	r4,r4,-4
  8056c4:	18ffff04 	addi	r3,r3,-4
  8056c8:	317ffa26 	beq	r6,r5,8056b4 <__mcmp+0x28>
  8056cc:	3140032e 	bgeu	r6,r5,8056dc <__mcmp+0x50>
  8056d0:	00bfffc4 	movi	r2,-1
  8056d4:	f800283a 	ret
  8056d8:	f800283a 	ret
  8056dc:	00800044 	movi	r2,1
  8056e0:	f800283a 	ret

008056e4 <__mdiff>:
  8056e4:	28800417 	ldw	r2,16(r5)
  8056e8:	30c00417 	ldw	r3,16(r6)
  8056ec:	defffc04 	addi	sp,sp,-16
  8056f0:	dc800215 	stw	r18,8(sp)
  8056f4:	dc400115 	stw	r17,4(sp)
  8056f8:	dc000015 	stw	r16,0(sp)
  8056fc:	dfc00315 	stw	ra,12(sp)
  805700:	2823883a 	mov	r17,r5
  805704:	3021883a 	mov	r16,r6
  805708:	10e5c83a 	sub	r18,r2,r3
  80570c:	10c0641e 	bne	r2,r3,8058a0 <__mdiff+0x1bc>
  805710:	180c90ba 	slli	r6,r3,2
  805714:	29400504 	addi	r5,r5,20
  805718:	80c00504 	addi	r3,r16,20
  80571c:	2985883a 	add	r2,r5,r6
  805720:	1987883a 	add	r3,r3,r6
  805724:	00000106 	br	80572c <__mdiff+0x48>
  805728:	2880642e 	bgeu	r5,r2,8058bc <__mdiff+0x1d8>
  80572c:	11bfff17 	ldw	r6,-4(r2)
  805730:	19ffff17 	ldw	r7,-4(r3)
  805734:	10bfff04 	addi	r2,r2,-4
  805738:	18ffff04 	addi	r3,r3,-4
  80573c:	31fffa26 	beq	r6,r7,805728 <__mdiff+0x44>
  805740:	31c05236 	bltu	r6,r7,80588c <__mdiff+0x1a8>
  805744:	89400117 	ldw	r5,4(r17)
  805748:	0804bd80 	call	804bd8 <_Balloc>
  80574c:	10006226 	beq	r2,zero,8058d8 <__mdiff+0x1f4>
  805750:	8a400417 	ldw	r9,16(r17)
  805754:	83000417 	ldw	r12,16(r16)
  805758:	8ac00504 	addi	r11,r17,20
  80575c:	481090ba 	slli	r8,r9,2
  805760:	601890ba 	slli	r12,r12,2
  805764:	81800504 	addi	r6,r16,20
  805768:	13400504 	addi	r13,r2,20
  80576c:	14800315 	stw	r18,12(r2)
  805770:	5a11883a 	add	r8,r11,r8
  805774:	3319883a 	add	r12,r6,r12
  805778:	681d883a 	mov	r14,r13
  80577c:	5815883a 	mov	r10,r11
  805780:	0007883a 	mov	r3,zero
  805784:	51000017 	ldw	r4,0(r10)
  805788:	31c00017 	ldw	r7,0(r6)
  80578c:	73800104 	addi	r14,r14,4
  805790:	217fffcc 	andi	r5,r4,65535
  805794:	28cb883a 	add	r5,r5,r3
  805798:	38ffffcc 	andi	r3,r7,65535
  80579c:	28cbc83a 	sub	r5,r5,r3
  8057a0:	380ed43a 	srli	r7,r7,16
  8057a4:	2006d43a 	srli	r3,r4,16
  8057a8:	2809d43a 	srai	r4,r5,16
  8057ac:	297fffcc 	andi	r5,r5,65535
  8057b0:	19c7c83a 	sub	r3,r3,r7
  8057b4:	1907883a 	add	r3,r3,r4
  8057b8:	1808943a 	slli	r4,r3,16
  8057bc:	31800104 	addi	r6,r6,4
  8057c0:	1807d43a 	srai	r3,r3,16
  8057c4:	214ab03a 	or	r5,r4,r5
  8057c8:	717fff15 	stw	r5,-4(r14)
  8057cc:	52800104 	addi	r10,r10,4
  8057d0:	333fec36 	bltu	r6,r12,805784 <__mdiff+0xa0>
  8057d4:	640fc83a 	sub	r7,r12,r16
  8057d8:	39fffac4 	addi	r7,r7,-21
  8057dc:	84000544 	addi	r16,r16,21
  8057e0:	380ed0ba 	srli	r7,r7,2
  8057e4:	64003336 	bltu	r12,r16,8058b4 <__mdiff+0x1d0>
  8057e8:	380890ba 	slli	r4,r7,2
  8057ec:	6909883a 	add	r4,r13,r4
  8057f0:	64002e36 	bltu	r12,r16,8058ac <__mdiff+0x1c8>
  8057f4:	39800044 	addi	r6,r7,1
  8057f8:	300c90ba 	slli	r6,r6,2
  8057fc:	5997883a 	add	r11,r11,r6
  805800:	699b883a 	add	r13,r13,r6
  805804:	5a00152e 	bgeu	r11,r8,80585c <__mdiff+0x178>
  805808:	680f883a 	mov	r7,r13
  80580c:	580d883a 	mov	r6,r11
  805810:	31000017 	ldw	r4,0(r6)
  805814:	39c00104 	addi	r7,r7,4
  805818:	31800104 	addi	r6,r6,4
  80581c:	217fffcc 	andi	r5,r4,65535
  805820:	28cb883a 	add	r5,r5,r3
  805824:	2815d43a 	srai	r10,r5,16
  805828:	2006d43a 	srli	r3,r4,16
  80582c:	297fffcc 	andi	r5,r5,65535
  805830:	1a87883a 	add	r3,r3,r10
  805834:	1814943a 	slli	r10,r3,16
  805838:	1807d43a 	srai	r3,r3,16
  80583c:	514ab03a 	or	r5,r10,r5
  805840:	397fff15 	stw	r5,-4(r7)
  805844:	323ff236 	bltu	r6,r8,805810 <__mdiff+0x12c>
  805848:	413fffc4 	addi	r4,r8,-1
  80584c:	22c9c83a 	sub	r4,r4,r11
  805850:	2008d0ba 	srli	r4,r4,2
  805854:	200890ba 	slli	r4,r4,2
  805858:	6909883a 	add	r4,r13,r4
  80585c:	2800041e 	bne	r5,zero,805870 <__mdiff+0x18c>
  805860:	20ffff17 	ldw	r3,-4(r4)
  805864:	4a7fffc4 	addi	r9,r9,-1
  805868:	213fff04 	addi	r4,r4,-4
  80586c:	183ffc26 	beq	r3,zero,805860 <__mdiff+0x17c>
  805870:	12400415 	stw	r9,16(r2)
  805874:	dfc00317 	ldw	ra,12(sp)
  805878:	dc800217 	ldw	r18,8(sp)
  80587c:	dc400117 	ldw	r17,4(sp)
  805880:	dc000017 	ldw	r16,0(sp)
  805884:	dec00404 	addi	sp,sp,16
  805888:	f800283a 	ret
  80588c:	8805883a 	mov	r2,r17
  805890:	04800044 	movi	r18,1
  805894:	8023883a 	mov	r17,r16
  805898:	1021883a 	mov	r16,r2
  80589c:	003fa906 	br	805744 <__mdiff+0x60>
  8058a0:	903ffa16 	blt	r18,zero,80588c <__mdiff+0x1a8>
  8058a4:	0025883a 	mov	r18,zero
  8058a8:	003fa606 	br	805744 <__mdiff+0x60>
  8058ac:	01800104 	movi	r6,4
  8058b0:	003fd206 	br	8057fc <__mdiff+0x118>
  8058b4:	0009883a 	mov	r4,zero
  8058b8:	003fcc06 	br	8057ec <__mdiff+0x108>
  8058bc:	000b883a 	mov	r5,zero
  8058c0:	0804bd80 	call	804bd8 <_Balloc>
  8058c4:	10000b26 	beq	r2,zero,8058f4 <__mdiff+0x210>
  8058c8:	00c00044 	movi	r3,1
  8058cc:	10c00415 	stw	r3,16(r2)
  8058d0:	10000515 	stw	zero,20(r2)
  8058d4:	003fe706 	br	805874 <__mdiff+0x190>
  8058d8:	01c02074 	movhi	r7,129
  8058dc:	01002074 	movhi	r4,129
  8058e0:	39fabb04 	addi	r7,r7,-5396
  8058e4:	000d883a 	mov	r6,zero
  8058e8:	01409004 	movi	r5,576
  8058ec:	213ad004 	addi	r4,r4,-5312
  8058f0:	08071240 	call	807124 <__assert_func>
  8058f4:	01c02074 	movhi	r7,129
  8058f8:	01002074 	movhi	r4,129
  8058fc:	39fabb04 	addi	r7,r7,-5396
  805900:	000d883a 	mov	r6,zero
  805904:	01408c84 	movi	r5,562
  805908:	213ad004 	addi	r4,r4,-5312
  80590c:	08071240 	call	807124 <__assert_func>

00805910 <__ulp>:
  805910:	28dffc2c 	andhi	r3,r5,32752
  805914:	017f3034 	movhi	r5,64704
  805918:	1947883a 	add	r3,r3,r5
  80591c:	00c0020e 	bge	zero,r3,805928 <__ulp+0x18>
  805920:	0005883a 	mov	r2,zero
  805924:	f800283a 	ret
  805928:	00c7c83a 	sub	r3,zero,r3
  80592c:	1807d53a 	srai	r3,r3,20
  805930:	18800508 	cmpgei	r2,r3,20
  805934:	1000041e 	bne	r2,zero,805948 <__ulp+0x38>
  805938:	00800234 	movhi	r2,8
  80593c:	10c7d83a 	sra	r3,r2,r3
  805940:	0005883a 	mov	r2,zero
  805944:	f800283a 	ret
  805948:	193ffb04 	addi	r4,r3,-20
  80594c:	208007c8 	cmpgei	r2,r4,31
  805950:	0007883a 	mov	r3,zero
  805954:	1000031e 	bne	r2,zero,805964 <__ulp+0x54>
  805958:	00a00034 	movhi	r2,32768
  80595c:	1104d83a 	srl	r2,r2,r4
  805960:	f800283a 	ret
  805964:	00800044 	movi	r2,1
  805968:	f800283a 	ret

0080596c <__b2d>:
  80596c:	defffa04 	addi	sp,sp,-24
  805970:	dc400115 	stw	r17,4(sp)
  805974:	24400417 	ldw	r17,16(r4)
  805978:	dc000015 	stw	r16,0(sp)
  80597c:	24000504 	addi	r16,r4,20
  805980:	882290ba 	slli	r17,r17,2
  805984:	dc800215 	stw	r18,8(sp)
  805988:	dd000415 	stw	r20,16(sp)
  80598c:	8463883a 	add	r17,r16,r17
  805990:	8cbfff17 	ldw	r18,-4(r17)
  805994:	dcc00315 	stw	r19,12(sp)
  805998:	dfc00515 	stw	ra,20(sp)
  80599c:	9009883a 	mov	r4,r18
  8059a0:	2827883a 	mov	r19,r5
  8059a4:	0804f340 	call	804f34 <__hi0bits>
  8059a8:	00c00804 	movi	r3,32
  8059ac:	1889c83a 	sub	r4,r3,r2
  8059b0:	99000015 	stw	r4,0(r19)
  8059b4:	110002c8 	cmpgei	r4,r2,11
  8059b8:	8d3fff04 	addi	r20,r17,-4
  8059bc:	20002026 	beq	r4,zero,805a40 <__b2d+0xd4>
  8059c0:	10bffd44 	addi	r2,r2,-11
  8059c4:	85000e2e 	bgeu	r16,r20,805a00 <__b2d+0x94>
  8059c8:	897ffe17 	ldw	r5,-8(r17)
  8059cc:	10001226 	beq	r2,zero,805a18 <__b2d+0xac>
  8059d0:	1889c83a 	sub	r4,r3,r2
  8059d4:	90a4983a 	sll	r18,r18,r2
  8059d8:	2906d83a 	srl	r3,r5,r4
  8059dc:	89bffe04 	addi	r6,r17,-8
  8059e0:	2884983a 	sll	r2,r5,r2
  8059e4:	90e4b03a 	or	r18,r18,r3
  8059e8:	90cffc34 	orhi	r3,r18,16368
  8059ec:	81800c2e 	bgeu	r16,r6,805a20 <__b2d+0xb4>
  8059f0:	897ffd17 	ldw	r5,-12(r17)
  8059f4:	2908d83a 	srl	r4,r5,r4
  8059f8:	1104b03a 	or	r2,r2,r4
  8059fc:	00000806 	br	805a20 <__b2d+0xb4>
  805a00:	10000426 	beq	r2,zero,805a14 <__b2d+0xa8>
  805a04:	90a4983a 	sll	r18,r18,r2
  805a08:	0005883a 	mov	r2,zero
  805a0c:	90cffc34 	orhi	r3,r18,16368
  805a10:	00000306 	br	805a20 <__b2d+0xb4>
  805a14:	000b883a 	mov	r5,zero
  805a18:	90cffc34 	orhi	r3,r18,16368
  805a1c:	2805883a 	mov	r2,r5
  805a20:	dfc00517 	ldw	ra,20(sp)
  805a24:	dd000417 	ldw	r20,16(sp)
  805a28:	dcc00317 	ldw	r19,12(sp)
  805a2c:	dc800217 	ldw	r18,8(sp)
  805a30:	dc400117 	ldw	r17,4(sp)
  805a34:	dc000017 	ldw	r16,0(sp)
  805a38:	dec00604 	addi	sp,sp,24
  805a3c:	f800283a 	ret
  805a40:	014002c4 	movi	r5,11
  805a44:	2889c83a 	sub	r4,r5,r2
  805a48:	9106d83a 	srl	r3,r18,r4
  805a4c:	18cffc34 	orhi	r3,r3,16368
  805a50:	85000536 	bltu	r16,r20,805a68 <__b2d+0xfc>
  805a54:	000b883a 	mov	r5,zero
  805a58:	10800544 	addi	r2,r2,21
  805a5c:	9084983a 	sll	r2,r18,r2
  805a60:	1144b03a 	or	r2,r2,r5
  805a64:	003fee06 	br	805a20 <__b2d+0xb4>
  805a68:	897ffe17 	ldw	r5,-8(r17)
  805a6c:	290ad83a 	srl	r5,r5,r4
  805a70:	003ff906 	br	805a58 <__b2d+0xec>

00805a74 <__d2b>:
  805a74:	defff804 	addi	sp,sp,-32
  805a78:	dd000615 	stw	r20,24(sp)
  805a7c:	2829883a 	mov	r20,r5
  805a80:	01400044 	movi	r5,1
  805a84:	dcc00515 	stw	r19,20(sp)
  805a88:	dc000215 	stw	r16,8(sp)
  805a8c:	dfc00715 	stw	ra,28(sp)
  805a90:	dc800415 	stw	r18,16(sp)
  805a94:	dc400315 	stw	r17,12(sp)
  805a98:	3021883a 	mov	r16,r6
  805a9c:	3827883a 	mov	r19,r7
  805aa0:	0804bd80 	call	804bd8 <_Balloc>
  805aa4:	10004526 	beq	r2,zero,805bbc <__d2b+0x148>
  805aa8:	8024d53a 	srli	r18,r16,20
  805aac:	01800434 	movhi	r6,16
  805ab0:	31bfffc4 	addi	r6,r6,-1
  805ab4:	9481ffcc 	andi	r18,r18,2047
  805ab8:	1023883a 	mov	r17,r2
  805abc:	81a0703a 	and	r16,r16,r6
  805ac0:	90000126 	beq	r18,zero,805ac8 <__d2b+0x54>
  805ac4:	84000434 	orhi	r16,r16,16
  805ac8:	dc000115 	stw	r16,4(sp)
  805acc:	a0002226 	beq	r20,zero,805b58 <__d2b+0xe4>
  805ad0:	d809883a 	mov	r4,sp
  805ad4:	dd000015 	stw	r20,0(sp)
  805ad8:	0804f980 	call	804f98 <__lo0bits>
  805adc:	d8c00117 	ldw	r3,4(sp)
  805ae0:	10003326 	beq	r2,zero,805bb0 <__d2b+0x13c>
  805ae4:	01000804 	movi	r4,32
  805ae8:	2089c83a 	sub	r4,r4,r2
  805aec:	1908983a 	sll	r4,r3,r4
  805af0:	d9400017 	ldw	r5,0(sp)
  805af4:	1886d83a 	srl	r3,r3,r2
  805af8:	2148b03a 	or	r4,r4,r5
  805afc:	89000515 	stw	r4,20(r17)
  805b00:	d8c00115 	stw	r3,4(sp)
  805b04:	88c00615 	stw	r3,24(r17)
  805b08:	1800271e 	bne	r3,zero,805ba8 <__d2b+0x134>
  805b0c:	04000044 	movi	r16,1
  805b10:	8c000415 	stw	r16,16(r17)
  805b14:	90001926 	beq	r18,zero,805b7c <__d2b+0x108>
  805b18:	00c00d44 	movi	r3,53
  805b1c:	94bef344 	addi	r18,r18,-1075
  805b20:	90a5883a 	add	r18,r18,r2
  805b24:	1885c83a 	sub	r2,r3,r2
  805b28:	d8c00817 	ldw	r3,32(sp)
  805b2c:	9c800015 	stw	r18,0(r19)
  805b30:	18800015 	stw	r2,0(r3)
  805b34:	8805883a 	mov	r2,r17
  805b38:	dfc00717 	ldw	ra,28(sp)
  805b3c:	dd000617 	ldw	r20,24(sp)
  805b40:	dcc00517 	ldw	r19,20(sp)
  805b44:	dc800417 	ldw	r18,16(sp)
  805b48:	dc400317 	ldw	r17,12(sp)
  805b4c:	dc000217 	ldw	r16,8(sp)
  805b50:	dec00804 	addi	sp,sp,32
  805b54:	f800283a 	ret
  805b58:	d9000104 	addi	r4,sp,4
  805b5c:	0804f980 	call	804f98 <__lo0bits>
  805b60:	00c00044 	movi	r3,1
  805b64:	88c00415 	stw	r3,16(r17)
  805b68:	d8c00117 	ldw	r3,4(sp)
  805b6c:	10800804 	addi	r2,r2,32
  805b70:	04000044 	movi	r16,1
  805b74:	88c00515 	stw	r3,20(r17)
  805b78:	903fe71e 	bne	r18,zero,805b18 <__d2b+0xa4>
  805b7c:	800690ba 	slli	r3,r16,2
  805b80:	10bef384 	addi	r2,r2,-1074
  805b84:	98800015 	stw	r2,0(r19)
  805b88:	88c5883a 	add	r2,r17,r3
  805b8c:	11000417 	ldw	r4,16(r2)
  805b90:	8020917a 	slli	r16,r16,5
  805b94:	0804f340 	call	804f34 <__hi0bits>
  805b98:	80a1c83a 	sub	r16,r16,r2
  805b9c:	d8800817 	ldw	r2,32(sp)
  805ba0:	14000015 	stw	r16,0(r2)
  805ba4:	003fe306 	br	805b34 <__d2b+0xc0>
  805ba8:	04000084 	movi	r16,2
  805bac:	003fd806 	br	805b10 <__d2b+0x9c>
  805bb0:	d9000017 	ldw	r4,0(sp)
  805bb4:	89000515 	stw	r4,20(r17)
  805bb8:	003fd206 	br	805b04 <__d2b+0x90>
  805bbc:	01c02074 	movhi	r7,129
  805bc0:	01002074 	movhi	r4,129
  805bc4:	39fabb04 	addi	r7,r7,-5396
  805bc8:	000d883a 	mov	r6,zero
  805bcc:	0140c284 	movi	r5,778
  805bd0:	213ad004 	addi	r4,r4,-5312
  805bd4:	08071240 	call	807124 <__assert_func>

00805bd8 <__ratio>:
  805bd8:	defff904 	addi	sp,sp,-28
  805bdc:	dc400315 	stw	r17,12(sp)
  805be0:	2823883a 	mov	r17,r5
  805be4:	d80b883a 	mov	r5,sp
  805be8:	dfc00615 	stw	ra,24(sp)
  805bec:	dcc00515 	stw	r19,20(sp)
  805bf0:	dc800415 	stw	r18,16(sp)
  805bf4:	2027883a 	mov	r19,r4
  805bf8:	dc000215 	stw	r16,8(sp)
  805bfc:	080596c0 	call	80596c <__b2d>
  805c00:	d9400104 	addi	r5,sp,4
  805c04:	8809883a 	mov	r4,r17
  805c08:	1025883a 	mov	r18,r2
  805c0c:	1821883a 	mov	r16,r3
  805c10:	080596c0 	call	80596c <__b2d>
  805c14:	89000417 	ldw	r4,16(r17)
  805c18:	9a000417 	ldw	r8,16(r19)
  805c1c:	d9400117 	ldw	r5,4(sp)
  805c20:	100d883a 	mov	r6,r2
  805c24:	4111c83a 	sub	r8,r8,r4
  805c28:	d9000017 	ldw	r4,0(sp)
  805c2c:	4010917a 	slli	r8,r8,5
  805c30:	180f883a 	mov	r7,r3
  805c34:	2149c83a 	sub	r4,r4,r5
  805c38:	4111883a 	add	r8,r8,r4
  805c3c:	02000c0e 	bge	zero,r8,805c70 <__ratio+0x98>
  805c40:	4010953a 	slli	r8,r8,20
